	.file	"am_map.c"
# GNU C17 (Ubuntu 13.3.0-6ubuntu2~24.04) version 13.3.0 (x86_64-linux-gnu)
#	compiled by GNU C version 13.3.0, GMP version 6.3.0, MPFR version 4.2.1, MPC version 1.3.1, isl version isl-0.26-GMP

# GGC heuristics: --param ggc-min-expand=100 --param ggc-min-heapsize=131072
# options passed: -mtune=generic -march=x86-64 -g -fasynchronous-unwind-tables -fstack-protector-strong -fstack-clash-protection -fcf-protection
	.text
.Ltext0:
	.file 0 "/home/astrid/Documents/enseignements/DOOM/linuxdoom-1.10" "am_map.c"
	.section	.rodata
	.align 32
	.type	rcsid, @object
	.size	rcsid, 49
rcsid:
	.string	"$Id: am_map.c,v 1.4 1997/02/03 21:24:33 b1 Exp $"
	.globl	player_arrow
	.data
	.align 32
	.type	player_arrow, @object
	.size	player_arrow, 112
player_arrow:
# a:
# x:
	.long	-1048576
# y:
	.long	0
# b:
# x:
	.long	1198372
# y:
	.long	0
# a:
# x:
	.long	1198372
# y:
	.long	0
# b:
# x:
	.long	599186
# y:
	.long	299593
# a:
# x:
	.long	1198372
# y:
	.long	0
# b:
# x:
	.long	599186
# y:
	.long	-299593
# a:
# x:
	.long	-1048576
# y:
	.long	0
# b:
# x:
	.long	-1348168
# y:
	.long	299593
# a:
# x:
	.long	-1048576
# y:
	.long	0
# b:
# x:
	.long	-1348168
# y:
	.long	-299593
# a:
# x:
	.long	-748983
# y:
	.long	0
# b:
# x:
	.long	-1048576
# y:
	.long	299593
# a:
# x:
	.long	-748983
# y:
	.long	0
# b:
# x:
	.long	-1048576
# y:
	.long	-299593
	.globl	cheat_player_arrow
	.align 32
	.type	cheat_player_arrow, @object
	.size	cheat_player_arrow, 256
cheat_player_arrow:
# a:
# x:
	.long	-1048576
# y:
	.long	0
# b:
# x:
	.long	1198372
# y:
	.long	0
# a:
# x:
	.long	1198372
# y:
	.long	0
# b:
# x:
	.long	599186
# y:
	.long	199728
# a:
# x:
	.long	1198372
# y:
	.long	0
# b:
# x:
	.long	599186
# y:
	.long	-199728
# a:
# x:
	.long	-1048576
# y:
	.long	0
# b:
# x:
	.long	-1348168
# y:
	.long	199728
# a:
# x:
	.long	-1048576
# y:
	.long	0
# b:
# x:
	.long	-1348168
# y:
	.long	-199728
# a:
# x:
	.long	-748983
# y:
	.long	0
# b:
# x:
	.long	-1048576
# y:
	.long	199728
# a:
# x:
	.long	-748983
# y:
	.long	0
# b:
# x:
	.long	-1048576
# y:
	.long	-199728
# a:
# x:
	.long	-599186
# y:
	.long	0
# b:
# x:
	.long	-599186
# y:
	.long	-199728
# a:
# x:
	.long	-599186
# y:
	.long	-199728
# b:
# x:
	.long	-399458
# y:
	.long	-199728
# a:
# x:
	.long	-399458
# y:
	.long	-199728
# b:
# x:
	.long	-399458
# y:
	.long	299593
# a:
# x:
	.long	-199728
# y:
	.long	0
# b:
# x:
	.long	-199728
# y:
	.long	-199728
# a:
# x:
	.long	-199728
# y:
	.long	-199728
# b:
# x:
	.long	0
# y:
	.long	-199728
# a:
# x:
	.long	0
# y:
	.long	-199728
# b:
# x:
	.long	0
# y:
	.long	299593
# a:
# x:
	.long	199728
# y:
	.long	299593
# b:
# x:
	.long	199728
# y:
	.long	-171196
# a:
# x:
	.long	199728
# y:
	.long	-171196
# b:
# x:
	.long	237177
# y:
	.long	-208645
# a:
# x:
	.long	237177
# y:
	.long	-208645
# b:
# x:
	.long	319565
# y:
	.long	-171196
	.globl	triangle_guy
	.align 32
	.type	triangle_guy, @object
	.size	triangle_guy, 48
triangle_guy:
# a:
# x:
	.long	-56819
# y:
	.long	-32768
# b:
# x:
	.long	56819
# y:
	.long	-32768
# a:
# x:
	.long	56819
# y:
	.long	-32768
# b:
# x:
	.long	0
# y:
	.long	65536
# a:
# x:
	.long	0
# y:
	.long	65536
# b:
# x:
	.long	-56819
# y:
	.long	-32768
	.globl	thintriangle_guy
	.align 32
	.type	thintriangle_guy, @object
	.size	thintriangle_guy, 48
thintriangle_guy:
# a:
# x:
	.long	-32768
# y:
	.long	-45875
# b:
# x:
	.long	65536
# y:
	.long	0
# a:
# x:
	.long	65536
# y:
	.long	0
# b:
# x:
	.long	-32768
# y:
	.long	45875
# a:
# x:
	.long	-32768
# y:
	.long	45875
# b:
# x:
	.long	-32768
# y:
	.long	-45875
	.local	cheating
	.comm	cheating,4,4
	.local	grid
	.comm	grid,4,4
	.align 4
	.type	leveljuststarted, @object
	.size	leveljuststarted, 4
leveljuststarted:
	.long	1
	.globl	automapactive
	.bss
	.align 4
	.type	automapactive, @object
	.size	automapactive, 4
automapactive:
	.zero	4
	.data
	.align 4
	.type	finit_width, @object
	.size	finit_width, 4
finit_width:
	.long	320
	.align 4
	.type	finit_height, @object
	.size	finit_height, 4
finit_height:
	.long	168
	.local	f_x
	.comm	f_x,4,4
	.local	f_y
	.comm	f_y,4,4
	.local	f_w
	.comm	f_w,4,4
	.local	f_h
	.comm	f_h,4,4
	.local	lightlev
	.comm	lightlev,4,4
	.local	fb
	.comm	fb,8,8
	.local	amclock
	.comm	amclock,4,4
	.local	m_paninc
	.comm	m_paninc,8,8
	.local	mtof_zoommul
	.comm	mtof_zoommul,4,4
	.local	ftom_zoommul
	.comm	ftom_zoommul,4,4
	.local	m_x
	.comm	m_x,4,4
	.local	m_y
	.comm	m_y,4,4
	.local	m_x2
	.comm	m_x2,4,4
	.local	m_y2
	.comm	m_y2,4,4
	.local	m_w
	.comm	m_w,4,4
	.local	m_h
	.comm	m_h,4,4
	.local	min_x
	.comm	min_x,4,4
	.local	min_y
	.comm	min_y,4,4
	.local	max_x
	.comm	max_x,4,4
	.local	max_y
	.comm	max_y,4,4
	.local	max_w
	.comm	max_w,4,4
	.local	max_h
	.comm	max_h,4,4
	.local	min_w
	.comm	min_w,4,4
	.local	min_h
	.comm	min_h,4,4
	.local	min_scale_mtof
	.comm	min_scale_mtof,4,4
	.local	max_scale_mtof
	.comm	max_scale_mtof,4,4
	.local	old_m_w
	.comm	old_m_w,4,4
	.local	old_m_h
	.comm	old_m_h,4,4
	.local	old_m_x
	.comm	old_m_x,4,4
	.local	old_m_y
	.comm	old_m_y,4,4
	.local	f_oldloc
	.comm	f_oldloc,8,8
	.align 4
	.type	scale_mtof, @object
	.size	scale_mtof, 4
scale_mtof:
	.long	13107
	.local	scale_ftom
	.comm	scale_ftom,4,4
	.local	plr
	.comm	plr,8,8
	.local	marknums
	.comm	marknums,80,32
	.local	markpoints
	.comm	markpoints,80,32
	.local	markpointnum
	.comm	markpointnum,4,4
	.align 4
	.type	followplayer, @object
	.size	followplayer, 4
followplayer:
	.long	1
	.type	cheat_amap_seq, @object
	.size	cheat_amap_seq, 5
cheat_amap_seq:
	.ascii	"\262&&.\377"
	.section	.data.rel.local,"aw"
	.align 16
	.type	cheat_amap, @object
	.size	cheat_amap, 16
cheat_amap:
# sequence:
	.quad	cheat_amap_seq
# p:
	.quad	0
	.data
	.align 4
	.type	stopped, @object
	.size	stopped, 4
stopped:
	.long	1
	.text
	.globl	AM_getIslope
	.type	AM_getIslope, @function
AM_getIslope:
.LFB0:
	.file 1 "am_map.c"
	.loc 1 312 1
	.cfi_startproc
	endbr64	
	pushq	%rbp	#
	.cfi_def_cfa_offset 16
	.cfi_offset 6, -16
	movq	%rsp, %rbp	#,
	.cfi_def_cfa_register 6
	subq	$32, %rsp	#,
	movq	%rdi, -24(%rbp)	# ml, ml
	movq	%rsi, -32(%rbp)	# is, is
# am_map.c:315:     dy = ml->a.y - ml->b.y;
	.loc 1 315 15
	movq	-24(%rbp), %rax	# ml, tmp90
	movl	4(%rax), %edx	# ml_12(D)->a.y, _1
# am_map.c:315:     dy = ml->a.y - ml->b.y;
	.loc 1 315 25
	movq	-24(%rbp), %rax	# ml, tmp91
	movl	12(%rax), %eax	# ml_12(D)->b.y, _2
# am_map.c:315:     dy = ml->a.y - ml->b.y;
	.loc 1 315 8
	subl	%eax, %edx	# _2, tmp92
	movl	%edx, -8(%rbp)	# tmp92, dy
# am_map.c:316:     dx = ml->b.x - ml->a.x;
	.loc 1 316 15
	movq	-24(%rbp), %rax	# ml, tmp93
	movl	8(%rax), %edx	# ml_12(D)->b.x, _3
# am_map.c:316:     dx = ml->b.x - ml->a.x;
	.loc 1 316 25
	movq	-24(%rbp), %rax	# ml, tmp94
	movl	(%rax), %eax	# ml_12(D)->a.x, _4
# am_map.c:316:     dx = ml->b.x - ml->a.x;
	.loc 1 316 8
	subl	%eax, %edx	# _4, tmp95
	movl	%edx, -4(%rbp)	# tmp95, dx
# am_map.c:317:     if (!dy) is->islp = (dx<0?-MAXINT:MAXINT);
	.loc 1 317 8
	cmpl	$0, -8(%rbp)	#, dy
	jne	.L2	#,
# am_map.c:317:     if (!dy) is->islp = (dx<0?-MAXINT:MAXINT);
	.loc 1 317 38 discriminator 1
	cmpl	$0, -4(%rbp)	#, dx
	jns	.L3	#,
# am_map.c:317:     if (!dy) is->islp = (dx<0?-MAXINT:MAXINT);
	.loc 1 317 38 is_stmt 0 discriminator 2
	movl	$-2147483647, %edx	#, iftmp.0_7
	jmp	.L4	#
.L3:
# am_map.c:317:     if (!dy) is->islp = (dx<0?-MAXINT:MAXINT);
	.loc 1 317 38 discriminator 3
	movl	$2147483647, %edx	#, iftmp.0_7
.L4:
# am_map.c:317:     if (!dy) is->islp = (dx<0?-MAXINT:MAXINT);
	.loc 1 317 23 is_stmt 1 discriminator 5
	movq	-32(%rbp), %rax	# is, tmp96
	movl	%edx, 4(%rax)	# iftmp.0_7, is_16(D)->islp
	jmp	.L5	#
.L2:
# am_map.c:318:     else is->islp = FixedDiv(dx, dy);
	.loc 1 318 21
	movl	-8(%rbp), %edx	# dy, tmp97
	movl	-4(%rbp), %eax	# dx, tmp98
	movl	%edx, %esi	# tmp97,
	movl	%eax, %edi	# tmp98,
	call	FixedDiv@PLT	#
# am_map.c:318:     else is->islp = FixedDiv(dx, dy);
	.loc 1 318 19 discriminator 1
	movq	-32(%rbp), %rdx	# is, tmp99
	movl	%eax, 4(%rdx)	# _5, is_16(D)->islp
.L5:
# am_map.c:319:     if (!dx) is->slp = (dy<0?-MAXINT:MAXINT);
	.loc 1 319 8
	cmpl	$0, -4(%rbp)	#, dx
	jne	.L6	#,
# am_map.c:319:     if (!dx) is->slp = (dy<0?-MAXINT:MAXINT);
	.loc 1 319 37 discriminator 1
	cmpl	$0, -8(%rbp)	#, dy
	jns	.L7	#,
# am_map.c:319:     if (!dx) is->slp = (dy<0?-MAXINT:MAXINT);
	.loc 1 319 37 is_stmt 0 discriminator 2
	movl	$-2147483647, %edx	#, iftmp.1_8
	jmp	.L8	#
.L7:
# am_map.c:319:     if (!dx) is->slp = (dy<0?-MAXINT:MAXINT);
	.loc 1 319 37 discriminator 3
	movl	$2147483647, %edx	#, iftmp.1_8
.L8:
# am_map.c:319:     if (!dx) is->slp = (dy<0?-MAXINT:MAXINT);
	.loc 1 319 22 is_stmt 1 discriminator 5
	movq	-32(%rbp), %rax	# is, tmp100
	movl	%edx, (%rax)	# iftmp.1_8, is_16(D)->slp
# am_map.c:322: }
	.loc 1 322 1
	jmp	.L10	#
.L6:
# am_map.c:320:     else is->slp = FixedDiv(dy, dx);
	.loc 1 320 20
	movl	-4(%rbp), %edx	# dx, tmp101
	movl	-8(%rbp), %eax	# dy, tmp102
	movl	%edx, %esi	# tmp101,
	movl	%eax, %edi	# tmp102,
	call	FixedDiv@PLT	#
# am_map.c:320:     else is->slp = FixedDiv(dy, dx);
	.loc 1 320 18 discriminator 1
	movq	-32(%rbp), %rdx	# is, tmp103
	movl	%eax, (%rdx)	# _6, is_16(D)->slp
.L10:
# am_map.c:322: }
	.loc 1 322 1
	nop	
	leave	
	.cfi_def_cfa 7, 8
	ret	
	.cfi_endproc
.LFE0:
	.size	AM_getIslope, .-AM_getIslope
	.globl	AM_activateNewScale
	.type	AM_activateNewScale, @function
AM_activateNewScale:
.LFB1:
	.loc 1 328 1
	.cfi_startproc
	endbr64	
	pushq	%rbp	#
	.cfi_def_cfa_offset 16
	.cfi_offset 6, -16
	movq	%rsp, %rbp	#,
	.cfi_def_cfa_register 6
# am_map.c:329:     m_x += m_w/2;
	.loc 1 329 15
	movl	m_w(%rip), %eax	# m_w, m_w.2_1
	movl	%eax, %edx	# m_w.2_1, tmp112
	shrl	$31, %edx	#, tmp112
	addl	%edx, %eax	# tmp112, tmp113
	sarl	%eax	# tmp114
	movl	%eax, %edx	# tmp114, _2
# am_map.c:329:     m_x += m_w/2;
	.loc 1 329 9
	movl	m_x(%rip), %eax	# m_x, m_x.3_3
	addl	%edx, %eax	# _2, _4
	movl	%eax, m_x(%rip)	# _4, m_x
# am_map.c:330:     m_y += m_h/2;
	.loc 1 330 15
	movl	m_h(%rip), %eax	# m_h, m_h.4_5
	movl	%eax, %edx	# m_h.4_5, tmp115
	shrl	$31, %edx	#, tmp115
	addl	%edx, %eax	# tmp115, tmp116
	sarl	%eax	# tmp117
	movl	%eax, %edx	# tmp117, _6
# am_map.c:330:     m_y += m_h/2;
	.loc 1 330 9
	movl	m_y(%rip), %eax	# m_y, m_y.5_7
	addl	%edx, %eax	# _6, _8
	movl	%eax, m_y(%rip)	# _8, m_y
# am_map.c:331:     m_w = FTOM(f_w);
	.loc 1 331 11
	movl	scale_ftom(%rip), %eax	# scale_ftom, scale_ftom.6_9
	movl	f_w(%rip), %edx	# f_w, f_w.7_10
	sall	$16, %edx	#, _11
	movl	%eax, %esi	# scale_ftom.6_9,
	movl	%edx, %edi	# _11,
	call	FixedMul@PLT	#
# am_map.c:331:     m_w = FTOM(f_w);
	.loc 1 331 9 discriminator 1
	movl	%eax, m_w(%rip)	# _12, m_w
# am_map.c:332:     m_h = FTOM(f_h);
	.loc 1 332 11
	movl	scale_ftom(%rip), %eax	# scale_ftom, scale_ftom.8_13
	movl	f_h(%rip), %edx	# f_h, f_h.9_14
	sall	$16, %edx	#, _15
	movl	%eax, %esi	# scale_ftom.8_13,
	movl	%edx, %edi	# _15,
	call	FixedMul@PLT	#
# am_map.c:332:     m_h = FTOM(f_h);
	.loc 1 332 9 discriminator 1
	movl	%eax, m_h(%rip)	# _16, m_h
# am_map.c:333:     m_x -= m_w/2;
	.loc 1 333 15
	movl	m_w(%rip), %eax	# m_w, m_w.10_17
	movl	%eax, %edx	# m_w.10_17, tmp118
	shrl	$31, %edx	#, tmp118
	addl	%edx, %eax	# tmp118, tmp119
	sarl	%eax	# tmp120
	negl	%eax	# tmp120
	movl	%eax, %edx	# tmp120, _18
# am_map.c:333:     m_x -= m_w/2;
	.loc 1 333 9
	movl	m_x(%rip), %eax	# m_x, m_x.11_19
	addl	%edx, %eax	# _18, _20
	movl	%eax, m_x(%rip)	# _20, m_x
# am_map.c:334:     m_y -= m_h/2;
	.loc 1 334 15
	movl	m_h(%rip), %eax	# m_h, m_h.12_21
	movl	%eax, %edx	# m_h.12_21, tmp121
	shrl	$31, %edx	#, tmp121
	addl	%edx, %eax	# tmp121, tmp122
	sarl	%eax	# tmp123
	negl	%eax	# tmp123
	movl	%eax, %edx	# tmp123, _22
# am_map.c:334:     m_y -= m_h/2;
	.loc 1 334 9
	movl	m_y(%rip), %eax	# m_y, m_y.13_23
	addl	%edx, %eax	# _22, _24
	movl	%eax, m_y(%rip)	# _24, m_y
# am_map.c:335:     m_x2 = m_x + m_w;
	.loc 1 335 16
	movl	m_x(%rip), %edx	# m_x, m_x.14_25
	movl	m_w(%rip), %eax	# m_w, m_w.15_26
	addl	%edx, %eax	# m_x.14_25, _27
# am_map.c:335:     m_x2 = m_x + m_w;
	.loc 1 335 10
	movl	%eax, m_x2(%rip)	# _27, m_x2
# am_map.c:336:     m_y2 = m_y + m_h;
	.loc 1 336 16
	movl	m_y(%rip), %edx	# m_y, m_y.16_28
	movl	m_h(%rip), %eax	# m_h, m_h.17_29
	addl	%edx, %eax	# m_y.16_28, _30
# am_map.c:336:     m_y2 = m_y + m_h;
	.loc 1 336 10
	movl	%eax, m_y2(%rip)	# _30, m_y2
# am_map.c:337: }
	.loc 1 337 1
	nop	
	popq	%rbp	#
	.cfi_def_cfa 7, 8
	ret	
	.cfi_endproc
.LFE1:
	.size	AM_activateNewScale, .-AM_activateNewScale
	.globl	AM_saveScaleAndLoc
	.type	AM_saveScaleAndLoc, @function
AM_saveScaleAndLoc:
.LFB2:
	.loc 1 343 1
	.cfi_startproc
	endbr64	
	pushq	%rbp	#
	.cfi_def_cfa_offset 16
	.cfi_offset 6, -16
	movq	%rsp, %rbp	#,
	.cfi_def_cfa_register 6
# am_map.c:344:     old_m_x = m_x;
	.loc 1 344 13
	movl	m_x(%rip), %eax	# m_x, m_x.18_1
	movl	%eax, old_m_x(%rip)	# m_x.18_1, old_m_x
# am_map.c:345:     old_m_y = m_y;
	.loc 1 345 13
	movl	m_y(%rip), %eax	# m_y, m_y.19_2
	movl	%eax, old_m_y(%rip)	# m_y.19_2, old_m_y
# am_map.c:346:     old_m_w = m_w;
	.loc 1 346 13
	movl	m_w(%rip), %eax	# m_w, m_w.20_3
	movl	%eax, old_m_w(%rip)	# m_w.20_3, old_m_w
# am_map.c:347:     old_m_h = m_h;
	.loc 1 347 13
	movl	m_h(%rip), %eax	# m_h, m_h.21_4
	movl	%eax, old_m_h(%rip)	# m_h.21_4, old_m_h
# am_map.c:348: }
	.loc 1 348 1
	nop	
	popq	%rbp	#
	.cfi_def_cfa 7, 8
	ret	
	.cfi_endproc
.LFE2:
	.size	AM_saveScaleAndLoc, .-AM_saveScaleAndLoc
	.globl	AM_restoreScaleAndLoc
	.type	AM_restoreScaleAndLoc, @function
AM_restoreScaleAndLoc:
.LFB3:
	.loc 1 354 1
	.cfi_startproc
	endbr64	
	pushq	%rbp	#
	.cfi_def_cfa_offset 16
	.cfi_offset 6, -16
	movq	%rsp, %rbp	#,
	.cfi_def_cfa_register 6
# am_map.c:356:     m_w = old_m_w;
	.loc 1 356 9
	movl	old_m_w(%rip), %eax	# old_m_w, old_m_w.22_1
	movl	%eax, m_w(%rip)	# old_m_w.22_1, m_w
# am_map.c:357:     m_h = old_m_h;
	.loc 1 357 9
	movl	old_m_h(%rip), %eax	# old_m_h, old_m_h.23_2
	movl	%eax, m_h(%rip)	# old_m_h.23_2, m_h
# am_map.c:358:     if (!followplayer)
	.loc 1 358 9
	movl	followplayer(%rip), %eax	# followplayer, followplayer.24_3
# am_map.c:358:     if (!followplayer)
	.loc 1 358 8
	testl	%eax, %eax	# followplayer.24_3
	jne	.L14	#,
# am_map.c:360: 	m_x = old_m_x;
	.loc 1 360 6
	movl	old_m_x(%rip), %eax	# old_m_x, old_m_x.25_4
	movl	%eax, m_x(%rip)	# old_m_x.25_4, m_x
# am_map.c:361: 	m_y = old_m_y;
	.loc 1 361 6
	movl	old_m_y(%rip), %eax	# old_m_y, old_m_y.26_5
	movl	%eax, m_y(%rip)	# old_m_y.26_5, m_y
	jmp	.L15	#
.L14:
# am_map.c:363: 	m_x = plr->mo->x - m_w/2;
	.loc 1 363 11
	movq	plr(%rip), %rax	# plr, plr.27_6
	movq	(%rax), %rax	# plr.27_6->mo, _7
# am_map.c:363: 	m_x = plr->mo->x - m_w/2;
	.loc 1 363 15
	movl	24(%rax), %edx	# _7->x, _8
# am_map.c:363: 	m_x = plr->mo->x - m_w/2;
	.loc 1 363 24
	movl	m_w(%rip), %eax	# m_w, m_w.28_9
	movl	%eax, %ecx	# m_w.28_9, tmp111
	shrl	$31, %ecx	#, tmp111
	addl	%ecx, %eax	# tmp111, tmp112
	sarl	%eax	# tmp113
	negl	%eax	# tmp113
# am_map.c:363: 	m_x = plr->mo->x - m_w/2;
	.loc 1 363 19
	addl	%edx, %eax	# _8, _11
# am_map.c:363: 	m_x = plr->mo->x - m_w/2;
	.loc 1 363 6
	movl	%eax, m_x(%rip)	# _11, m_x
# am_map.c:364: 	m_y = plr->mo->y - m_h/2;
	.loc 1 364 11
	movq	plr(%rip), %rax	# plr, plr.29_12
	movq	(%rax), %rax	# plr.29_12->mo, _13
# am_map.c:364: 	m_y = plr->mo->y - m_h/2;
	.loc 1 364 15
	movl	28(%rax), %edx	# _13->y, _14
# am_map.c:364: 	m_y = plr->mo->y - m_h/2;
	.loc 1 364 24
	movl	m_h(%rip), %eax	# m_h, m_h.30_15
	movl	%eax, %ecx	# m_h.30_15, tmp114
	shrl	$31, %ecx	#, tmp114
	addl	%ecx, %eax	# tmp114, tmp115
	sarl	%eax	# tmp116
	negl	%eax	# tmp116
# am_map.c:364: 	m_y = plr->mo->y - m_h/2;
	.loc 1 364 19
	addl	%edx, %eax	# _14, _17
# am_map.c:364: 	m_y = plr->mo->y - m_h/2;
	.loc 1 364 6
	movl	%eax, m_y(%rip)	# _17, m_y
.L15:
# am_map.c:366:     m_x2 = m_x + m_w;
	.loc 1 366 16
	movl	m_x(%rip), %edx	# m_x, m_x.31_18
	movl	m_w(%rip), %eax	# m_w, m_w.32_19
	addl	%edx, %eax	# m_x.31_18, _20
# am_map.c:366:     m_x2 = m_x + m_w;
	.loc 1 366 10
	movl	%eax, m_x2(%rip)	# _20, m_x2
# am_map.c:367:     m_y2 = m_y + m_h;
	.loc 1 367 16
	movl	m_y(%rip), %edx	# m_y, m_y.33_21
	movl	m_h(%rip), %eax	# m_h, m_h.34_22
	addl	%edx, %eax	# m_y.33_21, _23
# am_map.c:367:     m_y2 = m_y + m_h;
	.loc 1 367 10
	movl	%eax, m_y2(%rip)	# _23, m_y2
# am_map.c:370:     scale_mtof = FixedDiv(f_w<<FRACBITS, m_w);
	.loc 1 370 18
	movl	m_w(%rip), %eax	# m_w, m_w.35_24
	movl	f_w(%rip), %edx	# f_w, f_w.36_25
	sall	$16, %edx	#, _26
	movl	%eax, %esi	# m_w.35_24,
	movl	%edx, %edi	# _26,
	call	FixedDiv@PLT	#
# am_map.c:370:     scale_mtof = FixedDiv(f_w<<FRACBITS, m_w);
	.loc 1 370 16 discriminator 1
	movl	%eax, scale_mtof(%rip)	# _27, scale_mtof
# am_map.c:371:     scale_ftom = FixedDiv(FRACUNIT, scale_mtof);
	.loc 1 371 18
	movl	scale_mtof(%rip), %eax	# scale_mtof, scale_mtof.37_28
	movl	%eax, %esi	# scale_mtof.37_28,
	movl	$65536, %edi	#,
	call	FixedDiv@PLT	#
# am_map.c:371:     scale_ftom = FixedDiv(FRACUNIT, scale_mtof);
	.loc 1 371 16 discriminator 1
	movl	%eax, scale_ftom(%rip)	# _29, scale_ftom
# am_map.c:372: }
	.loc 1 372 1
	nop	
	popq	%rbp	#
	.cfi_def_cfa 7, 8
	ret	
	.cfi_endproc
.LFE3:
	.size	AM_restoreScaleAndLoc, .-AM_restoreScaleAndLoc
	.globl	AM_addMark
	.type	AM_addMark, @function
AM_addMark:
.LFB4:
	.loc 1 378 1
	.cfi_startproc
	endbr64	
	pushq	%rbp	#
	.cfi_def_cfa_offset 16
	.cfi_offset 6, -16
	movq	%rsp, %rbp	#,
	.cfi_def_cfa_register 6
# am_map.c:379:     markpoints[markpointnum].x = m_x + m_w/2;
	.loc 1 379 43
	movl	m_w(%rip), %eax	# m_w, m_w.38_1
	movl	%eax, %edx	# m_w.38_1, tmp95
	shrl	$31, %edx	#, tmp95
	addl	%edx, %eax	# tmp95, tmp96
	sarl	%eax	# tmp97
	movl	%eax, %ecx	# tmp97, _2
# am_map.c:379:     markpoints[markpointnum].x = m_x + m_w/2;
	.loc 1 379 38
	movl	m_x(%rip), %edx	# m_x, m_x.39_3
# am_map.c:379:     markpoints[markpointnum].x = m_x + m_w/2;
	.loc 1 379 29
	movl	markpointnum(%rip), %eax	# markpointnum, markpointnum.40_4
# am_map.c:379:     markpoints[markpointnum].x = m_x + m_w/2;
	.loc 1 379 38
	addl	%edx, %ecx	# m_x.39_3, _5
# am_map.c:379:     markpoints[markpointnum].x = m_x + m_w/2;
	.loc 1 379 32
	cltq
	leaq	0(,%rax,8), %rdx	#, tmp99
	leaq	markpoints(%rip), %rax	#, tmp100
	movl	%ecx, (%rdx,%rax)	# _5, markpoints[markpointnum.40_4].x
# am_map.c:380:     markpoints[markpointnum].y = m_y + m_h/2;
	.loc 1 380 43
	movl	m_h(%rip), %eax	# m_h, m_h.41_6
	movl	%eax, %edx	# m_h.41_6, tmp101
	shrl	$31, %edx	#, tmp101
	addl	%edx, %eax	# tmp101, tmp102
	sarl	%eax	# tmp103
	movl	%eax, %ecx	# tmp103, _7
# am_map.c:380:     markpoints[markpointnum].y = m_y + m_h/2;
	.loc 1 380 38
	movl	m_y(%rip), %edx	# m_y, m_y.42_8
# am_map.c:380:     markpoints[markpointnum].y = m_y + m_h/2;
	.loc 1 380 29
	movl	markpointnum(%rip), %eax	# markpointnum, markpointnum.43_9
# am_map.c:380:     markpoints[markpointnum].y = m_y + m_h/2;
	.loc 1 380 38
	addl	%edx, %ecx	# m_y.42_8, _10
# am_map.c:380:     markpoints[markpointnum].y = m_y + m_h/2;
	.loc 1 380 32
	cltq
	leaq	0(,%rax,8), %rdx	#, tmp105
	leaq	4+markpoints(%rip), %rax	#, tmp106
	movl	%ecx, (%rdx,%rax)	# _10, markpoints[markpointnum.43_9].y
# am_map.c:381:     markpointnum = (markpointnum + 1) % AM_NUMMARKPOINTS;
	.loc 1 381 34
	movl	markpointnum(%rip), %eax	# markpointnum, markpointnum.44_11
	leal	1(%rax), %ecx	#, _12
# am_map.c:381:     markpointnum = (markpointnum + 1) % AM_NUMMARKPOINTS;
	.loc 1 381 39
	movslq	%ecx, %rax	# _12, tmp107
	imulq	$1717986919, %rax, %rax	#, tmp107, tmp108
	shrq	$32, %rax	#, tmp109
	movl	%eax, %edx	# tmp109, tmp110
	sarl	$2, %edx	#, tmp110
	movl	%ecx, %eax	# _12, tmp111
	sarl	$31, %eax	#, tmp111
	subl	%eax, %edx	# tmp111, _13
	movl	%edx, %eax	# _13, tmp112
	sall	$2, %eax	#, tmp112
	addl	%edx, %eax	# _13, tmp112
	addl	%eax, %eax	# tmp113
	subl	%eax, %ecx	# tmp112, _12
	movl	%ecx, %edx	# _12, _13
# am_map.c:381:     markpointnum = (markpointnum + 1) % AM_NUMMARKPOINTS;
	.loc 1 381 18
	movl	%edx, markpointnum(%rip)	# _13, markpointnum
# am_map.c:383: }
	.loc 1 383 1
	nop	
	popq	%rbp	#
	.cfi_def_cfa 7, 8
	ret	
	.cfi_endproc
.LFE4:
	.size	AM_addMark, .-AM_addMark
	.globl	AM_findMinMaxBoundaries
	.type	AM_findMinMaxBoundaries, @function
AM_findMinMaxBoundaries:
.LFB5:
	.loc 1 390 1
	.cfi_startproc
	endbr64	
	pushq	%rbp	#
	.cfi_def_cfa_offset 16
	.cfi_offset 6, -16
	movq	%rsp, %rbp	#,
	.cfi_def_cfa_register 6
	subq	$16, %rsp	#,
# am_map.c:395:     min_x = min_y =  MAXINT;
	.loc 1 395 19
	movl	$2147483647, min_y(%rip)	#, min_y
# am_map.c:395:     min_x = min_y =  MAXINT;
	.loc 1 395 11
	movl	min_y(%rip), %eax	# min_y, min_y.45_1
	movl	%eax, min_x(%rip)	# min_y.45_1, min_x
# am_map.c:396:     max_x = max_y = -MAXINT;
	.loc 1 396 19
	movl	$-2147483647, max_y(%rip)	#, max_y
# am_map.c:396:     max_x = max_y = -MAXINT;
	.loc 1 396 11
	movl	max_y(%rip), %eax	# max_y, max_y.46_2
	movl	%eax, max_x(%rip)	# max_y.46_2, max_x
# am_map.c:398:     for (i=0;i<numvertexes;i++)
	.loc 1 398 11
	movl	$0, -12(%rbp)	#, i
# am_map.c:398:     for (i=0;i<numvertexes;i++)
	.loc 1 398 5
	jmp	.L18	#
.L23:
# am_map.c:400: 	if (vertexes[i].x < min_x)
	.loc 1 400 14
	movq	vertexes(%rip), %rax	# vertexes, vertexes.47_3
	movl	-12(%rbp), %edx	# i, tmp145
	movslq	%edx, %rdx	# tmp145, _4
	salq	$3, %rdx	#, _5
	addq	%rdx, %rax	# _5, _6
# am_map.c:400: 	if (vertexes[i].x < min_x)
	.loc 1 400 17
	movl	(%rax), %edx	# _6->x, _7
# am_map.c:400: 	if (vertexes[i].x < min_x)
	.loc 1 400 20
	movl	min_x(%rip), %eax	# min_x, min_x.48_8
# am_map.c:400: 	if (vertexes[i].x < min_x)
	.loc 1 400 5
	cmpl	%eax, %edx	# min_x.48_8, _7
	jge	.L19	#,
# am_map.c:401: 	    min_x = vertexes[i].x;
	.loc 1 401 22
	movq	vertexes(%rip), %rax	# vertexes, vertexes.49_9
	movl	-12(%rbp), %edx	# i, tmp146
	movslq	%edx, %rdx	# tmp146, _10
	salq	$3, %rdx	#, _11
	addq	%rdx, %rax	# _11, _12
# am_map.c:401: 	    min_x = vertexes[i].x;
	.loc 1 401 25
	movl	(%rax), %eax	# _12->x, _13
# am_map.c:401: 	    min_x = vertexes[i].x;
	.loc 1 401 12
	movl	%eax, min_x(%rip)	# _13, min_x
	jmp	.L20	#
.L19:
# am_map.c:402: 	else if (vertexes[i].x > max_x)
	.loc 1 402 19
	movq	vertexes(%rip), %rax	# vertexes, vertexes.50_14
	movl	-12(%rbp), %edx	# i, tmp147
	movslq	%edx, %rdx	# tmp147, _15
	salq	$3, %rdx	#, _16
	addq	%rdx, %rax	# _16, _17
# am_map.c:402: 	else if (vertexes[i].x > max_x)
	.loc 1 402 22
	movl	(%rax), %edx	# _17->x, _18
# am_map.c:402: 	else if (vertexes[i].x > max_x)
	.loc 1 402 25
	movl	max_x(%rip), %eax	# max_x, max_x.51_19
# am_map.c:402: 	else if (vertexes[i].x > max_x)
	.loc 1 402 10
	cmpl	%eax, %edx	# max_x.51_19, _18
	jle	.L20	#,
# am_map.c:403: 	    max_x = vertexes[i].x;
	.loc 1 403 22
	movq	vertexes(%rip), %rax	# vertexes, vertexes.52_20
	movl	-12(%rbp), %edx	# i, tmp148
	movslq	%edx, %rdx	# tmp148, _21
	salq	$3, %rdx	#, _22
	addq	%rdx, %rax	# _22, _23
# am_map.c:403: 	    max_x = vertexes[i].x;
	.loc 1 403 25
	movl	(%rax), %eax	# _23->x, _24
# am_map.c:403: 	    max_x = vertexes[i].x;
	.loc 1 403 12
	movl	%eax, max_x(%rip)	# _24, max_x
.L20:
# am_map.c:405: 	if (vertexes[i].y < min_y)
	.loc 1 405 14
	movq	vertexes(%rip), %rax	# vertexes, vertexes.53_25
	movl	-12(%rbp), %edx	# i, tmp149
	movslq	%edx, %rdx	# tmp149, _26
	salq	$3, %rdx	#, _27
	addq	%rdx, %rax	# _27, _28
# am_map.c:405: 	if (vertexes[i].y < min_y)
	.loc 1 405 17
	movl	4(%rax), %edx	# _28->y, _29
# am_map.c:405: 	if (vertexes[i].y < min_y)
	.loc 1 405 20
	movl	min_y(%rip), %eax	# min_y, min_y.54_30
# am_map.c:405: 	if (vertexes[i].y < min_y)
	.loc 1 405 5
	cmpl	%eax, %edx	# min_y.54_30, _29
	jge	.L21	#,
# am_map.c:406: 	    min_y = vertexes[i].y;
	.loc 1 406 22
	movq	vertexes(%rip), %rax	# vertexes, vertexes.55_31
	movl	-12(%rbp), %edx	# i, tmp150
	movslq	%edx, %rdx	# tmp150, _32
	salq	$3, %rdx	#, _33
	addq	%rdx, %rax	# _33, _34
# am_map.c:406: 	    min_y = vertexes[i].y;
	.loc 1 406 25
	movl	4(%rax), %eax	# _34->y, _35
# am_map.c:406: 	    min_y = vertexes[i].y;
	.loc 1 406 12
	movl	%eax, min_y(%rip)	# _35, min_y
	jmp	.L22	#
.L21:
# am_map.c:407: 	else if (vertexes[i].y > max_y)
	.loc 1 407 19
	movq	vertexes(%rip), %rax	# vertexes, vertexes.56_36
	movl	-12(%rbp), %edx	# i, tmp151
	movslq	%edx, %rdx	# tmp151, _37
	salq	$3, %rdx	#, _38
	addq	%rdx, %rax	# _38, _39
# am_map.c:407: 	else if (vertexes[i].y > max_y)
	.loc 1 407 22
	movl	4(%rax), %edx	# _39->y, _40
# am_map.c:407: 	else if (vertexes[i].y > max_y)
	.loc 1 407 25
	movl	max_y(%rip), %eax	# max_y, max_y.57_41
# am_map.c:407: 	else if (vertexes[i].y > max_y)
	.loc 1 407 10
	cmpl	%eax, %edx	# max_y.57_41, _40
	jle	.L22	#,
# am_map.c:408: 	    max_y = vertexes[i].y;
	.loc 1 408 22
	movq	vertexes(%rip), %rax	# vertexes, vertexes.58_42
	movl	-12(%rbp), %edx	# i, tmp152
	movslq	%edx, %rdx	# tmp152, _43
	salq	$3, %rdx	#, _44
	addq	%rdx, %rax	# _44, _45
# am_map.c:408: 	    max_y = vertexes[i].y;
	.loc 1 408 25
	movl	4(%rax), %eax	# _45->y, _46
# am_map.c:408: 	    max_y = vertexes[i].y;
	.loc 1 408 12
	movl	%eax, max_y(%rip)	# _46, max_y
.L22:
# am_map.c:398:     for (i=0;i<numvertexes;i++)
	.loc 1 398 29 discriminator 2
	addl	$1, -12(%rbp)	#, i
.L18:
# am_map.c:398:     for (i=0;i<numvertexes;i++)
	.loc 1 398 15 discriminator 1
	movl	numvertexes(%rip), %eax	# numvertexes, numvertexes.59_47
	cmpl	%eax, -12(%rbp)	# numvertexes.59_47, i
	jl	.L23	#,
# am_map.c:411:     max_w = max_x - min_x;
	.loc 1 411 19
	movl	max_x(%rip), %edx	# max_x, max_x.60_48
	movl	min_x(%rip), %eax	# min_x, min_x.61_49
	subl	%eax, %edx	# min_x.61_49, _50
# am_map.c:411:     max_w = max_x - min_x;
	.loc 1 411 11
	movl	%edx, max_w(%rip)	# _50, max_w
# am_map.c:412:     max_h = max_y - min_y;
	.loc 1 412 19
	movl	max_y(%rip), %edx	# max_y, max_y.62_51
	movl	min_y(%rip), %eax	# min_y, min_y.63_52
	subl	%eax, %edx	# min_y.63_52, _53
# am_map.c:412:     max_h = max_y - min_y;
	.loc 1 412 11
	movl	%edx, max_h(%rip)	# _53, max_h
# am_map.c:414:     min_w = 2*PLAYERRADIUS; // const? never changed?
	.loc 1 414 11
	movl	$2097152, min_w(%rip)	#, min_w
# am_map.c:415:     min_h = 2*PLAYERRADIUS;
	.loc 1 415 11
	movl	$2097152, min_h(%rip)	#, min_h
# am_map.c:417:     a = FixedDiv(f_w<<FRACBITS, max_w);
	.loc 1 417 9
	movl	max_w(%rip), %eax	# max_w, max_w.64_54
	movl	f_w(%rip), %edx	# f_w, f_w.65_55
	sall	$16, %edx	#, _56
	movl	%eax, %esi	# max_w.64_54,
	movl	%edx, %edi	# _56,
	call	FixedDiv@PLT	#
	movl	%eax, -8(%rbp)	# tmp153, a
# am_map.c:418:     b = FixedDiv(f_h<<FRACBITS, max_h);
	.loc 1 418 9
	movl	max_h(%rip), %eax	# max_h, max_h.66_57
	movl	f_h(%rip), %edx	# f_h, f_h.67_58
	sall	$16, %edx	#, _59
	movl	%eax, %esi	# max_h.66_57,
	movl	%edx, %edi	# _59,
	call	FixedDiv@PLT	#
	movl	%eax, -4(%rbp)	# tmp154, b
# am_map.c:420:     min_scale_mtof = a < b ? a : b;
	.loc 1 420 32
	movl	-4(%rbp), %edx	# b, tmp155
	movl	-8(%rbp), %eax	# a, tmp156
	cmpl	%eax, %edx	# tmp156, tmp155
	cmovle	%edx, %eax	# tmp155,, _60
# am_map.c:420:     min_scale_mtof = a < b ? a : b;
	.loc 1 420 20
	movl	%eax, min_scale_mtof(%rip)	# _60, min_scale_mtof
# am_map.c:421:     max_scale_mtof = FixedDiv(f_h<<FRACBITS, 2*PLAYERRADIUS);
	.loc 1 421 22
	movl	f_h(%rip), %eax	# f_h, f_h.68_61
	sall	$16, %eax	#, _62
	movl	$2097152, %esi	#,
	movl	%eax, %edi	# _62,
	call	FixedDiv@PLT	#
# am_map.c:421:     max_scale_mtof = FixedDiv(f_h<<FRACBITS, 2*PLAYERRADIUS);
	.loc 1 421 20 discriminator 1
	movl	%eax, max_scale_mtof(%rip)	# _63, max_scale_mtof
# am_map.c:423: }
	.loc 1 423 1
	nop	
	leave	
	.cfi_def_cfa 7, 8
	ret	
	.cfi_endproc
.LFE5:
	.size	AM_findMinMaxBoundaries, .-AM_findMinMaxBoundaries
	.globl	AM_changeWindowLoc
	.type	AM_changeWindowLoc, @function
AM_changeWindowLoc:
.LFB6:
	.loc 1 430 1
	.cfi_startproc
	endbr64	
	pushq	%rbp	#
	.cfi_def_cfa_offset 16
	.cfi_offset 6, -16
	movq	%rsp, %rbp	#,
	.cfi_def_cfa_register 6
# am_map.c:431:     if (m_paninc.x || m_paninc.y)
	.loc 1 431 17
	movl	m_paninc(%rip), %eax	# m_paninc.x, _1
# am_map.c:431:     if (m_paninc.x || m_paninc.y)
	.loc 1 431 8
	testl	%eax, %eax	# _1
	jne	.L25	#,
# am_map.c:431:     if (m_paninc.x || m_paninc.y)
	.loc 1 431 31 discriminator 1
	movl	4+m_paninc(%rip), %eax	# m_paninc.y, _2
# am_map.c:431:     if (m_paninc.x || m_paninc.y)
	.loc 1 431 20 discriminator 1
	testl	%eax, %eax	# _2
	je	.L26	#,
.L25:
# am_map.c:433: 	followplayer = 0;
	.loc 1 433 15
	movl	$0, followplayer(%rip)	#, followplayer
# am_map.c:434: 	f_oldloc.x = MAXINT;
	.loc 1 434 13
	movl	$2147483647, f_oldloc(%rip)	#, f_oldloc.x
.L26:
# am_map.c:437:     m_x += m_paninc.x;
	.loc 1 437 20
	movl	m_paninc(%rip), %edx	# m_paninc.x, _3
# am_map.c:437:     m_x += m_paninc.x;
	.loc 1 437 9
	movl	m_x(%rip), %eax	# m_x, m_x.69_4
	addl	%edx, %eax	# _3, _5
	movl	%eax, m_x(%rip)	# _5, m_x
# am_map.c:438:     m_y += m_paninc.y;
	.loc 1 438 20
	movl	4+m_paninc(%rip), %edx	# m_paninc.y, _6
# am_map.c:438:     m_y += m_paninc.y;
	.loc 1 438 9
	movl	m_y(%rip), %eax	# m_y, m_y.70_7
	addl	%edx, %eax	# _6, _8
	movl	%eax, m_y(%rip)	# _8, m_y
# am_map.c:440:     if (m_x + m_w/2 > max_x)
	.loc 1 440 18
	movl	m_w(%rip), %eax	# m_w, m_w.71_9
	movl	%eax, %edx	# m_w.71_9, tmp132
	shrl	$31, %edx	#, tmp132
	addl	%edx, %eax	# tmp132, tmp133
	sarl	%eax	# tmp134
	movl	%eax, %edx	# tmp134, _10
# am_map.c:440:     if (m_x + m_w/2 > max_x)
	.loc 1 440 13
	movl	m_x(%rip), %eax	# m_x, m_x.72_11
	addl	%eax, %edx	# m_x.72_11, _12
# am_map.c:440:     if (m_x + m_w/2 > max_x)
	.loc 1 440 21
	movl	max_x(%rip), %eax	# max_x, max_x.73_13
# am_map.c:440:     if (m_x + m_w/2 > max_x)
	.loc 1 440 8
	cmpl	%eax, %edx	# max_x.73_13, _12
	jle	.L27	#,
# am_map.c:441: 	m_x = max_x - m_w/2;
	.loc 1 441 19
	movl	m_w(%rip), %eax	# m_w, m_w.74_14
	movl	%eax, %edx	# m_w.74_14, tmp135
	shrl	$31, %edx	#, tmp135
	addl	%edx, %eax	# tmp135, tmp136
	sarl	%eax	# tmp137
	negl	%eax	# tmp137
	movl	%eax, %edx	# tmp137, _15
# am_map.c:441: 	m_x = max_x - m_w/2;
	.loc 1 441 14
	movl	max_x(%rip), %eax	# max_x, max_x.75_16
	addl	%edx, %eax	# _15, _17
# am_map.c:441: 	m_x = max_x - m_w/2;
	.loc 1 441 6
	movl	%eax, m_x(%rip)	# _17, m_x
	jmp	.L28	#
.L27:
# am_map.c:442:     else if (m_x + m_w/2 < min_x)
	.loc 1 442 23
	movl	m_w(%rip), %eax	# m_w, m_w.76_18
	movl	%eax, %edx	# m_w.76_18, tmp138
	shrl	$31, %edx	#, tmp138
	addl	%edx, %eax	# tmp138, tmp139
	sarl	%eax	# tmp140
	movl	%eax, %edx	# tmp140, _19
# am_map.c:442:     else if (m_x + m_w/2 < min_x)
	.loc 1 442 18
	movl	m_x(%rip), %eax	# m_x, m_x.77_20
	addl	%eax, %edx	# m_x.77_20, _21
# am_map.c:442:     else if (m_x + m_w/2 < min_x)
	.loc 1 442 26
	movl	min_x(%rip), %eax	# min_x, min_x.78_22
# am_map.c:442:     else if (m_x + m_w/2 < min_x)
	.loc 1 442 13
	cmpl	%eax, %edx	# min_x.78_22, _21
	jge	.L28	#,
# am_map.c:443: 	m_x = min_x - m_w/2;
	.loc 1 443 19
	movl	m_w(%rip), %eax	# m_w, m_w.79_23
	movl	%eax, %edx	# m_w.79_23, tmp141
	shrl	$31, %edx	#, tmp141
	addl	%edx, %eax	# tmp141, tmp142
	sarl	%eax	# tmp143
	negl	%eax	# tmp143
	movl	%eax, %edx	# tmp143, _24
# am_map.c:443: 	m_x = min_x - m_w/2;
	.loc 1 443 14
	movl	min_x(%rip), %eax	# min_x, min_x.80_25
	addl	%edx, %eax	# _24, _26
# am_map.c:443: 	m_x = min_x - m_w/2;
	.loc 1 443 6
	movl	%eax, m_x(%rip)	# _26, m_x
.L28:
# am_map.c:445:     if (m_y + m_h/2 > max_y)
	.loc 1 445 18
	movl	m_h(%rip), %eax	# m_h, m_h.81_27
	movl	%eax, %edx	# m_h.81_27, tmp144
	shrl	$31, %edx	#, tmp144
	addl	%edx, %eax	# tmp144, tmp145
	sarl	%eax	# tmp146
	movl	%eax, %edx	# tmp146, _28
# am_map.c:445:     if (m_y + m_h/2 > max_y)
	.loc 1 445 13
	movl	m_y(%rip), %eax	# m_y, m_y.82_29
	addl	%eax, %edx	# m_y.82_29, _30
# am_map.c:445:     if (m_y + m_h/2 > max_y)
	.loc 1 445 21
	movl	max_y(%rip), %eax	# max_y, max_y.83_31
# am_map.c:445:     if (m_y + m_h/2 > max_y)
	.loc 1 445 8
	cmpl	%eax, %edx	# max_y.83_31, _30
	jle	.L29	#,
# am_map.c:446: 	m_y = max_y - m_h/2;
	.loc 1 446 19
	movl	m_h(%rip), %eax	# m_h, m_h.84_32
	movl	%eax, %edx	# m_h.84_32, tmp147
	shrl	$31, %edx	#, tmp147
	addl	%edx, %eax	# tmp147, tmp148
	sarl	%eax	# tmp149
	negl	%eax	# tmp149
	movl	%eax, %edx	# tmp149, _33
# am_map.c:446: 	m_y = max_y - m_h/2;
	.loc 1 446 14
	movl	max_y(%rip), %eax	# max_y, max_y.85_34
	addl	%edx, %eax	# _33, _35
# am_map.c:446: 	m_y = max_y - m_h/2;
	.loc 1 446 6
	movl	%eax, m_y(%rip)	# _35, m_y
	jmp	.L30	#
.L29:
# am_map.c:447:     else if (m_y + m_h/2 < min_y)
	.loc 1 447 23
	movl	m_h(%rip), %eax	# m_h, m_h.86_36
	movl	%eax, %edx	# m_h.86_36, tmp150
	shrl	$31, %edx	#, tmp150
	addl	%edx, %eax	# tmp150, tmp151
	sarl	%eax	# tmp152
	movl	%eax, %edx	# tmp152, _37
# am_map.c:447:     else if (m_y + m_h/2 < min_y)
	.loc 1 447 18
	movl	m_y(%rip), %eax	# m_y, m_y.87_38
	addl	%eax, %edx	# m_y.87_38, _39
# am_map.c:447:     else if (m_y + m_h/2 < min_y)
	.loc 1 447 26
	movl	min_y(%rip), %eax	# min_y, min_y.88_40
# am_map.c:447:     else if (m_y + m_h/2 < min_y)
	.loc 1 447 13
	cmpl	%eax, %edx	# min_y.88_40, _39
	jge	.L30	#,
# am_map.c:448: 	m_y = min_y - m_h/2;
	.loc 1 448 19
	movl	m_h(%rip), %eax	# m_h, m_h.89_41
	movl	%eax, %edx	# m_h.89_41, tmp153
	shrl	$31, %edx	#, tmp153
	addl	%edx, %eax	# tmp153, tmp154
	sarl	%eax	# tmp155
	negl	%eax	# tmp155
	movl	%eax, %edx	# tmp155, _42
# am_map.c:448: 	m_y = min_y - m_h/2;
	.loc 1 448 14
	movl	min_y(%rip), %eax	# min_y, min_y.90_43
	addl	%edx, %eax	# _42, _44
# am_map.c:448: 	m_y = min_y - m_h/2;
	.loc 1 448 6
	movl	%eax, m_y(%rip)	# _44, m_y
.L30:
# am_map.c:450:     m_x2 = m_x + m_w;
	.loc 1 450 16
	movl	m_x(%rip), %edx	# m_x, m_x.91_45
	movl	m_w(%rip), %eax	# m_w, m_w.92_46
	addl	%edx, %eax	# m_x.91_45, _47
# am_map.c:450:     m_x2 = m_x + m_w;
	.loc 1 450 10
	movl	%eax, m_x2(%rip)	# _47, m_x2
# am_map.c:451:     m_y2 = m_y + m_h;
	.loc 1 451 16
	movl	m_y(%rip), %edx	# m_y, m_y.93_48
	movl	m_h(%rip), %eax	# m_h, m_h.94_49
	addl	%edx, %eax	# m_y.93_48, _50
# am_map.c:451:     m_y2 = m_y + m_h;
	.loc 1 451 10
	movl	%eax, m_y2(%rip)	# _50, m_y2
# am_map.c:452: }
	.loc 1 452 1
	nop	
	popq	%rbp	#
	.cfi_def_cfa 7, 8
	ret	
	.cfi_endproc
.LFE6:
	.size	AM_changeWindowLoc, .-AM_changeWindowLoc
	.globl	AM_initVariables
	.type	AM_initVariables, @function
AM_initVariables:
.LFB7:
	.loc 1 459 1
	.cfi_startproc
	endbr64	
	pushq	%rbp	#
	.cfi_def_cfa_offset 16
	.cfi_offset 6, -16
	movq	%rsp, %rbp	#,
	.cfi_def_cfa_register 6
	subq	$16, %rsp	#,
# am_map.c:463:     automapactive = true;
	.loc 1 463 19
	movl	$1, automapactive(%rip)	#, automapactive
# am_map.c:464:     fb = screens[0];
	.loc 1 464 17
	movq	screens(%rip), %rax	# screens[0], _1
# am_map.c:464:     fb = screens[0];
	.loc 1 464 8
	movq	%rax, fb(%rip)	# _1, fb
# am_map.c:466:     f_oldloc.x = MAXINT;
	.loc 1 466 16
	movl	$2147483647, f_oldloc(%rip)	#, f_oldloc.x
# am_map.c:467:     amclock = 0;
	.loc 1 467 13
	movl	$0, amclock(%rip)	#, amclock
# am_map.c:468:     lightlev = 0;
	.loc 1 468 14
	movl	$0, lightlev(%rip)	#, lightlev
# am_map.c:470:     m_paninc.x = m_paninc.y = 0;
	.loc 1 470 29
	movl	$0, 4+m_paninc(%rip)	#, m_paninc.y
# am_map.c:470:     m_paninc.x = m_paninc.y = 0;
	.loc 1 470 26
	movl	4+m_paninc(%rip), %eax	# m_paninc.y, _2
# am_map.c:470:     m_paninc.x = m_paninc.y = 0;
	.loc 1 470 16
	movl	%eax, m_paninc(%rip)	# _2, m_paninc.x
# am_map.c:471:     ftom_zoommul = FRACUNIT;
	.loc 1 471 18
	movl	$65536, ftom_zoommul(%rip)	#, ftom_zoommul
# am_map.c:472:     mtof_zoommul = FRACUNIT;
	.loc 1 472 18
	movl	$65536, mtof_zoommul(%rip)	#, mtof_zoommul
# am_map.c:474:     m_w = FTOM(f_w);
	.loc 1 474 11
	movl	scale_ftom(%rip), %eax	# scale_ftom, scale_ftom.95_3
	movl	f_w(%rip), %edx	# f_w, f_w.96_4
	sall	$16, %edx	#, _5
	movl	%eax, %esi	# scale_ftom.95_3,
	movl	%edx, %edi	# _5,
	call	FixedMul@PLT	#
# am_map.c:474:     m_w = FTOM(f_w);
	.loc 1 474 9 discriminator 1
	movl	%eax, m_w(%rip)	# _6, m_w
# am_map.c:475:     m_h = FTOM(f_h);
	.loc 1 475 11
	movl	scale_ftom(%rip), %eax	# scale_ftom, scale_ftom.97_7
	movl	f_h(%rip), %edx	# f_h, f_h.98_8
	sall	$16, %edx	#, _9
	movl	%eax, %esi	# scale_ftom.97_7,
	movl	%edx, %edi	# _9,
	call	FixedMul@PLT	#
# am_map.c:475:     m_h = FTOM(f_h);
	.loc 1 475 9 discriminator 1
	movl	%eax, m_h(%rip)	# _10, m_h
# am_map.c:478:     if (!playeringame[pnum = consoleplayer])
	.loc 1 478 28
	movl	consoleplayer(%rip), %eax	# consoleplayer, tmp111
	movl	%eax, -4(%rbp)	# tmp111, pnum
# am_map.c:478:     if (!playeringame[pnum = consoleplayer])
	.loc 1 478 22
	movl	-4(%rbp), %eax	# pnum, tmp113
	cltq
	leaq	0(,%rax,4), %rdx	#, tmp114
	leaq	playeringame(%rip), %rax	#, tmp115
	movl	(%rdx,%rax), %eax	# playeringame[pnum_46], _11
# am_map.c:478:     if (!playeringame[pnum = consoleplayer])
	.loc 1 478 8
	testl	%eax, %eax	# _11
	jne	.L32	#,
# am_map.c:479: 	for (pnum=0;pnum<MAXPLAYERS;pnum++)
	.loc 1 479 11
	movl	$0, -4(%rbp)	#, pnum
# am_map.c:479: 	for (pnum=0;pnum<MAXPLAYERS;pnum++)
	.loc 1 479 2
	jmp	.L33	#
.L35:
# am_map.c:480: 	    if (playeringame[pnum])
	.loc 1 480 22
	movl	-4(%rbp), %eax	# pnum, tmp117
	cltq
	leaq	0(,%rax,4), %rdx	#, tmp118
	leaq	playeringame(%rip), %rax	#, tmp119
	movl	(%rdx,%rax), %eax	# playeringame[pnum_30], _12
# am_map.c:480: 	    if (playeringame[pnum])
	.loc 1 480 9
	testl	%eax, %eax	# _12
	jne	.L36	#,
# am_map.c:479: 	for (pnum=0;pnum<MAXPLAYERS;pnum++)
	.loc 1 479 34 discriminator 2
	addl	$1, -4(%rbp)	#, pnum
.L33:
# am_map.c:479: 	for (pnum=0;pnum<MAXPLAYERS;pnum++)
	.loc 1 479 18 discriminator 1
	cmpl	$3, -4(%rbp)	#, pnum
	jle	.L35	#,
	jmp	.L32	#
.L36:
# am_map.c:481: 		break;
	.loc 1 481 3
	nop	
.L32:
# am_map.c:483:     plr = &players[pnum];
	.loc 1 483 11
	movl	-4(%rbp), %eax	# pnum, tmp121
	movslq	%eax, %rdx	# tmp121, tmp120
	movq	%rdx, %rax	# tmp120, tmp122
	salq	$2, %rax	#, tmp122
	addq	%rdx, %rax	# tmp120, tmp122
	salq	$6, %rax	#, tmp123
	leaq	players(%rip), %rdx	#, tmp124
	addq	%rdx, %rax	# tmp124, _13
# am_map.c:483:     plr = &players[pnum];
	.loc 1 483 9
	movq	%rax, plr(%rip)	# _13, plr
# am_map.c:484:     m_x = plr->mo->x - m_w/2;
	.loc 1 484 14
	movq	plr(%rip), %rax	# plr, plr.99_14
	movq	(%rax), %rax	# plr.99_14->mo, _15
# am_map.c:484:     m_x = plr->mo->x - m_w/2;
	.loc 1 484 18
	movl	24(%rax), %edx	# _15->x, _16
# am_map.c:484:     m_x = plr->mo->x - m_w/2;
	.loc 1 484 27
	movl	m_w(%rip), %eax	# m_w, m_w.100_17
	movl	%eax, %ecx	# m_w.100_17, tmp125
	shrl	$31, %ecx	#, tmp125
	addl	%ecx, %eax	# tmp125, tmp126
	sarl	%eax	# tmp127
	negl	%eax	# tmp127
# am_map.c:484:     m_x = plr->mo->x - m_w/2;
	.loc 1 484 22
	addl	%edx, %eax	# _16, _19
# am_map.c:484:     m_x = plr->mo->x - m_w/2;
	.loc 1 484 9
	movl	%eax, m_x(%rip)	# _19, m_x
# am_map.c:485:     m_y = plr->mo->y - m_h/2;
	.loc 1 485 14
	movq	plr(%rip), %rax	# plr, plr.101_20
	movq	(%rax), %rax	# plr.101_20->mo, _21
# am_map.c:485:     m_y = plr->mo->y - m_h/2;
	.loc 1 485 18
	movl	28(%rax), %edx	# _21->y, _22
# am_map.c:485:     m_y = plr->mo->y - m_h/2;
	.loc 1 485 27
	movl	m_h(%rip), %eax	# m_h, m_h.102_23
	movl	%eax, %ecx	# m_h.102_23, tmp128
	shrl	$31, %ecx	#, tmp128
	addl	%ecx, %eax	# tmp128, tmp129
	sarl	%eax	# tmp130
	negl	%eax	# tmp130
# am_map.c:485:     m_y = plr->mo->y - m_h/2;
	.loc 1 485 22
	addl	%edx, %eax	# _22, _25
# am_map.c:485:     m_y = plr->mo->y - m_h/2;
	.loc 1 485 9
	movl	%eax, m_y(%rip)	# _25, m_y
# am_map.c:486:     AM_changeWindowLoc();
	.loc 1 486 5
	call	AM_changeWindowLoc	#
# am_map.c:489:     old_m_x = m_x;
	.loc 1 489 13
	movl	m_x(%rip), %eax	# m_x, m_x.103_26
	movl	%eax, old_m_x(%rip)	# m_x.103_26, old_m_x
# am_map.c:490:     old_m_y = m_y;
	.loc 1 490 13
	movl	m_y(%rip), %eax	# m_y, m_y.104_27
	movl	%eax, old_m_y(%rip)	# m_y.104_27, old_m_y
# am_map.c:491:     old_m_w = m_w;
	.loc 1 491 13
	movl	m_w(%rip), %eax	# m_w, m_w.105_28
	movl	%eax, old_m_w(%rip)	# m_w.105_28, old_m_w
# am_map.c:492:     old_m_h = m_h;
	.loc 1 492 13
	movl	m_h(%rip), %eax	# m_h, m_h.106_29
	movl	%eax, old_m_h(%rip)	# m_h.106_29, old_m_h
# am_map.c:495:     ST_Responder(&st_notify);
	.loc 1 495 5
	leaq	st_notify.13(%rip), %rax	#, tmp131
	movq	%rax, %rdi	# tmp131,
	call	ST_Responder@PLT	#
# am_map.c:497: }
	.loc 1 497 1
	nop	
	leave	
	.cfi_def_cfa 7, 8
	ret	
	.cfi_endproc
.LFE7:
	.size	AM_initVariables, .-AM_initVariables
	.section	.rodata
.LC0:
	.string	"AMMNUM%d"
	.text
	.globl	AM_loadPics
	.type	AM_loadPics, @function
AM_loadPics:
.LFB8:
	.loc 1 503 1
	.cfi_startproc
	endbr64	
	pushq	%rbp	#
	.cfi_def_cfa_offset 16
	.cfi_offset 6, -16
	movq	%rsp, %rbp	#,
	.cfi_def_cfa_register 6
	subq	$32, %rsp	#,
# am_map.c:503: {
	.loc 1 503 1
	movq	%fs:40, %rax	# MEM[(<address-space-1> long unsigned int *)40B], tmp91
	movq	%rax, -8(%rbp)	# tmp91, D.8025
	xorl	%eax, %eax	# tmp91
# am_map.c:507:     for (i=0;i<10;i++)
	.loc 1 507 11
	movl	$0, -24(%rbp)	#, i
# am_map.c:507:     for (i=0;i<10;i++)
	.loc 1 507 5
	jmp	.L38	#
.L39:
# am_map.c:509: 	sprintf(namebuf, "AMMNUM%d", i);
	.loc 1 509 2
	movl	-24(%rbp), %edx	# i, tmp83
	leaq	-17(%rbp), %rax	#, tmp84
	leaq	.LC0(%rip), %rcx	#, tmp85
	movq	%rcx, %rsi	# tmp85,
	movq	%rax, %rdi	# tmp84,
	movl	$0, %eax	#,
	call	sprintf@PLT	#
# am_map.c:510: 	marknums[i] = W_CacheLumpName(namebuf, PU_STATIC);
	.loc 1 510 16
	leaq	-17(%rbp), %rax	#, tmp86
	movl	$1, %esi	#,
	movq	%rax, %rdi	# tmp86,
	call	W_CacheLumpName@PLT	#
# am_map.c:510: 	marknums[i] = W_CacheLumpName(namebuf, PU_STATIC);
	.loc 1 510 14 discriminator 1
	movl	-24(%rbp), %edx	# i, tmp88
	movslq	%edx, %rdx	# tmp88, tmp87
	leaq	0(,%rdx,8), %rcx	#, tmp89
	leaq	marknums(%rip), %rdx	#, tmp90
	movq	%rax, (%rcx,%rdx)	# _1, marknums[i_2]
# am_map.c:507:     for (i=0;i<10;i++)
	.loc 1 507 20 discriminator 3
	addl	$1, -24(%rbp)	#, i
.L38:
# am_map.c:507:     for (i=0;i<10;i++)
	.loc 1 507 15 discriminator 1
	cmpl	$9, -24(%rbp)	#, i
	jle	.L39	#,
# am_map.c:513: }
	.loc 1 513 1
	nop	
	movq	-8(%rbp), %rax	# D.8025, tmp92
	subq	%fs:40, %rax	# MEM[(<address-space-1> long unsigned int *)40B], tmp92
	je	.L40	#,
	call	__stack_chk_fail@PLT	#
.L40:
	leave	
	.cfi_def_cfa 7, 8
	ret	
	.cfi_endproc
.LFE8:
	.size	AM_loadPics, .-AM_loadPics
	.section	.rodata
.LC1:
	.string	"Z_CT at am_map.c:%i"
	.text
	.globl	AM_unloadPics
	.type	AM_unloadPics, @function
AM_unloadPics:
.LFB9:
	.loc 1 516 1
	.cfi_startproc
	endbr64	
	pushq	%rbp	#
	.cfi_def_cfa_offset 16
	.cfi_offset 6, -16
	movq	%rsp, %rbp	#,
	.cfi_def_cfa_register 6
	subq	$16, %rsp	#,
# am_map.c:519:     for (i=0;i<10;i++)
	.loc 1 519 11
	movl	$0, -4(%rbp)	#, i
# am_map.c:519:     for (i=0;i<10;i++)
	.loc 1 519 5
	jmp	.L42	#
.L44:
# am_map.c:520: 	Z_ChangeTag(marknums[i], PU_CACHE);
	.loc 1 520 2
	movl	-4(%rbp), %eax	# i, tmp87
	cltq
	leaq	0(,%rax,8), %rdx	#, tmp88
	leaq	marknums(%rip), %rax	#, tmp89
	movq	(%rdx,%rax), %rax	# marknums[i_5], _1
	subq	$40, %rax	#, _2
	movl	20(%rax), %eax	# _2->id, _3
	cmpl	$1919505, %eax	#, _3
	je	.L43	#,
# am_map.c:520: 	Z_ChangeTag(marknums[i], PU_CACHE);
	.loc 1 520 2 is_stmt 0 discriminator 1
	movl	$520, %esi	#,
	leaq	.LC1(%rip), %rax	#, tmp90
	movq	%rax, %rdi	# tmp90,
	movl	$0, %eax	#,
	call	I_Error@PLT	#
.L43:
# am_map.c:520: 	Z_ChangeTag(marknums[i], PU_CACHE);
	.loc 1 520 2 discriminator 3
	movl	-4(%rbp), %eax	# i, tmp92
	cltq
	leaq	0(,%rax,8), %rdx	#, tmp93
	leaq	marknums(%rip), %rax	#, tmp94
	movq	(%rdx,%rax), %rax	# marknums[i_5], _4
	movl	$101, %esi	#,
	movq	%rax, %rdi	# _4,
	call	Z_ChangeTag2@PLT	#
# am_map.c:519:     for (i=0;i<10;i++)
	.loc 1 519 20 is_stmt 1 discriminator 2
	addl	$1, -4(%rbp)	#, i
.L42:
# am_map.c:519:     for (i=0;i<10;i++)
	.loc 1 519 15 discriminator 1
	cmpl	$9, -4(%rbp)	#, i
	jle	.L44	#,
# am_map.c:522: }
	.loc 1 522 1
	nop	
	nop	
	leave	
	.cfi_def_cfa 7, 8
	ret	
	.cfi_endproc
.LFE9:
	.size	AM_unloadPics, .-AM_unloadPics
	.globl	AM_clearMarks
	.type	AM_clearMarks, @function
AM_clearMarks:
.LFB10:
	.loc 1 525 1
	.cfi_startproc
	endbr64	
	pushq	%rbp	#
	.cfi_def_cfa_offset 16
	.cfi_offset 6, -16
	movq	%rsp, %rbp	#,
	.cfi_def_cfa_register 6
# am_map.c:528:     for (i=0;i<AM_NUMMARKPOINTS;i++)
	.loc 1 528 11
	movl	$0, -4(%rbp)	#, i
# am_map.c:528:     for (i=0;i<AM_NUMMARKPOINTS;i++)
	.loc 1 528 5
	jmp	.L46	#
.L47:
# am_map.c:529: 	markpoints[i].x = -1; // means empty
	.loc 1 529 18
	movl	-4(%rbp), %eax	# i, tmp83
	cltq
	leaq	0(,%rax,8), %rdx	#, tmp84
	leaq	markpoints(%rip), %rax	#, tmp85
	movl	$-1, (%rdx,%rax)	#, markpoints[i_1].x
# am_map.c:528:     for (i=0;i<AM_NUMMARKPOINTS;i++)
	.loc 1 528 34 discriminator 3
	addl	$1, -4(%rbp)	#, i
.L46:
# am_map.c:528:     for (i=0;i<AM_NUMMARKPOINTS;i++)
	.loc 1 528 15 discriminator 1
	cmpl	$9, -4(%rbp)	#, i
	jle	.L47	#,
# am_map.c:530:     markpointnum = 0;
	.loc 1 530 18
	movl	$0, markpointnum(%rip)	#, markpointnum
# am_map.c:531: }
	.loc 1 531 1
	nop	
	popq	%rbp	#
	.cfi_def_cfa 7, 8
	ret	
	.cfi_endproc
.LFE10:
	.size	AM_clearMarks, .-AM_clearMarks
	.globl	AM_LevelInit
	.type	AM_LevelInit, @function
AM_LevelInit:
.LFB11:
	.loc 1 538 1
	.cfi_startproc
	endbr64	
	pushq	%rbp	#
	.cfi_def_cfa_offset 16
	.cfi_offset 6, -16
	movq	%rsp, %rbp	#,
	.cfi_def_cfa_register 6
# am_map.c:539:     leveljuststarted = 0;
	.loc 1 539 22
	movl	$0, leveljuststarted(%rip)	#, leveljuststarted
# am_map.c:541:     f_x = f_y = 0;
	.loc 1 541 15
	movl	$0, f_y(%rip)	#, f_y
# am_map.c:541:     f_x = f_y = 0;
	.loc 1 541 9
	movl	f_y(%rip), %eax	# f_y, f_y.107_1
	movl	%eax, f_x(%rip)	# f_y.107_1, f_x
# am_map.c:542:     f_w = finit_width;
	.loc 1 542 9
	movl	finit_width(%rip), %eax	# finit_width, finit_width.108_2
	movl	%eax, f_w(%rip)	# finit_width.108_2, f_w
# am_map.c:543:     f_h = finit_height;
	.loc 1 543 9
	movl	finit_height(%rip), %eax	# finit_height, finit_height.109_3
	movl	%eax, f_h(%rip)	# finit_height.109_3, f_h
# am_map.c:545:     AM_clearMarks();
	.loc 1 545 5
	call	AM_clearMarks	#
# am_map.c:547:     AM_findMinMaxBoundaries();
	.loc 1 547 5
	call	AM_findMinMaxBoundaries	#
# am_map.c:548:     scale_mtof = FixedDiv(min_scale_mtof, (int) (0.7*FRACUNIT));
	.loc 1 548 18
	movl	min_scale_mtof(%rip), %eax	# min_scale_mtof, min_scale_mtof.110_4
	movl	$45875, %esi	#,
	movl	%eax, %edi	# min_scale_mtof.110_4,
	call	FixedDiv@PLT	#
# am_map.c:548:     scale_mtof = FixedDiv(min_scale_mtof, (int) (0.7*FRACUNIT));
	.loc 1 548 16 discriminator 1
	movl	%eax, scale_mtof(%rip)	# _5, scale_mtof
# am_map.c:549:     if (scale_mtof > max_scale_mtof)
	.loc 1 549 20
	movl	scale_mtof(%rip), %edx	# scale_mtof, scale_mtof.111_6
	movl	max_scale_mtof(%rip), %eax	# max_scale_mtof, max_scale_mtof.112_7
# am_map.c:549:     if (scale_mtof > max_scale_mtof)
	.loc 1 549 8
	cmpl	%eax, %edx	# max_scale_mtof.112_7, scale_mtof.111_6
	jle	.L49	#,
# am_map.c:550: 	scale_mtof = min_scale_mtof;
	.loc 1 550 13
	movl	min_scale_mtof(%rip), %eax	# min_scale_mtof, min_scale_mtof.113_8
	movl	%eax, scale_mtof(%rip)	# min_scale_mtof.113_8, scale_mtof
.L49:
# am_map.c:551:     scale_ftom = FixedDiv(FRACUNIT, scale_mtof);
	.loc 1 551 18
	movl	scale_mtof(%rip), %eax	# scale_mtof, scale_mtof.114_9
	movl	%eax, %esi	# scale_mtof.114_9,
	movl	$65536, %edi	#,
	call	FixedDiv@PLT	#
# am_map.c:551:     scale_ftom = FixedDiv(FRACUNIT, scale_mtof);
	.loc 1 551 16 discriminator 1
	movl	%eax, scale_ftom(%rip)	# _10, scale_ftom
# am_map.c:552: }
	.loc 1 552 1
	nop	
	popq	%rbp	#
	.cfi_def_cfa 7, 8
	ret	
	.cfi_endproc
.LFE11:
	.size	AM_LevelInit, .-AM_LevelInit
	.globl	AM_Stop
	.type	AM_Stop, @function
AM_Stop:
.LFB12:
	.loc 1 561 1
	.cfi_startproc
	endbr64	
	pushq	%rbp	#
	.cfi_def_cfa_offset 16
	.cfi_offset 6, -16
	movq	%rsp, %rbp	#,
	.cfi_def_cfa_register 6
# am_map.c:564:     AM_unloadPics();
	.loc 1 564 5
	call	AM_unloadPics	#
# am_map.c:565:     automapactive = false;
	.loc 1 565 19
	movl	$0, automapactive(%rip)	#, automapactive
# am_map.c:566:     ST_Responder(&st_notify);
	.loc 1 566 5
	leaq	st_notify.12(%rip), %rax	#, tmp82
	movq	%rax, %rdi	# tmp82,
	call	ST_Responder@PLT	#
# am_map.c:567:     stopped = true;
	.loc 1 567 13
	movl	$1, stopped(%rip)	#, stopped
# am_map.c:568: }
	.loc 1 568 1
	nop	
	popq	%rbp	#
	.cfi_def_cfa 7, 8
	ret	
	.cfi_endproc
.LFE12:
	.size	AM_Stop, .-AM_Stop
	.globl	AM_Start
	.type	AM_Start, @function
AM_Start:
.LFB13:
	.loc 1 574 1
	.cfi_startproc
	endbr64	
	pushq	%rbp	#
	.cfi_def_cfa_offset 16
	.cfi_offset 6, -16
	movq	%rsp, %rbp	#,
	.cfi_def_cfa_register 6
# am_map.c:577:     if (!stopped) AM_Stop();
	.loc 1 577 9
	movl	stopped(%rip), %eax	# stopped, stopped.115_1
# am_map.c:577:     if (!stopped) AM_Stop();
	.loc 1 577 8
	testl	%eax, %eax	# stopped.115_1
	jne	.L52	#,
# am_map.c:577:     if (!stopped) AM_Stop();
	.loc 1 577 19 discriminator 1
	call	AM_Stop	#
.L52:
# am_map.c:578:     stopped = false;
	.loc 1 578 13
	movl	$0, stopped(%rip)	#, stopped
# am_map.c:579:     if (lastlevel != gamemap || lastepisode != gameepisode)
	.loc 1 579 19
	movl	lastlevel.11(%rip), %edx	# lastlevel, lastlevel.116_2
	movl	gamemap(%rip), %eax	# gamemap, gamemap.117_3
# am_map.c:579:     if (lastlevel != gamemap || lastepisode != gameepisode)
	.loc 1 579 8
	cmpl	%eax, %edx	# gamemap.117_3, lastlevel.116_2
	jne	.L53	#,
# am_map.c:579:     if (lastlevel != gamemap || lastepisode != gameepisode)
	.loc 1 579 45 discriminator 1
	movl	lastepisode.10(%rip), %edx	# lastepisode, lastepisode.118_4
	movl	gameepisode(%rip), %eax	# gameepisode, gameepisode.119_5
# am_map.c:579:     if (lastlevel != gamemap || lastepisode != gameepisode)
	.loc 1 579 30 discriminator 1
	cmpl	%eax, %edx	# gameepisode.119_5, lastepisode.118_4
	je	.L54	#,
.L53:
# am_map.c:581: 	AM_LevelInit();
	.loc 1 581 2
	call	AM_LevelInit	#
# am_map.c:582: 	lastlevel = gamemap;
	.loc 1 582 12
	movl	gamemap(%rip), %eax	# gamemap, gamemap.120_6
	movl	%eax, lastlevel.11(%rip)	# gamemap.120_6, lastlevel
# am_map.c:583: 	lastepisode = gameepisode;
	.loc 1 583 14
	movl	gameepisode(%rip), %eax	# gameepisode, gameepisode.121_7
	movl	%eax, lastepisode.10(%rip)	# gameepisode.121_7, lastepisode
.L54:
# am_map.c:585:     AM_initVariables();
	.loc 1 585 5
	call	AM_initVariables	#
# am_map.c:586:     AM_loadPics();
	.loc 1 586 5
	call	AM_loadPics	#
# am_map.c:587: }
	.loc 1 587 1
	nop	
	popq	%rbp	#
	.cfi_def_cfa 7, 8
	ret	
	.cfi_endproc
.LFE13:
	.size	AM_Start, .-AM_Start
	.globl	AM_minOutWindowScale
	.type	AM_minOutWindowScale, @function
AM_minOutWindowScale:
.LFB14:
	.loc 1 593 1
	.cfi_startproc
	endbr64	
	pushq	%rbp	#
	.cfi_def_cfa_offset 16
	.cfi_offset 6, -16
	movq	%rsp, %rbp	#,
	.cfi_def_cfa_register 6
# am_map.c:594:     scale_mtof = min_scale_mtof;
	.loc 1 594 16
	movl	min_scale_mtof(%rip), %eax	# min_scale_mtof, min_scale_mtof.122_1
	movl	%eax, scale_mtof(%rip)	# min_scale_mtof.122_1, scale_mtof
# am_map.c:595:     scale_ftom = FixedDiv(FRACUNIT, scale_mtof);
	.loc 1 595 18
	movl	scale_mtof(%rip), %eax	# scale_mtof, scale_mtof.123_2
	movl	%eax, %esi	# scale_mtof.123_2,
	movl	$65536, %edi	#,
	call	FixedDiv@PLT	#
# am_map.c:595:     scale_ftom = FixedDiv(FRACUNIT, scale_mtof);
	.loc 1 595 16 discriminator 1
	movl	%eax, scale_ftom(%rip)	# _3, scale_ftom
# am_map.c:596:     AM_activateNewScale();
	.loc 1 596 5
	call	AM_activateNewScale	#
# am_map.c:597: }
	.loc 1 597 1
	nop	
	popq	%rbp	#
	.cfi_def_cfa 7, 8
	ret	
	.cfi_endproc
.LFE14:
	.size	AM_minOutWindowScale, .-AM_minOutWindowScale
	.globl	AM_maxOutWindowScale
	.type	AM_maxOutWindowScale, @function
AM_maxOutWindowScale:
.LFB15:
	.loc 1 603 1
	.cfi_startproc
	endbr64	
	pushq	%rbp	#
	.cfi_def_cfa_offset 16
	.cfi_offset 6, -16
	movq	%rsp, %rbp	#,
	.cfi_def_cfa_register 6
# am_map.c:604:     scale_mtof = max_scale_mtof;
	.loc 1 604 16
	movl	max_scale_mtof(%rip), %eax	# max_scale_mtof, max_scale_mtof.124_1
	movl	%eax, scale_mtof(%rip)	# max_scale_mtof.124_1, scale_mtof
# am_map.c:605:     scale_ftom = FixedDiv(FRACUNIT, scale_mtof);
	.loc 1 605 18
	movl	scale_mtof(%rip), %eax	# scale_mtof, scale_mtof.125_2
	movl	%eax, %esi	# scale_mtof.125_2,
	movl	$65536, %edi	#,
	call	FixedDiv@PLT	#
# am_map.c:605:     scale_ftom = FixedDiv(FRACUNIT, scale_mtof);
	.loc 1 605 16 discriminator 1
	movl	%eax, scale_ftom(%rip)	# _3, scale_ftom
# am_map.c:606:     AM_activateNewScale();
	.loc 1 606 5
	call	AM_activateNewScale	#
# am_map.c:607: }
	.loc 1 607 1
	nop	
	popq	%rbp	#
	.cfi_def_cfa 7, 8
	ret	
	.cfi_endproc
.LFE15:
	.size	AM_maxOutWindowScale, .-AM_maxOutWindowScale
	.section	.rodata
.LC2:
	.string	"Follow Mode ON"
.LC3:
	.string	"Follow Mode OFF"
.LC4:
	.string	"Grid ON"
.LC5:
	.string	"Grid OFF"
.LC6:
	.string	"Marked Spot"
.LC7:
	.string	"%s %d"
.LC8:
	.string	"All Marks Cleared"
	.text
	.globl	AM_Responder
	.type	AM_Responder, @function
AM_Responder:
.LFB16:
	.loc 1 616 1
	.cfi_startproc
	endbr64	
	pushq	%rbp	#
	.cfi_def_cfa_offset 16
	.cfi_offset 6, -16
	movq	%rsp, %rbp	#,
	.cfi_def_cfa_register 6
	subq	$32, %rsp	#,
	movq	%rdi, -24(%rbp)	# ev, ev
# am_map.c:623:     rc = false;
	.loc 1 623 8
	movl	$0, -4(%rbp)	#, rc
# am_map.c:625:     if (!automapactive)
	.loc 1 625 9
	movl	automapactive(%rip), %eax	# automapactive, automapactive.126_1
# am_map.c:625:     if (!automapactive)
	.loc 1 625 8
	testl	%eax, %eax	# automapactive.126_1
	jne	.L58	#,
# am_map.c:627: 	if (ev->type == ev_keydown && ev->data1 == AM_STARTKEY)
	.loc 1 627 8
	movq	-24(%rbp), %rax	# ev, tmp136
	movl	(%rax), %eax	# ev_72(D)->type, _2
# am_map.c:627: 	if (ev->type == ev_keydown && ev->data1 == AM_STARTKEY)
	.loc 1 627 5
	testl	%eax, %eax	# _2
	jne	.L59	#,
# am_map.c:627: 	if (ev->type == ev_keydown && ev->data1 == AM_STARTKEY)
	.loc 1 627 34 discriminator 1
	movq	-24(%rbp), %rax	# ev, tmp137
	movl	4(%rax), %eax	# ev_72(D)->data1, _3
# am_map.c:627: 	if (ev->type == ev_keydown && ev->data1 == AM_STARTKEY)
	.loc 1 627 29 discriminator 1
	cmpl	$9, %eax	#, _3
	jne	.L59	#,
# am_map.c:629: 	    AM_Start ();
	.loc 1 629 6
	call	AM_Start	#
# am_map.c:630: 	    viewactive = false;
	.loc 1 630 17
	movl	$0, viewactive(%rip)	#, viewactive
# am_map.c:631: 	    rc = true;
	.loc 1 631 9
	movl	$1, -4(%rbp)	#, rc
	jmp	.L59	#
.L58:
# am_map.c:635:     else if (ev->type == ev_keydown)
	.loc 1 635 16
	movq	-24(%rbp), %rax	# ev, tmp138
	movl	(%rax), %eax	# ev_72(D)->type, _4
# am_map.c:635:     else if (ev->type == ev_keydown)
	.loc 1 635 13
	testl	%eax, %eax	# _4
	jne	.L60	#,
# am_map.c:638: 	rc = true;
	.loc 1 638 5
	movl	$1, -4(%rbp)	#, rc
# am_map.c:639: 	switch(ev->data1)
	.loc 1 639 11
	movq	-24(%rbp), %rax	# ev, tmp139
	movl	4(%rax), %eax	# ev_72(D)->data1, _5
# am_map.c:639: 	switch(ev->data1)
	.loc 1 639 2
	cmpl	$175, %eax	#, _5
	je	.L61	#,
	cmpl	$175, %eax	#, _5
	jg	.L62	#,
	cmpl	$174, %eax	#, _5
	je	.L63	#,
	cmpl	$174, %eax	#, _5
	jg	.L62	#,
	cmpl	$173, %eax	#, _5
	je	.L64	#,
	cmpl	$173, %eax	#, _5
	jg	.L62	#,
	cmpl	$172, %eax	#, _5
	je	.L65	#,
	cmpl	$172, %eax	#, _5
	jg	.L62	#,
	cmpl	$109, %eax	#, _5
	je	.L66	#,
	cmpl	$109, %eax	#, _5
	jg	.L62	#,
	cmpl	$103, %eax	#, _5
	je	.L67	#,
	cmpl	$103, %eax	#, _5
	jg	.L62	#,
	cmpl	$102, %eax	#, _5
	je	.L68	#,
	cmpl	$102, %eax	#, _5
	jg	.L62	#,
	cmpl	$99, %eax	#, _5
	je	.L69	#,
	cmpl	$99, %eax	#, _5
	jg	.L62	#,
	cmpl	$61, %eax	#, _5
	je	.L70	#,
	cmpl	$61, %eax	#, _5
	jg	.L62	#,
	cmpl	$48, %eax	#, _5
	je	.L71	#,
	cmpl	$48, %eax	#, _5
	jg	.L62	#,
	cmpl	$9, %eax	#, _5
	je	.L72	#,
	cmpl	$45, %eax	#, _5
	je	.L73	#,
	jmp	.L62	#
.L63:
# am_map.c:642: 	    if (!followplayer) m_paninc.x = FTOM(F_PANINC);
	.loc 1 642 10
	movl	followplayer(%rip), %eax	# followplayer, followplayer.127_6
# am_map.c:642: 	    if (!followplayer) m_paninc.x = FTOM(F_PANINC);
	.loc 1 642 9
	testl	%eax, %eax	# followplayer.127_6
	jne	.L74	#,
# am_map.c:642: 	    if (!followplayer) m_paninc.x = FTOM(F_PANINC);
	.loc 1 642 38 discriminator 1
	movl	scale_ftom(%rip), %eax	# scale_ftom, scale_ftom.128_7
	movl	%eax, %esi	# scale_ftom.128_7,
	movl	$262144, %edi	#,
	call	FixedMul@PLT	#
# am_map.c:642: 	    if (!followplayer) m_paninc.x = FTOM(F_PANINC);
	.loc 1 642 36 discriminator 1
	movl	%eax, m_paninc(%rip)	# _8, m_paninc.x
# am_map.c:644: 	    break;
	.loc 1 644 6
	jmp	.L76	#
.L74:
# am_map.c:643: 	    else rc = false;
	.loc 1 643 14
	movl	$0, -4(%rbp)	#, rc
# am_map.c:644: 	    break;
	.loc 1 644 6
	jmp	.L76	#
.L65:
# am_map.c:646: 	    if (!followplayer) m_paninc.x = -FTOM(F_PANINC);
	.loc 1 646 10
	movl	followplayer(%rip), %eax	# followplayer, followplayer.129_9
# am_map.c:646: 	    if (!followplayer) m_paninc.x = -FTOM(F_PANINC);
	.loc 1 646 9
	testl	%eax, %eax	# followplayer.129_9
	jne	.L77	#,
# am_map.c:646: 	    if (!followplayer) m_paninc.x = -FTOM(F_PANINC);
	.loc 1 646 39 discriminator 1
	movl	scale_ftom(%rip), %eax	# scale_ftom, scale_ftom.130_10
	movl	%eax, %esi	# scale_ftom.130_10,
	movl	$262144, %edi	#,
	call	FixedMul@PLT	#
# am_map.c:646: 	    if (!followplayer) m_paninc.x = -FTOM(F_PANINC);
	.loc 1 646 38 discriminator 1
	negl	%eax	# _12
# am_map.c:646: 	    if (!followplayer) m_paninc.x = -FTOM(F_PANINC);
	.loc 1 646 36 discriminator 1
	movl	%eax, m_paninc(%rip)	# _12, m_paninc.x
# am_map.c:648: 	    break;
	.loc 1 648 6
	jmp	.L76	#
.L77:
# am_map.c:647: 	    else rc = false;
	.loc 1 647 14
	movl	$0, -4(%rbp)	#, rc
# am_map.c:648: 	    break;
	.loc 1 648 6
	jmp	.L76	#
.L64:
# am_map.c:650: 	    if (!followplayer) m_paninc.y = FTOM(F_PANINC);
	.loc 1 650 10
	movl	followplayer(%rip), %eax	# followplayer, followplayer.131_13
# am_map.c:650: 	    if (!followplayer) m_paninc.y = FTOM(F_PANINC);
	.loc 1 650 9
	testl	%eax, %eax	# followplayer.131_13
	jne	.L79	#,
# am_map.c:650: 	    if (!followplayer) m_paninc.y = FTOM(F_PANINC);
	.loc 1 650 38 discriminator 1
	movl	scale_ftom(%rip), %eax	# scale_ftom, scale_ftom.132_14
	movl	%eax, %esi	# scale_ftom.132_14,
	movl	$262144, %edi	#,
	call	FixedMul@PLT	#
# am_map.c:650: 	    if (!followplayer) m_paninc.y = FTOM(F_PANINC);
	.loc 1 650 36 discriminator 1
	movl	%eax, 4+m_paninc(%rip)	# _15, m_paninc.y
# am_map.c:652: 	    break;
	.loc 1 652 6
	jmp	.L76	#
.L79:
# am_map.c:651: 	    else rc = false;
	.loc 1 651 14
	movl	$0, -4(%rbp)	#, rc
# am_map.c:652: 	    break;
	.loc 1 652 6
	jmp	.L76	#
.L61:
# am_map.c:654: 	    if (!followplayer) m_paninc.y = -FTOM(F_PANINC);
	.loc 1 654 10
	movl	followplayer(%rip), %eax	# followplayer, followplayer.133_16
# am_map.c:654: 	    if (!followplayer) m_paninc.y = -FTOM(F_PANINC);
	.loc 1 654 9
	testl	%eax, %eax	# followplayer.133_16
	jne	.L81	#,
# am_map.c:654: 	    if (!followplayer) m_paninc.y = -FTOM(F_PANINC);
	.loc 1 654 39 discriminator 1
	movl	scale_ftom(%rip), %eax	# scale_ftom, scale_ftom.134_17
	movl	%eax, %esi	# scale_ftom.134_17,
	movl	$262144, %edi	#,
	call	FixedMul@PLT	#
# am_map.c:654: 	    if (!followplayer) m_paninc.y = -FTOM(F_PANINC);
	.loc 1 654 38 discriminator 1
	negl	%eax	# _19
# am_map.c:654: 	    if (!followplayer) m_paninc.y = -FTOM(F_PANINC);
	.loc 1 654 36 discriminator 1
	movl	%eax, 4+m_paninc(%rip)	# _19, m_paninc.y
# am_map.c:656: 	    break;
	.loc 1 656 6
	jmp	.L76	#
.L81:
# am_map.c:655: 	    else rc = false;
	.loc 1 655 14
	movl	$0, -4(%rbp)	#, rc
# am_map.c:656: 	    break;
	.loc 1 656 6
	jmp	.L76	#
.L73:
# am_map.c:658: 	    mtof_zoommul = M_ZOOMOUT;
	.loc 1 658 19
	movl	$64250, mtof_zoommul(%rip)	#, mtof_zoommul
# am_map.c:659: 	    ftom_zoommul = M_ZOOMIN;
	.loc 1 659 19
	movl	$66846, ftom_zoommul(%rip)	#, ftom_zoommul
# am_map.c:660: 	    break;
	.loc 1 660 6
	jmp	.L76	#
.L70:
# am_map.c:662: 	    mtof_zoommul = M_ZOOMIN;
	.loc 1 662 19
	movl	$66846, mtof_zoommul(%rip)	#, mtof_zoommul
# am_map.c:663: 	    ftom_zoommul = M_ZOOMOUT;
	.loc 1 663 19
	movl	$64250, ftom_zoommul(%rip)	#, ftom_zoommul
# am_map.c:664: 	    break;
	.loc 1 664 6
	jmp	.L76	#
.L72:
# am_map.c:666: 	    bigstate = 0;
	.loc 1 666 15
	movl	$0, bigstate.9(%rip)	#, bigstate
# am_map.c:667: 	    viewactive = true;
	.loc 1 667 17
	movl	$1, viewactive(%rip)	#, viewactive
# am_map.c:668: 	    AM_Stop ();
	.loc 1 668 6
	call	AM_Stop	#
# am_map.c:669: 	    break;
	.loc 1 669 6
	jmp	.L76	#
.L71:
# am_map.c:671: 	    bigstate = !bigstate;
	.loc 1 671 17
	movl	bigstate.9(%rip), %eax	# bigstate, bigstate.135_20
	testl	%eax, %eax	# bigstate.135_20
	sete	%al	#, _21
	movzbl	%al, %eax	# _21, _22
# am_map.c:671: 	    bigstate = !bigstate;
	.loc 1 671 15
	movl	%eax, bigstate.9(%rip)	# _22, bigstate
# am_map.c:672: 	    if (bigstate)
	.loc 1 672 10
	movl	bigstate.9(%rip), %eax	# bigstate, bigstate.136_23
# am_map.c:672: 	    if (bigstate)
	.loc 1 672 9
	testl	%eax, %eax	# bigstate.136_23
	je	.L83	#,
# am_map.c:674: 		AM_saveScaleAndLoc();
	.loc 1 674 3
	call	AM_saveScaleAndLoc	#
# am_map.c:675: 		AM_minOutWindowScale();
	.loc 1 675 3
	call	AM_minOutWindowScale	#
# am_map.c:678: 	    break;
	.loc 1 678 6
	jmp	.L76	#
.L83:
# am_map.c:677: 	    else AM_restoreScaleAndLoc();
	.loc 1 677 11
	call	AM_restoreScaleAndLoc	#
# am_map.c:678: 	    break;
	.loc 1 678 6
	jmp	.L76	#
.L68:
# am_map.c:680: 	    followplayer = !followplayer;
	.loc 1 680 21
	movl	followplayer(%rip), %eax	# followplayer, followplayer.137_24
	testl	%eax, %eax	# followplayer.137_24
	sete	%al	#, _25
	movzbl	%al, %eax	# _25, _26
# am_map.c:680: 	    followplayer = !followplayer;
	.loc 1 680 19
	movl	%eax, followplayer(%rip)	# _26, followplayer
# am_map.c:681: 	    f_oldloc.x = MAXINT;
	.loc 1 681 17
	movl	$2147483647, f_oldloc(%rip)	#, f_oldloc.x
# am_map.c:682: 	    plr->message = followplayer ? AMSTR_FOLLOWON : AMSTR_FOLLOWOFF;
	.loc 1 682 34
	movl	followplayer(%rip), %eax	# followplayer, followplayer.139_27
# am_map.c:682: 	    plr->message = followplayer ? AMSTR_FOLLOWON : AMSTR_FOLLOWOFF;
	.loc 1 682 51
	testl	%eax, %eax	# followplayer.139_27
	je	.L85	#,
# am_map.c:682: 	    plr->message = followplayer ? AMSTR_FOLLOWON : AMSTR_FOLLOWOFF;
	.loc 1 682 51 is_stmt 0 discriminator 1
	leaq	.LC2(%rip), %rax	#, iftmp.138_57
	jmp	.L86	#
.L85:
# am_map.c:682: 	    plr->message = followplayer ? AMSTR_FOLLOWON : AMSTR_FOLLOWOFF;
	.loc 1 682 51 discriminator 2
	leaq	.LC3(%rip), %rax	#, iftmp.138_57
.L86:
# am_map.c:682: 	    plr->message = followplayer ? AMSTR_FOLLOWON : AMSTR_FOLLOWOFF;
	.loc 1 682 9 is_stmt 1 discriminator 4
	movq	plr(%rip), %rdx	# plr, plr.140_28
# am_map.c:682: 	    plr->message = followplayer ? AMSTR_FOLLOWON : AMSTR_FOLLOWOFF;
	.loc 1 682 19 discriminator 4
	movq	%rax, 224(%rdx)	# iftmp.138_57, plr.140_28->message
# am_map.c:683: 	    break;
	.loc 1 683 6
	jmp	.L76	#
.L67:
# am_map.c:685: 	    grid = !grid;
	.loc 1 685 13
	movl	grid(%rip), %eax	# grid, grid.141_29
	testl	%eax, %eax	# grid.141_29
	sete	%al	#, _30
	movzbl	%al, %eax	# _30, _31
# am_map.c:685: 	    grid = !grid;
	.loc 1 685 11
	movl	%eax, grid(%rip)	# _31, grid
# am_map.c:686: 	    plr->message = grid ? AMSTR_GRIDON : AMSTR_GRIDOFF;
	.loc 1 686 26
	movl	grid(%rip), %eax	# grid, grid.143_32
# am_map.c:686: 	    plr->message = grid ? AMSTR_GRIDON : AMSTR_GRIDOFF;
	.loc 1 686 41
	testl	%eax, %eax	# grid.143_32
	je	.L87	#,
# am_map.c:686: 	    plr->message = grid ? AMSTR_GRIDON : AMSTR_GRIDOFF;
	.loc 1 686 41 is_stmt 0 discriminator 1
	leaq	.LC4(%rip), %rax	#, iftmp.142_58
	jmp	.L88	#
.L87:
# am_map.c:686: 	    plr->message = grid ? AMSTR_GRIDON : AMSTR_GRIDOFF;
	.loc 1 686 41 discriminator 2
	leaq	.LC5(%rip), %rax	#, iftmp.142_58
.L88:
# am_map.c:686: 	    plr->message = grid ? AMSTR_GRIDON : AMSTR_GRIDOFF;
	.loc 1 686 9 is_stmt 1 discriminator 4
	movq	plr(%rip), %rdx	# plr, plr.144_33
# am_map.c:686: 	    plr->message = grid ? AMSTR_GRIDON : AMSTR_GRIDOFF;
	.loc 1 686 19 discriminator 4
	movq	%rax, 224(%rdx)	# iftmp.142_58, plr.144_33->message
# am_map.c:687: 	    break;
	.loc 1 687 6
	jmp	.L76	#
.L66:
# am_map.c:689: 	    sprintf(buffer, "%s %d", AMSTR_MARKEDSPOT, markpointnum);
	.loc 1 689 6
	movl	markpointnum(%rip), %eax	# markpointnum, markpointnum.145_34
	movl	%eax, %ecx	# markpointnum.145_34,
	leaq	.LC6(%rip), %rax	#, tmp140
	movq	%rax, %rdx	# tmp140,
	leaq	.LC7(%rip), %rax	#, tmp141
	movq	%rax, %rsi	# tmp141,
	leaq	buffer.8(%rip), %rax	#, tmp142
	movq	%rax, %rdi	# tmp142,
	movl	$0, %eax	#,
	call	sprintf@PLT	#
# am_map.c:690: 	    plr->message = buffer;
	.loc 1 690 9
	movq	plr(%rip), %rax	# plr, plr.146_35
# am_map.c:690: 	    plr->message = buffer;
	.loc 1 690 19
	leaq	buffer.8(%rip), %rdx	#, tmp143
	movq	%rdx, 224(%rax)	# tmp143, plr.146_35->message
# am_map.c:691: 	    AM_addMark();
	.loc 1 691 6
	call	AM_addMark	#
# am_map.c:692: 	    break;
	.loc 1 692 6
	jmp	.L76	#
.L69:
# am_map.c:694: 	    AM_clearMarks();
	.loc 1 694 6
	call	AM_clearMarks	#
# am_map.c:695: 	    plr->message = AMSTR_MARKSCLEARED;
	.loc 1 695 9
	movq	plr(%rip), %rax	# plr, plr.147_36
# am_map.c:695: 	    plr->message = AMSTR_MARKSCLEARED;
	.loc 1 695 19
	leaq	.LC8(%rip), %rdx	#, tmp144
	movq	%rdx, 224(%rax)	# tmp144, plr.147_36->message
# am_map.c:696: 	    break;
	.loc 1 696 6
	jmp	.L76	#
.L62:
# am_map.c:698: 	    cheatstate=0;
	.loc 1 698 16
	movl	$0, cheatstate.7(%rip)	#, cheatstate
# am_map.c:699: 	    rc = false;
	.loc 1 699 9
	movl	$0, -4(%rbp)	#, rc
.L76:
# am_map.c:701: 	if (!deathmatch && cht_CheckCheat(&cheat_amap, ev->data1))
	.loc 1 701 6
	movl	deathmatch(%rip), %eax	# deathmatch, deathmatch.148_37
# am_map.c:701: 	if (!deathmatch && cht_CheckCheat(&cheat_amap, ev->data1))
	.loc 1 701 5
	testl	%eax, %eax	# deathmatch.148_37
	jne	.L59	#,
# am_map.c:701: 	if (!deathmatch && cht_CheckCheat(&cheat_amap, ev->data1))
	.loc 1 701 51 discriminator 1
	movq	-24(%rbp), %rax	# ev, tmp145
	movl	4(%rax), %eax	# ev_72(D)->data1, _38
# am_map.c:701: 	if (!deathmatch && cht_CheckCheat(&cheat_amap, ev->data1))
	.loc 1 701 21 discriminator 1
	movsbl	%al, %eax	# _39, _40
	movl	%eax, %esi	# _40,
	leaq	cheat_amap(%rip), %rax	#, tmp146
	movq	%rax, %rdi	# tmp146,
	call	cht_CheckCheat@PLT	#
# am_map.c:701: 	if (!deathmatch && cht_CheckCheat(&cheat_amap, ev->data1))
	.loc 1 701 18 discriminator 1
	testl	%eax, %eax	# _41
	je	.L59	#,
# am_map.c:703: 	    rc = false;
	.loc 1 703 9
	movl	$0, -4(%rbp)	#, rc
# am_map.c:704: 	    cheating = (cheating+1) % 3;
	.loc 1 704 26
	movl	cheating(%rip), %eax	# cheating, cheating.149_42
	leal	1(%rax), %ecx	#, _43
# am_map.c:704: 	    cheating = (cheating+1) % 3;
	.loc 1 704 30
	movslq	%ecx, %rax	# _43, tmp147
	imulq	$1431655766, %rax, %rax	#, tmp147, tmp148
	shrq	$32, %rax	#, tmp148
	movq	%rax, %rdx	# tmp148, tmp149
	movl	%ecx, %eax	# _43, tmp150
	sarl	$31, %eax	#, tmp150
	subl	%eax, %edx	# tmp150, _44
	movl	%edx, %eax	# _44, tmp151
	addl	%eax, %eax	# tmp151
	addl	%edx, %eax	# _44, tmp151
	subl	%eax, %ecx	# tmp151, _43
	movl	%ecx, %edx	# _43, _44
# am_map.c:704: 	    cheating = (cheating+1) % 3;
	.loc 1 704 15
	movl	%edx, cheating(%rip)	# _44, cheating
	jmp	.L59	#
.L60:
# am_map.c:708:     else if (ev->type == ev_keyup)
	.loc 1 708 16
	movq	-24(%rbp), %rax	# ev, tmp152
	movl	(%rax), %eax	# ev_72(D)->type, _45
# am_map.c:708:     else if (ev->type == ev_keyup)
	.loc 1 708 13
	cmpl	$1, %eax	#, _45
	jne	.L59	#,
# am_map.c:710: 	rc = false;
	.loc 1 710 5
	movl	$0, -4(%rbp)	#, rc
# am_map.c:711: 	switch (ev->data1)
	.loc 1 711 12
	movq	-24(%rbp), %rax	# ev, tmp153
	movl	4(%rax), %eax	# ev_72(D)->data1, _46
# am_map.c:711: 	switch (ev->data1)
	.loc 1 711 2
	cmpl	$175, %eax	#, _46
	je	.L89	#,
	cmpl	$175, %eax	#, _46
	jg	.L59	#,
	cmpl	$174, %eax	#, _46
	je	.L90	#,
	cmpl	$174, %eax	#, _46
	jg	.L59	#,
	cmpl	$173, %eax	#, _46
	je	.L91	#,
	cmpl	$173, %eax	#, _46
	jg	.L59	#,
	cmpl	$172, %eax	#, _46
	je	.L92	#,
	cmpl	$172, %eax	#, _46
	jg	.L59	#,
	cmpl	$45, %eax	#, _46
	je	.L93	#,
	cmpl	$61, %eax	#, _46
	je	.L93	#,
	jmp	.L59	#
.L90:
# am_map.c:714: 	    if (!followplayer) m_paninc.x = 0;
	.loc 1 714 10
	movl	followplayer(%rip), %eax	# followplayer, followplayer.150_47
# am_map.c:714: 	    if (!followplayer) m_paninc.x = 0;
	.loc 1 714 9
	testl	%eax, %eax	# followplayer.150_47
	jne	.L99	#,
# am_map.c:714: 	    if (!followplayer) m_paninc.x = 0;
	.loc 1 714 36 discriminator 1
	movl	$0, m_paninc(%rip)	#, m_paninc.x
# am_map.c:715: 	    break;
	.loc 1 715 6
	jmp	.L99	#
.L92:
# am_map.c:717: 	    if (!followplayer) m_paninc.x = 0;
	.loc 1 717 10
	movl	followplayer(%rip), %eax	# followplayer, followplayer.151_48
# am_map.c:717: 	    if (!followplayer) m_paninc.x = 0;
	.loc 1 717 9
	testl	%eax, %eax	# followplayer.151_48
	jne	.L100	#,
# am_map.c:717: 	    if (!followplayer) m_paninc.x = 0;
	.loc 1 717 36 discriminator 1
	movl	$0, m_paninc(%rip)	#, m_paninc.x
# am_map.c:718: 	    break;
	.loc 1 718 6
	jmp	.L100	#
.L91:
# am_map.c:720: 	    if (!followplayer) m_paninc.y = 0;
	.loc 1 720 10
	movl	followplayer(%rip), %eax	# followplayer, followplayer.152_49
# am_map.c:720: 	    if (!followplayer) m_paninc.y = 0;
	.loc 1 720 9
	testl	%eax, %eax	# followplayer.152_49
	jne	.L101	#,
# am_map.c:720: 	    if (!followplayer) m_paninc.y = 0;
	.loc 1 720 36 discriminator 1
	movl	$0, 4+m_paninc(%rip)	#, m_paninc.y
# am_map.c:721: 	    break;
	.loc 1 721 6
	jmp	.L101	#
.L89:
# am_map.c:723: 	    if (!followplayer) m_paninc.y = 0;
	.loc 1 723 10
	movl	followplayer(%rip), %eax	# followplayer, followplayer.153_50
# am_map.c:723: 	    if (!followplayer) m_paninc.y = 0;
	.loc 1 723 9
	testl	%eax, %eax	# followplayer.153_50
	jne	.L102	#,
# am_map.c:723: 	    if (!followplayer) m_paninc.y = 0;
	.loc 1 723 36 discriminator 1
	movl	$0, 4+m_paninc(%rip)	#, m_paninc.y
# am_map.c:724: 	    break;
	.loc 1 724 6
	jmp	.L102	#
.L93:
# am_map.c:727: 	    mtof_zoommul = FRACUNIT;
	.loc 1 727 19
	movl	$65536, mtof_zoommul(%rip)	#, mtof_zoommul
# am_map.c:728: 	    ftom_zoommul = FRACUNIT;
	.loc 1 728 19
	movl	$65536, ftom_zoommul(%rip)	#, ftom_zoommul
# am_map.c:729: 	    break;
	.loc 1 729 6
	jmp	.L59	#
.L99:
# am_map.c:715: 	    break;
	.loc 1 715 6
	nop	
	jmp	.L59	#
.L100:
# am_map.c:718: 	    break;
	.loc 1 718 6
	nop	
	jmp	.L59	#
.L101:
# am_map.c:721: 	    break;
	.loc 1 721 6
	nop	
	jmp	.L59	#
.L102:
# am_map.c:724: 	    break;
	.loc 1 724 6
	nop	
.L59:
# am_map.c:733:     return rc;
	.loc 1 733 12
	movl	-4(%rbp), %eax	# rc, _126
# am_map.c:735: }
	.loc 1 735 1
	leave	
	.cfi_def_cfa 7, 8
	ret	
	.cfi_endproc
.LFE16:
	.size	AM_Responder, .-AM_Responder
	.globl	AM_changeWindowScale
	.type	AM_changeWindowScale, @function
AM_changeWindowScale:
.LFB17:
	.loc 1 742 1
	.cfi_startproc
	endbr64	
	pushq	%rbp	#
	.cfi_def_cfa_offset 16
	.cfi_offset 6, -16
	movq	%rsp, %rbp	#,
	.cfi_def_cfa_register 6
# am_map.c:745:     scale_mtof = FixedMul(scale_mtof, mtof_zoommul);
	.loc 1 745 18
	movl	mtof_zoommul(%rip), %edx	# mtof_zoommul, mtof_zoommul.154_1
	movl	scale_mtof(%rip), %eax	# scale_mtof, scale_mtof.155_2
	movl	%edx, %esi	# mtof_zoommul.154_1,
	movl	%eax, %edi	# scale_mtof.155_2,
	call	FixedMul@PLT	#
# am_map.c:745:     scale_mtof = FixedMul(scale_mtof, mtof_zoommul);
	.loc 1 745 16 discriminator 1
	movl	%eax, scale_mtof(%rip)	# _3, scale_mtof
# am_map.c:746:     scale_ftom = FixedDiv(FRACUNIT, scale_mtof);
	.loc 1 746 18
	movl	scale_mtof(%rip), %eax	# scale_mtof, scale_mtof.156_4
	movl	%eax, %esi	# scale_mtof.156_4,
	movl	$65536, %edi	#,
	call	FixedDiv@PLT	#
# am_map.c:746:     scale_ftom = FixedDiv(FRACUNIT, scale_mtof);
	.loc 1 746 16 discriminator 1
	movl	%eax, scale_ftom(%rip)	# _5, scale_ftom
# am_map.c:748:     if (scale_mtof < min_scale_mtof)
	.loc 1 748 20
	movl	scale_mtof(%rip), %edx	# scale_mtof, scale_mtof.157_6
	movl	min_scale_mtof(%rip), %eax	# min_scale_mtof, min_scale_mtof.158_7
# am_map.c:748:     if (scale_mtof < min_scale_mtof)
	.loc 1 748 8
	cmpl	%eax, %edx	# min_scale_mtof.158_7, scale_mtof.157_6
	jge	.L104	#,
# am_map.c:749: 	AM_minOutWindowScale();
	.loc 1 749 2
	call	AM_minOutWindowScale	#
# am_map.c:754: }
	.loc 1 754 1
	jmp	.L107	#
.L104:
# am_map.c:750:     else if (scale_mtof > max_scale_mtof)
	.loc 1 750 25
	movl	scale_mtof(%rip), %edx	# scale_mtof, scale_mtof.159_8
	movl	max_scale_mtof(%rip), %eax	# max_scale_mtof, max_scale_mtof.160_9
# am_map.c:750:     else if (scale_mtof > max_scale_mtof)
	.loc 1 750 13
	cmpl	%eax, %edx	# max_scale_mtof.160_9, scale_mtof.159_8
	jle	.L106	#,
# am_map.c:751: 	AM_maxOutWindowScale();
	.loc 1 751 2
	call	AM_maxOutWindowScale	#
# am_map.c:754: }
	.loc 1 754 1
	jmp	.L107	#
.L106:
# am_map.c:753: 	AM_activateNewScale();
	.loc 1 753 2
	call	AM_activateNewScale	#
.L107:
# am_map.c:754: }
	.loc 1 754 1
	nop	
	popq	%rbp	#
	.cfi_def_cfa 7, 8
	ret	
	.cfi_endproc
.LFE17:
	.size	AM_changeWindowScale, .-AM_changeWindowScale
	.globl	AM_doFollowPlayer
	.type	AM_doFollowPlayer, @function
AM_doFollowPlayer:
.LFB18:
	.loc 1 761 1
	.cfi_startproc
	endbr64	
	pushq	%rbp	#
	.cfi_def_cfa_offset 16
	.cfi_offset 6, -16
	movq	%rsp, %rbp	#,
	.cfi_def_cfa_register 6
	pushq	%rbx	#
	subq	$8, %rsp	#,
	.cfi_offset 3, -24
# am_map.c:763:     if (f_oldloc.x != plr->mo->x || f_oldloc.y != plr->mo->y)
	.loc 1 763 17
	movl	f_oldloc(%rip), %edx	# f_oldloc.x, _1
# am_map.c:763:     if (f_oldloc.x != plr->mo->x || f_oldloc.y != plr->mo->y)
	.loc 1 763 26
	movq	plr(%rip), %rax	# plr, plr.161_2
	movq	(%rax), %rax	# plr.161_2->mo, _3
# am_map.c:763:     if (f_oldloc.x != plr->mo->x || f_oldloc.y != plr->mo->y)
	.loc 1 763 30
	movl	24(%rax), %eax	# _3->x, _4
# am_map.c:763:     if (f_oldloc.x != plr->mo->x || f_oldloc.y != plr->mo->y)
	.loc 1 763 8
	cmpl	%eax, %edx	# _4, _1
	jne	.L109	#,
# am_map.c:763:     if (f_oldloc.x != plr->mo->x || f_oldloc.y != plr->mo->y)
	.loc 1 763 45 discriminator 1
	movl	4+f_oldloc(%rip), %edx	# f_oldloc.y, _5
# am_map.c:763:     if (f_oldloc.x != plr->mo->x || f_oldloc.y != plr->mo->y)
	.loc 1 763 54 discriminator 1
	movq	plr(%rip), %rax	# plr, plr.162_6
	movq	(%rax), %rax	# plr.162_6->mo, _7
# am_map.c:763:     if (f_oldloc.x != plr->mo->x || f_oldloc.y != plr->mo->y)
	.loc 1 763 58 discriminator 1
	movl	28(%rax), %eax	# _7->y, _8
# am_map.c:763:     if (f_oldloc.x != plr->mo->x || f_oldloc.y != plr->mo->y)
	.loc 1 763 34 discriminator 1
	cmpl	%eax, %edx	# _8, _5
	je	.L111	#,
.L109:
# am_map.c:765: 	m_x = FTOM(MTOF(plr->mo->x)) - m_w/2;
	.loc 1 765 31
	movl	scale_ftom(%rip), %ebx	# scale_ftom, scale_ftom.163_9
# am_map.c:765: 	m_x = FTOM(MTOF(plr->mo->x)) - m_w/2;
	.loc 1 765 8
	movl	scale_mtof(%rip), %edx	# scale_mtof, scale_mtof.164_10
	movq	plr(%rip), %rax	# plr, plr.165_11
	movq	(%rax), %rax	# plr.165_11->mo, _12
	movl	24(%rax), %eax	# _12->x, _13
	movl	%edx, %esi	# scale_mtof.164_10,
	movl	%eax, %edi	# _13,
	call	FixedMul@PLT	#
# am_map.c:765: 	m_x = FTOM(MTOF(plr->mo->x)) - m_w/2;
	.loc 1 765 8 is_stmt 0 discriminator 1
	movw	$0, %ax	#, _15
	movl	%ebx, %esi	# scale_ftom.163_9,
	movl	%eax, %edi	# _15,
	call	FixedMul@PLT	#
	movl	%eax, %edx	#, _16
# am_map.c:765: 	m_x = FTOM(MTOF(plr->mo->x)) - m_w/2;
	.loc 1 765 36 is_stmt 1 discriminator 2
	movl	m_w(%rip), %eax	# m_w, m_w.166_17
	movl	%eax, %ecx	# m_w.166_17, tmp124
	shrl	$31, %ecx	#, tmp124
	addl	%ecx, %eax	# tmp124, tmp125
	sarl	%eax	# tmp126
	negl	%eax	# tmp126
# am_map.c:765: 	m_x = FTOM(MTOF(plr->mo->x)) - m_w/2;
	.loc 1 765 31 discriminator 2
	addl	%edx, %eax	# _16, _19
# am_map.c:765: 	m_x = FTOM(MTOF(plr->mo->x)) - m_w/2;
	.loc 1 765 6 discriminator 2
	movl	%eax, m_x(%rip)	# _19, m_x
# am_map.c:766: 	m_y = FTOM(MTOF(plr->mo->y)) - m_h/2;
	.loc 1 766 31
	movl	scale_ftom(%rip), %ebx	# scale_ftom, scale_ftom.167_20
# am_map.c:766: 	m_y = FTOM(MTOF(plr->mo->y)) - m_h/2;
	.loc 1 766 8
	movl	scale_mtof(%rip), %edx	# scale_mtof, scale_mtof.168_21
	movq	plr(%rip), %rax	# plr, plr.169_22
	movq	(%rax), %rax	# plr.169_22->mo, _23
	movl	28(%rax), %eax	# _23->y, _24
	movl	%edx, %esi	# scale_mtof.168_21,
	movl	%eax, %edi	# _24,
	call	FixedMul@PLT	#
# am_map.c:766: 	m_y = FTOM(MTOF(plr->mo->y)) - m_h/2;
	.loc 1 766 8 is_stmt 0 discriminator 1
	movw	$0, %ax	#, _26
	movl	%ebx, %esi	# scale_ftom.167_20,
	movl	%eax, %edi	# _26,
	call	FixedMul@PLT	#
	movl	%eax, %edx	#, _27
# am_map.c:766: 	m_y = FTOM(MTOF(plr->mo->y)) - m_h/2;
	.loc 1 766 36 is_stmt 1 discriminator 2
	movl	m_h(%rip), %eax	# m_h, m_h.170_28
	movl	%eax, %ecx	# m_h.170_28, tmp127
	shrl	$31, %ecx	#, tmp127
	addl	%ecx, %eax	# tmp127, tmp128
	sarl	%eax	# tmp129
	negl	%eax	# tmp129
# am_map.c:766: 	m_y = FTOM(MTOF(plr->mo->y)) - m_h/2;
	.loc 1 766 31 discriminator 2
	addl	%edx, %eax	# _27, _30
# am_map.c:766: 	m_y = FTOM(MTOF(plr->mo->y)) - m_h/2;
	.loc 1 766 6 discriminator 2
	movl	%eax, m_y(%rip)	# _30, m_y
# am_map.c:767: 	m_x2 = m_x + m_w;
	.loc 1 767 13
	movl	m_x(%rip), %edx	# m_x, m_x.171_31
	movl	m_w(%rip), %eax	# m_w, m_w.172_32
	addl	%edx, %eax	# m_x.171_31, _33
# am_map.c:767: 	m_x2 = m_x + m_w;
	.loc 1 767 7
	movl	%eax, m_x2(%rip)	# _33, m_x2
# am_map.c:768: 	m_y2 = m_y + m_h;
	.loc 1 768 13
	movl	m_y(%rip), %edx	# m_y, m_y.173_34
	movl	m_h(%rip), %eax	# m_h, m_h.174_35
	addl	%edx, %eax	# m_y.173_34, _36
# am_map.c:768: 	m_y2 = m_y + m_h;
	.loc 1 768 7
	movl	%eax, m_y2(%rip)	# _36, m_y2
# am_map.c:769: 	f_oldloc.x = plr->mo->x;
	.loc 1 769 18
	movq	plr(%rip), %rax	# plr, plr.175_37
	movq	(%rax), %rax	# plr.175_37->mo, _38
# am_map.c:769: 	f_oldloc.x = plr->mo->x;
	.loc 1 769 22
	movl	24(%rax), %eax	# _38->x, _39
# am_map.c:769: 	f_oldloc.x = plr->mo->x;
	.loc 1 769 13
	movl	%eax, f_oldloc(%rip)	# _39, f_oldloc.x
# am_map.c:770: 	f_oldloc.y = plr->mo->y;
	.loc 1 770 18
	movq	plr(%rip), %rax	# plr, plr.176_40
	movq	(%rax), %rax	# plr.176_40->mo, _41
# am_map.c:770: 	f_oldloc.y = plr->mo->y;
	.loc 1 770 22
	movl	28(%rax), %eax	# _41->y, _42
# am_map.c:770: 	f_oldloc.y = plr->mo->y;
	.loc 1 770 13
	movl	%eax, 4+f_oldloc(%rip)	# _42, f_oldloc.y
.L111:
# am_map.c:779: }
	.loc 1 779 1
	nop	
	movq	-8(%rbp), %rbx	#,
	leave	
	.cfi_def_cfa 7, 8
	ret	
	.cfi_endproc
.LFE18:
	.size	AM_doFollowPlayer, .-AM_doFollowPlayer
	.globl	AM_updateLightLev
	.type	AM_updateLightLev, @function
AM_updateLightLev:
.LFB19:
	.loc 1 785 1
	.cfi_startproc
	endbr64	
	pushq	%rbp	#
	.cfi_def_cfa_offset 16
	.cfi_offset 6, -16
	movq	%rsp, %rbp	#,
	.cfi_def_cfa_register 6
# am_map.c:792:     if (amclock>nexttic)
	.loc 1 792 16
	movl	amclock(%rip), %edx	# amclock, amclock.177_1
	movl	nexttic.6(%rip), %eax	# nexttic, nexttic.178_2
# am_map.c:792:     if (amclock>nexttic)
	.loc 1 792 8
	cmpl	%eax, %edx	# nexttic.178_2, amclock.177_1
	jle	.L115	#,
# am_map.c:794: 	lightlev = litelevels[litelevelscnt++];
	.loc 1 794 37
	movl	litelevelscnt.5(%rip), %eax	# litelevelscnt, litelevelscnt.179_3
	leal	1(%rax), %edx	#, _5
	movl	%edx, litelevelscnt.5(%rip)	# _5, litelevelscnt
# am_map.c:794: 	lightlev = litelevels[litelevelscnt++];
	.loc 1 794 23
	cltq
	leaq	0(,%rax,4), %rdx	#, tmp94
	leaq	litelevels.4(%rip), %rax	#, tmp95
	movl	(%rdx,%rax), %eax	# litelevels[litelevelscnt.180_4], _6
# am_map.c:794: 	lightlev = litelevels[litelevelscnt++];
	.loc 1 794 11
	movl	%eax, lightlev(%rip)	# _6, lightlev
# am_map.c:795: 	if (litelevelscnt == sizeof(litelevels)/sizeof(int)) litelevelscnt = 0;
	.loc 1 795 20
	movl	litelevelscnt.5(%rip), %eax	# litelevelscnt, litelevelscnt.181_7
# am_map.c:795: 	if (litelevelscnt == sizeof(litelevels)/sizeof(int)) litelevelscnt = 0;
	.loc 1 795 5
	cmpl	$8, %eax	#, litelevelscnt.181_7
	jne	.L114	#,
# am_map.c:795: 	if (litelevelscnt == sizeof(litelevels)/sizeof(int)) litelevelscnt = 0;
	.loc 1 795 69 discriminator 1
	movl	$0, litelevelscnt.5(%rip)	#, litelevelscnt
.L114:
# am_map.c:796: 	nexttic = amclock + 6 - (amclock % 6);
	.loc 1 796 20
	movl	amclock(%rip), %eax	# amclock, amclock.182_8
	leal	6(%rax), %esi	#, _9
# am_map.c:796: 	nexttic = amclock + 6 - (amclock % 6);
	.loc 1 796 35
	movl	amclock(%rip), %ecx	# amclock, amclock.183_10
	movslq	%ecx, %rax	# amclock.183_10, tmp96
	imulq	$715827883, %rax, %rax	#, tmp96, tmp97
	shrq	$32, %rax	#, tmp97
	movq	%rax, %rdx	# tmp97, tmp98
	movl	%ecx, %eax	# amclock.183_10, tmp99
	sarl	$31, %eax	#, tmp99
	subl	%eax, %edx	# tmp99, _11
	movl	%edx, %eax	# _11, tmp100
	addl	%eax, %eax	# tmp100
	addl	%edx, %eax	# _11, tmp100
	addl	%eax, %eax	# tmp101
	subl	%eax, %ecx	# tmp100, amclock.183_10
	movl	%ecx, %edx	# amclock.183_10, _11
# am_map.c:796: 	nexttic = amclock + 6 - (amclock % 6);
	.loc 1 796 24
	movl	%esi, %eax	# _9, _9
	subl	%edx, %eax	# _11, _9
# am_map.c:796: 	nexttic = amclock + 6 - (amclock % 6);
	.loc 1 796 10
	movl	%eax, nexttic.6(%rip)	# _12, nexttic
.L115:
# am_map.c:799: }
	.loc 1 799 1
	nop	
	popq	%rbp	#
	.cfi_def_cfa 7, 8
	ret	
	.cfi_endproc
.LFE19:
	.size	AM_updateLightLev, .-AM_updateLightLev
	.globl	AM_Ticker
	.type	AM_Ticker, @function
AM_Ticker:
.LFB20:
	.loc 1 806 1
	.cfi_startproc
	endbr64	
	pushq	%rbp	#
	.cfi_def_cfa_offset 16
	.cfi_offset 6, -16
	movq	%rsp, %rbp	#,
	.cfi_def_cfa_register 6
# am_map.c:808:     if (!automapactive)
	.loc 1 808 9
	movl	automapactive(%rip), %eax	# automapactive, automapactive.184_1
# am_map.c:808:     if (!automapactive)
	.loc 1 808 8
	testl	%eax, %eax	# automapactive.184_1
	je	.L122	#,
# am_map.c:811:     amclock++;
	.loc 1 811 12
	movl	amclock(%rip), %eax	# amclock, amclock.185_2
	addl	$1, %eax	#, _3
	movl	%eax, amclock(%rip)	# _3, amclock
# am_map.c:813:     if (followplayer)
	.loc 1 813 9
	movl	followplayer(%rip), %eax	# followplayer, followplayer.186_4
# am_map.c:813:     if (followplayer)
	.loc 1 813 8
	testl	%eax, %eax	# followplayer.186_4
	je	.L119	#,
# am_map.c:814: 	AM_doFollowPlayer();
	.loc 1 814 2
	call	AM_doFollowPlayer	#
.L119:
# am_map.c:817:     if (ftom_zoommul != FRACUNIT)
	.loc 1 817 22
	movl	ftom_zoommul(%rip), %eax	# ftom_zoommul, ftom_zoommul.187_5
# am_map.c:817:     if (ftom_zoommul != FRACUNIT)
	.loc 1 817 8
	cmpl	$65536, %eax	#, ftom_zoommul.187_5
	je	.L120	#,
# am_map.c:818: 	AM_changeWindowScale();
	.loc 1 818 2
	call	AM_changeWindowScale	#
.L120:
# am_map.c:821:     if (m_paninc.x || m_paninc.y)
	.loc 1 821 17
	movl	m_paninc(%rip), %eax	# m_paninc.x, _6
# am_map.c:821:     if (m_paninc.x || m_paninc.y)
	.loc 1 821 8
	testl	%eax, %eax	# _6
	jne	.L121	#,
# am_map.c:821:     if (m_paninc.x || m_paninc.y)
	.loc 1 821 31 discriminator 1
	movl	4+m_paninc(%rip), %eax	# m_paninc.y, _7
# am_map.c:821:     if (m_paninc.x || m_paninc.y)
	.loc 1 821 20 discriminator 1
	testl	%eax, %eax	# _7
	je	.L116	#,
.L121:
# am_map.c:822: 	AM_changeWindowLoc();
	.loc 1 822 2
	call	AM_changeWindowLoc	#
	jmp	.L116	#
.L122:
# am_map.c:809: 	return;
	.loc 1 809 2
	nop	
.L116:
# am_map.c:827: }
	.loc 1 827 1
	popq	%rbp	#
	.cfi_def_cfa 7, 8
	ret	
	.cfi_endproc
.LFE20:
	.size	AM_Ticker, .-AM_Ticker
	.globl	AM_clearFB
	.type	AM_clearFB, @function
AM_clearFB:
.LFB21:
	.loc 1 834 1
	.cfi_startproc
	endbr64	
	pushq	%rbp	#
	.cfi_def_cfa_offset 16
	.cfi_offset 6, -16
	movq	%rsp, %rbp	#,
	.cfi_def_cfa_register 6
	subq	$16, %rsp	#,
	movl	%edi, -4(%rbp)	# color, color
# am_map.c:835:     memset(fb, color, f_w*f_h);
	.loc 1 835 26
	movl	f_w(%rip), %edx	# f_w, f_w.188_1
	movl	f_h(%rip), %eax	# f_h, f_h.189_2
	imull	%edx, %eax	# f_w.188_1, _3
# am_map.c:835:     memset(fb, color, f_w*f_h);
	.loc 1 835 5
	movslq	%eax, %rdx	# _3, _4
	movq	fb(%rip), %rax	# fb, fb.190_5
	movl	-4(%rbp), %ecx	# color, tmp87
	movl	%ecx, %esi	# tmp87,
	movq	%rax, %rdi	# fb.190_5,
	call	memset@PLT	#
# am_map.c:836: }
	.loc 1 836 1
	nop	
	leave	
	.cfi_def_cfa 7, 8
	ret	
	.cfi_endproc
.LFE21:
	.size	AM_clearFB, .-AM_clearFB
	.globl	AM_clipMline
	.type	AM_clipMline, @function
AM_clipMline:
.LFB22:
	.loc 1 850 1
	.cfi_startproc
	endbr64	
	pushq	%rbp	#
	.cfi_def_cfa_offset 16
	.cfi_offset 6, -16
	movq	%rsp, %rbp	#,
	.cfi_def_cfa_register 6
	pushq	%r13	#
	pushq	%r12	#
	pushq	%rbx	#
	subq	$40, %rsp	#,
	.cfi_offset 13, -24
	.cfi_offset 12, -32
	.cfi_offset 3, -40
	movq	%rdi, -56(%rbp)	# ml, ml
	movq	%rsi, -64(%rbp)	# fl, fl
# am_map.c:859:     register	outcode1 = 0;
	.loc 1 859 14
	movl	$0, %ebx	#, outcode1
# am_map.c:860:     register	outcode2 = 0;
	.loc 1 860 14
	movl	$0, %r12d	#, outcode2
# am_map.c:877:     if (ml->a.y > m_y2)
	.loc 1 877 14
	movq	-56(%rbp), %rax	# ml, tmp218
	movl	4(%rax), %edx	# ml_155(D)->a.y, _1
# am_map.c:877:     if (ml->a.y > m_y2)
	.loc 1 877 17
	movl	m_y2(%rip), %eax	# m_y2, m_y2.191_2
# am_map.c:877:     if (ml->a.y > m_y2)
	.loc 1 877 8
	cmpl	%eax, %edx	# m_y2.191_2, _1
	jle	.L125	#,
# am_map.c:878: 	outcode1 = TOP;
	.loc 1 878 11
	movl	$8, %ebx	#, outcode1
	jmp	.L126	#
.L125:
# am_map.c:879:     else if (ml->a.y < m_y)
	.loc 1 879 19
	movq	-56(%rbp), %rax	# ml, tmp219
	movl	4(%rax), %edx	# ml_155(D)->a.y, _3
# am_map.c:879:     else if (ml->a.y < m_y)
	.loc 1 879 22
	movl	m_y(%rip), %eax	# m_y, m_y.192_4
# am_map.c:879:     else if (ml->a.y < m_y)
	.loc 1 879 13
	cmpl	%eax, %edx	# m_y.192_4, _3
	jge	.L126	#,
# am_map.c:880: 	outcode1 = BOTTOM;
	.loc 1 880 11
	movl	$4, %ebx	#, outcode1
.L126:
# am_map.c:882:     if (ml->b.y > m_y2)
	.loc 1 882 14
	movq	-56(%rbp), %rax	# ml, tmp220
	movl	12(%rax), %edx	# ml_155(D)->b.y, _5
# am_map.c:882:     if (ml->b.y > m_y2)
	.loc 1 882 17
	movl	m_y2(%rip), %eax	# m_y2, m_y2.193_6
# am_map.c:882:     if (ml->b.y > m_y2)
	.loc 1 882 8
	cmpl	%eax, %edx	# m_y2.193_6, _5
	jle	.L127	#,
# am_map.c:883: 	outcode2 = TOP;
	.loc 1 883 11
	movl	$8, %r12d	#, outcode2
	jmp	.L128	#
.L127:
# am_map.c:884:     else if (ml->b.y < m_y)
	.loc 1 884 19
	movq	-56(%rbp), %rax	# ml, tmp221
	movl	12(%rax), %edx	# ml_155(D)->b.y, _7
# am_map.c:884:     else if (ml->b.y < m_y)
	.loc 1 884 22
	movl	m_y(%rip), %eax	# m_y, m_y.194_8
# am_map.c:884:     else if (ml->b.y < m_y)
	.loc 1 884 13
	cmpl	%eax, %edx	# m_y.194_8, _7
	jge	.L128	#,
# am_map.c:885: 	outcode2 = BOTTOM;
	.loc 1 885 11
	movl	$4, %r12d	#, outcode2
.L128:
# am_map.c:887:     if (outcode1 & outcode2)
	.loc 1 887 18
	movl	%ebx, %eax	# outcode1, _9
	andl	%r12d, %eax	# outcode2, _9
# am_map.c:887:     if (outcode1 & outcode2)
	.loc 1 887 8
	testl	%eax, %eax	# _9
	je	.L129	#,
# am_map.c:888: 	return false; // trivially outside
	.loc 1 888 9
	movl	$0, %eax	#, _147
	jmp	.L161	#
.L129:
# am_map.c:890:     if (ml->a.x < m_x)
	.loc 1 890 14
	movq	-56(%rbp), %rax	# ml, tmp222
	movl	(%rax), %edx	# ml_155(D)->a.x, _10
# am_map.c:890:     if (ml->a.x < m_x)
	.loc 1 890 17
	movl	m_x(%rip), %eax	# m_x, m_x.195_11
# am_map.c:890:     if (ml->a.x < m_x)
	.loc 1 890 8
	cmpl	%eax, %edx	# m_x.195_11, _10
	jge	.L131	#,
# am_map.c:891: 	outcode1 |= LEFT;
	.loc 1 891 11
	orl	$1, %ebx	#, outcode1
	jmp	.L132	#
.L131:
# am_map.c:892:     else if (ml->a.x > m_x2)
	.loc 1 892 19
	movq	-56(%rbp), %rax	# ml, tmp223
	movl	(%rax), %edx	# ml_155(D)->a.x, _12
# am_map.c:892:     else if (ml->a.x > m_x2)
	.loc 1 892 22
	movl	m_x2(%rip), %eax	# m_x2, m_x2.196_13
# am_map.c:892:     else if (ml->a.x > m_x2)
	.loc 1 892 13
	cmpl	%eax, %edx	# m_x2.196_13, _12
	jle	.L132	#,
# am_map.c:893: 	outcode1 |= RIGHT;
	.loc 1 893 11
	orl	$2, %ebx	#, outcode1
.L132:
# am_map.c:895:     if (ml->b.x < m_x)
	.loc 1 895 14
	movq	-56(%rbp), %rax	# ml, tmp224
	movl	8(%rax), %edx	# ml_155(D)->b.x, _14
# am_map.c:895:     if (ml->b.x < m_x)
	.loc 1 895 17
	movl	m_x(%rip), %eax	# m_x, m_x.197_15
# am_map.c:895:     if (ml->b.x < m_x)
	.loc 1 895 8
	cmpl	%eax, %edx	# m_x.197_15, _14
	jge	.L133	#,
# am_map.c:896: 	outcode2 |= LEFT;
	.loc 1 896 11
	orl	$1, %r12d	#, outcode2
	jmp	.L134	#
.L133:
# am_map.c:897:     else if (ml->b.x > m_x2)
	.loc 1 897 19
	movq	-56(%rbp), %rax	# ml, tmp225
	movl	8(%rax), %edx	# ml_155(D)->b.x, _16
# am_map.c:897:     else if (ml->b.x > m_x2)
	.loc 1 897 22
	movl	m_x2(%rip), %eax	# m_x2, m_x2.198_17
# am_map.c:897:     else if (ml->b.x > m_x2)
	.loc 1 897 13
	cmpl	%eax, %edx	# m_x2.198_17, _16
	jle	.L134	#,
# am_map.c:898: 	outcode2 |= RIGHT;
	.loc 1 898 11
	orl	$2, %r12d	#, outcode2
.L134:
# am_map.c:900:     if (outcode1 & outcode2)
	.loc 1 900 18
	movl	%ebx, %eax	# outcode1, outcode1
	andl	%r12d, %eax	# outcode2, outcode1
# am_map.c:900:     if (outcode1 & outcode2)
	.loc 1 900 8
	testl	%eax, %eax	# _18
	je	.L135	#,
# am_map.c:901: 	return false; // trivially outside
	.loc 1 901 9
	movl	$0, %eax	#, _147
	jmp	.L161	#
.L135:
# am_map.c:904:     fl->a.x = CXMTOF(ml->a.x);
	.loc 1 904 15
	movl	scale_mtof(%rip), %eax	# scale_mtof, scale_mtof.199_19
	movq	-56(%rbp), %rdx	# ml, tmp226
	movl	(%rdx), %edx	# ml_155(D)->a.x, _20
	movl	m_x(%rip), %ecx	# m_x, m_x.200_21
	subl	%ecx, %edx	# m_x.200_21, _22
	movl	%eax, %esi	# scale_mtof.199_19,
	movl	%edx, %edi	# _22,
	call	FixedMul@PLT	#
# am_map.c:904:     fl->a.x = CXMTOF(ml->a.x);
	.loc 1 904 15 is_stmt 0 discriminator 1
	sarl	$16, %eax	#, _23
	movl	%eax, %edx	# _23, _24
	movl	f_x(%rip), %eax	# f_x, f_x.201_25
	addl	%eax, %edx	# f_x.201_25, _26
# am_map.c:904:     fl->a.x = CXMTOF(ml->a.x);
	.loc 1 904 13 is_stmt 1 discriminator 1
	movq	-64(%rbp), %rax	# fl, tmp227
	movl	%edx, (%rax)	# _26, fl_165(D)->a.x
# am_map.c:905:     fl->a.y = CYMTOF(ml->a.y);
	.loc 1 905 15
	movl	f_h(%rip), %ebx	# f_h, f_h.202_27
	movl	scale_mtof(%rip), %eax	# scale_mtof, scale_mtof.203_28
	movq	-56(%rbp), %rdx	# ml, tmp228
	movl	4(%rdx), %edx	# ml_155(D)->a.y, _29
	movl	m_y(%rip), %ecx	# m_y, m_y.204_30
	subl	%ecx, %edx	# m_y.204_30, _31
	movl	%eax, %esi	# scale_mtof.203_28,
	movl	%edx, %edi	# _31,
	call	FixedMul@PLT	#
# am_map.c:905:     fl->a.y = CYMTOF(ml->a.y);
	.loc 1 905 15 is_stmt 0 discriminator 1
	sarl	$16, %eax	#, _33
	subl	%eax, %ebx	# _33, f_h.202_27
	movl	%ebx, %edx	# f_h.202_27, _34
	movl	f_y(%rip), %eax	# f_y, f_y.205_35
	addl	%eax, %edx	# f_y.205_35, _36
# am_map.c:905:     fl->a.y = CYMTOF(ml->a.y);
	.loc 1 905 13 is_stmt 1 discriminator 1
	movq	-64(%rbp), %rax	# fl, tmp229
	movl	%edx, 4(%rax)	# _36, fl_165(D)->a.y
# am_map.c:906:     fl->b.x = CXMTOF(ml->b.x);
	.loc 1 906 15
	movl	scale_mtof(%rip), %eax	# scale_mtof, scale_mtof.206_37
	movq	-56(%rbp), %rdx	# ml, tmp230
	movl	8(%rdx), %edx	# ml_155(D)->b.x, _38
	movl	m_x(%rip), %ecx	# m_x, m_x.207_39
	subl	%ecx, %edx	# m_x.207_39, _40
	movl	%eax, %esi	# scale_mtof.206_37,
	movl	%edx, %edi	# _40,
	call	FixedMul@PLT	#
# am_map.c:906:     fl->b.x = CXMTOF(ml->b.x);
	.loc 1 906 15 is_stmt 0 discriminator 1
	sarl	$16, %eax	#, _41
	movl	%eax, %edx	# _41, _42
	movl	f_x(%rip), %eax	# f_x, f_x.208_43
	addl	%eax, %edx	# f_x.208_43, _44
# am_map.c:906:     fl->b.x = CXMTOF(ml->b.x);
	.loc 1 906 13 is_stmt 1 discriminator 1
	movq	-64(%rbp), %rax	# fl, tmp231
	movl	%edx, 8(%rax)	# _44, fl_165(D)->b.x
# am_map.c:907:     fl->b.y = CYMTOF(ml->b.y);
	.loc 1 907 15
	movl	f_h(%rip), %ebx	# f_h, f_h.209_45
	movl	scale_mtof(%rip), %eax	# scale_mtof, scale_mtof.210_46
	movq	-56(%rbp), %rdx	# ml, tmp232
	movl	12(%rdx), %edx	# ml_155(D)->b.y, _47
	movl	m_y(%rip), %ecx	# m_y, m_y.211_48
	subl	%ecx, %edx	# m_y.211_48, _49
	movl	%eax, %esi	# scale_mtof.210_46,
	movl	%edx, %edi	# _49,
	call	FixedMul@PLT	#
# am_map.c:907:     fl->b.y = CYMTOF(ml->b.y);
	.loc 1 907 15 is_stmt 0 discriminator 1
	sarl	$16, %eax	#, _51
	subl	%eax, %ebx	# _51, f_h.209_45
	movl	%ebx, %edx	# f_h.209_45, _52
	movl	f_y(%rip), %eax	# f_y, f_y.212_53
	addl	%eax, %edx	# f_y.212_53, _54
# am_map.c:907:     fl->b.y = CYMTOF(ml->b.y);
	.loc 1 907 13 is_stmt 1 discriminator 1
	movq	-64(%rbp), %rax	# fl, tmp233
	movl	%edx, 12(%rax)	# _54, fl_165(D)->b.y
# am_map.c:909:     DOOUTCODE(outcode1, fl->a.x, fl->a.y);
	.loc 1 909 5
	movl	$0, %ebx	#, outcode1
	movq	-64(%rbp), %rax	# fl, tmp234
	movl	4(%rax), %eax	# fl_165(D)->a.y, _55
	testl	%eax, %eax	# _55
	jns	.L136	#,
# am_map.c:909:     DOOUTCODE(outcode1, fl->a.x, fl->a.y);
	.loc 1 909 5 is_stmt 0 discriminator 1
	orl	$8, %ebx	#, outcode1
	jmp	.L137	#
.L136:
# am_map.c:909:     DOOUTCODE(outcode1, fl->a.x, fl->a.y);
	.loc 1 909 5 discriminator 2
	movq	-64(%rbp), %rax	# fl, tmp235
	movl	4(%rax), %edx	# fl_165(D)->a.y, _56
	movl	f_h(%rip), %eax	# f_h, f_h.213_57
	cmpl	%eax, %edx	# f_h.213_57, _56
	jl	.L137	#,
# am_map.c:909:     DOOUTCODE(outcode1, fl->a.x, fl->a.y);
	.loc 1 909 5 discriminator 4
	orl	$4, %ebx	#, outcode1
.L137:
# am_map.c:909:     DOOUTCODE(outcode1, fl->a.x, fl->a.y);
	.loc 1 909 5 discriminator 6
	movq	-64(%rbp), %rax	# fl, tmp236
	movl	(%rax), %eax	# fl_165(D)->a.x, _58
	testl	%eax, %eax	# _58
	jns	.L138	#,
# am_map.c:909:     DOOUTCODE(outcode1, fl->a.x, fl->a.y);
	.loc 1 909 5 discriminator 7
	orl	$1, %ebx	#, outcode1
	jmp	.L139	#
.L138:
# am_map.c:909:     DOOUTCODE(outcode1, fl->a.x, fl->a.y);
	.loc 1 909 5 discriminator 8
	movq	-64(%rbp), %rax	# fl, tmp237
	movl	(%rax), %edx	# fl_165(D)->a.x, _59
	movl	f_w(%rip), %eax	# f_w, f_w.214_60
	cmpl	%eax, %edx	# f_w.214_60, _59
	jl	.L139	#,
# am_map.c:909:     DOOUTCODE(outcode1, fl->a.x, fl->a.y);
	.loc 1 909 5 discriminator 9
	orl	$2, %ebx	#, outcode1
.L139:
# am_map.c:910:     DOOUTCODE(outcode2, fl->b.x, fl->b.y);
	.loc 1 910 5 is_stmt 1
	movl	$0, %r12d	#, outcode2
	movq	-64(%rbp), %rax	# fl, tmp238
	movl	12(%rax), %eax	# fl_165(D)->b.y, _61
	testl	%eax, %eax	# _61
	jns	.L140	#,
# am_map.c:910:     DOOUTCODE(outcode2, fl->b.x, fl->b.y);
	.loc 1 910 5 is_stmt 0 discriminator 1
	orl	$8, %r12d	#, outcode2
	jmp	.L141	#
.L140:
# am_map.c:910:     DOOUTCODE(outcode2, fl->b.x, fl->b.y);
	.loc 1 910 5 discriminator 2
	movq	-64(%rbp), %rax	# fl, tmp239
	movl	12(%rax), %edx	# fl_165(D)->b.y, _62
	movl	f_h(%rip), %eax	# f_h, f_h.215_63
	cmpl	%eax, %edx	# f_h.215_63, _62
	jl	.L141	#,
# am_map.c:910:     DOOUTCODE(outcode2, fl->b.x, fl->b.y);
	.loc 1 910 5 discriminator 4
	orl	$4, %r12d	#, outcode2
.L141:
# am_map.c:910:     DOOUTCODE(outcode2, fl->b.x, fl->b.y);
	.loc 1 910 5 discriminator 6
	movq	-64(%rbp), %rax	# fl, tmp240
	movl	8(%rax), %eax	# fl_165(D)->b.x, _64
	testl	%eax, %eax	# _64
	jns	.L142	#,
# am_map.c:910:     DOOUTCODE(outcode2, fl->b.x, fl->b.y);
	.loc 1 910 5 discriminator 7
	orl	$1, %r12d	#, outcode2
	jmp	.L143	#
.L142:
# am_map.c:910:     DOOUTCODE(outcode2, fl->b.x, fl->b.y);
	.loc 1 910 5 discriminator 8
	movq	-64(%rbp), %rax	# fl, tmp241
	movl	8(%rax), %edx	# fl_165(D)->b.x, _65
	movl	f_w(%rip), %eax	# f_w, f_w.216_66
	cmpl	%eax, %edx	# f_w.216_66, _65
	jl	.L143	#,
# am_map.c:910:     DOOUTCODE(outcode2, fl->b.x, fl->b.y);
	.loc 1 910 5 discriminator 9
	orl	$2, %r12d	#, outcode2
.L143:
# am_map.c:912:     if (outcode1 & outcode2)
	.loc 1 912 18 is_stmt 1
	movl	%ebx, %eax	# outcode1, _67
	andl	%r12d, %eax	# outcode2, _67
# am_map.c:912:     if (outcode1 & outcode2)
	.loc 1 912 8
	testl	%eax, %eax	# _67
	je	.L145	#,
# am_map.c:913: 	return false;
	.loc 1 913 9
	movl	$0, %eax	#, _147
	jmp	.L161	#
.L160:
# am_map.c:919: 	if (outcode1)
	.loc 1 919 5
	testl	%ebx, %ebx	# outcode1
	je	.L146	#,
# am_map.c:920: 	    outside = outcode1;
	.loc 1 920 14
	movl	%ebx, %r13d	# outcode1, outside
	jmp	.L147	#
.L146:
# am_map.c:922: 	    outside = outcode2;
	.loc 1 922 14
	movl	%r12d, %r13d	# outcode2, outside
.L147:
# am_map.c:925: 	if (outside & TOP)
	.loc 1 925 14
	movl	%r13d, %eax	# outside, _68
	andl	$8, %eax	#, _68
# am_map.c:925: 	if (outside & TOP)
	.loc 1 925 5
	testl	%eax, %eax	# _68
	je	.L148	#,
# am_map.c:927: 	    dy = fl->a.y - fl->b.y;
	.loc 1 927 16
	movq	-64(%rbp), %rax	# fl, tmp242
	movl	4(%rax), %edx	# fl_165(D)->a.y, _69
# am_map.c:927: 	    dy = fl->a.y - fl->b.y;
	.loc 1 927 26
	movq	-64(%rbp), %rax	# fl, tmp243
	movl	12(%rax), %eax	# fl_165(D)->b.y, _70
# am_map.c:927: 	    dy = fl->a.y - fl->b.y;
	.loc 1 927 9
	subl	%eax, %edx	# _70, tmp244
	movl	%edx, -48(%rbp)	# tmp244, dy
# am_map.c:928: 	    dx = fl->b.x - fl->a.x;
	.loc 1 928 16
	movq	-64(%rbp), %rax	# fl, tmp245
	movl	8(%rax), %edx	# fl_165(D)->b.x, _71
# am_map.c:928: 	    dx = fl->b.x - fl->a.x;
	.loc 1 928 26
	movq	-64(%rbp), %rax	# fl, tmp246
	movl	(%rax), %eax	# fl_165(D)->a.x, _72
# am_map.c:928: 	    dx = fl->b.x - fl->a.x;
	.loc 1 928 9
	subl	%eax, %edx	# _72, tmp247
	movl	%edx, -44(%rbp)	# tmp247, dx
# am_map.c:929: 	    tmp.x = fl->a.x + (dx*(fl->a.y))/dy;
	.loc 1 929 19
	movq	-64(%rbp), %rax	# fl, tmp248
	movl	(%rax), %ecx	# fl_165(D)->a.x, _73
# am_map.c:929: 	    tmp.x = fl->a.x + (dx*(fl->a.y))/dy;
	.loc 1 929 34
	movq	-64(%rbp), %rax	# fl, tmp249
	movl	4(%rax), %eax	# fl_165(D)->a.y, _74
# am_map.c:929: 	    tmp.x = fl->a.x + (dx*(fl->a.y))/dy;
	.loc 1 929 27
	imull	-44(%rbp), %eax	# dx, _75
# am_map.c:929: 	    tmp.x = fl->a.x + (dx*(fl->a.y))/dy;
	.loc 1 929 38
	cltd
	idivl	-48(%rbp)	# dy
# am_map.c:929: 	    tmp.x = fl->a.x + (dx*(fl->a.y))/dy;
	.loc 1 929 22
	addl	%ecx, %eax	# _73, _77
# am_map.c:929: 	    tmp.x = fl->a.x + (dx*(fl->a.y))/dy;
	.loc 1 929 12
	movl	%eax, -40(%rbp)	# _77, tmp.x
# am_map.c:930: 	    tmp.y = 0;
	.loc 1 930 12
	movl	$0, -36(%rbp)	#, tmp.y
	jmp	.L149	#
.L148:
# am_map.c:932: 	else if (outside & BOTTOM)
	.loc 1 932 19
	movl	%r13d, %eax	# outside, _78
	andl	$4, %eax	#, _78
# am_map.c:932: 	else if (outside & BOTTOM)
	.loc 1 932 10
	testl	%eax, %eax	# _78
	je	.L150	#,
# am_map.c:934: 	    dy = fl->a.y - fl->b.y;
	.loc 1 934 16
	movq	-64(%rbp), %rax	# fl, tmp252
	movl	4(%rax), %edx	# fl_165(D)->a.y, _79
# am_map.c:934: 	    dy = fl->a.y - fl->b.y;
	.loc 1 934 26
	movq	-64(%rbp), %rax	# fl, tmp253
	movl	12(%rax), %eax	# fl_165(D)->b.y, _80
# am_map.c:934: 	    dy = fl->a.y - fl->b.y;
	.loc 1 934 9
	subl	%eax, %edx	# _80, tmp254
	movl	%edx, -48(%rbp)	# tmp254, dy
# am_map.c:935: 	    dx = fl->b.x - fl->a.x;
	.loc 1 935 16
	movq	-64(%rbp), %rax	# fl, tmp255
	movl	8(%rax), %edx	# fl_165(D)->b.x, _81
# am_map.c:935: 	    dx = fl->b.x - fl->a.x;
	.loc 1 935 26
	movq	-64(%rbp), %rax	# fl, tmp256
	movl	(%rax), %eax	# fl_165(D)->a.x, _82
# am_map.c:935: 	    dx = fl->b.x - fl->a.x;
	.loc 1 935 9
	subl	%eax, %edx	# _82, tmp257
	movl	%edx, -44(%rbp)	# tmp257, dx
# am_map.c:936: 	    tmp.x = fl->a.x + (dx*(fl->a.y-f_h))/dy;
	.loc 1 936 19
	movq	-64(%rbp), %rax	# fl, tmp258
	movl	(%rax), %ecx	# fl_165(D)->a.x, _83
# am_map.c:936: 	    tmp.x = fl->a.x + (dx*(fl->a.y-f_h))/dy;
	.loc 1 936 34
	movq	-64(%rbp), %rax	# fl, tmp259
	movl	4(%rax), %edx	# fl_165(D)->a.y, _84
# am_map.c:936: 	    tmp.x = fl->a.x + (dx*(fl->a.y-f_h))/dy;
	.loc 1 936 36
	movl	f_h(%rip), %eax	# f_h, f_h.217_85
	subl	%eax, %edx	# f_h.217_85, _86
# am_map.c:936: 	    tmp.x = fl->a.x + (dx*(fl->a.y-f_h))/dy;
	.loc 1 936 27
	movl	%edx, %eax	# _86, _86
	imull	-44(%rbp), %eax	# dx, _86
# am_map.c:936: 	    tmp.x = fl->a.x + (dx*(fl->a.y-f_h))/dy;
	.loc 1 936 42
	cltd
	idivl	-48(%rbp)	# dy
# am_map.c:936: 	    tmp.x = fl->a.x + (dx*(fl->a.y-f_h))/dy;
	.loc 1 936 22
	addl	%ecx, %eax	# _83, _89
# am_map.c:936: 	    tmp.x = fl->a.x + (dx*(fl->a.y-f_h))/dy;
	.loc 1 936 12
	movl	%eax, -40(%rbp)	# _89, tmp.x
# am_map.c:937: 	    tmp.y = f_h-1;
	.loc 1 937 17
	movl	f_h(%rip), %eax	# f_h, f_h.218_90
	subl	$1, %eax	#, _91
# am_map.c:937: 	    tmp.y = f_h-1;
	.loc 1 937 12
	movl	%eax, -36(%rbp)	# _91, tmp.y
	jmp	.L149	#
.L150:
# am_map.c:939: 	else if (outside & RIGHT)
	.loc 1 939 19
	movl	%r13d, %eax	# outside, _92
	andl	$2, %eax	#, _92
# am_map.c:939: 	else if (outside & RIGHT)
	.loc 1 939 10
	testl	%eax, %eax	# _92
	je	.L151	#,
# am_map.c:941: 	    dy = fl->b.y - fl->a.y;
	.loc 1 941 16
	movq	-64(%rbp), %rax	# fl, tmp262
	movl	12(%rax), %edx	# fl_165(D)->b.y, _93
# am_map.c:941: 	    dy = fl->b.y - fl->a.y;
	.loc 1 941 26
	movq	-64(%rbp), %rax	# fl, tmp263
	movl	4(%rax), %eax	# fl_165(D)->a.y, _94
# am_map.c:941: 	    dy = fl->b.y - fl->a.y;
	.loc 1 941 9
	subl	%eax, %edx	# _94, tmp264
	movl	%edx, -48(%rbp)	# tmp264, dy
# am_map.c:942: 	    dx = fl->b.x - fl->a.x;
	.loc 1 942 16
	movq	-64(%rbp), %rax	# fl, tmp265
	movl	8(%rax), %edx	# fl_165(D)->b.x, _95
# am_map.c:942: 	    dx = fl->b.x - fl->a.x;
	.loc 1 942 26
	movq	-64(%rbp), %rax	# fl, tmp266
	movl	(%rax), %eax	# fl_165(D)->a.x, _96
# am_map.c:942: 	    dx = fl->b.x - fl->a.x;
	.loc 1 942 9
	subl	%eax, %edx	# _96, tmp267
	movl	%edx, -44(%rbp)	# tmp267, dx
# am_map.c:943: 	    tmp.y = fl->a.y + (dy*(f_w-1 - fl->a.x))/dx;
	.loc 1 943 19
	movq	-64(%rbp), %rax	# fl, tmp268
	movl	4(%rax), %ecx	# fl_165(D)->a.y, _97
# am_map.c:943: 	    tmp.y = fl->a.y + (dy*(f_w-1 - fl->a.x))/dx;
	.loc 1 943 32
	movl	f_w(%rip), %eax	# f_w, f_w.219_98
	leal	-1(%rax), %edx	#, _99
# am_map.c:943: 	    tmp.y = fl->a.y + (dy*(f_w-1 - fl->a.x))/dx;
	.loc 1 943 42
	movq	-64(%rbp), %rax	# fl, tmp269
	movl	(%rax), %eax	# fl_165(D)->a.x, _100
# am_map.c:943: 	    tmp.y = fl->a.y + (dy*(f_w-1 - fl->a.x))/dx;
	.loc 1 943 35
	subl	%eax, %edx	# _100, _101
# am_map.c:943: 	    tmp.y = fl->a.y + (dy*(f_w-1 - fl->a.x))/dx;
	.loc 1 943 27
	movl	%edx, %eax	# _101, _101
	imull	-48(%rbp), %eax	# dy, _101
# am_map.c:943: 	    tmp.y = fl->a.y + (dy*(f_w-1 - fl->a.x))/dx;
	.loc 1 943 46
	cltd
	idivl	-44(%rbp)	# dx
# am_map.c:943: 	    tmp.y = fl->a.y + (dy*(f_w-1 - fl->a.x))/dx;
	.loc 1 943 22
	addl	%ecx, %eax	# _97, _104
# am_map.c:943: 	    tmp.y = fl->a.y + (dy*(f_w-1 - fl->a.x))/dx;
	.loc 1 943 12
	movl	%eax, -36(%rbp)	# _104, tmp.y
# am_map.c:944: 	    tmp.x = f_w-1;
	.loc 1 944 17
	movl	f_w(%rip), %eax	# f_w, f_w.220_105
	subl	$1, %eax	#, _106
# am_map.c:944: 	    tmp.x = f_w-1;
	.loc 1 944 12
	movl	%eax, -40(%rbp)	# _106, tmp.x
	jmp	.L149	#
.L151:
# am_map.c:946: 	else if (outside & LEFT)
	.loc 1 946 19
	movl	%r13d, %eax	# outside, _107
	andl	$1, %eax	#, _107
# am_map.c:946: 	else if (outside & LEFT)
	.loc 1 946 10
	testl	%eax, %eax	# _107
	je	.L149	#,
# am_map.c:948: 	    dy = fl->b.y - fl->a.y;
	.loc 1 948 16
	movq	-64(%rbp), %rax	# fl, tmp272
	movl	12(%rax), %edx	# fl_165(D)->b.y, _108
# am_map.c:948: 	    dy = fl->b.y - fl->a.y;
	.loc 1 948 26
	movq	-64(%rbp), %rax	# fl, tmp273
	movl	4(%rax), %eax	# fl_165(D)->a.y, _109
# am_map.c:948: 	    dy = fl->b.y - fl->a.y;
	.loc 1 948 9
	subl	%eax, %edx	# _109, tmp274
	movl	%edx, -48(%rbp)	# tmp274, dy
# am_map.c:949: 	    dx = fl->b.x - fl->a.x;
	.loc 1 949 16
	movq	-64(%rbp), %rax	# fl, tmp275
	movl	8(%rax), %edx	# fl_165(D)->b.x, _110
# am_map.c:949: 	    dx = fl->b.x - fl->a.x;
	.loc 1 949 26
	movq	-64(%rbp), %rax	# fl, tmp276
	movl	(%rax), %eax	# fl_165(D)->a.x, _111
# am_map.c:949: 	    dx = fl->b.x - fl->a.x;
	.loc 1 949 9
	subl	%eax, %edx	# _111, tmp277
	movl	%edx, -44(%rbp)	# tmp277, dx
# am_map.c:950: 	    tmp.y = fl->a.y + (dy*(-fl->a.x))/dx;
	.loc 1 950 19
	movq	-64(%rbp), %rax	# fl, tmp278
	movl	4(%rax), %ecx	# fl_165(D)->a.y, _112
# am_map.c:950: 	    tmp.y = fl->a.y + (dy*(-fl->a.x))/dx;
	.loc 1 950 35
	movq	-64(%rbp), %rax	# fl, tmp279
	movl	(%rax), %eax	# fl_165(D)->a.x, _113
# am_map.c:950: 	    tmp.y = fl->a.y + (dy*(-fl->a.x))/dx;
	.loc 1 950 29
	negl	%eax	# _114
# am_map.c:950: 	    tmp.y = fl->a.y + (dy*(-fl->a.x))/dx;
	.loc 1 950 27
	imull	-48(%rbp), %eax	# dy, _115
# am_map.c:950: 	    tmp.y = fl->a.y + (dy*(-fl->a.x))/dx;
	.loc 1 950 39
	cltd
	idivl	-44(%rbp)	# dx
# am_map.c:950: 	    tmp.y = fl->a.y + (dy*(-fl->a.x))/dx;
	.loc 1 950 22
	addl	%ecx, %eax	# _112, _117
# am_map.c:950: 	    tmp.y = fl->a.y + (dy*(-fl->a.x))/dx;
	.loc 1 950 12
	movl	%eax, -36(%rbp)	# _117, tmp.y
# am_map.c:951: 	    tmp.x = 0;
	.loc 1 951 12
	movl	$0, -40(%rbp)	#, tmp.x
.L149:
# am_map.c:954: 	if (outside == outcode1)
	.loc 1 954 5
	cmpl	%ebx, %r13d	# outcode1, outside
	jne	.L152	#,
# am_map.c:956: 	    fl->a = tmp;
	.loc 1 956 12
	movq	-64(%rbp), %rax	# fl, tmp282
	movq	-40(%rbp), %rdx	# tmp, tmp283
	movq	%rdx, (%rax)	# tmp283, fl_165(D)->a
# am_map.c:957: 	    DOOUTCODE(outcode1, fl->a.x, fl->a.y);
	.loc 1 957 6
	movl	$0, %ebx	#, outcode1
	movq	-64(%rbp), %rax	# fl, tmp284
	movl	4(%rax), %eax	# fl_165(D)->a.y, _118
	testl	%eax, %eax	# _118
	jns	.L153	#,
# am_map.c:957: 	    DOOUTCODE(outcode1, fl->a.x, fl->a.y);
	.loc 1 957 6 is_stmt 0 discriminator 1
	orl	$8, %ebx	#, outcode1
	jmp	.L154	#
.L153:
# am_map.c:957: 	    DOOUTCODE(outcode1, fl->a.x, fl->a.y);
	.loc 1 957 6 discriminator 2
	movq	-64(%rbp), %rax	# fl, tmp285
	movl	4(%rax), %edx	# fl_165(D)->a.y, _119
	movl	f_h(%rip), %eax	# f_h, f_h.221_120
	cmpl	%eax, %edx	# f_h.221_120, _119
	jl	.L154	#,
# am_map.c:957: 	    DOOUTCODE(outcode1, fl->a.x, fl->a.y);
	.loc 1 957 6 discriminator 4
	orl	$4, %ebx	#, outcode1
.L154:
# am_map.c:957: 	    DOOUTCODE(outcode1, fl->a.x, fl->a.y);
	.loc 1 957 6 discriminator 6
	movq	-64(%rbp), %rax	# fl, tmp286
	movl	(%rax), %eax	# fl_165(D)->a.x, _121
	testl	%eax, %eax	# _121
	jns	.L155	#,
# am_map.c:957: 	    DOOUTCODE(outcode1, fl->a.x, fl->a.y);
	.loc 1 957 6 discriminator 7
	orl	$1, %ebx	#, outcode1
	jmp	.L156	#
.L155:
# am_map.c:957: 	    DOOUTCODE(outcode1, fl->a.x, fl->a.y);
	.loc 1 957 6 discriminator 8
	movq	-64(%rbp), %rax	# fl, tmp287
	movl	(%rax), %edx	# fl_165(D)->a.x, _122
	movl	f_w(%rip), %eax	# f_w, f_w.222_123
	cmpl	%eax, %edx	# f_w.222_123, _122
	jl	.L156	#,
# am_map.c:957: 	    DOOUTCODE(outcode1, fl->a.x, fl->a.y);
	.loc 1 957 6 discriminator 9
	orl	$2, %ebx	#, outcode1
	jmp	.L156	#
.L152:
# am_map.c:961: 	    fl->b = tmp;
	.loc 1 961 12 is_stmt 1
	movq	-64(%rbp), %rax	# fl, tmp288
	movq	-40(%rbp), %rdx	# tmp, tmp289
	movq	%rdx, 8(%rax)	# tmp289, fl_165(D)->b
# am_map.c:962: 	    DOOUTCODE(outcode2, fl->b.x, fl->b.y);
	.loc 1 962 6
	movl	$0, %r12d	#, outcode2
	movq	-64(%rbp), %rax	# fl, tmp290
	movl	12(%rax), %eax	# fl_165(D)->b.y, _124
	testl	%eax, %eax	# _124
	jns	.L157	#,
# am_map.c:962: 	    DOOUTCODE(outcode2, fl->b.x, fl->b.y);
	.loc 1 962 6 is_stmt 0 discriminator 1
	orl	$8, %r12d	#, outcode2
	jmp	.L158	#
.L157:
# am_map.c:962: 	    DOOUTCODE(outcode2, fl->b.x, fl->b.y);
	.loc 1 962 6 discriminator 2
	movq	-64(%rbp), %rax	# fl, tmp291
	movl	12(%rax), %edx	# fl_165(D)->b.y, _125
	movl	f_h(%rip), %eax	# f_h, f_h.223_126
	cmpl	%eax, %edx	# f_h.223_126, _125
	jl	.L158	#,
# am_map.c:962: 	    DOOUTCODE(outcode2, fl->b.x, fl->b.y);
	.loc 1 962 6 discriminator 4
	orl	$4, %r12d	#, outcode2
.L158:
# am_map.c:962: 	    DOOUTCODE(outcode2, fl->b.x, fl->b.y);
	.loc 1 962 6 discriminator 6
	movq	-64(%rbp), %rax	# fl, tmp292
	movl	8(%rax), %eax	# fl_165(D)->b.x, _127
	testl	%eax, %eax	# _127
	jns	.L159	#,
# am_map.c:962: 	    DOOUTCODE(outcode2, fl->b.x, fl->b.y);
	.loc 1 962 6 discriminator 7
	orl	$1, %r12d	#, outcode2
	jmp	.L156	#
.L159:
# am_map.c:962: 	    DOOUTCODE(outcode2, fl->b.x, fl->b.y);
	.loc 1 962 6 discriminator 8
	movq	-64(%rbp), %rax	# fl, tmp293
	movl	8(%rax), %edx	# fl_165(D)->b.x, _128
	movl	f_w(%rip), %eax	# f_w, f_w.224_129
	cmpl	%eax, %edx	# f_w.224_129, _128
	jl	.L156	#,
# am_map.c:962: 	    DOOUTCODE(outcode2, fl->b.x, fl->b.y);
	.loc 1 962 6 discriminator 9
	orl	$2, %r12d	#, outcode2
.L156:
# am_map.c:965: 	if (outcode1 & outcode2)
	.loc 1 965 15 is_stmt 1
	movl	%ebx, %eax	# outcode1, _130
	andl	%r12d, %eax	# outcode2, _130
# am_map.c:965: 	if (outcode1 & outcode2)
	.loc 1 965 5
	testl	%eax, %eax	# _130
	je	.L145	#,
# am_map.c:966: 	    return false; // trivially outside
	.loc 1 966 13
	movl	$0, %eax	#, _147
	jmp	.L161	#
.L145:
# am_map.c:915:     while (outcode1 | outcode2)
	.loc 1 915 21
	movl	%ebx, %eax	# outcode1, _131
	orl	%r12d, %eax	# outcode2, _131
# am_map.c:915:     while (outcode1 | outcode2)
	.loc 1 915 12
	testl	%eax, %eax	# _131
	jne	.L160	#,
# am_map.c:969:     return true;
	.loc 1 969 12
	movl	$1, %eax	#, _147
.L161:
# am_map.c:970: }
	.loc 1 970 1
	addq	$40, %rsp	#,
	popq	%rbx	#
	popq	%r12	#
	popq	%r13	#
	popq	%rbp	#
	.cfi_def_cfa 7, 8
	ret	
	.cfi_endproc
.LFE22:
	.size	AM_clipMline, .-AM_clipMline
	.section	.rodata
.LC9:
	.string	"fuck %d \r"
	.text
	.globl	AM_drawFline
	.type	AM_drawFline, @function
AM_drawFline:
.LFB23:
	.loc 1 981 1
	.cfi_startproc
	endbr64	
	pushq	%rbp	#
	.cfi_def_cfa_offset 16
	.cfi_offset 6, -16
	movq	%rsp, %rbp	#,
	.cfi_def_cfa_register 6
	pushq	%r15	#
	pushq	%r14	#
	pushq	%r13	#
	pushq	%r12	#
	pushq	%rbx	#
	subq	$24, %rsp	#,
	.cfi_offset 15, -24
	.cfi_offset 14, -32
	.cfi_offset 13, -40
	.cfi_offset 12, -48
	.cfi_offset 3, -56
	movq	%rdi, -56(%rbp)	# fl, fl
	movl	%esi, -60(%rbp)	# color, color
# am_map.c:995:     if (      fl->a.x < 0 || fl->a.x >= f_w
	.loc 1 995 20
	movq	-56(%rbp), %rax	# fl, tmp132
	movl	(%rax), %eax	# fl_57(D)->a.x, _1
# am_map.c:995:     if (      fl->a.x < 0 || fl->a.x >= f_w
	.loc 1 995 8
	testl	%eax, %eax	# _1
	js	.L163	#,
# am_map.c:995:     if (      fl->a.x < 0 || fl->a.x >= f_w
	.loc 1 995 35 discriminator 1
	movq	-56(%rbp), %rax	# fl, tmp133
	movl	(%rax), %edx	# fl_57(D)->a.x, _2
# am_map.c:995:     if (      fl->a.x < 0 || fl->a.x >= f_w
	.loc 1 995 38 discriminator 1
	movl	f_w(%rip), %eax	# f_w, f_w.225_3
# am_map.c:995:     if (      fl->a.x < 0 || fl->a.x >= f_w
	.loc 1 995 27 discriminator 1
	cmpl	%eax, %edx	# f_w.225_3, _2
	jge	.L163	#,
# am_map.c:996: 	   || fl->a.y < 0 || fl->a.y >= f_h
	.loc 1 996 13
	movq	-56(%rbp), %rax	# fl, tmp134
	movl	4(%rax), %eax	# fl_57(D)->a.y, _4
# am_map.c:996: 	   || fl->a.y < 0 || fl->a.y >= f_h
	.loc 1 996 5
	testl	%eax, %eax	# _4
	js	.L163	#,
# am_map.c:996: 	   || fl->a.y < 0 || fl->a.y >= f_h
	.loc 1 996 28 discriminator 1
	movq	-56(%rbp), %rax	# fl, tmp135
	movl	4(%rax), %edx	# fl_57(D)->a.y, _5
# am_map.c:996: 	   || fl->a.y < 0 || fl->a.y >= f_h
	.loc 1 996 31 discriminator 1
	movl	f_h(%rip), %eax	# f_h, f_h.226_6
# am_map.c:996: 	   || fl->a.y < 0 || fl->a.y >= f_h
	.loc 1 996 20 discriminator 1
	cmpl	%eax, %edx	# f_h.226_6, _5
	jge	.L163	#,
# am_map.c:997: 	   || fl->b.x < 0 || fl->b.x >= f_w
	.loc 1 997 13
	movq	-56(%rbp), %rax	# fl, tmp136
	movl	8(%rax), %eax	# fl_57(D)->b.x, _7
# am_map.c:997: 	   || fl->b.x < 0 || fl->b.x >= f_w
	.loc 1 997 5
	testl	%eax, %eax	# _7
	js	.L163	#,
# am_map.c:997: 	   || fl->b.x < 0 || fl->b.x >= f_w
	.loc 1 997 28 discriminator 1
	movq	-56(%rbp), %rax	# fl, tmp137
	movl	8(%rax), %edx	# fl_57(D)->b.x, _8
# am_map.c:997: 	   || fl->b.x < 0 || fl->b.x >= f_w
	.loc 1 997 31 discriminator 1
	movl	f_w(%rip), %eax	# f_w, f_w.227_9
# am_map.c:997: 	   || fl->b.x < 0 || fl->b.x >= f_w
	.loc 1 997 20 discriminator 1
	cmpl	%eax, %edx	# f_w.227_9, _8
	jge	.L163	#,
# am_map.c:998: 	   || fl->b.y < 0 || fl->b.y >= f_h)
	.loc 1 998 13
	movq	-56(%rbp), %rax	# fl, tmp138
	movl	12(%rax), %eax	# fl_57(D)->b.y, _10
# am_map.c:998: 	   || fl->b.y < 0 || fl->b.y >= f_h)
	.loc 1 998 5
	testl	%eax, %eax	# _10
	js	.L163	#,
# am_map.c:998: 	   || fl->b.y < 0 || fl->b.y >= f_h)
	.loc 1 998 28 discriminator 1
	movq	-56(%rbp), %rax	# fl, tmp139
	movl	12(%rax), %edx	# fl_57(D)->b.y, _11
# am_map.c:998: 	   || fl->b.y < 0 || fl->b.y >= f_h)
	.loc 1 998 31 discriminator 1
	movl	f_h(%rip), %eax	# f_h, f_h.228_12
# am_map.c:998: 	   || fl->b.y < 0 || fl->b.y >= f_h)
	.loc 1 998 20 discriminator 1
	cmpl	%eax, %edx	# f_h.228_12, _11
	jl	.L164	#,
.L163:
# am_map.c:1000: 	fprintf(stderr, "fuck %d \r", fuck++);
	.loc 1 1000 2
	movl	fuck.3(%rip), %eax	# fuck, fuck.229_13
	leal	1(%rax), %edx	#, _15
	movl	%edx, fuck.3(%rip)	# _15, fuck
	movq	stderr(%rip), %rcx	# stderr, stderr.231_16
	movl	%eax, %edx	# fuck.229_13,
	leaq	.LC9(%rip), %rax	#, tmp140
	movq	%rax, %rsi	# tmp140,
	movq	%rcx, %rdi	# stderr.231_16,
	movl	$0, %eax	#,
	call	fprintf@PLT	#
# am_map.c:1001: 	return;
	.loc 1 1001 2
	jmp	.L162	#
.L164:
# am_map.c:1006:     dx = fl->b.x - fl->a.x;
	.loc 1 1006 15
	movq	-56(%rbp), %rax	# fl, tmp141
	movl	8(%rax), %edx	# fl_57(D)->b.x, _17
# am_map.c:1006:     dx = fl->b.x - fl->a.x;
	.loc 1 1006 25
	movq	-56(%rbp), %rax	# fl, tmp142
	movl	(%rax), %eax	# fl_57(D)->a.x, _18
# am_map.c:1006:     dx = fl->b.x - fl->a.x;
	.loc 1 1006 8
	movl	%edx, %ebx	# _17, _17
	subl	%eax, %ebx	# _18, _17
# am_map.c:1007:     ax = 2 * (dx<0 ? -dx : dx);
	.loc 1 1007 26
	movl	%ebx, %eax	# dx, tmp158
	negl	%eax	# tmp158
	cmovs	%ebx, %eax	# tmp158,, dx, _19
# am_map.c:1007:     ax = 2 * (dx<0 ? -dx : dx);
	.loc 1 1007 8
	leal	(%rax,%rax), %r15d	#, ax
# am_map.c:1008:     sx = dx<0 ? -1 : 1;
	.loc 1 1008 20
	testl	%ebx, %ebx	# dx
	jns	.L166	#,
# am_map.c:1008:     sx = dx<0 ? -1 : 1;
	.loc 1 1008 20 is_stmt 0 discriminator 1
	movl	$-1, %eax	#, iftmp.232_51
	jmp	.L167	#
.L166:
# am_map.c:1008:     sx = dx<0 ? -1 : 1;
	.loc 1 1008 20 discriminator 2
	movl	$1, %eax	#, iftmp.232_51
.L167:
# am_map.c:1008:     sx = dx<0 ? -1 : 1;
	.loc 1 1008 8 is_stmt 1 discriminator 4
	movl	%eax, %ecx	# iftmp.232_51, sx
# am_map.c:1010:     dy = fl->b.y - fl->a.y;
	.loc 1 1010 15
	movq	-56(%rbp), %rax	# fl, tmp143
	movl	12(%rax), %edx	# fl_57(D)->b.y, _20
# am_map.c:1010:     dy = fl->b.y - fl->a.y;
	.loc 1 1010 25
	movq	-56(%rbp), %rax	# fl, tmp144
	movl	4(%rax), %eax	# fl_57(D)->a.y, _21
# am_map.c:1010:     dy = fl->b.y - fl->a.y;
	.loc 1 1010 8
	movl	%edx, %ebx	# _20, _20
	subl	%eax, %ebx	# _21, _20
# am_map.c:1011:     ay = 2 * (dy<0 ? -dy : dy);
	.loc 1 1011 26
	movl	%ebx, %eax	# dy, tmp157
	negl	%eax	# tmp157
	cmovs	%ebx, %eax	# tmp157,, dy, _22
# am_map.c:1011:     ay = 2 * (dy<0 ? -dy : dy);
	.loc 1 1011 8
	leal	(%rax,%rax), %r14d	#, ay
# am_map.c:1012:     sy = dy<0 ? -1 : 1;
	.loc 1 1012 20
	testl	%ebx, %ebx	# dy
	jns	.L168	#,
# am_map.c:1012:     sy = dy<0 ? -1 : 1;
	.loc 1 1012 20 is_stmt 0 discriminator 1
	movl	$-1, %eax	#, iftmp.233_52
	jmp	.L169	#
.L168:
# am_map.c:1012:     sy = dy<0 ? -1 : 1;
	.loc 1 1012 20 discriminator 2
	movl	$1, %eax	#, iftmp.233_52
.L169:
# am_map.c:1012:     sy = dy<0 ? -1 : 1;
	.loc 1 1012 8 is_stmt 1 discriminator 4
	movl	%eax, %esi	# iftmp.233_52, sy
# am_map.c:1014:     x = fl->a.x;
	.loc 1 1014 7
	movq	-56(%rbp), %rax	# fl, tmp145
	movl	(%rax), %r13d	# fl_57(D)->a.x, x
# am_map.c:1015:     y = fl->a.y;
	.loc 1 1015 7
	movq	-56(%rbp), %rax	# fl, tmp146
	movl	4(%rax), %r12d	# fl_57(D)->a.y, y
# am_map.c:1017:     if (ax > ay)
	.loc 1 1017 8
	cmpl	%r14d, %r15d	# ay, ax
	jle	.L170	#,
# am_map.c:1019: 	d = ay - ax/2;
	.loc 1 1019 13
	movl	%r15d, %eax	# ax, tmp147
	shrl	$31, %eax	#, tmp147
	addl	%r15d, %eax	# ax, tmp148
	sarl	%eax	# tmp149
	negl	%eax	# tmp149
# am_map.c:1019: 	d = ay - ax/2;
	.loc 1 1019 4
	leal	(%r14,%rax), %ebx	#, d
.L173:
# am_map.c:1022: 	    PUTDOT(x,y,color);
	.loc 1 1022 6
	movq	fb(%rip), %rdx	# fb, fb.234_24
	movl	f_w(%rip), %eax	# f_w, f_w.235_25
	imull	%r12d, %eax	# y, _26
	addl	%r13d, %eax	# x, _27
	cltq
	addq	%rdx, %rax	# fb.234_24, _29
	movl	-60(%rbp), %edx	# color, tmp150
	movb	%dl, (%rax)	# _30, *_29
# am_map.c:1023: 	    if (x == fl->b.x) return;
	.loc 1 1023 20
	movq	-56(%rbp), %rax	# fl, tmp151
	movl	8(%rax), %eax	# fl_57(D)->b.x, _31
# am_map.c:1023: 	    if (x == fl->b.x) return;
	.loc 1 1023 9
	cmpl	%eax, %r13d	# _31, x
	je	.L177	#,
# am_map.c:1024: 	    if (d>=0)
	.loc 1 1024 9
	testl	%ebx, %ebx	# d
	js	.L172	#,
# am_map.c:1026: 		y += sy;
	.loc 1 1026 5
	movl	%esi, %eax	# sy, sy
	addl	%eax, %r12d	# sy, y
# am_map.c:1027: 		d -= ax;
	.loc 1 1027 5
	subl	%r15d, %ebx	# ax, d
.L172:
# am_map.c:1029: 	    x += sx;
	.loc 1 1029 8
	movl	%ecx, %eax	# sx, sx
	addl	%eax, %r13d	# sx, x
# am_map.c:1030: 	    d += ay;
	.loc 1 1030 8
	addl	%r14d, %ebx	# ay, d
# am_map.c:1022: 	    PUTDOT(x,y,color);
	.loc 1 1022 6
	jmp	.L173	#
.L170:
# am_map.c:1035: 	d = ax - ay/2;
	.loc 1 1035 13
	movl	%r14d, %eax	# ay, tmp152
	shrl	$31, %eax	#, tmp152
	addl	%r14d, %eax	# ay, tmp153
	sarl	%eax	# tmp154
	negl	%eax	# tmp154
# am_map.c:1035: 	d = ax - ay/2;
	.loc 1 1035 4
	leal	(%r15,%rax), %ebx	#, d
.L176:
# am_map.c:1038: 	    PUTDOT(x, y, color);
	.loc 1 1038 6
	movq	fb(%rip), %rdx	# fb, fb.236_33
	movl	f_w(%rip), %eax	# f_w, f_w.237_34
	imull	%r12d, %eax	# y, _35
	addl	%r13d, %eax	# x, _36
	cltq
	addq	%rdx, %rax	# fb.236_33, _38
	movl	-60(%rbp), %edx	# color, tmp155
	movb	%dl, (%rax)	# _39, *_38
# am_map.c:1039: 	    if (y == fl->b.y) return;
	.loc 1 1039 20
	movq	-56(%rbp), %rax	# fl, tmp156
	movl	12(%rax), %eax	# fl_57(D)->b.y, _40
# am_map.c:1039: 	    if (y == fl->b.y) return;
	.loc 1 1039 9
	cmpl	%eax, %r12d	# _40, y
	je	.L178	#,
# am_map.c:1040: 	    if (d >= 0)
	.loc 1 1040 9
	testl	%ebx, %ebx	# d
	js	.L175	#,
# am_map.c:1042: 		x += sx;
	.loc 1 1042 5
	movl	%ecx, %eax	# sx, sx
	addl	%eax, %r13d	# sx, x
# am_map.c:1043: 		d -= ay;
	.loc 1 1043 5
	subl	%r14d, %ebx	# ay, d
.L175:
# am_map.c:1045: 	    y += sy;
	.loc 1 1045 8
	movl	%esi, %eax	# sy, sy
	addl	%eax, %r12d	# sy, y
# am_map.c:1046: 	    d += ax;
	.loc 1 1046 8
	addl	%r15d, %ebx	# ax, d
# am_map.c:1038: 	    PUTDOT(x, y, color);
	.loc 1 1038 6
	jmp	.L176	#
.L177:
# am_map.c:1023: 	    if (x == fl->b.x) return;
	.loc 1 1023 24
	nop	
	jmp	.L162	#
.L178:
# am_map.c:1039: 	    if (y == fl->b.y) return;
	.loc 1 1039 24
	nop	
.L162:
# am_map.c:1049: }
	.loc 1 1049 1
	addq	$24, %rsp	#,
	popq	%rbx	#
	popq	%r12	#
	popq	%r13	#
	popq	%r14	#
	popq	%r15	#
	popq	%rbp	#
	.cfi_def_cfa 7, 8
	ret	
	.cfi_endproc
.LFE23:
	.size	AM_drawFline, .-AM_drawFline
	.globl	AM_drawMline
	.type	AM_drawMline, @function
AM_drawMline:
.LFB24:
	.loc 1 1059 1
	.cfi_startproc
	endbr64	
	pushq	%rbp	#
	.cfi_def_cfa_offset 16
	.cfi_offset 6, -16
	movq	%rsp, %rbp	#,
	.cfi_def_cfa_register 6
	subq	$16, %rsp	#,
	movq	%rdi, -8(%rbp)	# ml, ml
	movl	%esi, -12(%rbp)	# color, color
# am_map.c:1062:     if (AM_clipMline(ml, &fl))
	.loc 1 1062 9
	movq	-8(%rbp), %rax	# ml, tmp83
	leaq	fl.2(%rip), %rdx	#, tmp84
	movq	%rdx, %rsi	# tmp84,
	movq	%rax, %rdi	# tmp83,
	call	AM_clipMline	#
# am_map.c:1062:     if (AM_clipMline(ml, &fl))
	.loc 1 1062 8 discriminator 1
	testl	%eax, %eax	# _1
	je	.L181	#,
# am_map.c:1063: 	AM_drawFline(&fl, color); // draws it on frame buffer using fb coords
	.loc 1 1063 2
	movl	-12(%rbp), %eax	# color, tmp85
	movl	%eax, %esi	# tmp85,
	leaq	fl.2(%rip), %rax	#, tmp86
	movq	%rax, %rdi	# tmp86,
	call	AM_drawFline	#
.L181:
# am_map.c:1064: }
	.loc 1 1064 1
	nop	
	leave	
	.cfi_def_cfa 7, 8
	ret	
	.cfi_endproc
.LFE24:
	.size	AM_drawMline, .-AM_drawMline
	.globl	AM_drawGrid
	.type	AM_drawGrid, @function
AM_drawGrid:
.LFB25:
	.loc 1 1072 1
	.cfi_startproc
	endbr64	
	pushq	%rbp	#
	.cfi_def_cfa_offset 16
	.cfi_offset 6, -16
	movq	%rsp, %rbp	#,
	.cfi_def_cfa_register 6
	subq	$64, %rsp	#,
	movl	%edi, -52(%rbp)	# color, color
# am_map.c:1072: {
	.loc 1 1072 1
	movq	%fs:40, %rax	# MEM[(<address-space-1> long unsigned int *)40B], tmp142
	movq	%rax, -8(%rbp)	# tmp142, D.8037
	xorl	%eax, %eax	# tmp142
# am_map.c:1078:     start = m_x;
	.loc 1 1078 11
	movl	m_x(%rip), %eax	# m_x, tmp110
	movl	%eax, -40(%rbp)	# tmp110, start
# am_map.c:1079:     if ((start-bmaporgx)%(MAPBLOCKUNITS<<FRACBITS))
	.loc 1 1079 15
	movl	bmaporgx(%rip), %eax	# bmaporgx, bmaporgx.238_1
	movl	-40(%rbp), %edx	# start, tmp111
	subl	%eax, %edx	# bmaporgx.238_1, _2
# am_map.c:1079:     if ((start-bmaporgx)%(MAPBLOCKUNITS<<FRACBITS))
	.loc 1 1079 9
	movl	%edx, %eax	# _2, _3
	andl	$8388607, %eax	#, _4
# am_map.c:1079:     if ((start-bmaporgx)%(MAPBLOCKUNITS<<FRACBITS))
	.loc 1 1079 8
	testl	%eax, %eax	# _4
	je	.L183	#,
# am_map.c:1081: 	    - ((start-bmaporgx)%(MAPBLOCKUNITS<<FRACBITS));
	.loc 1 1081 15
	movl	bmaporgx(%rip), %eax	# bmaporgx, bmaporgx.239_5
	movl	-40(%rbp), %edx	# start, tmp112
	subl	%eax, %edx	# bmaporgx.239_5, _6
# am_map.c:1081: 	    - ((start-bmaporgx)%(MAPBLOCKUNITS<<FRACBITS));
	.loc 1 1081 25
	movl	%edx, %eax	# _6, tmp113
	sarl	$31, %eax	#, tmp113
	shrl	$9, %eax	#, tmp114
	addl	%eax, %edx	# tmp114, tmp115
	andl	$8388607, %edx	#, tmp116
	subl	%eax, %edx	# tmp114, tmp117
# am_map.c:1081: 	    - ((start-bmaporgx)%(MAPBLOCKUNITS<<FRACBITS));
	.loc 1 1081 6
	movl	$8388608, %eax	#, tmp118
	subl	%edx, %eax	# _7, _8
# am_map.c:1080: 	start += (MAPBLOCKUNITS<<FRACBITS)
	.loc 1 1080 8
	addl	%eax, -40(%rbp)	# _8, start
.L183:
# am_map.c:1082:     end = m_x + m_w;
	.loc 1 1082 15
	movl	m_x(%rip), %edx	# m_x, m_x.240_9
	movl	m_w(%rip), %eax	# m_w, m_w.241_10
# am_map.c:1082:     end = m_x + m_w;
	.loc 1 1082 9
	addl	%edx, %eax	# m_x.240_9, tmp119
	movl	%eax, -36(%rbp)	# tmp119, end
# am_map.c:1085:     ml.a.y = m_y;
	.loc 1 1085 12
	movl	m_y(%rip), %eax	# m_y, m_y.242_11
	movl	%eax, -28(%rbp)	# m_y.242_11, ml.a.y
# am_map.c:1086:     ml.b.y = m_y+m_h;
	.loc 1 1086 17
	movl	m_y(%rip), %edx	# m_y, m_y.243_12
	movl	m_h(%rip), %eax	# m_h, m_h.244_13
	addl	%edx, %eax	# m_y.243_12, _14
# am_map.c:1086:     ml.b.y = m_y+m_h;
	.loc 1 1086 12
	movl	%eax, -20(%rbp)	# _14, ml.b.y
# am_map.c:1087:     for (x=start; x<end; x+=(MAPBLOCKUNITS<<FRACBITS))
	.loc 1 1087 11
	movl	-40(%rbp), %eax	# start, tmp120
	movl	%eax, -48(%rbp)	# tmp120, x
# am_map.c:1087:     for (x=start; x<end; x+=(MAPBLOCKUNITS<<FRACBITS))
	.loc 1 1087 5
	jmp	.L184	#
.L185:
# am_map.c:1089: 	ml.a.x = x;
	.loc 1 1089 9
	movl	-48(%rbp), %eax	# x, tmp121
	movl	%eax, -32(%rbp)	# tmp121, ml.a.x
# am_map.c:1090: 	ml.b.x = x;
	.loc 1 1090 9
	movl	-48(%rbp), %eax	# x, tmp122
	movl	%eax, -24(%rbp)	# tmp122, ml.b.x
# am_map.c:1091: 	AM_drawMline(&ml, color);
	.loc 1 1091 2
	movl	-52(%rbp), %edx	# color, tmp123
	leaq	-32(%rbp), %rax	#, tmp124
	movl	%edx, %esi	# tmp123,
	movq	%rax, %rdi	# tmp124,
	call	AM_drawMline	#
# am_map.c:1087:     for (x=start; x<end; x+=(MAPBLOCKUNITS<<FRACBITS))
	.loc 1 1087 27 discriminator 3
	addl	$8388608, -48(%rbp)	#, x
.L184:
# am_map.c:1087:     for (x=start; x<end; x+=(MAPBLOCKUNITS<<FRACBITS))
	.loc 1 1087 20 discriminator 1
	movl	-48(%rbp), %eax	# x, tmp125
	cmpl	-36(%rbp), %eax	# end, tmp125
	jl	.L185	#,
# am_map.c:1095:     start = m_y;
	.loc 1 1095 11
	movl	m_y(%rip), %eax	# m_y, tmp126
	movl	%eax, -40(%rbp)	# tmp126, start
# am_map.c:1096:     if ((start-bmaporgy)%(MAPBLOCKUNITS<<FRACBITS))
	.loc 1 1096 15
	movl	bmaporgy(%rip), %eax	# bmaporgy, bmaporgy.245_15
	movl	-40(%rbp), %edx	# start, tmp127
	subl	%eax, %edx	# bmaporgy.245_15, _16
# am_map.c:1096:     if ((start-bmaporgy)%(MAPBLOCKUNITS<<FRACBITS))
	.loc 1 1096 9
	movl	%edx, %eax	# _16, _17
	andl	$8388607, %eax	#, _18
# am_map.c:1096:     if ((start-bmaporgy)%(MAPBLOCKUNITS<<FRACBITS))
	.loc 1 1096 8
	testl	%eax, %eax	# _18
	je	.L186	#,
# am_map.c:1098: 	    - ((start-bmaporgy)%(MAPBLOCKUNITS<<FRACBITS));
	.loc 1 1098 15
	movl	bmaporgy(%rip), %eax	# bmaporgy, bmaporgy.246_19
	movl	-40(%rbp), %edx	# start, tmp128
	subl	%eax, %edx	# bmaporgy.246_19, _20
# am_map.c:1098: 	    - ((start-bmaporgy)%(MAPBLOCKUNITS<<FRACBITS));
	.loc 1 1098 25
	movl	%edx, %eax	# _20, tmp129
	sarl	$31, %eax	#, tmp129
	shrl	$9, %eax	#, tmp130
	addl	%eax, %edx	# tmp130, tmp131
	andl	$8388607, %edx	#, tmp132
	subl	%eax, %edx	# tmp130, tmp133
# am_map.c:1098: 	    - ((start-bmaporgy)%(MAPBLOCKUNITS<<FRACBITS));
	.loc 1 1098 6
	movl	$8388608, %eax	#, tmp134
	subl	%edx, %eax	# _21, _22
# am_map.c:1097: 	start += (MAPBLOCKUNITS<<FRACBITS)
	.loc 1 1097 8
	addl	%eax, -40(%rbp)	# _22, start
.L186:
# am_map.c:1099:     end = m_y + m_h;
	.loc 1 1099 15
	movl	m_y(%rip), %edx	# m_y, m_y.247_23
	movl	m_h(%rip), %eax	# m_h, m_h.248_24
# am_map.c:1099:     end = m_y + m_h;
	.loc 1 1099 9
	addl	%edx, %eax	# m_y.247_23, tmp135
	movl	%eax, -36(%rbp)	# tmp135, end
# am_map.c:1102:     ml.a.x = m_x;
	.loc 1 1102 12
	movl	m_x(%rip), %eax	# m_x, m_x.249_25
	movl	%eax, -32(%rbp)	# m_x.249_25, ml.a.x
# am_map.c:1103:     ml.b.x = m_x + m_w;
	.loc 1 1103 18
	movl	m_x(%rip), %edx	# m_x, m_x.250_26
	movl	m_w(%rip), %eax	# m_w, m_w.251_27
	addl	%edx, %eax	# m_x.250_26, _28
# am_map.c:1103:     ml.b.x = m_x + m_w;
	.loc 1 1103 12
	movl	%eax, -24(%rbp)	# _28, ml.b.x
# am_map.c:1104:     for (y=start; y<end; y+=(MAPBLOCKUNITS<<FRACBITS))
	.loc 1 1104 11
	movl	-40(%rbp), %eax	# start, tmp136
	movl	%eax, -44(%rbp)	# tmp136, y
# am_map.c:1104:     for (y=start; y<end; y+=(MAPBLOCKUNITS<<FRACBITS))
	.loc 1 1104 5
	jmp	.L187	#
.L188:
# am_map.c:1106: 	ml.a.y = y;
	.loc 1 1106 9
	movl	-44(%rbp), %eax	# y, tmp137
	movl	%eax, -28(%rbp)	# tmp137, ml.a.y
# am_map.c:1107: 	ml.b.y = y;
	.loc 1 1107 9
	movl	-44(%rbp), %eax	# y, tmp138
	movl	%eax, -20(%rbp)	# tmp138, ml.b.y
# am_map.c:1108: 	AM_drawMline(&ml, color);
	.loc 1 1108 2
	movl	-52(%rbp), %edx	# color, tmp139
	leaq	-32(%rbp), %rax	#, tmp140
	movl	%edx, %esi	# tmp139,
	movq	%rax, %rdi	# tmp140,
	call	AM_drawMline	#
# am_map.c:1104:     for (y=start; y<end; y+=(MAPBLOCKUNITS<<FRACBITS))
	.loc 1 1104 27 discriminator 3
	addl	$8388608, -44(%rbp)	#, y
.L187:
# am_map.c:1104:     for (y=start; y<end; y+=(MAPBLOCKUNITS<<FRACBITS))
	.loc 1 1104 20 discriminator 1
	movl	-44(%rbp), %eax	# y, tmp141
	cmpl	-36(%rbp), %eax	# end, tmp141
	jl	.L188	#,
# am_map.c:1111: }
	.loc 1 1111 1
	nop	
	movq	-8(%rbp), %rax	# D.8037, tmp143
	subq	%fs:40, %rax	# MEM[(<address-space-1> long unsigned int *)40B], tmp143
	je	.L189	#,
	call	__stack_chk_fail@PLT	#
.L189:
	leave	
	.cfi_def_cfa 7, 8
	ret	
	.cfi_endproc
.LFE25:
	.size	AM_drawGrid, .-AM_drawGrid
	.globl	AM_drawWalls
	.type	AM_drawWalls, @function
AM_drawWalls:
.LFB26:
	.loc 1 1118 1
	.cfi_startproc
	endbr64	
	pushq	%rbp	#
	.cfi_def_cfa_offset 16
	.cfi_offset 6, -16
	movq	%rsp, %rbp	#,
	.cfi_def_cfa_register 6
	subq	$16, %rsp	#,
# am_map.c:1122:     for (i=0;i<numlines;i++)
	.loc 1 1122 11
	movl	$0, -4(%rbp)	#, i
# am_map.c:1122:     for (i=0;i<numlines;i++)
	.loc 1 1122 5
	jmp	.L191	#
.L203:
# am_map.c:1124: 	l.a.x = lines[i].v1->x;
	.loc 1 1124 15
	movq	lines(%rip), %rcx	# lines, lines.252_1
	movl	-4(%rbp), %eax	# i, tmp187
	movslq	%eax, %rdx	# tmp187, _2
	movq	%rdx, %rax	# _2, tmp188
	salq	$2, %rax	#, tmp188
	addq	%rdx, %rax	# _2, tmp188
	addq	%rax, %rax	# tmp188
	addq	%rdx, %rax	# _2, tmp188
	salq	$3, %rax	#, tmp189
	addq	%rcx, %rax	# lines.252_1, _4
# am_map.c:1124: 	l.a.x = lines[i].v1->x;
	.loc 1 1124 18
	movq	(%rax), %rax	# _4->v1, _5
# am_map.c:1124: 	l.a.x = lines[i].v1->x;
	.loc 1 1124 21
	movl	(%rax), %eax	# _5->x, _6
# am_map.c:1124: 	l.a.x = lines[i].v1->x;
	.loc 1 1124 8
	movl	%eax, l.1(%rip)	# _6, l.a.x
# am_map.c:1125: 	l.a.y = lines[i].v1->y;
	.loc 1 1125 15
	movq	lines(%rip), %rcx	# lines, lines.253_7
	movl	-4(%rbp), %eax	# i, tmp190
	movslq	%eax, %rdx	# tmp190, _8
	movq	%rdx, %rax	# _8, tmp191
	salq	$2, %rax	#, tmp191
	addq	%rdx, %rax	# _8, tmp191
	addq	%rax, %rax	# tmp191
	addq	%rdx, %rax	# _8, tmp191
	salq	$3, %rax	#, tmp192
	addq	%rcx, %rax	# lines.253_7, _10
# am_map.c:1125: 	l.a.y = lines[i].v1->y;
	.loc 1 1125 18
	movq	(%rax), %rax	# _10->v1, _11
# am_map.c:1125: 	l.a.y = lines[i].v1->y;
	.loc 1 1125 21
	movl	4(%rax), %eax	# _11->y, _12
# am_map.c:1125: 	l.a.y = lines[i].v1->y;
	.loc 1 1125 8
	movl	%eax, 4+l.1(%rip)	# _12, l.a.y
# am_map.c:1126: 	l.b.x = lines[i].v2->x;
	.loc 1 1126 15
	movq	lines(%rip), %rcx	# lines, lines.254_13
	movl	-4(%rbp), %eax	# i, tmp193
	movslq	%eax, %rdx	# tmp193, _14
	movq	%rdx, %rax	# _14, tmp194
	salq	$2, %rax	#, tmp194
	addq	%rdx, %rax	# _14, tmp194
	addq	%rax, %rax	# tmp194
	addq	%rdx, %rax	# _14, tmp194
	salq	$3, %rax	#, tmp195
	addq	%rcx, %rax	# lines.254_13, _16
# am_map.c:1126: 	l.b.x = lines[i].v2->x;
	.loc 1 1126 18
	movq	8(%rax), %rax	# _16->v2, _17
# am_map.c:1126: 	l.b.x = lines[i].v2->x;
	.loc 1 1126 21
	movl	(%rax), %eax	# _17->x, _18
# am_map.c:1126: 	l.b.x = lines[i].v2->x;
	.loc 1 1126 8
	movl	%eax, 8+l.1(%rip)	# _18, l.b.x
# am_map.c:1127: 	l.b.y = lines[i].v2->y;
	.loc 1 1127 15
	movq	lines(%rip), %rcx	# lines, lines.255_19
	movl	-4(%rbp), %eax	# i, tmp196
	movslq	%eax, %rdx	# tmp196, _20
	movq	%rdx, %rax	# _20, tmp197
	salq	$2, %rax	#, tmp197
	addq	%rdx, %rax	# _20, tmp197
	addq	%rax, %rax	# tmp197
	addq	%rdx, %rax	# _20, tmp197
	salq	$3, %rax	#, tmp198
	addq	%rcx, %rax	# lines.255_19, _22
# am_map.c:1127: 	l.b.y = lines[i].v2->y;
	.loc 1 1127 18
	movq	8(%rax), %rax	# _22->v2, _23
# am_map.c:1127: 	l.b.y = lines[i].v2->y;
	.loc 1 1127 21
	movl	4(%rax), %eax	# _23->y, _24
# am_map.c:1127: 	l.b.y = lines[i].v2->y;
	.loc 1 1127 8
	movl	%eax, 12+l.1(%rip)	# _24, l.b.y
# am_map.c:1128: 	if (cheating || (lines[i].flags & ML_MAPPED))
	.loc 1 1128 6
	movl	cheating(%rip), %eax	# cheating, cheating.256_25
# am_map.c:1128: 	if (cheating || (lines[i].flags & ML_MAPPED))
	.loc 1 1128 5
	testl	%eax, %eax	# cheating.256_25
	jne	.L192	#,
# am_map.c:1128: 	if (cheating || (lines[i].flags & ML_MAPPED))
	.loc 1 1128 24 discriminator 1
	movq	lines(%rip), %rcx	# lines, lines.257_26
	movl	-4(%rbp), %eax	# i, tmp199
	movslq	%eax, %rdx	# tmp199, _27
	movq	%rdx, %rax	# _27, tmp200
	salq	$2, %rax	#, tmp200
	addq	%rdx, %rax	# _27, tmp200
	addq	%rax, %rax	# tmp200
	addq	%rdx, %rax	# _27, tmp200
	salq	$3, %rax	#, tmp201
	addq	%rcx, %rax	# lines.257_26, _29
# am_map.c:1128: 	if (cheating || (lines[i].flags & ML_MAPPED))
	.loc 1 1128 27 discriminator 1
	movzwl	24(%rax), %eax	# _29->flags, _30
# am_map.c:1128: 	if (cheating || (lines[i].flags & ML_MAPPED))
	.loc 1 1128 34 discriminator 1
	cwtl
	andl	$256, %eax	#, _32
# am_map.c:1128: 	if (cheating || (lines[i].flags & ML_MAPPED))
	.loc 1 1128 15 discriminator 1
	testl	%eax, %eax	# _32
	je	.L193	#,
.L192:
# am_map.c:1130: 	    if ((lines[i].flags & LINE_NEVERSEE) && !cheating)
	.loc 1 1130 16
	movq	lines(%rip), %rcx	# lines, lines.258_33
	movl	-4(%rbp), %eax	# i, tmp202
	movslq	%eax, %rdx	# tmp202, _34
	movq	%rdx, %rax	# _34, tmp203
	salq	$2, %rax	#, tmp203
	addq	%rdx, %rax	# _34, tmp203
	addq	%rax, %rax	# tmp203
	addq	%rdx, %rax	# _34, tmp203
	salq	$3, %rax	#, tmp204
	addq	%rcx, %rax	# lines.258_33, _36
# am_map.c:1130: 	    if ((lines[i].flags & LINE_NEVERSEE) && !cheating)
	.loc 1 1130 19
	movzwl	24(%rax), %eax	# _36->flags, _37
# am_map.c:1130: 	    if ((lines[i].flags & LINE_NEVERSEE) && !cheating)
	.loc 1 1130 26
	cwtl
	andl	$128, %eax	#, _39
# am_map.c:1130: 	    if ((lines[i].flags & LINE_NEVERSEE) && !cheating)
	.loc 1 1130 9
	testl	%eax, %eax	# _39
	je	.L194	#,
# am_map.c:1130: 	    if ((lines[i].flags & LINE_NEVERSEE) && !cheating)
	.loc 1 1130 46 discriminator 1
	movl	cheating(%rip), %eax	# cheating, cheating.259_40
# am_map.c:1130: 	    if ((lines[i].flags & LINE_NEVERSEE) && !cheating)
	.loc 1 1130 43 discriminator 1
	testl	%eax, %eax	# cheating.259_40
	je	.L204	#,
.L194:
# am_map.c:1132: 	    if (!lines[i].backsector)
	.loc 1 1132 16
	movq	lines(%rip), %rcx	# lines, lines.260_41
	movl	-4(%rbp), %eax	# i, tmp205
	movslq	%eax, %rdx	# tmp205, _42
	movq	%rdx, %rax	# _42, tmp206
	salq	$2, %rax	#, tmp206
	addq	%rdx, %rax	# _42, tmp206
	addq	%rax, %rax	# tmp206
	addq	%rdx, %rax	# _42, tmp206
	salq	$3, %rax	#, tmp207
	addq	%rcx, %rax	# lines.260_41, _44
# am_map.c:1132: 	    if (!lines[i].backsector)
	.loc 1 1132 19
	movq	64(%rax), %rax	# _44->backsector, _45
# am_map.c:1132: 	    if (!lines[i].backsector)
	.loc 1 1132 9
	testq	%rax, %rax	# _45
	jne	.L196	#,
# am_map.c:1134: 		AM_drawMline(&l, WALLCOLORS+lightlev);
	.loc 1 1134 3
	movl	lightlev(%rip), %eax	# lightlev, lightlev.261_46
	addl	$176, %eax	#, _47
	movl	%eax, %esi	# _47,
	leaq	l.1(%rip), %rax	#, tmp208
	movq	%rax, %rdi	# tmp208,
	call	AM_drawMline	#
# am_map.c:1132: 	    if (!lines[i].backsector)
	.loc 1 1132 9
	jmp	.L205	#
.L196:
# am_map.c:1138: 		if (lines[i].special == 39)
	.loc 1 1138 12
	movq	lines(%rip), %rcx	# lines, lines.262_48
	movl	-4(%rbp), %eax	# i, tmp209
	movslq	%eax, %rdx	# tmp209, _49
	movq	%rdx, %rax	# _49, tmp210
	salq	$2, %rax	#, tmp210
	addq	%rdx, %rax	# _49, tmp210
	addq	%rax, %rax	# tmp210
	addq	%rdx, %rax	# _49, tmp210
	salq	$3, %rax	#, tmp211
	addq	%rcx, %rax	# lines.262_48, _51
# am_map.c:1138: 		if (lines[i].special == 39)
	.loc 1 1138 15
	movzwl	26(%rax), %eax	# _51->special, _52
# am_map.c:1138: 		if (lines[i].special == 39)
	.loc 1 1138 6
	cmpw	$39, %ax	#, _52
	jne	.L198	#,
# am_map.c:1140: 		    AM_drawMline(&l, WALLCOLORS+WALLRANGE/2);
	.loc 1 1140 7
	movl	$184, %esi	#,
	leaq	l.1(%rip), %rax	#, tmp212
	movq	%rax, %rdi	# tmp212,
	call	AM_drawMline	#
# am_map.c:1132: 	    if (!lines[i].backsector)
	.loc 1 1132 9
	jmp	.L205	#
.L198:
# am_map.c:1142: 		else if (lines[i].flags & ML_SECRET) // secret door
	.loc 1 1142 17
	movq	lines(%rip), %rcx	# lines, lines.263_53
	movl	-4(%rbp), %eax	# i, tmp213
	movslq	%eax, %rdx	# tmp213, _54
	movq	%rdx, %rax	# _54, tmp214
	salq	$2, %rax	#, tmp214
	addq	%rdx, %rax	# _54, tmp214
	addq	%rax, %rax	# tmp214
	addq	%rdx, %rax	# _54, tmp214
	salq	$3, %rax	#, tmp215
	addq	%rcx, %rax	# lines.263_53, _56
# am_map.c:1142: 		else if (lines[i].flags & ML_SECRET) // secret door
	.loc 1 1142 20
	movzwl	24(%rax), %eax	# _56->flags, _57
# am_map.c:1142: 		else if (lines[i].flags & ML_SECRET) // secret door
	.loc 1 1142 27
	cwtl
	andl	$32, %eax	#, _59
# am_map.c:1142: 		else if (lines[i].flags & ML_SECRET) // secret door
	.loc 1 1142 11
	testl	%eax, %eax	# _59
	je	.L199	#,
# am_map.c:1144: 		    if (cheating) AM_drawMline(&l, SECRETWALLCOLORS + lightlev);
	.loc 1 1144 11
	movl	cheating(%rip), %eax	# cheating, cheating.264_60
# am_map.c:1144: 		    if (cheating) AM_drawMline(&l, SECRETWALLCOLORS + lightlev);
	.loc 1 1144 10
	testl	%eax, %eax	# cheating.264_60
	je	.L200	#,
# am_map.c:1144: 		    if (cheating) AM_drawMline(&l, SECRETWALLCOLORS + lightlev);
	.loc 1 1144 21 discriminator 1
	movl	lightlev(%rip), %eax	# lightlev, lightlev.265_61
	addl	$176, %eax	#, _62
	movl	%eax, %esi	# _62,
	leaq	l.1(%rip), %rax	#, tmp216
	movq	%rax, %rdi	# tmp216,
	call	AM_drawMline	#
# am_map.c:1132: 	    if (!lines[i].backsector)
	.loc 1 1132 9
	jmp	.L205	#
.L200:
# am_map.c:1145: 		    else AM_drawMline(&l, WALLCOLORS+lightlev);
	.loc 1 1145 12
	movl	lightlev(%rip), %eax	# lightlev, lightlev.266_63
	addl	$176, %eax	#, _64
	movl	%eax, %esi	# _64,
	leaq	l.1(%rip), %rax	#, tmp217
	movq	%rax, %rdi	# tmp217,
	call	AM_drawMline	#
# am_map.c:1132: 	    if (!lines[i].backsector)
	.loc 1 1132 9
	jmp	.L205	#
.L199:
# am_map.c:1147: 		else if (lines[i].backsector->floorheight
	.loc 1 1147 17
	movq	lines(%rip), %rcx	# lines, lines.267_65
	movl	-4(%rbp), %eax	# i, tmp218
	movslq	%eax, %rdx	# tmp218, _66
	movq	%rdx, %rax	# _66, tmp219
	salq	$2, %rax	#, tmp219
	addq	%rdx, %rax	# _66, tmp219
	addq	%rax, %rax	# tmp219
	addq	%rdx, %rax	# _66, tmp219
	salq	$3, %rax	#, tmp220
	addq	%rcx, %rax	# lines.267_65, _68
# am_map.c:1147: 		else if (lines[i].backsector->floorheight
	.loc 1 1147 20
	movq	64(%rax), %rax	# _68->backsector, _69
# am_map.c:1147: 		else if (lines[i].backsector->floorheight
	.loc 1 1147 31
	movl	(%rax), %ecx	# _69->floorheight, _70
# am_map.c:1148: 			   != lines[i].frontsector->floorheight) {
	.loc 1 1148 15
	movq	lines(%rip), %rsi	# lines, lines.268_71
	movl	-4(%rbp), %eax	# i, tmp221
	movslq	%eax, %rdx	# tmp221, _72
	movq	%rdx, %rax	# _72, tmp222
	salq	$2, %rax	#, tmp222
	addq	%rdx, %rax	# _72, tmp222
	addq	%rax, %rax	# tmp222
	addq	%rdx, %rax	# _72, tmp222
	salq	$3, %rax	#, tmp223
	addq	%rsi, %rax	# lines.268_71, _74
# am_map.c:1148: 			   != lines[i].frontsector->floorheight) {
	.loc 1 1148 18
	movq	56(%rax), %rax	# _74->frontsector, _75
# am_map.c:1148: 			   != lines[i].frontsector->floorheight) {
	.loc 1 1148 30
	movl	(%rax), %eax	# _75->floorheight, _76
# am_map.c:1147: 		else if (lines[i].backsector->floorheight
	.loc 1 1147 11
	cmpl	%eax, %ecx	# _76, _70
	je	.L201	#,
# am_map.c:1149: 		    AM_drawMline(&l, FDWALLCOLORS + lightlev); // floor level change
	.loc 1 1149 7
	movl	lightlev(%rip), %eax	# lightlev, lightlev.269_77
	addl	$64, %eax	#, _78
	movl	%eax, %esi	# _78,
	leaq	l.1(%rip), %rax	#, tmp224
	movq	%rax, %rdi	# tmp224,
	call	AM_drawMline	#
# am_map.c:1132: 	    if (!lines[i].backsector)
	.loc 1 1132 9
	jmp	.L205	#
.L201:
# am_map.c:1151: 		else if (lines[i].backsector->ceilingheight
	.loc 1 1151 17
	movq	lines(%rip), %rcx	# lines, lines.270_79
	movl	-4(%rbp), %eax	# i, tmp225
	movslq	%eax, %rdx	# tmp225, _80
	movq	%rdx, %rax	# _80, tmp226
	salq	$2, %rax	#, tmp226
	addq	%rdx, %rax	# _80, tmp226
	addq	%rax, %rax	# tmp226
	addq	%rdx, %rax	# _80, tmp226
	salq	$3, %rax	#, tmp227
	addq	%rcx, %rax	# lines.270_79, _82
# am_map.c:1151: 		else if (lines[i].backsector->ceilingheight
	.loc 1 1151 20
	movq	64(%rax), %rax	# _82->backsector, _83
# am_map.c:1151: 		else if (lines[i].backsector->ceilingheight
	.loc 1 1151 31
	movl	4(%rax), %ecx	# _83->ceilingheight, _84
# am_map.c:1152: 			   != lines[i].frontsector->ceilingheight) {
	.loc 1 1152 15
	movq	lines(%rip), %rsi	# lines, lines.271_85
	movl	-4(%rbp), %eax	# i, tmp228
	movslq	%eax, %rdx	# tmp228, _86
	movq	%rdx, %rax	# _86, tmp229
	salq	$2, %rax	#, tmp229
	addq	%rdx, %rax	# _86, tmp229
	addq	%rax, %rax	# tmp229
	addq	%rdx, %rax	# _86, tmp229
	salq	$3, %rax	#, tmp230
	addq	%rsi, %rax	# lines.271_85, _88
# am_map.c:1152: 			   != lines[i].frontsector->ceilingheight) {
	.loc 1 1152 18
	movq	56(%rax), %rax	# _88->frontsector, _89
# am_map.c:1152: 			   != lines[i].frontsector->ceilingheight) {
	.loc 1 1152 30
	movl	4(%rax), %eax	# _89->ceilingheight, _90
# am_map.c:1151: 		else if (lines[i].backsector->ceilingheight
	.loc 1 1151 11
	cmpl	%eax, %ecx	# _90, _84
	je	.L202	#,
# am_map.c:1153: 		    AM_drawMline(&l, CDWALLCOLORS+lightlev); // ceiling level change
	.loc 1 1153 7
	movl	lightlev(%rip), %eax	# lightlev, lightlev.272_91
	addl	$231, %eax	#, _92
	movl	%eax, %esi	# _92,
	leaq	l.1(%rip), %rax	#, tmp231
	movq	%rax, %rdi	# tmp231,
	call	AM_drawMline	#
# am_map.c:1132: 	    if (!lines[i].backsector)
	.loc 1 1132 9
	jmp	.L205	#
.L202:
# am_map.c:1155: 		else if (cheating) {
	.loc 1 1155 12
	movl	cheating(%rip), %eax	# cheating, cheating.273_93
# am_map.c:1155: 		else if (cheating) {
	.loc 1 1155 11
	testl	%eax, %eax	# cheating.273_93
	je	.L205	#,
# am_map.c:1156: 		    AM_drawMline(&l, TSWALLCOLORS+lightlev);
	.loc 1 1156 7
	movl	lightlev(%rip), %eax	# lightlev, lightlev.274_94
	addl	$96, %eax	#, _95
	movl	%eax, %esi	# _95,
	leaq	l.1(%rip), %rax	#, tmp232
	movq	%rax, %rdi	# tmp232,
	call	AM_drawMline	#
# am_map.c:1132: 	    if (!lines[i].backsector)
	.loc 1 1132 9
	jmp	.L205	#
.L193:
# am_map.c:1160: 	else if (plr->powers[pw_allmap])
	.loc 1 1160 14
	movq	plr(%rip), %rax	# plr, plr.275_96
# am_map.c:1160: 	else if (plr->powers[pw_allmap])
	.loc 1 1160 22
	movl	64(%rax), %eax	# plr.275_96->powers[4], _97
# am_map.c:1160: 	else if (plr->powers[pw_allmap])
	.loc 1 1160 10
	testl	%eax, %eax	# _97
	je	.L195	#,
# am_map.c:1162: 	    if (!(lines[i].flags & LINE_NEVERSEE)) AM_drawMline(&l, GRAYS+3);
	.loc 1 1162 17
	movq	lines(%rip), %rcx	# lines, lines.276_98
	movl	-4(%rbp), %eax	# i, tmp233
	movslq	%eax, %rdx	# tmp233, _99
	movq	%rdx, %rax	# _99, tmp234
	salq	$2, %rax	#, tmp234
	addq	%rdx, %rax	# _99, tmp234
	addq	%rax, %rax	# tmp234
	addq	%rdx, %rax	# _99, tmp234
	salq	$3, %rax	#, tmp235
	addq	%rcx, %rax	# lines.276_98, _101
# am_map.c:1162: 	    if (!(lines[i].flags & LINE_NEVERSEE)) AM_drawMline(&l, GRAYS+3);
	.loc 1 1162 20
	movzwl	24(%rax), %eax	# _101->flags, _102
# am_map.c:1162: 	    if (!(lines[i].flags & LINE_NEVERSEE)) AM_drawMline(&l, GRAYS+3);
	.loc 1 1162 27
	cwtl
	andl	$128, %eax	#, _104
# am_map.c:1162: 	    if (!(lines[i].flags & LINE_NEVERSEE)) AM_drawMline(&l, GRAYS+3);
	.loc 1 1162 9
	testl	%eax, %eax	# _104
	jne	.L195	#,
# am_map.c:1162: 	    if (!(lines[i].flags & LINE_NEVERSEE)) AM_drawMline(&l, GRAYS+3);
	.loc 1 1162 45 discriminator 1
	movl	$99, %esi	#,
	leaq	l.1(%rip), %rax	#, tmp236
	movq	%rax, %rdi	# tmp236,
	call	AM_drawMline	#
	jmp	.L195	#
.L204:
# am_map.c:1131: 		continue;
	.loc 1 1131 3
	nop	
	jmp	.L195	#
.L205:
# am_map.c:1132: 	    if (!lines[i].backsector)
	.loc 1 1132 9
	nop	
.L195:
# am_map.c:1122:     for (i=0;i<numlines;i++)
	.loc 1 1122 26 discriminator 2
	addl	$1, -4(%rbp)	#, i
.L191:
# am_map.c:1122:     for (i=0;i<numlines;i++)
	.loc 1 1122 15 discriminator 1
	movl	numlines(%rip), %eax	# numlines, numlines.277_105
	cmpl	%eax, -4(%rbp)	# numlines.277_105, i
	jl	.L203	#,
# am_map.c:1165: }
	.loc 1 1165 1
	nop	
	nop	
	leave	
	.cfi_def_cfa 7, 8
	ret	
	.cfi_endproc
.LFE26:
	.size	AM_drawWalls, .-AM_drawWalls
	.globl	AM_rotate
	.type	AM_rotate, @function
AM_rotate:
.LFB27:
	.loc 1 1177 1
	.cfi_startproc
	endbr64	
	pushq	%rbp	#
	.cfi_def_cfa_offset 16
	.cfi_offset 6, -16
	movq	%rsp, %rbp	#,
	.cfi_def_cfa_register 6
	pushq	%rbx	#
	subq	$56, %rsp	#,
	.cfi_offset 3, -24
	movq	%rdi, -40(%rbp)	# x, x
	movq	%rsi, -48(%rbp)	# y, y
	movl	%edx, -52(%rbp)	# a, a
# am_map.c:1181: 	FixedMul(*x,finecosine[a>>ANGLETOFINESHIFT])
	.loc 1 1181 24
	movq	finecosine(%rip), %rax	# finecosine, finecosine.278_1
# am_map.c:1181: 	FixedMul(*x,finecosine[a>>ANGLETOFINESHIFT])
	.loc 1 1181 26
	movl	-52(%rbp), %edx	# a, tmp107
	shrl	$19, %edx	#, _2
	movl	%edx, %edx	# _2, _3
# am_map.c:1181: 	FixedMul(*x,finecosine[a>>ANGLETOFINESHIFT])
	.loc 1 1181 24
	salq	$2, %rdx	#, _4
	addq	%rdx, %rax	# _4, _5
# am_map.c:1181: 	FixedMul(*x,finecosine[a>>ANGLETOFINESHIFT])
	.loc 1 1181 2
	movl	(%rax), %edx	# *_5, _6
	movq	-40(%rbp), %rax	# x, tmp108
	movl	(%rax), %eax	# *x_28(D), _7
	movl	%edx, %esi	# _6,
	movl	%eax, %edi	# _7,
	call	FixedMul@PLT	#
	movl	%eax, %ebx	#, _8
# am_map.c:1182: 	- FixedMul(*y,finesine[a>>ANGLETOFINESHIFT]);
	.loc 1 1182 26
	movl	-52(%rbp), %eax	# a, tmp109
	shrl	$19, %eax	#, _9
# am_map.c:1182: 	- FixedMul(*y,finesine[a>>ANGLETOFINESHIFT]);
	.loc 1 1182 4
	movl	%eax, %eax	# _9, tmp110
	leaq	0(,%rax,4), %rdx	#, tmp111
	leaq	finesine(%rip), %rax	#, tmp112
	movl	(%rdx,%rax), %edx	# finesine[_9], _10
	movq	-48(%rbp), %rax	# y, tmp113
	movl	(%rax), %eax	# *y_30(D), _11
	movl	%edx, %esi	# _10,
	movl	%eax, %edi	# _11,
	call	FixedMul@PLT	#
# am_map.c:1180:     tmpx =
	.loc 1 1180 10
	subl	%eax, %ebx	# _12, _8
	movl	%ebx, %edx	# _8, tmp114
	movl	%edx, -20(%rbp)	# tmp114, tmpx
# am_map.c:1185: 	FixedMul(*x,finesine[a>>ANGLETOFINESHIFT])
	.loc 1 1185 24
	movl	-52(%rbp), %eax	# a, tmp115
	shrl	$19, %eax	#, _13
# am_map.c:1185: 	FixedMul(*x,finesine[a>>ANGLETOFINESHIFT])
	.loc 1 1185 2
	movl	%eax, %eax	# _13, tmp116
	leaq	0(,%rax,4), %rdx	#, tmp117
	leaq	finesine(%rip), %rax	#, tmp118
	movl	(%rdx,%rax), %edx	# finesine[_13], _14
	movq	-40(%rbp), %rax	# x, tmp119
	movl	(%rax), %eax	# *x_28(D), _15
	movl	%edx, %esi	# _14,
	movl	%eax, %edi	# _15,
	call	FixedMul@PLT	#
	movl	%eax, %ebx	#, _16
# am_map.c:1186: 	+ FixedMul(*y,finecosine[a>>ANGLETOFINESHIFT]);
	.loc 1 1186 26
	movq	finecosine(%rip), %rax	# finecosine, finecosine.279_17
# am_map.c:1186: 	+ FixedMul(*y,finecosine[a>>ANGLETOFINESHIFT]);
	.loc 1 1186 28
	movl	-52(%rbp), %edx	# a, tmp120
	shrl	$19, %edx	#, _18
	movl	%edx, %edx	# _18, _19
# am_map.c:1186: 	+ FixedMul(*y,finecosine[a>>ANGLETOFINESHIFT]);
	.loc 1 1186 26
	salq	$2, %rdx	#, _20
	addq	%rdx, %rax	# _20, _21
# am_map.c:1186: 	+ FixedMul(*y,finecosine[a>>ANGLETOFINESHIFT]);
	.loc 1 1186 4
	movl	(%rax), %edx	# *_21, _22
	movq	-48(%rbp), %rax	# y, tmp121
	movl	(%rax), %eax	# *y_30(D), _23
	movl	%edx, %esi	# _22,
	movl	%eax, %edi	# _23,
	call	FixedMul@PLT	#
# am_map.c:1186: 	+ FixedMul(*y,finecosine[a>>ANGLETOFINESHIFT]);
	.loc 1 1186 2 discriminator 1
	leal	(%rbx,%rax), %edx	#, _25
# am_map.c:1184:     *y   =
	.loc 1 1184 10
	movq	-48(%rbp), %rax	# y, tmp122
	movl	%edx, (%rax)	# _25, *y_30(D)
# am_map.c:1188:     *x = tmpx;
	.loc 1 1188 8
	movq	-40(%rbp), %rax	# x, tmp123
	movl	-20(%rbp), %edx	# tmpx, tmp124
	movl	%edx, (%rax)	# tmp124, *x_28(D)
# am_map.c:1189: }
	.loc 1 1189 1
	nop	
	movq	-8(%rbp), %rbx	#,
	leave	
	.cfi_def_cfa 7, 8
	ret	
	.cfi_endproc
.LFE27:
	.size	AM_rotate, .-AM_rotate
	.globl	AM_drawLineCharacter
	.type	AM_drawLineCharacter, @function
AM_drawLineCharacter:
.LFB28:
	.loc 1 1200 1
	.cfi_startproc
	endbr64	
	pushq	%rbp	#
	.cfi_def_cfa_offset 16
	.cfi_offset 6, -16
	movq	%rsp, %rbp	#,
	.cfi_def_cfa_register 6
	subq	$80, %rsp	#,
	movq	%rdi, -56(%rbp)	# lineguy, lineguy
	movl	%esi, -60(%rbp)	# lineguylines, lineguylines
	movl	%edx, -64(%rbp)	# scale, scale
	movl	%ecx, -68(%rbp)	# angle, angle
	movl	%r8d, -72(%rbp)	# color, color
	movl	%r9d, -76(%rbp)	# x, x
# am_map.c:1200: {
	.loc 1 1200 1
	movq	%fs:40, %rax	# MEM[(<address-space-1> long unsigned int *)40B], tmp142
	movq	%rax, -8(%rbp)	# tmp142, D.8038
	xorl	%eax, %eax	# tmp142
# am_map.c:1204:     for (i=0;i<lineguylines;i++)
	.loc 1 1204 11
	movl	$0, -36(%rbp)	#, i
# am_map.c:1204:     for (i=0;i<lineguylines;i++)
	.loc 1 1204 5
	jmp	.L208	#
.L213:
# am_map.c:1206: 	l.a.x = lineguy[i].a.x;
	.loc 1 1206 17
	movl	-36(%rbp), %eax	# i, tmp114
	cltq
	salq	$4, %rax	#, _1
	movq	%rax, %rdx	# _1, _2
	movq	-56(%rbp), %rax	# lineguy, tmp115
	addq	%rdx, %rax	# _2, _3
# am_map.c:1206: 	l.a.x = lineguy[i].a.x;
	.loc 1 1206 22
	movl	(%rax), %eax	# _3->a.x, _4
# am_map.c:1206: 	l.a.x = lineguy[i].a.x;
	.loc 1 1206 8
	movl	%eax, -32(%rbp)	# _4, l.a.x
# am_map.c:1207: 	l.a.y = lineguy[i].a.y;
	.loc 1 1207 17
	movl	-36(%rbp), %eax	# i, tmp116
	cltq
	salq	$4, %rax	#, _5
	movq	%rax, %rdx	# _5, _6
	movq	-56(%rbp), %rax	# lineguy, tmp117
	addq	%rdx, %rax	# _6, _7
# am_map.c:1207: 	l.a.y = lineguy[i].a.y;
	.loc 1 1207 22
	movl	4(%rax), %eax	# _7->a.y, _8
# am_map.c:1207: 	l.a.y = lineguy[i].a.y;
	.loc 1 1207 8
	movl	%eax, -28(%rbp)	# _8, l.a.y
# am_map.c:1209: 	if (scale)
	.loc 1 1209 5
	cmpl	$0, -64(%rbp)	#, scale
	je	.L209	#,
# am_map.c:1211: 	    l.a.x = FixedMul(scale, l.a.x);
	.loc 1 1211 14
	movl	-32(%rbp), %edx	# l.a.x, _9
	movl	-64(%rbp), %eax	# scale, tmp118
	movl	%edx, %esi	# _9,
	movl	%eax, %edi	# tmp118,
	call	FixedMul@PLT	#
# am_map.c:1211: 	    l.a.x = FixedMul(scale, l.a.x);
	.loc 1 1211 12 discriminator 1
	movl	%eax, -32(%rbp)	# _10, l.a.x
# am_map.c:1212: 	    l.a.y = FixedMul(scale, l.a.y);
	.loc 1 1212 14
	movl	-28(%rbp), %edx	# l.a.y, _11
	movl	-64(%rbp), %eax	# scale, tmp119
	movl	%edx, %esi	# _11,
	movl	%eax, %edi	# tmp119,
	call	FixedMul@PLT	#
# am_map.c:1212: 	    l.a.y = FixedMul(scale, l.a.y);
	.loc 1 1212 12 discriminator 1
	movl	%eax, -28(%rbp)	# _12, l.a.y
.L209:
# am_map.c:1215: 	if (angle)
	.loc 1 1215 5
	cmpl	$0, -68(%rbp)	#, angle
	je	.L210	#,
# am_map.c:1216: 	    AM_rotate(&l.a.x, &l.a.y, angle);
	.loc 1 1216 6
	movl	-68(%rbp), %edx	# angle, tmp120
	leaq	-32(%rbp), %rax	#, tmp121
	leaq	4(%rax), %rcx	#, tmp122
	leaq	-32(%rbp), %rax	#, tmp123
	movq	%rcx, %rsi	# tmp122,
	movq	%rax, %rdi	# tmp123,
	call	AM_rotate	#
.L210:
# am_map.c:1218: 	l.a.x += x;
	.loc 1 1218 5
	movl	-32(%rbp), %edx	# l.a.x, _13
# am_map.c:1218: 	l.a.x += x;
	.loc 1 1218 8
	movl	-76(%rbp), %eax	# x, tmp124
	addl	%edx, %eax	# _13, _14
	movl	%eax, -32(%rbp)	# _14, l.a.x
# am_map.c:1219: 	l.a.y += y;
	.loc 1 1219 5
	movl	-28(%rbp), %edx	# l.a.y, _15
# am_map.c:1219: 	l.a.y += y;
	.loc 1 1219 8
	movl	16(%rbp), %eax	# y, tmp125
	addl	%edx, %eax	# _15, _16
	movl	%eax, -28(%rbp)	# _16, l.a.y
# am_map.c:1221: 	l.b.x = lineguy[i].b.x;
	.loc 1 1221 17
	movl	-36(%rbp), %eax	# i, tmp126
	cltq
	salq	$4, %rax	#, _17
	movq	%rax, %rdx	# _17, _18
	movq	-56(%rbp), %rax	# lineguy, tmp127
	addq	%rdx, %rax	# _18, _19
# am_map.c:1221: 	l.b.x = lineguy[i].b.x;
	.loc 1 1221 22
	movl	8(%rax), %eax	# _19->b.x, _20
# am_map.c:1221: 	l.b.x = lineguy[i].b.x;
	.loc 1 1221 8
	movl	%eax, -24(%rbp)	# _20, l.b.x
# am_map.c:1222: 	l.b.y = lineguy[i].b.y;
	.loc 1 1222 17
	movl	-36(%rbp), %eax	# i, tmp128
	cltq
	salq	$4, %rax	#, _21
	movq	%rax, %rdx	# _21, _22
	movq	-56(%rbp), %rax	# lineguy, tmp129
	addq	%rdx, %rax	# _22, _23
# am_map.c:1222: 	l.b.y = lineguy[i].b.y;
	.loc 1 1222 22
	movl	12(%rax), %eax	# _23->b.y, _24
# am_map.c:1222: 	l.b.y = lineguy[i].b.y;
	.loc 1 1222 8
	movl	%eax, -20(%rbp)	# _24, l.b.y
# am_map.c:1224: 	if (scale)
	.loc 1 1224 5
	cmpl	$0, -64(%rbp)	#, scale
	je	.L211	#,
# am_map.c:1226: 	    l.b.x = FixedMul(scale, l.b.x);
	.loc 1 1226 14
	movl	-24(%rbp), %edx	# l.b.x, _25
	movl	-64(%rbp), %eax	# scale, tmp130
	movl	%edx, %esi	# _25,
	movl	%eax, %edi	# tmp130,
	call	FixedMul@PLT	#
# am_map.c:1226: 	    l.b.x = FixedMul(scale, l.b.x);
	.loc 1 1226 12 discriminator 1
	movl	%eax, -24(%rbp)	# _26, l.b.x
# am_map.c:1227: 	    l.b.y = FixedMul(scale, l.b.y);
	.loc 1 1227 14
	movl	-20(%rbp), %edx	# l.b.y, _27
	movl	-64(%rbp), %eax	# scale, tmp131
	movl	%edx, %esi	# _27,
	movl	%eax, %edi	# tmp131,
	call	FixedMul@PLT	#
# am_map.c:1227: 	    l.b.y = FixedMul(scale, l.b.y);
	.loc 1 1227 12 discriminator 1
	movl	%eax, -20(%rbp)	# _28, l.b.y
.L211:
# am_map.c:1230: 	if (angle)
	.loc 1 1230 5
	cmpl	$0, -68(%rbp)	#, angle
	je	.L212	#,
# am_map.c:1231: 	    AM_rotate(&l.b.x, &l.b.y, angle);
	.loc 1 1231 6
	movl	-68(%rbp), %eax	# angle, tmp132
	leaq	-32(%rbp), %rdx	#, tmp133
	leaq	12(%rdx), %rsi	#, tmp134
	leaq	-32(%rbp), %rdx	#, tmp135
	leaq	8(%rdx), %rcx	#, tmp136
	movl	%eax, %edx	# tmp132,
	movq	%rcx, %rdi	# tmp136,
	call	AM_rotate	#
.L212:
# am_map.c:1233: 	l.b.x += x;
	.loc 1 1233 5
	movl	-24(%rbp), %edx	# l.b.x, _29
# am_map.c:1233: 	l.b.x += x;
	.loc 1 1233 8
	movl	-76(%rbp), %eax	# x, tmp137
	addl	%edx, %eax	# _29, _30
	movl	%eax, -24(%rbp)	# _30, l.b.x
# am_map.c:1234: 	l.b.y += y;
	.loc 1 1234 5
	movl	-20(%rbp), %edx	# l.b.y, _31
# am_map.c:1234: 	l.b.y += y;
	.loc 1 1234 8
	movl	16(%rbp), %eax	# y, tmp138
	addl	%edx, %eax	# _31, _32
	movl	%eax, -20(%rbp)	# _32, l.b.y
# am_map.c:1236: 	AM_drawMline(&l, color);
	.loc 1 1236 2
	movl	-72(%rbp), %edx	# color, tmp139
	leaq	-32(%rbp), %rax	#, tmp140
	movl	%edx, %esi	# tmp139,
	movq	%rax, %rdi	# tmp140,
	call	AM_drawMline	#
# am_map.c:1204:     for (i=0;i<lineguylines;i++)
	.loc 1 1204 30 discriminator 2
	addl	$1, -36(%rbp)	#, i
.L208:
# am_map.c:1204:     for (i=0;i<lineguylines;i++)
	.loc 1 1204 15 discriminator 1
	movl	-36(%rbp), %eax	# i, tmp141
	cmpl	-60(%rbp), %eax	# lineguylines, tmp141
	jl	.L213	#,
# am_map.c:1238: }
	.loc 1 1238 1
	nop	
	movq	-8(%rbp), %rax	# D.8038, tmp143
	subq	%fs:40, %rax	# MEM[(<address-space-1> long unsigned int *)40B], tmp143
	je	.L214	#,
	call	__stack_chk_fail@PLT	#
.L214:
	leave	
	.cfi_def_cfa 7, 8
	ret	
	.cfi_endproc
.LFE28:
	.size	AM_drawLineCharacter, .-AM_drawLineCharacter
	.globl	AM_drawPlayers
	.type	AM_drawPlayers, @function
AM_drawPlayers:
.LFB29:
	.loc 1 1241 1
	.cfi_startproc
	endbr64	
	pushq	%rbp	#
	.cfi_def_cfa_offset 16
	.cfi_offset 6, -16
	movq	%rsp, %rbp	#,
	.cfi_def_cfa_register 6
	subq	$32, %rsp	#,
# am_map.c:1245:     int		their_color = -1;
	.loc 1 1245 10
	movl	$-1, -16(%rbp)	#, their_color
# am_map.c:1248:     if (!netgame)
	.loc 1 1248 9
	movl	netgame(%rip), %eax	# netgame, netgame.280_1
# am_map.c:1248:     if (!netgame)
	.loc 1 1248 8
	testl	%eax, %eax	# netgame.280_1
	jne	.L216	#,
# am_map.c:1250: 	if (cheating)
	.loc 1 1250 6
	movl	cheating(%rip), %eax	# cheating, cheating.281_2
# am_map.c:1250: 	if (cheating)
	.loc 1 1250 5
	testl	%eax, %eax	# cheating.281_2
	je	.L217	#,
# am_map.c:1253: 		 plr->mo->angle, WHITE, plr->mo->x, plr->mo->y);
	.loc 1 1253 42
	movq	plr(%rip), %rax	# plr, plr.282_3
	movq	(%rax), %rax	# plr.282_3->mo, _4
# am_map.c:1251: 	    AM_drawLineCharacter
	.loc 1 1251 6
	movl	28(%rax), %edx	# _4->y, _5
# am_map.c:1253: 		 plr->mo->angle, WHITE, plr->mo->x, plr->mo->y);
	.loc 1 1253 30
	movq	plr(%rip), %rax	# plr, plr.283_6
	movq	(%rax), %rax	# plr.283_6->mo, _7
# am_map.c:1251: 	    AM_drawLineCharacter
	.loc 1 1251 6
	movl	24(%rax), %ecx	# _7->x, _8
# am_map.c:1253: 		 plr->mo->angle, WHITE, plr->mo->x, plr->mo->y);
	.loc 1 1253 7
	movq	plr(%rip), %rax	# plr, plr.284_9
	movq	(%rax), %rax	# plr.284_9->mo, _10
# am_map.c:1251: 	    AM_drawLineCharacter
	.loc 1 1251 6
	movl	56(%rax), %eax	# _10->angle, _11
	subq	$8, %rsp	#,
	pushq	%rdx	# _5
	movl	%ecx, %r9d	# _8,
	movl	$209, %r8d	#,
	movl	%eax, %ecx	# _11,
	movl	$0, %edx	#,
	movl	$16, %esi	#,
	leaq	cheat_player_arrow(%rip), %rax	#, tmp113
	movq	%rax, %rdi	# tmp113,
	call	AM_drawLineCharacter	#
	addq	$16, %rsp	#,
# am_map.c:1258: 	return;
	.loc 1 1258 2
	jmp	.L215	#
.L217:
# am_map.c:1257: 		 WHITE, plr->mo->x, plr->mo->y);
	.loc 1 1257 26
	movq	plr(%rip), %rax	# plr, plr.285_12
	movq	(%rax), %rax	# plr.285_12->mo, _13
# am_map.c:1255: 	    AM_drawLineCharacter
	.loc 1 1255 6
	movl	28(%rax), %edx	# _13->y, _14
# am_map.c:1257: 		 WHITE, plr->mo->x, plr->mo->y);
	.loc 1 1257 14
	movq	plr(%rip), %rax	# plr, plr.286_15
	movq	(%rax), %rax	# plr.286_15->mo, _16
# am_map.c:1255: 	    AM_drawLineCharacter
	.loc 1 1255 6
	movl	24(%rax), %ecx	# _16->x, _17
# am_map.c:1256: 		(player_arrow, NUMPLYRLINES, 0, plr->mo->angle,
	.loc 1 1256 38
	movq	plr(%rip), %rax	# plr, plr.287_18
	movq	(%rax), %rax	# plr.287_18->mo, _19
# am_map.c:1255: 	    AM_drawLineCharacter
	.loc 1 1255 6
	movl	56(%rax), %eax	# _19->angle, _20
	subq	$8, %rsp	#,
	pushq	%rdx	# _14
	movl	%ecx, %r9d	# _17,
	movl	$209, %r8d	#,
	movl	%eax, %ecx	# _20,
	movl	$0, %edx	#,
	movl	$7, %esi	#,
	leaq	player_arrow(%rip), %rax	#, tmp114
	movq	%rax, %rdi	# tmp114,
	call	AM_drawLineCharacter	#
	addq	$16, %rsp	#,
# am_map.c:1258: 	return;
	.loc 1 1258 2
	jmp	.L215	#
.L216:
# am_map.c:1261:     for (i=0;i<MAXPLAYERS;i++)
	.loc 1 1261 11
	movl	$0, -20(%rbp)	#, i
# am_map.c:1261:     for (i=0;i<MAXPLAYERS;i++)
	.loc 1 1261 5
	jmp	.L220	#
.L226:
# am_map.c:1263: 	their_color++;
	.loc 1 1263 13
	addl	$1, -16(%rbp)	#, their_color
# am_map.c:1264: 	p = &players[i];
	.loc 1 1264 4
	movl	-20(%rbp), %eax	# i, tmp116
	movslq	%eax, %rdx	# tmp116, tmp115
	movq	%rdx, %rax	# tmp115, tmp117
	salq	$2, %rax	#, tmp117
	addq	%rdx, %rax	# tmp115, tmp117
	salq	$6, %rax	#, tmp118
	leaq	players(%rip), %rdx	#, tmp119
	addq	%rdx, %rax	# tmp119, tmp120
	movq	%rax, -8(%rbp)	# tmp120, p
# am_map.c:1266: 	if ( (deathmatch && !singledemo) && p != plr)
	.loc 1 1266 8
	movl	deathmatch(%rip), %eax	# deathmatch, deathmatch.288_21
# am_map.c:1266: 	if ( (deathmatch && !singledemo) && p != plr)
	.loc 1 1266 5
	testl	%eax, %eax	# deathmatch.288_21
	je	.L221	#,
# am_map.c:1266: 	if ( (deathmatch && !singledemo) && p != plr)
	.loc 1 1266 22 discriminator 1
	movl	singledemo(%rip), %eax	# singledemo, singledemo.289_22
# am_map.c:1266: 	if ( (deathmatch && !singledemo) && p != plr)
	.loc 1 1266 19 discriminator 1
	testl	%eax, %eax	# singledemo.289_22
	jne	.L221	#,
# am_map.c:1266: 	if ( (deathmatch && !singledemo) && p != plr)
	.loc 1 1266 40 discriminator 2
	movq	plr(%rip), %rax	# plr, plr.290_23
# am_map.c:1266: 	if ( (deathmatch && !singledemo) && p != plr)
	.loc 1 1266 35 discriminator 2
	cmpq	%rax, -8(%rbp)	# plr.290_23, p
	jne	.L227	#,
.L221:
# am_map.c:1269: 	if (!playeringame[i])
	.loc 1 1269 19
	movl	-20(%rbp), %eax	# i, tmp122
	cltq
	leaq	0(,%rax,4), %rdx	#, tmp123
	leaq	playeringame(%rip), %rax	#, tmp124
	movl	(%rdx,%rax), %eax	# playeringame[i_32], _24
# am_map.c:1269: 	if (!playeringame[i])
	.loc 1 1269 5
	testl	%eax, %eax	# _24
	je	.L228	#,
# am_map.c:1272: 	if (p->powers[pw_invisibility])
	.loc 1 1272 15
	movq	-8(%rbp), %rax	# p, tmp125
	movl	56(%rax), %eax	# p_43->powers[2], _25
# am_map.c:1272: 	if (p->powers[pw_invisibility])
	.loc 1 1272 5
	testl	%eax, %eax	# _25
	je	.L224	#,
# am_map.c:1273: 	    color = 246; // *close* to black
	.loc 1 1273 12
	movl	$246, -12(%rbp)	#, color
	jmp	.L225	#
.L224:
# am_map.c:1275: 	    color = their_colors[their_color];
	.loc 1 1275 12
	movl	-16(%rbp), %eax	# their_color, tmp127
	cltq
	leaq	0(,%rax,4), %rdx	#, tmp128
	leaq	their_colors.0(%rip), %rax	#, tmp129
	movl	(%rdx,%rax), %eax	# their_colors[their_color_42], tmp130
	movl	%eax, -12(%rbp)	# tmp130, color
.L225:
# am_map.c:1279: 	     color, p->mo->x, p->mo->y);
	.loc 1 1279 25
	movq	-8(%rbp), %rax	# p, tmp131
	movq	(%rax), %rax	# p_43->mo, _26
# am_map.c:1277: 	AM_drawLineCharacter
	.loc 1 1277 2
	movl	28(%rax), %edx	# _26->y, _27
# am_map.c:1279: 	     color, p->mo->x, p->mo->y);
	.loc 1 1279 15
	movq	-8(%rbp), %rax	# p, tmp132
	movq	(%rax), %rax	# p_43->mo, _28
# am_map.c:1277: 	AM_drawLineCharacter
	.loc 1 1277 2
	movl	24(%rax), %esi	# _28->x, _29
# am_map.c:1278: 	    (player_arrow, NUMPLYRLINES, 0, p->mo->angle,
	.loc 1 1278 39
	movq	-8(%rbp), %rax	# p, tmp133
	movq	(%rax), %rax	# p_43->mo, _30
# am_map.c:1277: 	AM_drawLineCharacter
	.loc 1 1277 2
	movl	56(%rax), %eax	# _30->angle, _31
	movl	-12(%rbp), %ecx	# color, tmp134
	subq	$8, %rsp	#,
	pushq	%rdx	# _27
	movl	%esi, %r9d	# _29,
	movl	%ecx, %r8d	# tmp134,
	movl	%eax, %ecx	# _31,
	movl	$0, %edx	#,
	movl	$7, %esi	#,
	leaq	player_arrow(%rip), %rax	#, tmp135
	movq	%rax, %rdi	# tmp135,
	call	AM_drawLineCharacter	#
	addq	$16, %rsp	#,
	jmp	.L222	#
.L227:
# am_map.c:1267: 	    continue;
	.loc 1 1267 6
	nop	
	jmp	.L222	#
.L228:
# am_map.c:1270: 	    continue;
	.loc 1 1270 6
	nop	
.L222:
# am_map.c:1261:     for (i=0;i<MAXPLAYERS;i++)
	.loc 1 1261 28 discriminator 2
	addl	$1, -20(%rbp)	#, i
.L220:
# am_map.c:1261:     for (i=0;i<MAXPLAYERS;i++)
	.loc 1 1261 15 discriminator 1
	cmpl	$3, -20(%rbp)	#, i
	jle	.L226	#,
.L215:
# am_map.c:1282: }
	.loc 1 1282 1
	leave	
	.cfi_def_cfa 7, 8
	ret	
	.cfi_endproc
.LFE29:
	.size	AM_drawPlayers, .-AM_drawPlayers
	.globl	AM_drawThings
	.type	AM_drawThings, @function
AM_drawThings:
.LFB30:
	.loc 1 1288 1
	.cfi_startproc
	endbr64	
	pushq	%rbp	#
	.cfi_def_cfa_offset 16
	.cfi_offset 6, -16
	movq	%rsp, %rbp	#,
	.cfi_def_cfa_register 6
	subq	$32, %rsp	#,
	movl	%edi, -20(%rbp)	# colors, colors
	movl	%esi, -24(%rbp)	# colorrange, colorrange
# am_map.c:1292:     for (i=0;i<numsectors;i++)
	.loc 1 1292 11
	movl	$0, -12(%rbp)	#, i
# am_map.c:1292:     for (i=0;i<numsectors;i++)
	.loc 1 1292 5
	jmp	.L230	#
.L233:
# am_map.c:1294: 	t = sectors[i].thinglist;
	.loc 1 1294 13
	movq	sectors(%rip), %rax	# sectors, sectors.291_1
	movl	-12(%rbp), %edx	# i, tmp92
	movslq	%edx, %rdx	# tmp92, _2
	salq	$7, %rdx	#, _3
	addq	%rdx, %rax	# _3, _4
# am_map.c:1294: 	t = sectors[i].thinglist;
	.loc 1 1294 4
	movq	96(%rax), %rax	# _4->thinglist, tmp93
	movq	%rax, -8(%rbp)	# tmp93, t
# am_map.c:1295: 	while (t)
	.loc 1 1295 8
	jmp	.L231	#
.L232:
# am_map.c:1297: 	    AM_drawLineCharacter
	.loc 1 1297 6
	movq	-8(%rbp), %rax	# t, tmp94
	movl	28(%rax), %edx	# t_12->y, _5
	movq	-8(%rbp), %rax	# t, tmp95
	movl	24(%rax), %esi	# t_12->x, _6
	movl	lightlev(%rip), %ecx	# lightlev, lightlev.292_7
	movl	-20(%rbp), %eax	# colors, tmp96
	addl	%eax, %ecx	# tmp96, _8
	movq	-8(%rbp), %rax	# t, tmp97
	movl	56(%rax), %eax	# t_12->angle, _9
	subq	$8, %rsp	#,
	pushq	%rdx	# _5
	movl	%esi, %r9d	# _6,
	movl	%ecx, %r8d	# _8,
	movl	%eax, %ecx	# _9,
	movl	$1048576, %edx	#,
	movl	$3, %esi	#,
	leaq	thintriangle_guy(%rip), %rax	#, tmp98
	movq	%rax, %rdi	# tmp98,
	call	AM_drawLineCharacter	#
	addq	$16, %rsp	#,
# am_map.c:1300: 	    t = t->snext;
	.loc 1 1300 8
	movq	-8(%rbp), %rax	# t, tmp99
	movq	40(%rax), %rax	# t_12->snext, tmp100
	movq	%rax, -8(%rbp)	# tmp100, t
.L231:
# am_map.c:1295: 	while (t)
	.loc 1 1295 9
	cmpq	$0, -8(%rbp)	#, t
	jne	.L232	#,
# am_map.c:1292:     for (i=0;i<numsectors;i++)
	.loc 1 1292 28 discriminator 2
	addl	$1, -12(%rbp)	#, i
.L230:
# am_map.c:1292:     for (i=0;i<numsectors;i++)
	.loc 1 1292 15 discriminator 1
	movl	numsectors(%rip), %eax	# numsectors, numsectors.293_10
	cmpl	%eax, -12(%rbp)	# numsectors.293_10, i
	jl	.L233	#,
# am_map.c:1303: }
	.loc 1 1303 1
	nop	
	nop	
	leave	
	.cfi_def_cfa 7, 8
	ret	
	.cfi_endproc
.LFE30:
	.size	AM_drawThings, .-AM_drawThings
	.globl	AM_drawMarks
	.type	AM_drawMarks, @function
AM_drawMarks:
.LFB31:
	.loc 1 1306 1
	.cfi_startproc
	endbr64	
	pushq	%rbp	#
	.cfi_def_cfa_offset 16
	.cfi_offset 6, -16
	movq	%rsp, %rbp	#,
	.cfi_def_cfa_register 6
	pushq	%rbx	#
	subq	$40, %rsp	#,
	.cfi_offset 3, -24
# am_map.c:1309:     for (i=0;i<AM_NUMMARKPOINTS;i++)
	.loc 1 1309 11
	movl	$0, -36(%rbp)	#, i
# am_map.c:1309:     for (i=0;i<AM_NUMMARKPOINTS;i++)
	.loc 1 1309 5
	jmp	.L235	#
.L237:
# am_map.c:1311: 	if (markpoints[i].x != -1)
	.loc 1 1311 19
	movl	-36(%rbp), %eax	# i, tmp107
	cltq
	leaq	0(,%rax,8), %rdx	#, tmp108
	leaq	markpoints(%rip), %rax	#, tmp109
	movl	(%rdx,%rax), %eax	# markpoints[i_25].x, _1
# am_map.c:1311: 	if (markpoints[i].x != -1)
	.loc 1 1311 5
	cmpl	$-1, %eax	#, _1
	je	.L236	#,
# am_map.c:1315: 	    w = 5; // because something's wrong with the wad, i guess
	.loc 1 1315 8
	movl	$5, -32(%rbp)	#, w
# am_map.c:1316: 	    h = 6; // because something's wrong with the wad, i guess
	.loc 1 1316 8
	movl	$6, -28(%rbp)	#, h
# am_map.c:1317: 	    fx = CXMTOF(markpoints[i].x);
	.loc 1 1317 11
	movl	scale_mtof(%rip), %eax	# scale_mtof, scale_mtof.294_2
	movl	-36(%rbp), %edx	# i, tmp111
	movslq	%edx, %rdx	# tmp111, tmp110
	leaq	0(,%rdx,8), %rcx	#, tmp112
	leaq	markpoints(%rip), %rdx	#, tmp113
	movl	(%rcx,%rdx), %edx	# markpoints[i_25].x, _3
	movl	m_x(%rip), %ecx	# m_x, m_x.295_4
	subl	%ecx, %edx	# m_x.295_4, _5
	movl	%eax, %esi	# scale_mtof.294_2,
	movl	%edx, %edi	# _5,
	call	FixedMul@PLT	#
# am_map.c:1317: 	    fx = CXMTOF(markpoints[i].x);
	.loc 1 1317 11 is_stmt 0 discriminator 1
	sarl	$16, %eax	#, _6
	movl	%eax, %edx	# _6, _7
	movl	f_x(%rip), %eax	# f_x, f_x.296_8
# am_map.c:1317: 	    fx = CXMTOF(markpoints[i].x);
	.loc 1 1317 9 is_stmt 1 discriminator 1
	addl	%edx, %eax	# _7, tmp114
	movl	%eax, -24(%rbp)	# tmp114, fx
# am_map.c:1318: 	    fy = CYMTOF(markpoints[i].y);
	.loc 1 1318 11
	movl	f_h(%rip), %ebx	# f_h, f_h.297_9
	movl	scale_mtof(%rip), %eax	# scale_mtof, scale_mtof.298_10
	movl	-36(%rbp), %edx	# i, tmp116
	movslq	%edx, %rdx	# tmp116, tmp115
	leaq	0(,%rdx,8), %rcx	#, tmp117
	leaq	4+markpoints(%rip), %rdx	#, tmp118
	movl	(%rcx,%rdx), %edx	# markpoints[i_25].y, _11
	movl	m_y(%rip), %ecx	# m_y, m_y.299_12
	subl	%ecx, %edx	# m_y.299_12, _13
	movl	%eax, %esi	# scale_mtof.298_10,
	movl	%edx, %edi	# _13,
	call	FixedMul@PLT	#
# am_map.c:1318: 	    fy = CYMTOF(markpoints[i].y);
	.loc 1 1318 11 is_stmt 0 discriminator 1
	sarl	$16, %eax	#, _15
	subl	%eax, %ebx	# _15, f_h.297_9
	movl	%ebx, %edx	# f_h.297_9, _16
	movl	f_y(%rip), %eax	# f_y, f_y.300_17
# am_map.c:1318: 	    fy = CYMTOF(markpoints[i].y);
	.loc 1 1318 9 is_stmt 1 discriminator 1
	addl	%edx, %eax	# _16, tmp119
	movl	%eax, -20(%rbp)	# tmp119, fy
# am_map.c:1319: 	    if (fx >= f_x && fx <= f_w - w && fy >= f_y && fy <= f_h - h)
	.loc 1 1319 13
	movl	f_x(%rip), %eax	# f_x, f_x.301_18
# am_map.c:1319: 	    if (fx >= f_x && fx <= f_w - w && fy >= f_y && fy <= f_h - h)
	.loc 1 1319 9
	cmpl	%eax, -24(%rbp)	# f_x.301_18, fx
	jl	.L236	#,
# am_map.c:1319: 	    if (fx >= f_x && fx <= f_w - w && fy >= f_y && fy <= f_h - h)
	.loc 1 1319 33 discriminator 1
	movl	f_w(%rip), %eax	# f_w, f_w.302_19
	subl	-32(%rbp), %eax	# w, _20
# am_map.c:1319: 	    if (fx >= f_x && fx <= f_w - w && fy >= f_y && fy <= f_h - h)
	.loc 1 1319 20 discriminator 1
	cmpl	%eax, -24(%rbp)	# _20, fx
	jg	.L236	#,
# am_map.c:1319: 	    if (fx >= f_x && fx <= f_w - w && fy >= f_y && fy <= f_h - h)
	.loc 1 1319 43 discriminator 2
	movl	f_y(%rip), %eax	# f_y, f_y.303_21
# am_map.c:1319: 	    if (fx >= f_x && fx <= f_w - w && fy >= f_y && fy <= f_h - h)
	.loc 1 1319 37 discriminator 2
	cmpl	%eax, -20(%rbp)	# f_y.303_21, fy
	jl	.L236	#,
# am_map.c:1319: 	    if (fx >= f_x && fx <= f_w - w && fy >= f_y && fy <= f_h - h)
	.loc 1 1319 63 discriminator 3
	movl	f_h(%rip), %eax	# f_h, f_h.304_22
	subl	-28(%rbp), %eax	# h, _23
# am_map.c:1319: 	    if (fx >= f_x && fx <= f_w - w && fy >= f_y && fy <= f_h - h)
	.loc 1 1319 50 discriminator 3
	cmpl	%eax, -20(%rbp)	# _23, fy
	jg	.L236	#,
# am_map.c:1320: 		V_DrawPatch(fx, fy, FB, marknums[i]);
	.loc 1 1320 3
	movl	-36(%rbp), %eax	# i, tmp121
	cltq
	leaq	0(,%rax,8), %rdx	#, tmp122
	leaq	marknums(%rip), %rax	#, tmp123
	movq	(%rdx,%rax), %rdx	# marknums[i_25], _24
	movl	-20(%rbp), %esi	# fy, tmp124
	movl	-24(%rbp), %eax	# fx, tmp125
	movq	%rdx, %rcx	# _24,
	movl	$0, %edx	#,
	movl	%eax, %edi	# tmp125,
	call	V_DrawPatch@PLT	#
.L236:
# am_map.c:1309:     for (i=0;i<AM_NUMMARKPOINTS;i++)
	.loc 1 1309 34 discriminator 2
	addl	$1, -36(%rbp)	#, i
.L235:
# am_map.c:1309:     for (i=0;i<AM_NUMMARKPOINTS;i++)
	.loc 1 1309 15 discriminator 1
	cmpl	$9, -36(%rbp)	#, i
	jle	.L237	#,
# am_map.c:1324: }
	.loc 1 1324 1
	nop	
	nop	
	movq	-8(%rbp), %rbx	#,
	leave	
	.cfi_def_cfa 7, 8
	ret	
	.cfi_endproc
.LFE31:
	.size	AM_drawMarks, .-AM_drawMarks
	.globl	AM_drawCrosshair
	.type	AM_drawCrosshair, @function
AM_drawCrosshair:
.LFB32:
	.loc 1 1327 1
	.cfi_startproc
	endbr64	
	pushq	%rbp	#
	.cfi_def_cfa_offset 16
	.cfi_offset 6, -16
	movq	%rsp, %rbp	#,
	.cfi_def_cfa_register 6
	movl	%edi, -4(%rbp)	# color, color
# am_map.c:1328:     fb[(f_w*(f_h+1))/2] = color; // single point for now
	.loc 1 1328 7
	movq	fb(%rip), %rdx	# fb, fb.305_1
# am_map.c:1328:     fb[(f_w*(f_h+1))/2] = color; // single point for now
	.loc 1 1328 17
	movl	f_h(%rip), %eax	# f_h, f_h.306_2
	leal	1(%rax), %ecx	#, _3
# am_map.c:1328:     fb[(f_w*(f_h+1))/2] = color; // single point for now
	.loc 1 1328 12
	movl	f_w(%rip), %eax	# f_w, f_w.307_4
	imull	%ecx, %eax	# _3, _5
# am_map.c:1328:     fb[(f_w*(f_h+1))/2] = color; // single point for now
	.loc 1 1328 21
	movl	%eax, %ecx	# _5, tmp91
	shrl	$31, %ecx	#, tmp91
	addl	%ecx, %eax	# tmp91, tmp92
	sarl	%eax	# tmp93
	cltq
# am_map.c:1328:     fb[(f_w*(f_h+1))/2] = color; // single point for now
	.loc 1 1328 7
	addq	%rdx, %rax	# fb.305_1, _8
# am_map.c:1328:     fb[(f_w*(f_h+1))/2] = color; // single point for now
	.loc 1 1328 25
	movl	-4(%rbp), %edx	# color, tmp94
	movb	%dl, (%rax)	# _9, *_8
# am_map.c:1330: }
	.loc 1 1330 1
	nop	
	popq	%rbp	#
	.cfi_def_cfa 7, 8
	ret	
	.cfi_endproc
.LFE32:
	.size	AM_drawCrosshair, .-AM_drawCrosshair
	.globl	AM_Drawer
	.type	AM_Drawer, @function
AM_Drawer:
.LFB33:
	.loc 1 1333 1
	.cfi_startproc
	endbr64	
	pushq	%rbp	#
	.cfi_def_cfa_offset 16
	.cfi_offset 6, -16
	movq	%rsp, %rbp	#,
	.cfi_def_cfa_register 6
# am_map.c:1334:     if (!automapactive) return;
	.loc 1 1334 9
	movl	automapactive(%rip), %eax	# automapactive, automapactive.308_1
# am_map.c:1334:     if (!automapactive) return;
	.loc 1 1334 8
	testl	%eax, %eax	# automapactive.308_1
	je	.L244	#,
# am_map.c:1336:     AM_clearFB(BACKGROUND);
	.loc 1 1336 5
	movl	$0, %edi	#,
	call	AM_clearFB	#
# am_map.c:1337:     if (grid)
	.loc 1 1337 9
	movl	grid(%rip), %eax	# grid, grid.309_2
# am_map.c:1337:     if (grid)
	.loc 1 1337 8
	testl	%eax, %eax	# grid.309_2
	je	.L242	#,
# am_map.c:1338: 	AM_drawGrid(GRIDCOLORS);
	.loc 1 1338 2
	movl	$104, %edi	#,
	call	AM_drawGrid	#
.L242:
# am_map.c:1339:     AM_drawWalls();
	.loc 1 1339 5
	call	AM_drawWalls	#
# am_map.c:1340:     AM_drawPlayers();
	.loc 1 1340 5
	call	AM_drawPlayers	#
# am_map.c:1341:     if (cheating==2)
	.loc 1 1341 17
	movl	cheating(%rip), %eax	# cheating, cheating.310_3
# am_map.c:1341:     if (cheating==2)
	.loc 1 1341 8
	cmpl	$2, %eax	#, cheating.310_3
	jne	.L243	#,
# am_map.c:1342: 	AM_drawThings(THINGCOLORS, THINGRANGE);
	.loc 1 1342 2
	movl	$16, %esi	#,
	movl	$112, %edi	#,
	call	AM_drawThings	#
.L243:
# am_map.c:1343:     AM_drawCrosshair(XHAIRCOLORS);
	.loc 1 1343 5
	movl	$96, %edi	#,
	call	AM_drawCrosshair	#
# am_map.c:1345:     AM_drawMarks();
	.loc 1 1345 5
	call	AM_drawMarks	#
# am_map.c:1347:     V_MarkRect(f_x, f_y, f_w, f_h);
	.loc 1 1347 5
	movl	f_h(%rip), %ecx	# f_h, f_h.311_4
	movl	f_w(%rip), %edx	# f_w, f_w.312_5
	movl	f_y(%rip), %esi	# f_y, f_y.313_6
	movl	f_x(%rip), %eax	# f_x, f_x.314_7
	movl	%eax, %edi	# f_x.314_7,
	call	V_MarkRect@PLT	#
	jmp	.L239	#
.L244:
# am_map.c:1334:     if (!automapactive) return;
	.loc 1 1334 25
	nop	
.L239:
# am_map.c:1349: }
	.loc 1 1349 1
	popq	%rbp	#
	.cfi_def_cfa 7, 8
	ret	
	.cfi_endproc
.LFE33:
	.size	AM_Drawer, .-AM_Drawer
	.data
	.align 16
	.type	st_notify.13, @object
	.size	st_notify.13, 16
st_notify.13:
# type:
	.long	1
# data1:
	.long	1634559232
	.zero	8
	.align 16
	.type	st_notify.12, @object
	.size	st_notify.12, 16
st_notify.12:
# type:
	.long	0
# data1:
	.long	1
# data2:
	.long	1634564096
	.zero	4
	.align 4
	.type	lastlevel.11, @object
	.size	lastlevel.11, 4
lastlevel.11:
	.long	-1
	.align 4
	.type	lastepisode.10, @object
	.size	lastepisode.10, 4
lastepisode.10:
	.long	-1
	.local	bigstate.9
	.comm	bigstate.9,4,4
	.local	buffer.8
	.comm	buffer.8,20,16
	.local	cheatstate.7
	.comm	cheatstate.7,4,4
	.local	nexttic.6
	.comm	nexttic.6,4,4
	.local	litelevelscnt.5
	.comm	litelevelscnt.5,4,4
	.align 32
	.type	litelevels.4, @object
	.size	litelevels.4, 32
litelevels.4:
	.long	0
	.long	4
	.long	7
	.long	10
	.long	12
	.long	14
	.long	15
	.long	15
	.local	fuck.3
	.comm	fuck.3,4,4
	.local	fl.2
	.comm	fl.2,16,16
	.local	l.1
	.comm	l.1,16,16
	.align 16
	.type	their_colors.0, @object
	.size	their_colors.0, 16
their_colors.0:
	.long	112
	.long	96
	.long	64
	.long	176
	.text
.Letext0:
	.file 2 "/usr/lib/gcc/x86_64-linux-gnu/13/include/stddef.h"
	.file 3 "/usr/include/x86_64-linux-gnu/bits/types.h"
	.file 4 "/usr/include/x86_64-linux-gnu/bits/types/struct_FILE.h"
	.file 5 "/usr/include/x86_64-linux-gnu/bits/types/FILE.h"
	.file 6 "z_zone.h"
	.file 7 "doomdef.h"
	.file 8 "doomtype.h"
	.file 9 "d_event.h"
	.file 10 "m_fixed.h"
	.file 11 "/usr/include/stdio.h"
	.file 12 "tables.h"
	.file 13 "d_think.h"
	.file 14 "doomdata.h"
	.file 15 "info.h"
	.file 16 "p_mobj.h"
	.file 17 "r_defs.h"
	.file 18 "d_player.h"
	.file 19 "p_pspr.h"
	.file 20 "d_ticcmd.h"
	.file 21 "r_state.h"
	.file 22 "p_local.h"
	.file 23 "m_cheat.h"
	.file 24 "v_video.h"
	.file 25 "doomstat.h"
	.file 26 "/usr/include/string.h"
	.file 27 "i_system.h"
	.file 28 "w_wad.h"
	.file 29 "st_stuff.h"
	.section	.debug_info,"",@progbits
.Ldebug_info0:
	.long	0x41fe
	.value	0x5
	.byte	0x1
	.byte	0x8
	.long	.Ldebug_abbrev0
	.uleb128 0x29
	.long	.LASF1650
	.byte	0x1d
	.long	.LASF0
	.long	.LASF1
	.quad	.Ltext0
	.quad	.Letext0-.Ltext0
	.long	.Ldebug_line0
	.uleb128 0xb
	.long	0x51
	.long	0x3e
	.uleb128 0xd
	.long	0x43
	.byte	0x30
	.byte	0
	.uleb128 0x22
	.long	0x2e
	.uleb128 0x14
	.byte	0x8
	.byte	0x7
	.long	.LASF2
	.uleb128 0x14
	.byte	0x1
	.byte	0x6
	.long	.LASF3
	.uleb128 0x22
	.long	0x4a
	.uleb128 0xe
	.long	.LASF1539
	.byte	0x18
	.byte	0x13
	.long	0x3e
	.uleb128 0x9
	.byte	0x3
	.quad	rcsid
	.uleb128 0x7
	.long	.LASF10
	.byte	0x2
	.byte	0xd6
	.byte	0x17
	.long	0x43
	.uleb128 0x14
	.byte	0x4
	.byte	0x7
	.long	.LASF4
	.uleb128 0x2a
	.byte	0x8
	.uleb128 0x14
	.byte	0x1
	.byte	0x8
	.long	.LASF5
	.uleb128 0x14
	.byte	0x2
	.byte	0x7
	.long	.LASF6
	.uleb128 0x14
	.byte	0x1
	.byte	0x6
	.long	.LASF7
	.uleb128 0x14
	.byte	0x2
	.byte	0x5
	.long	.LASF8
	.uleb128 0x2b
	.byte	0x4
	.byte	0x5
	.string	"int"
	.uleb128 0x14
	.byte	0x8
	.byte	0x5
	.long	.LASF9
	.uleb128 0x7
	.long	.LASF11
	.byte	0x3
	.byte	0x98
	.byte	0x19
	.long	0xa3
	.uleb128 0x7
	.long	.LASF12
	.byte	0x3
	.byte	0x99
	.byte	0x1b
	.long	0xa3
	.uleb128 0x8
	.long	0x4a
	.uleb128 0x17
	.long	.LASF46
	.byte	0xd8
	.byte	0x4
	.byte	0x31
	.byte	0x8
	.long	0x24e
	.uleb128 0x3
	.long	.LASF13
	.byte	0x4
	.byte	0x33
	.byte	0x7
	.long	0x9c
	.byte	0
	.uleb128 0x3
	.long	.LASF14
	.byte	0x4
	.byte	0x36
	.byte	0x9
	.long	0xc2
	.byte	0x8
	.uleb128 0x3
	.long	.LASF15
	.byte	0x4
	.byte	0x37
	.byte	0x9
	.long	0xc2
	.byte	0x10
	.uleb128 0x3
	.long	.LASF16
	.byte	0x4
	.byte	0x38
	.byte	0x9
	.long	0xc2
	.byte	0x18
	.uleb128 0x3
	.long	.LASF17
	.byte	0x4
	.byte	0x39
	.byte	0x9
	.long	0xc2
	.byte	0x20
	.uleb128 0x3
	.long	.LASF18
	.byte	0x4
	.byte	0x3a
	.byte	0x9
	.long	0xc2
	.byte	0x28
	.uleb128 0x3
	.long	.LASF19
	.byte	0x4
	.byte	0x3b
	.byte	0x9
	.long	0xc2
	.byte	0x30
	.uleb128 0x3
	.long	.LASF20
	.byte	0x4
	.byte	0x3c
	.byte	0x9
	.long	0xc2
	.byte	0x38
	.uleb128 0x3
	.long	.LASF21
	.byte	0x4
	.byte	0x3d
	.byte	0x9
	.long	0xc2
	.byte	0x40
	.uleb128 0x3
	.long	.LASF22
	.byte	0x4
	.byte	0x40
	.byte	0x9
	.long	0xc2
	.byte	0x48
	.uleb128 0x3
	.long	.LASF23
	.byte	0x4
	.byte	0x41
	.byte	0x9
	.long	0xc2
	.byte	0x50
	.uleb128 0x3
	.long	.LASF24
	.byte	0x4
	.byte	0x42
	.byte	0x9
	.long	0xc2
	.byte	0x58
	.uleb128 0x3
	.long	.LASF25
	.byte	0x4
	.byte	0x44
	.byte	0x16
	.long	0x267
	.byte	0x60
	.uleb128 0x3
	.long	.LASF26
	.byte	0x4
	.byte	0x46
	.byte	0x14
	.long	0x26c
	.byte	0x68
	.uleb128 0x3
	.long	.LASF27
	.byte	0x4
	.byte	0x48
	.byte	0x7
	.long	0x9c
	.byte	0x70
	.uleb128 0x3
	.long	.LASF28
	.byte	0x4
	.byte	0x49
	.byte	0x7
	.long	0x9c
	.byte	0x74
	.uleb128 0x3
	.long	.LASF29
	.byte	0x4
	.byte	0x4a
	.byte	0xb
	.long	0xaa
	.byte	0x78
	.uleb128 0x3
	.long	.LASF30
	.byte	0x4
	.byte	0x4d
	.byte	0x12
	.long	0x87
	.byte	0x80
	.uleb128 0x3
	.long	.LASF31
	.byte	0x4
	.byte	0x4e
	.byte	0xf
	.long	0x8e
	.byte	0x82
	.uleb128 0x3
	.long	.LASF32
	.byte	0x4
	.byte	0x4f
	.byte	0x8
	.long	0x271
	.byte	0x83
	.uleb128 0x3
	.long	.LASF33
	.byte	0x4
	.byte	0x51
	.byte	0xf
	.long	0x281
	.byte	0x88
	.uleb128 0x3
	.long	.LASF34
	.byte	0x4
	.byte	0x59
	.byte	0xd
	.long	0xb6
	.byte	0x90
	.uleb128 0x3
	.long	.LASF35
	.byte	0x4
	.byte	0x5b
	.byte	0x17
	.long	0x28b
	.byte	0x98
	.uleb128 0x3
	.long	.LASF36
	.byte	0x4
	.byte	0x5c
	.byte	0x19
	.long	0x295
	.byte	0xa0
	.uleb128 0x3
	.long	.LASF37
	.byte	0x4
	.byte	0x5d
	.byte	0x14
	.long	0x26c
	.byte	0xa8
	.uleb128 0x3
	.long	.LASF38
	.byte	0x4
	.byte	0x5e
	.byte	0x9
	.long	0x7e
	.byte	0xb0
	.uleb128 0x3
	.long	.LASF39
	.byte	0x4
	.byte	0x5f
	.byte	0xa
	.long	0x6b
	.byte	0xb8
	.uleb128 0x3
	.long	.LASF40
	.byte	0x4
	.byte	0x60
	.byte	0x7
	.long	0x9c
	.byte	0xc0
	.uleb128 0x3
	.long	.LASF41
	.byte	0x4
	.byte	0x62
	.byte	0x8
	.long	0x29a
	.byte	0xc4
	.byte	0
	.uleb128 0x7
	.long	.LASF42
	.byte	0x5
	.byte	0x7
	.byte	0x19
	.long	0xc7
	.uleb128 0x2c
	.long	.LASF1651
	.byte	0x4
	.byte	0x2b
	.byte	0xe
	.uleb128 0x1c
	.long	.LASF43
	.uleb128 0x8
	.long	0x262
	.uleb128 0x8
	.long	0xc7
	.uleb128 0xb
	.long	0x4a
	.long	0x281
	.uleb128 0xd
	.long	0x43
	.byte	0
	.byte	0
	.uleb128 0x8
	.long	0x25a
	.uleb128 0x1c
	.long	.LASF44
	.uleb128 0x8
	.long	0x286
	.uleb128 0x1c
	.long	.LASF45
	.uleb128 0x8
	.long	0x290
	.uleb128 0xb
	.long	0x4a
	.long	0x2aa
	.uleb128 0xd
	.long	0x43
	.byte	0x13
	.byte	0
	.uleb128 0x8
	.long	0x51
	.uleb128 0x23
	.long	0x2aa
	.uleb128 0x8
	.long	0x24e
	.uleb128 0x23
	.long	0x2b4
	.uleb128 0xc
	.long	.LASF102
	.byte	0xb
	.byte	0x97
	.byte	0xe
	.long	0x2b4
	.uleb128 0x17
	.long	.LASF47
	.byte	0x28
	.byte	0x6
	.byte	0x3a
	.byte	0x10
	.long	0x325
	.uleb128 0x3
	.long	.LASF48
	.byte	0x6
	.byte	0x3c
	.byte	0xb
	.long	0x9c
	.byte	0
	.uleb128 0x3
	.long	.LASF49
	.byte	0x6
	.byte	0x3d
	.byte	0xd
	.long	0x325
	.byte	0x8
	.uleb128 0x9
	.string	"tag"
	.byte	0x6
	.byte	0x3e
	.byte	0xb
	.long	0x9c
	.byte	0x10
	.uleb128 0x9
	.string	"id"
	.byte	0x6
	.byte	0x3f
	.byte	0xb
	.long	0x9c
	.byte	0x14
	.uleb128 0x3
	.long	.LASF50
	.byte	0x6
	.byte	0x40
	.byte	0x18
	.long	0x32a
	.byte	0x18
	.uleb128 0x3
	.long	.LASF51
	.byte	0x6
	.byte	0x41
	.byte	0x18
	.long	0x32a
	.byte	0x20
	.byte	0
	.uleb128 0x8
	.long	0x7e
	.uleb128 0x8
	.long	0x2ca
	.uleb128 0x7
	.long	.LASF52
	.byte	0x6
	.byte	0x42
	.byte	0x3
	.long	0x2ca
	.uleb128 0x13
	.long	0x77
	.byte	0x7
	.byte	0xa3
	.byte	0x1
	.long	0x372
	.uleb128 0x2
	.long	.LASF53
	.byte	0
	.uleb128 0x2
	.long	.LASF54
	.byte	0x1
	.uleb128 0x2
	.long	.LASF55
	.byte	0x2
	.uleb128 0x2
	.long	.LASF56
	.byte	0x3
	.uleb128 0x2
	.long	.LASF57
	.byte	0x4
	.uleb128 0x2
	.long	.LASF58
	.byte	0x5
	.uleb128 0x2
	.long	.LASF59
	.byte	0x6
	.byte	0
	.uleb128 0x13
	.long	0x77
	.byte	0x7
	.byte	0xb5
	.byte	0x1
	.long	0x3c1
	.uleb128 0x2
	.long	.LASF60
	.byte	0
	.uleb128 0x2
	.long	.LASF61
	.byte	0x1
	.uleb128 0x2
	.long	.LASF62
	.byte	0x2
	.uleb128 0x2
	.long	.LASF63
	.byte	0x3
	.uleb128 0x2
	.long	.LASF64
	.byte	0x4
	.uleb128 0x2
	.long	.LASF65
	.byte	0x5
	.uleb128 0x2
	.long	.LASF66
	.byte	0x6
	.uleb128 0x2
	.long	.LASF67
	.byte	0x7
	.uleb128 0x2
	.long	.LASF68
	.byte	0x8
	.uleb128 0x2
	.long	.LASF69
	.byte	0x9
	.uleb128 0x2
	.long	.LASF70
	.byte	0xa
	.byte	0
	.uleb128 0x7
	.long	.LASF71
	.byte	0x7
	.byte	0xc5
	.byte	0x3
	.long	0x372
	.uleb128 0x13
	.long	0x77
	.byte	0x7
	.byte	0xca
	.byte	0x1
	.long	0x3fe
	.uleb128 0x2
	.long	.LASF72
	.byte	0
	.uleb128 0x2
	.long	.LASF73
	.byte	0x1
	.uleb128 0x2
	.long	.LASF74
	.byte	0x2
	.uleb128 0x2
	.long	.LASF75
	.byte	0x3
	.uleb128 0x2
	.long	.LASF76
	.byte	0x4
	.uleb128 0x2
	.long	.LASF77
	.byte	0x5
	.byte	0
	.uleb128 0x13
	.long	0x77
	.byte	0x7
	.byte	0xd7
	.byte	0x1
	.long	0x435
	.uleb128 0x2
	.long	.LASF78
	.byte	0
	.uleb128 0x2
	.long	.LASF79
	.byte	0x1
	.uleb128 0x2
	.long	.LASF80
	.byte	0x2
	.uleb128 0x2
	.long	.LASF81
	.byte	0x3
	.uleb128 0x2
	.long	.LASF82
	.byte	0x4
	.uleb128 0x2
	.long	.LASF83
	.byte	0x5
	.uleb128 0x2
	.long	.LASF84
	.byte	0x6
	.byte	0
	.uleb128 0x13
	.long	0x77
	.byte	0x8
	.byte	0x22
	.byte	0xe
	.long	0x44e
	.uleb128 0x2
	.long	.LASF85
	.byte	0
	.uleb128 0x2
	.long	.LASF86
	.byte	0x1
	.byte	0
	.uleb128 0x7
	.long	.LASF87
	.byte	0x8
	.byte	0x22
	.byte	0x1c
	.long	0x435
	.uleb128 0x7
	.long	.LASF88
	.byte	0x8
	.byte	0x24
	.byte	0x17
	.long	0x80
	.uleb128 0x13
	.long	0x77
	.byte	0x9
	.byte	0x24
	.byte	0x1
	.long	0x48b
	.uleb128 0x2
	.long	.LASF89
	.byte	0
	.uleb128 0x2
	.long	.LASF90
	.byte	0x1
	.uleb128 0x2
	.long	.LASF91
	.byte	0x2
	.uleb128 0x2
	.long	.LASF92
	.byte	0x3
	.byte	0
	.uleb128 0x7
	.long	.LASF93
	.byte	0x9
	.byte	0x29
	.byte	0x3
	.long	0x466
	.uleb128 0x10
	.byte	0x10
	.byte	0x9
	.byte	0x2c
	.long	0x4d4
	.uleb128 0x3
	.long	.LASF94
	.byte	0x9
	.byte	0x2e
	.byte	0xe
	.long	0x48b
	.byte	0
	.uleb128 0x3
	.long	.LASF95
	.byte	0x9
	.byte	0x2f
	.byte	0xa
	.long	0x9c
	.byte	0x4
	.uleb128 0x3
	.long	.LASF96
	.byte	0x9
	.byte	0x30
	.byte	0xa
	.long	0x9c
	.byte	0x8
	.uleb128 0x3
	.long	.LASF97
	.byte	0x9
	.byte	0x31
	.byte	0xa
	.long	0x9c
	.byte	0xc
	.byte	0
	.uleb128 0x7
	.long	.LASF98
	.byte	0x9
	.byte	0x32
	.byte	0x3
	.long	0x497
	.uleb128 0x14
	.byte	0x4
	.byte	0x4
	.long	.LASF99
	.uleb128 0x14
	.byte	0x8
	.byte	0x4
	.long	.LASF100
	.uleb128 0x7
	.long	.LASF101
	.byte	0xa
	.byte	0x26
	.byte	0xd
	.long	0x9c
	.uleb128 0xb
	.long	0x4ee
	.long	0x50b
	.uleb128 0x2d
	.long	0x43
	.value	0x27ff
	.byte	0
	.uleb128 0xc
	.long	.LASF103
	.byte	0xc
	.byte	0x3a
	.byte	0x12
	.long	0x4fa
	.uleb128 0xc
	.long	.LASF104
	.byte	0xc
	.byte	0x3d
	.byte	0x12
	.long	0x523
	.uleb128 0x8
	.long	0x4ee
	.uleb128 0x7
	.long	.LASF105
	.byte	0xc
	.byte	0x4e
	.byte	0x12
	.long	0x77
	.uleb128 0x7
	.long	.LASF106
	.byte	0xd
	.byte	0x29
	.byte	0x11
	.long	0x540
	.uleb128 0x8
	.long	0x545
	.uleb128 0x2e
	.long	0x54c
	.uleb128 0x1a
	.byte	0
	.uleb128 0x7
	.long	.LASF107
	.byte	0xd
	.byte	0x2a
	.byte	0x11
	.long	0x558
	.uleb128 0x8
	.long	0x55d
	.uleb128 0x24
	.long	0x568
	.uleb128 0xa
	.long	0x7e
	.byte	0
	.uleb128 0x7
	.long	.LASF108
	.byte	0xd
	.byte	0x2b
	.byte	0x11
	.long	0x574
	.uleb128 0x8
	.long	0x579
	.uleb128 0x24
	.long	0x589
	.uleb128 0xa
	.long	0x7e
	.uleb128 0xa
	.long	0x7e
	.byte	0
	.uleb128 0x2f
	.byte	0x8
	.byte	0xd
	.byte	0x2d
	.byte	0x9
	.long	0x5b3
	.uleb128 0x25
	.long	.LASF109
	.byte	0x2f
	.long	0x54c
	.uleb128 0x30
	.string	"acv"
	.byte	0xd
	.byte	0x30
	.byte	0xd
	.long	0x534
	.uleb128 0x25
	.long	.LASF110
	.byte	0x31
	.long	0x568
	.byte	0
	.uleb128 0x7
	.long	.LASF111
	.byte	0xd
	.byte	0x33
	.byte	0x3
	.long	0x589
	.uleb128 0x7
	.long	.LASF112
	.byte	0xd
	.byte	0x3c
	.byte	0x14
	.long	0x5b3
	.uleb128 0x17
	.long	.LASF113
	.byte	0x18
	.byte	0xd
	.byte	0x40
	.byte	0x10
	.long	0x600
	.uleb128 0x3
	.long	.LASF51
	.byte	0xd
	.byte	0x42
	.byte	0x17
	.long	0x600
	.byte	0
	.uleb128 0x3
	.long	.LASF50
	.byte	0xd
	.byte	0x43
	.byte	0x17
	.long	0x600
	.byte	0x8
	.uleb128 0x3
	.long	.LASF114
	.byte	0xd
	.byte	0x44
	.byte	0xe
	.long	0x5bf
	.byte	0x10
	.byte	0
	.uleb128 0x8
	.long	0x5cb
	.uleb128 0x7
	.long	.LASF115
	.byte	0xd
	.byte	0x46
	.byte	0x3
	.long	0x5cb
	.uleb128 0xb
	.long	0x95
	.long	0x621
	.uleb128 0xd
	.long	0x43
	.byte	0x1
	.byte	0
	.uleb128 0x10
	.byte	0xa
	.byte	0xe
	.byte	0xcb
	.long	0x667
	.uleb128 0x9
	.string	"x"
	.byte	0xe
	.byte	0xcd
	.byte	0xc
	.long	0x95
	.byte	0
	.uleb128 0x9
	.string	"y"
	.byte	0xe
	.byte	0xce
	.byte	0xc
	.long	0x95
	.byte	0x2
	.uleb128 0x3
	.long	.LASF116
	.byte	0xe
	.byte	0xcf
	.byte	0xc
	.long	0x95
	.byte	0x4
	.uleb128 0x3
	.long	.LASF94
	.byte	0xe
	.byte	0xd0
	.byte	0xc
	.long	0x95
	.byte	0x6
	.uleb128 0x3
	.long	.LASF117
	.byte	0xe
	.byte	0xd1
	.byte	0xc
	.long	0x95
	.byte	0x8
	.byte	0
	.uleb128 0x7
	.long	.LASF118
	.byte	0xe
	.byte	0xd2
	.byte	0x3
	.long	0x621
	.uleb128 0x13
	.long	0x77
	.byte	0xf
	.byte	0x1f
	.byte	0x1
	.long	0x9c2
	.uleb128 0x2
	.long	.LASF119
	.byte	0
	.uleb128 0x2
	.long	.LASF120
	.byte	0x1
	.uleb128 0x2
	.long	.LASF121
	.byte	0x2
	.uleb128 0x2
	.long	.LASF122
	.byte	0x3
	.uleb128 0x2
	.long	.LASF123
	.byte	0x4
	.uleb128 0x2
	.long	.LASF124
	.byte	0x5
	.uleb128 0x2
	.long	.LASF125
	.byte	0x6
	.uleb128 0x2
	.long	.LASF126
	.byte	0x7
	.uleb128 0x2
	.long	.LASF127
	.byte	0x8
	.uleb128 0x2
	.long	.LASF128
	.byte	0x9
	.uleb128 0x2
	.long	.LASF129
	.byte	0xa
	.uleb128 0x2
	.long	.LASF130
	.byte	0xb
	.uleb128 0x2
	.long	.LASF131
	.byte	0xc
	.uleb128 0x2
	.long	.LASF132
	.byte	0xd
	.uleb128 0x2
	.long	.LASF133
	.byte	0xe
	.uleb128 0x2
	.long	.LASF134
	.byte	0xf
	.uleb128 0x2
	.long	.LASF135
	.byte	0x10
	.uleb128 0x2
	.long	.LASF136
	.byte	0x11
	.uleb128 0x2
	.long	.LASF137
	.byte	0x12
	.uleb128 0x2
	.long	.LASF138
	.byte	0x13
	.uleb128 0x2
	.long	.LASF139
	.byte	0x14
	.uleb128 0x2
	.long	.LASF140
	.byte	0x15
	.uleb128 0x2
	.long	.LASF141
	.byte	0x16
	.uleb128 0x2
	.long	.LASF142
	.byte	0x17
	.uleb128 0x2
	.long	.LASF143
	.byte	0x18
	.uleb128 0x2
	.long	.LASF144
	.byte	0x19
	.uleb128 0x2
	.long	.LASF145
	.byte	0x1a
	.uleb128 0x2
	.long	.LASF146
	.byte	0x1b
	.uleb128 0x2
	.long	.LASF147
	.byte	0x1c
	.uleb128 0x2
	.long	.LASF148
	.byte	0x1d
	.uleb128 0x2
	.long	.LASF149
	.byte	0x1e
	.uleb128 0x2
	.long	.LASF150
	.byte	0x1f
	.uleb128 0x2
	.long	.LASF151
	.byte	0x20
	.uleb128 0x2
	.long	.LASF152
	.byte	0x21
	.uleb128 0x2
	.long	.LASF153
	.byte	0x22
	.uleb128 0x2
	.long	.LASF154
	.byte	0x23
	.uleb128 0x2
	.long	.LASF155
	.byte	0x24
	.uleb128 0x2
	.long	.LASF156
	.byte	0x25
	.uleb128 0x2
	.long	.LASF157
	.byte	0x26
	.uleb128 0x2
	.long	.LASF158
	.byte	0x27
	.uleb128 0x2
	.long	.LASF159
	.byte	0x28
	.uleb128 0x2
	.long	.LASF160
	.byte	0x29
	.uleb128 0x2
	.long	.LASF161
	.byte	0x2a
	.uleb128 0x2
	.long	.LASF162
	.byte	0x2b
	.uleb128 0x2
	.long	.LASF163
	.byte	0x2c
	.uleb128 0x2
	.long	.LASF164
	.byte	0x2d
	.uleb128 0x2
	.long	.LASF165
	.byte	0x2e
	.uleb128 0x2
	.long	.LASF166
	.byte	0x2f
	.uleb128 0x2
	.long	.LASF167
	.byte	0x30
	.uleb128 0x2
	.long	.LASF168
	.byte	0x31
	.uleb128 0x2
	.long	.LASF169
	.byte	0x32
	.uleb128 0x2
	.long	.LASF170
	.byte	0x33
	.uleb128 0x2
	.long	.LASF171
	.byte	0x34
	.uleb128 0x2
	.long	.LASF172
	.byte	0x35
	.uleb128 0x2
	.long	.LASF173
	.byte	0x36
	.uleb128 0x2
	.long	.LASF174
	.byte	0x37
	.uleb128 0x2
	.long	.LASF175
	.byte	0x38
	.uleb128 0x2
	.long	.LASF176
	.byte	0x39
	.uleb128 0x2
	.long	.LASF177
	.byte	0x3a
	.uleb128 0x2
	.long	.LASF178
	.byte	0x3b
	.uleb128 0x2
	.long	.LASF179
	.byte	0x3c
	.uleb128 0x2
	.long	.LASF180
	.byte	0x3d
	.uleb128 0x2
	.long	.LASF181
	.byte	0x3e
	.uleb128 0x2
	.long	.LASF182
	.byte	0x3f
	.uleb128 0x2
	.long	.LASF183
	.byte	0x40
	.uleb128 0x2
	.long	.LASF184
	.byte	0x41
	.uleb128 0x2
	.long	.LASF185
	.byte	0x42
	.uleb128 0x2
	.long	.LASF186
	.byte	0x43
	.uleb128 0x2
	.long	.LASF187
	.byte	0x44
	.uleb128 0x2
	.long	.LASF188
	.byte	0x45
	.uleb128 0x2
	.long	.LASF189
	.byte	0x46
	.uleb128 0x2
	.long	.LASF190
	.byte	0x47
	.uleb128 0x2
	.long	.LASF191
	.byte	0x48
	.uleb128 0x2
	.long	.LASF192
	.byte	0x49
	.uleb128 0x2
	.long	.LASF193
	.byte	0x4a
	.uleb128 0x2
	.long	.LASF194
	.byte	0x4b
	.uleb128 0x2
	.long	.LASF195
	.byte	0x4c
	.uleb128 0x2
	.long	.LASF196
	.byte	0x4d
	.uleb128 0x2
	.long	.LASF197
	.byte	0x4e
	.uleb128 0x2
	.long	.LASF198
	.byte	0x4f
	.uleb128 0x2
	.long	.LASF199
	.byte	0x50
	.uleb128 0x2
	.long	.LASF200
	.byte	0x51
	.uleb128 0x2
	.long	.LASF201
	.byte	0x52
	.uleb128 0x2
	.long	.LASF202
	.byte	0x53
	.uleb128 0x2
	.long	.LASF203
	.byte	0x54
	.uleb128 0x2
	.long	.LASF204
	.byte	0x55
	.uleb128 0x2
	.long	.LASF205
	.byte	0x56
	.uleb128 0x2
	.long	.LASF206
	.byte	0x57
	.uleb128 0x2
	.long	.LASF207
	.byte	0x58
	.uleb128 0x2
	.long	.LASF208
	.byte	0x59
	.uleb128 0x2
	.long	.LASF209
	.byte	0x5a
	.uleb128 0x2
	.long	.LASF210
	.byte	0x5b
	.uleb128 0x2
	.long	.LASF211
	.byte	0x5c
	.uleb128 0x2
	.long	.LASF212
	.byte	0x5d
	.uleb128 0x2
	.long	.LASF213
	.byte	0x5e
	.uleb128 0x2
	.long	.LASF214
	.byte	0x5f
	.uleb128 0x2
	.long	.LASF215
	.byte	0x60
	.uleb128 0x2
	.long	.LASF216
	.byte	0x61
	.uleb128 0x2
	.long	.LASF217
	.byte	0x62
	.uleb128 0x2
	.long	.LASF218
	.byte	0x63
	.uleb128 0x2
	.long	.LASF219
	.byte	0x64
	.uleb128 0x2
	.long	.LASF220
	.byte	0x65
	.uleb128 0x2
	.long	.LASF221
	.byte	0x66
	.uleb128 0x2
	.long	.LASF222
	.byte	0x67
	.uleb128 0x2
	.long	.LASF223
	.byte	0x68
	.uleb128 0x2
	.long	.LASF224
	.byte	0x69
	.uleb128 0x2
	.long	.LASF225
	.byte	0x6a
	.uleb128 0x2
	.long	.LASF226
	.byte	0x6b
	.uleb128 0x2
	.long	.LASF227
	.byte	0x6c
	.uleb128 0x2
	.long	.LASF228
	.byte	0x6d
	.uleb128 0x2
	.long	.LASF229
	.byte	0x6e
	.uleb128 0x2
	.long	.LASF230
	.byte	0x6f
	.uleb128 0x2
	.long	.LASF231
	.byte	0x70
	.uleb128 0x2
	.long	.LASF232
	.byte	0x71
	.uleb128 0x2
	.long	.LASF233
	.byte	0x72
	.uleb128 0x2
	.long	.LASF234
	.byte	0x73
	.uleb128 0x2
	.long	.LASF235
	.byte	0x74
	.uleb128 0x2
	.long	.LASF236
	.byte	0x75
	.uleb128 0x2
	.long	.LASF237
	.byte	0x76
	.uleb128 0x2
	.long	.LASF238
	.byte	0x77
	.uleb128 0x2
	.long	.LASF239
	.byte	0x78
	.uleb128 0x2
	.long	.LASF240
	.byte	0x79
	.uleb128 0x2
	.long	.LASF241
	.byte	0x7a
	.uleb128 0x2
	.long	.LASF242
	.byte	0x7b
	.uleb128 0x2
	.long	.LASF243
	.byte	0x7c
	.uleb128 0x2
	.long	.LASF244
	.byte	0x7d
	.uleb128 0x2
	.long	.LASF245
	.byte	0x7e
	.uleb128 0x2
	.long	.LASF246
	.byte	0x7f
	.uleb128 0x2
	.long	.LASF247
	.byte	0x80
	.uleb128 0x2
	.long	.LASF248
	.byte	0x81
	.uleb128 0x2
	.long	.LASF249
	.byte	0x82
	.uleb128 0x2
	.long	.LASF250
	.byte	0x83
	.uleb128 0x2
	.long	.LASF251
	.byte	0x84
	.uleb128 0x2
	.long	.LASF252
	.byte	0x85
	.uleb128 0x2
	.long	.LASF253
	.byte	0x86
	.uleb128 0x2
	.long	.LASF254
	.byte	0x87
	.uleb128 0x2
	.long	.LASF255
	.byte	0x88
	.uleb128 0x2
	.long	.LASF256
	.byte	0x89
	.uleb128 0x2
	.long	.LASF257
	.byte	0x8a
	.byte	0
	.uleb128 0x7
	.long	.LASF258
	.byte	0xf
	.byte	0xac
	.byte	0x3
	.long	0x673
	.uleb128 0x13
	.long	0x77
	.byte	0xf
	.byte	0xaf
	.byte	0x1
	.long	0x2353
	.uleb128 0x2
	.long	.LASF259
	.byte	0
	.uleb128 0x2
	.long	.LASF260
	.byte	0x1
	.uleb128 0x2
	.long	.LASF261
	.byte	0x2
	.uleb128 0x2
	.long	.LASF262
	.byte	0x3
	.uleb128 0x2
	.long	.LASF263
	.byte	0x4
	.uleb128 0x2
	.long	.LASF264
	.byte	0x5
	.uleb128 0x2
	.long	.LASF265
	.byte	0x6
	.uleb128 0x2
	.long	.LASF266
	.byte	0x7
	.uleb128 0x2
	.long	.LASF267
	.byte	0x8
	.uleb128 0x2
	.long	.LASF268
	.byte	0x9
	.uleb128 0x2
	.long	.LASF269
	.byte	0xa
	.uleb128 0x2
	.long	.LASF270
	.byte	0xb
	.uleb128 0x2
	.long	.LASF271
	.byte	0xc
	.uleb128 0x2
	.long	.LASF272
	.byte	0xd
	.uleb128 0x2
	.long	.LASF273
	.byte	0xe
	.uleb128 0x2
	.long	.LASF274
	.byte	0xf
	.uleb128 0x2
	.long	.LASF275
	.byte	0x10
	.uleb128 0x2
	.long	.LASF276
	.byte	0x11
	.uleb128 0x2
	.long	.LASF277
	.byte	0x12
	.uleb128 0x2
	.long	.LASF278
	.byte	0x13
	.uleb128 0x2
	.long	.LASF279
	.byte	0x14
	.uleb128 0x2
	.long	.LASF280
	.byte	0x15
	.uleb128 0x2
	.long	.LASF281
	.byte	0x16
	.uleb128 0x2
	.long	.LASF282
	.byte	0x17
	.uleb128 0x2
	.long	.LASF283
	.byte	0x18
	.uleb128 0x2
	.long	.LASF284
	.byte	0x19
	.uleb128 0x2
	.long	.LASF285
	.byte	0x1a
	.uleb128 0x2
	.long	.LASF286
	.byte	0x1b
	.uleb128 0x2
	.long	.LASF287
	.byte	0x1c
	.uleb128 0x2
	.long	.LASF288
	.byte	0x1d
	.uleb128 0x2
	.long	.LASF289
	.byte	0x1e
	.uleb128 0x2
	.long	.LASF290
	.byte	0x1f
	.uleb128 0x2
	.long	.LASF291
	.byte	0x20
	.uleb128 0x2
	.long	.LASF292
	.byte	0x21
	.uleb128 0x2
	.long	.LASF293
	.byte	0x22
	.uleb128 0x2
	.long	.LASF294
	.byte	0x23
	.uleb128 0x2
	.long	.LASF295
	.byte	0x24
	.uleb128 0x2
	.long	.LASF296
	.byte	0x25
	.uleb128 0x2
	.long	.LASF297
	.byte	0x26
	.uleb128 0x2
	.long	.LASF298
	.byte	0x27
	.uleb128 0x2
	.long	.LASF299
	.byte	0x28
	.uleb128 0x2
	.long	.LASF300
	.byte	0x29
	.uleb128 0x2
	.long	.LASF301
	.byte	0x2a
	.uleb128 0x2
	.long	.LASF302
	.byte	0x2b
	.uleb128 0x2
	.long	.LASF303
	.byte	0x2c
	.uleb128 0x2
	.long	.LASF304
	.byte	0x2d
	.uleb128 0x2
	.long	.LASF305
	.byte	0x2e
	.uleb128 0x2
	.long	.LASF306
	.byte	0x2f
	.uleb128 0x2
	.long	.LASF307
	.byte	0x30
	.uleb128 0x2
	.long	.LASF308
	.byte	0x31
	.uleb128 0x2
	.long	.LASF309
	.byte	0x32
	.uleb128 0x2
	.long	.LASF310
	.byte	0x33
	.uleb128 0x2
	.long	.LASF311
	.byte	0x34
	.uleb128 0x2
	.long	.LASF312
	.byte	0x35
	.uleb128 0x2
	.long	.LASF313
	.byte	0x36
	.uleb128 0x2
	.long	.LASF314
	.byte	0x37
	.uleb128 0x2
	.long	.LASF315
	.byte	0x38
	.uleb128 0x2
	.long	.LASF316
	.byte	0x39
	.uleb128 0x2
	.long	.LASF317
	.byte	0x3a
	.uleb128 0x2
	.long	.LASF318
	.byte	0x3b
	.uleb128 0x2
	.long	.LASF319
	.byte	0x3c
	.uleb128 0x2
	.long	.LASF320
	.byte	0x3d
	.uleb128 0x2
	.long	.LASF321
	.byte	0x3e
	.uleb128 0x2
	.long	.LASF322
	.byte	0x3f
	.uleb128 0x2
	.long	.LASF323
	.byte	0x40
	.uleb128 0x2
	.long	.LASF324
	.byte	0x41
	.uleb128 0x2
	.long	.LASF325
	.byte	0x42
	.uleb128 0x2
	.long	.LASF326
	.byte	0x43
	.uleb128 0x2
	.long	.LASF327
	.byte	0x44
	.uleb128 0x2
	.long	.LASF328
	.byte	0x45
	.uleb128 0x2
	.long	.LASF329
	.byte	0x46
	.uleb128 0x2
	.long	.LASF330
	.byte	0x47
	.uleb128 0x2
	.long	.LASF331
	.byte	0x48
	.uleb128 0x2
	.long	.LASF332
	.byte	0x49
	.uleb128 0x2
	.long	.LASF333
	.byte	0x4a
	.uleb128 0x2
	.long	.LASF334
	.byte	0x4b
	.uleb128 0x2
	.long	.LASF335
	.byte	0x4c
	.uleb128 0x2
	.long	.LASF336
	.byte	0x4d
	.uleb128 0x2
	.long	.LASF337
	.byte	0x4e
	.uleb128 0x2
	.long	.LASF338
	.byte	0x4f
	.uleb128 0x2
	.long	.LASF339
	.byte	0x50
	.uleb128 0x2
	.long	.LASF340
	.byte	0x51
	.uleb128 0x2
	.long	.LASF341
	.byte	0x52
	.uleb128 0x2
	.long	.LASF342
	.byte	0x53
	.uleb128 0x2
	.long	.LASF343
	.byte	0x54
	.uleb128 0x2
	.long	.LASF344
	.byte	0x55
	.uleb128 0x2
	.long	.LASF345
	.byte	0x56
	.uleb128 0x2
	.long	.LASF346
	.byte	0x57
	.uleb128 0x2
	.long	.LASF347
	.byte	0x58
	.uleb128 0x2
	.long	.LASF348
	.byte	0x59
	.uleb128 0x2
	.long	.LASF349
	.byte	0x5a
	.uleb128 0x2
	.long	.LASF350
	.byte	0x5b
	.uleb128 0x2
	.long	.LASF351
	.byte	0x5c
	.uleb128 0x2
	.long	.LASF352
	.byte	0x5d
	.uleb128 0x2
	.long	.LASF353
	.byte	0x5e
	.uleb128 0x2
	.long	.LASF354
	.byte	0x5f
	.uleb128 0x2
	.long	.LASF355
	.byte	0x60
	.uleb128 0x2
	.long	.LASF356
	.byte	0x61
	.uleb128 0x2
	.long	.LASF357
	.byte	0x62
	.uleb128 0x2
	.long	.LASF358
	.byte	0x63
	.uleb128 0x2
	.long	.LASF359
	.byte	0x64
	.uleb128 0x2
	.long	.LASF360
	.byte	0x65
	.uleb128 0x2
	.long	.LASF361
	.byte	0x66
	.uleb128 0x2
	.long	.LASF362
	.byte	0x67
	.uleb128 0x2
	.long	.LASF363
	.byte	0x68
	.uleb128 0x2
	.long	.LASF364
	.byte	0x69
	.uleb128 0x2
	.long	.LASF365
	.byte	0x6a
	.uleb128 0x2
	.long	.LASF366
	.byte	0x6b
	.uleb128 0x2
	.long	.LASF367
	.byte	0x6c
	.uleb128 0x2
	.long	.LASF368
	.byte	0x6d
	.uleb128 0x2
	.long	.LASF369
	.byte	0x6e
	.uleb128 0x2
	.long	.LASF370
	.byte	0x6f
	.uleb128 0x2
	.long	.LASF371
	.byte	0x70
	.uleb128 0x2
	.long	.LASF372
	.byte	0x71
	.uleb128 0x2
	.long	.LASF373
	.byte	0x72
	.uleb128 0x2
	.long	.LASF374
	.byte	0x73
	.uleb128 0x2
	.long	.LASF375
	.byte	0x74
	.uleb128 0x2
	.long	.LASF376
	.byte	0x75
	.uleb128 0x2
	.long	.LASF377
	.byte	0x76
	.uleb128 0x2
	.long	.LASF378
	.byte	0x77
	.uleb128 0x2
	.long	.LASF379
	.byte	0x78
	.uleb128 0x2
	.long	.LASF380
	.byte	0x79
	.uleb128 0x2
	.long	.LASF381
	.byte	0x7a
	.uleb128 0x2
	.long	.LASF382
	.byte	0x7b
	.uleb128 0x2
	.long	.LASF383
	.byte	0x7c
	.uleb128 0x2
	.long	.LASF384
	.byte	0x7d
	.uleb128 0x2
	.long	.LASF385
	.byte	0x7e
	.uleb128 0x2
	.long	.LASF386
	.byte	0x7f
	.uleb128 0x2
	.long	.LASF387
	.byte	0x80
	.uleb128 0x2
	.long	.LASF388
	.byte	0x81
	.uleb128 0x2
	.long	.LASF389
	.byte	0x82
	.uleb128 0x2
	.long	.LASF390
	.byte	0x83
	.uleb128 0x2
	.long	.LASF391
	.byte	0x84
	.uleb128 0x2
	.long	.LASF392
	.byte	0x85
	.uleb128 0x2
	.long	.LASF393
	.byte	0x86
	.uleb128 0x2
	.long	.LASF394
	.byte	0x87
	.uleb128 0x2
	.long	.LASF395
	.byte	0x88
	.uleb128 0x2
	.long	.LASF396
	.byte	0x89
	.uleb128 0x2
	.long	.LASF397
	.byte	0x8a
	.uleb128 0x2
	.long	.LASF398
	.byte	0x8b
	.uleb128 0x2
	.long	.LASF399
	.byte	0x8c
	.uleb128 0x2
	.long	.LASF400
	.byte	0x8d
	.uleb128 0x2
	.long	.LASF401
	.byte	0x8e
	.uleb128 0x2
	.long	.LASF402
	.byte	0x8f
	.uleb128 0x2
	.long	.LASF403
	.byte	0x90
	.uleb128 0x2
	.long	.LASF404
	.byte	0x91
	.uleb128 0x2
	.long	.LASF405
	.byte	0x92
	.uleb128 0x2
	.long	.LASF406
	.byte	0x93
	.uleb128 0x2
	.long	.LASF407
	.byte	0x94
	.uleb128 0x2
	.long	.LASF408
	.byte	0x95
	.uleb128 0x2
	.long	.LASF409
	.byte	0x96
	.uleb128 0x2
	.long	.LASF410
	.byte	0x97
	.uleb128 0x2
	.long	.LASF411
	.byte	0x98
	.uleb128 0x2
	.long	.LASF412
	.byte	0x99
	.uleb128 0x2
	.long	.LASF413
	.byte	0x9a
	.uleb128 0x2
	.long	.LASF414
	.byte	0x9b
	.uleb128 0x2
	.long	.LASF415
	.byte	0x9c
	.uleb128 0x2
	.long	.LASF416
	.byte	0x9d
	.uleb128 0x2
	.long	.LASF417
	.byte	0x9e
	.uleb128 0x2
	.long	.LASF418
	.byte	0x9f
	.uleb128 0x2
	.long	.LASF419
	.byte	0xa0
	.uleb128 0x2
	.long	.LASF420
	.byte	0xa1
	.uleb128 0x2
	.long	.LASF421
	.byte	0xa2
	.uleb128 0x2
	.long	.LASF422
	.byte	0xa3
	.uleb128 0x2
	.long	.LASF423
	.byte	0xa4
	.uleb128 0x2
	.long	.LASF424
	.byte	0xa5
	.uleb128 0x2
	.long	.LASF425
	.byte	0xa6
	.uleb128 0x2
	.long	.LASF426
	.byte	0xa7
	.uleb128 0x2
	.long	.LASF427
	.byte	0xa8
	.uleb128 0x2
	.long	.LASF428
	.byte	0xa9
	.uleb128 0x2
	.long	.LASF429
	.byte	0xaa
	.uleb128 0x2
	.long	.LASF430
	.byte	0xab
	.uleb128 0x2
	.long	.LASF431
	.byte	0xac
	.uleb128 0x2
	.long	.LASF432
	.byte	0xad
	.uleb128 0x2
	.long	.LASF433
	.byte	0xae
	.uleb128 0x2
	.long	.LASF434
	.byte	0xaf
	.uleb128 0x2
	.long	.LASF435
	.byte	0xb0
	.uleb128 0x2
	.long	.LASF436
	.byte	0xb1
	.uleb128 0x2
	.long	.LASF437
	.byte	0xb2
	.uleb128 0x2
	.long	.LASF438
	.byte	0xb3
	.uleb128 0x2
	.long	.LASF439
	.byte	0xb4
	.uleb128 0x2
	.long	.LASF440
	.byte	0xb5
	.uleb128 0x2
	.long	.LASF441
	.byte	0xb6
	.uleb128 0x2
	.long	.LASF442
	.byte	0xb7
	.uleb128 0x2
	.long	.LASF443
	.byte	0xb8
	.uleb128 0x2
	.long	.LASF444
	.byte	0xb9
	.uleb128 0x2
	.long	.LASF445
	.byte	0xba
	.uleb128 0x2
	.long	.LASF446
	.byte	0xbb
	.uleb128 0x2
	.long	.LASF447
	.byte	0xbc
	.uleb128 0x2
	.long	.LASF448
	.byte	0xbd
	.uleb128 0x2
	.long	.LASF449
	.byte	0xbe
	.uleb128 0x2
	.long	.LASF450
	.byte	0xbf
	.uleb128 0x2
	.long	.LASF451
	.byte	0xc0
	.uleb128 0x2
	.long	.LASF452
	.byte	0xc1
	.uleb128 0x2
	.long	.LASF453
	.byte	0xc2
	.uleb128 0x2
	.long	.LASF454
	.byte	0xc3
	.uleb128 0x2
	.long	.LASF455
	.byte	0xc4
	.uleb128 0x2
	.long	.LASF456
	.byte	0xc5
	.uleb128 0x2
	.long	.LASF457
	.byte	0xc6
	.uleb128 0x2
	.long	.LASF458
	.byte	0xc7
	.uleb128 0x2
	.long	.LASF459
	.byte	0xc8
	.uleb128 0x2
	.long	.LASF460
	.byte	0xc9
	.uleb128 0x2
	.long	.LASF461
	.byte	0xca
	.uleb128 0x2
	.long	.LASF462
	.byte	0xcb
	.uleb128 0x2
	.long	.LASF463
	.byte	0xcc
	.uleb128 0x2
	.long	.LASF464
	.byte	0xcd
	.uleb128 0x2
	.long	.LASF465
	.byte	0xce
	.uleb128 0x2
	.long	.LASF466
	.byte	0xcf
	.uleb128 0x2
	.long	.LASF467
	.byte	0xd0
	.uleb128 0x2
	.long	.LASF468
	.byte	0xd1
	.uleb128 0x2
	.long	.LASF469
	.byte	0xd2
	.uleb128 0x2
	.long	.LASF470
	.byte	0xd3
	.uleb128 0x2
	.long	.LASF471
	.byte	0xd4
	.uleb128 0x2
	.long	.LASF472
	.byte	0xd5
	.uleb128 0x2
	.long	.LASF473
	.byte	0xd6
	.uleb128 0x2
	.long	.LASF474
	.byte	0xd7
	.uleb128 0x2
	.long	.LASF475
	.byte	0xd8
	.uleb128 0x2
	.long	.LASF476
	.byte	0xd9
	.uleb128 0x2
	.long	.LASF477
	.byte	0xda
	.uleb128 0x2
	.long	.LASF478
	.byte	0xdb
	.uleb128 0x2
	.long	.LASF479
	.byte	0xdc
	.uleb128 0x2
	.long	.LASF480
	.byte	0xdd
	.uleb128 0x2
	.long	.LASF481
	.byte	0xde
	.uleb128 0x2
	.long	.LASF482
	.byte	0xdf
	.uleb128 0x2
	.long	.LASF483
	.byte	0xe0
	.uleb128 0x2
	.long	.LASF484
	.byte	0xe1
	.uleb128 0x2
	.long	.LASF485
	.byte	0xe2
	.uleb128 0x2
	.long	.LASF486
	.byte	0xe3
	.uleb128 0x2
	.long	.LASF487
	.byte	0xe4
	.uleb128 0x2
	.long	.LASF488
	.byte	0xe5
	.uleb128 0x2
	.long	.LASF489
	.byte	0xe6
	.uleb128 0x2
	.long	.LASF490
	.byte	0xe7
	.uleb128 0x2
	.long	.LASF491
	.byte	0xe8
	.uleb128 0x2
	.long	.LASF492
	.byte	0xe9
	.uleb128 0x2
	.long	.LASF493
	.byte	0xea
	.uleb128 0x2
	.long	.LASF494
	.byte	0xeb
	.uleb128 0x2
	.long	.LASF495
	.byte	0xec
	.uleb128 0x2
	.long	.LASF496
	.byte	0xed
	.uleb128 0x2
	.long	.LASF497
	.byte	0xee
	.uleb128 0x2
	.long	.LASF498
	.byte	0xef
	.uleb128 0x2
	.long	.LASF499
	.byte	0xf0
	.uleb128 0x2
	.long	.LASF500
	.byte	0xf1
	.uleb128 0x2
	.long	.LASF501
	.byte	0xf2
	.uleb128 0x2
	.long	.LASF502
	.byte	0xf3
	.uleb128 0x2
	.long	.LASF503
	.byte	0xf4
	.uleb128 0x2
	.long	.LASF504
	.byte	0xf5
	.uleb128 0x2
	.long	.LASF505
	.byte	0xf6
	.uleb128 0x2
	.long	.LASF506
	.byte	0xf7
	.uleb128 0x2
	.long	.LASF507
	.byte	0xf8
	.uleb128 0x2
	.long	.LASF508
	.byte	0xf9
	.uleb128 0x2
	.long	.LASF509
	.byte	0xfa
	.uleb128 0x2
	.long	.LASF510
	.byte	0xfb
	.uleb128 0x2
	.long	.LASF511
	.byte	0xfc
	.uleb128 0x2
	.long	.LASF512
	.byte	0xfd
	.uleb128 0x2
	.long	.LASF513
	.byte	0xfe
	.uleb128 0x2
	.long	.LASF514
	.byte	0xff
	.uleb128 0x1
	.long	.LASF515
	.value	0x100
	.uleb128 0x1
	.long	.LASF516
	.value	0x101
	.uleb128 0x1
	.long	.LASF517
	.value	0x102
	.uleb128 0x1
	.long	.LASF518
	.value	0x103
	.uleb128 0x1
	.long	.LASF519
	.value	0x104
	.uleb128 0x1
	.long	.LASF520
	.value	0x105
	.uleb128 0x1
	.long	.LASF521
	.value	0x106
	.uleb128 0x1
	.long	.LASF522
	.value	0x107
	.uleb128 0x1
	.long	.LASF523
	.value	0x108
	.uleb128 0x1
	.long	.LASF524
	.value	0x109
	.uleb128 0x1
	.long	.LASF525
	.value	0x10a
	.uleb128 0x1
	.long	.LASF526
	.value	0x10b
	.uleb128 0x1
	.long	.LASF527
	.value	0x10c
	.uleb128 0x1
	.long	.LASF528
	.value	0x10d
	.uleb128 0x1
	.long	.LASF529
	.value	0x10e
	.uleb128 0x1
	.long	.LASF530
	.value	0x10f
	.uleb128 0x1
	.long	.LASF531
	.value	0x110
	.uleb128 0x1
	.long	.LASF532
	.value	0x111
	.uleb128 0x1
	.long	.LASF533
	.value	0x112
	.uleb128 0x1
	.long	.LASF534
	.value	0x113
	.uleb128 0x1
	.long	.LASF535
	.value	0x114
	.uleb128 0x1
	.long	.LASF536
	.value	0x115
	.uleb128 0x1
	.long	.LASF537
	.value	0x116
	.uleb128 0x1
	.long	.LASF538
	.value	0x117
	.uleb128 0x1
	.long	.LASF539
	.value	0x118
	.uleb128 0x1
	.long	.LASF540
	.value	0x119
	.uleb128 0x1
	.long	.LASF541
	.value	0x11a
	.uleb128 0x1
	.long	.LASF542
	.value	0x11b
	.uleb128 0x1
	.long	.LASF543
	.value	0x11c
	.uleb128 0x1
	.long	.LASF544
	.value	0x11d
	.uleb128 0x1
	.long	.LASF545
	.value	0x11e
	.uleb128 0x1
	.long	.LASF546
	.value	0x11f
	.uleb128 0x1
	.long	.LASF547
	.value	0x120
	.uleb128 0x1
	.long	.LASF548
	.value	0x121
	.uleb128 0x1
	.long	.LASF549
	.value	0x122
	.uleb128 0x1
	.long	.LASF550
	.value	0x123
	.uleb128 0x1
	.long	.LASF551
	.value	0x124
	.uleb128 0x1
	.long	.LASF552
	.value	0x125
	.uleb128 0x1
	.long	.LASF553
	.value	0x126
	.uleb128 0x1
	.long	.LASF554
	.value	0x127
	.uleb128 0x1
	.long	.LASF555
	.value	0x128
	.uleb128 0x1
	.long	.LASF556
	.value	0x129
	.uleb128 0x1
	.long	.LASF557
	.value	0x12a
	.uleb128 0x1
	.long	.LASF558
	.value	0x12b
	.uleb128 0x1
	.long	.LASF559
	.value	0x12c
	.uleb128 0x1
	.long	.LASF560
	.value	0x12d
	.uleb128 0x1
	.long	.LASF561
	.value	0x12e
	.uleb128 0x1
	.long	.LASF562
	.value	0x12f
	.uleb128 0x1
	.long	.LASF563
	.value	0x130
	.uleb128 0x1
	.long	.LASF564
	.value	0x131
	.uleb128 0x1
	.long	.LASF565
	.value	0x132
	.uleb128 0x1
	.long	.LASF566
	.value	0x133
	.uleb128 0x1
	.long	.LASF567
	.value	0x134
	.uleb128 0x1
	.long	.LASF568
	.value	0x135
	.uleb128 0x1
	.long	.LASF569
	.value	0x136
	.uleb128 0x1
	.long	.LASF570
	.value	0x137
	.uleb128 0x1
	.long	.LASF571
	.value	0x138
	.uleb128 0x1
	.long	.LASF572
	.value	0x139
	.uleb128 0x1
	.long	.LASF573
	.value	0x13a
	.uleb128 0x1
	.long	.LASF574
	.value	0x13b
	.uleb128 0x1
	.long	.LASF575
	.value	0x13c
	.uleb128 0x1
	.long	.LASF576
	.value	0x13d
	.uleb128 0x1
	.long	.LASF577
	.value	0x13e
	.uleb128 0x1
	.long	.LASF578
	.value	0x13f
	.uleb128 0x1
	.long	.LASF579
	.value	0x140
	.uleb128 0x1
	.long	.LASF580
	.value	0x141
	.uleb128 0x1
	.long	.LASF581
	.value	0x142
	.uleb128 0x1
	.long	.LASF582
	.value	0x143
	.uleb128 0x1
	.long	.LASF583
	.value	0x144
	.uleb128 0x1
	.long	.LASF584
	.value	0x145
	.uleb128 0x1
	.long	.LASF585
	.value	0x146
	.uleb128 0x1
	.long	.LASF586
	.value	0x147
	.uleb128 0x1
	.long	.LASF587
	.value	0x148
	.uleb128 0x1
	.long	.LASF588
	.value	0x149
	.uleb128 0x1
	.long	.LASF589
	.value	0x14a
	.uleb128 0x1
	.long	.LASF590
	.value	0x14b
	.uleb128 0x1
	.long	.LASF591
	.value	0x14c
	.uleb128 0x1
	.long	.LASF592
	.value	0x14d
	.uleb128 0x1
	.long	.LASF593
	.value	0x14e
	.uleb128 0x1
	.long	.LASF594
	.value	0x14f
	.uleb128 0x1
	.long	.LASF595
	.value	0x150
	.uleb128 0x1
	.long	.LASF596
	.value	0x151
	.uleb128 0x1
	.long	.LASF597
	.value	0x152
	.uleb128 0x1
	.long	.LASF598
	.value	0x153
	.uleb128 0x1
	.long	.LASF599
	.value	0x154
	.uleb128 0x1
	.long	.LASF600
	.value	0x155
	.uleb128 0x1
	.long	.LASF601
	.value	0x156
	.uleb128 0x1
	.long	.LASF602
	.value	0x157
	.uleb128 0x1
	.long	.LASF603
	.value	0x158
	.uleb128 0x1
	.long	.LASF604
	.value	0x159
	.uleb128 0x1
	.long	.LASF605
	.value	0x15a
	.uleb128 0x1
	.long	.LASF606
	.value	0x15b
	.uleb128 0x1
	.long	.LASF607
	.value	0x15c
	.uleb128 0x1
	.long	.LASF608
	.value	0x15d
	.uleb128 0x1
	.long	.LASF609
	.value	0x15e
	.uleb128 0x1
	.long	.LASF610
	.value	0x15f
	.uleb128 0x1
	.long	.LASF611
	.value	0x160
	.uleb128 0x1
	.long	.LASF612
	.value	0x161
	.uleb128 0x1
	.long	.LASF613
	.value	0x162
	.uleb128 0x1
	.long	.LASF614
	.value	0x163
	.uleb128 0x1
	.long	.LASF615
	.value	0x164
	.uleb128 0x1
	.long	.LASF616
	.value	0x165
	.uleb128 0x1
	.long	.LASF617
	.value	0x166
	.uleb128 0x1
	.long	.LASF618
	.value	0x167
	.uleb128 0x1
	.long	.LASF619
	.value	0x168
	.uleb128 0x1
	.long	.LASF620
	.value	0x169
	.uleb128 0x1
	.long	.LASF621
	.value	0x16a
	.uleb128 0x1
	.long	.LASF622
	.value	0x16b
	.uleb128 0x1
	.long	.LASF623
	.value	0x16c
	.uleb128 0x1
	.long	.LASF624
	.value	0x16d
	.uleb128 0x1
	.long	.LASF625
	.value	0x16e
	.uleb128 0x1
	.long	.LASF626
	.value	0x16f
	.uleb128 0x1
	.long	.LASF627
	.value	0x170
	.uleb128 0x1
	.long	.LASF628
	.value	0x171
	.uleb128 0x1
	.long	.LASF629
	.value	0x172
	.uleb128 0x1
	.long	.LASF630
	.value	0x173
	.uleb128 0x1
	.long	.LASF631
	.value	0x174
	.uleb128 0x1
	.long	.LASF632
	.value	0x175
	.uleb128 0x1
	.long	.LASF633
	.value	0x176
	.uleb128 0x1
	.long	.LASF634
	.value	0x177
	.uleb128 0x1
	.long	.LASF635
	.value	0x178
	.uleb128 0x1
	.long	.LASF636
	.value	0x179
	.uleb128 0x1
	.long	.LASF637
	.value	0x17a
	.uleb128 0x1
	.long	.LASF638
	.value	0x17b
	.uleb128 0x1
	.long	.LASF639
	.value	0x17c
	.uleb128 0x1
	.long	.LASF640
	.value	0x17d
	.uleb128 0x1
	.long	.LASF641
	.value	0x17e
	.uleb128 0x1
	.long	.LASF642
	.value	0x17f
	.uleb128 0x1
	.long	.LASF643
	.value	0x180
	.uleb128 0x1
	.long	.LASF644
	.value	0x181
	.uleb128 0x1
	.long	.LASF645
	.value	0x182
	.uleb128 0x1
	.long	.LASF646
	.value	0x183
	.uleb128 0x1
	.long	.LASF647
	.value	0x184
	.uleb128 0x1
	.long	.LASF648
	.value	0x185
	.uleb128 0x1
	.long	.LASF649
	.value	0x186
	.uleb128 0x1
	.long	.LASF650
	.value	0x187
	.uleb128 0x1
	.long	.LASF651
	.value	0x188
	.uleb128 0x1
	.long	.LASF652
	.value	0x189
	.uleb128 0x1
	.long	.LASF653
	.value	0x18a
	.uleb128 0x1
	.long	.LASF654
	.value	0x18b
	.uleb128 0x1
	.long	.LASF655
	.value	0x18c
	.uleb128 0x1
	.long	.LASF656
	.value	0x18d
	.uleb128 0x1
	.long	.LASF657
	.value	0x18e
	.uleb128 0x1
	.long	.LASF658
	.value	0x18f
	.uleb128 0x1
	.long	.LASF659
	.value	0x190
	.uleb128 0x1
	.long	.LASF660
	.value	0x191
	.uleb128 0x1
	.long	.LASF661
	.value	0x192
	.uleb128 0x1
	.long	.LASF662
	.value	0x193
	.uleb128 0x1
	.long	.LASF663
	.value	0x194
	.uleb128 0x1
	.long	.LASF664
	.value	0x195
	.uleb128 0x1
	.long	.LASF665
	.value	0x196
	.uleb128 0x1
	.long	.LASF666
	.value	0x197
	.uleb128 0x1
	.long	.LASF667
	.value	0x198
	.uleb128 0x1
	.long	.LASF668
	.value	0x199
	.uleb128 0x1
	.long	.LASF669
	.value	0x19a
	.uleb128 0x1
	.long	.LASF670
	.value	0x19b
	.uleb128 0x1
	.long	.LASF671
	.value	0x19c
	.uleb128 0x1
	.long	.LASF672
	.value	0x19d
	.uleb128 0x1
	.long	.LASF673
	.value	0x19e
	.uleb128 0x1
	.long	.LASF674
	.value	0x19f
	.uleb128 0x1
	.long	.LASF675
	.value	0x1a0
	.uleb128 0x1
	.long	.LASF676
	.value	0x1a1
	.uleb128 0x1
	.long	.LASF677
	.value	0x1a2
	.uleb128 0x1
	.long	.LASF678
	.value	0x1a3
	.uleb128 0x1
	.long	.LASF679
	.value	0x1a4
	.uleb128 0x1
	.long	.LASF680
	.value	0x1a5
	.uleb128 0x1
	.long	.LASF681
	.value	0x1a6
	.uleb128 0x1
	.long	.LASF682
	.value	0x1a7
	.uleb128 0x1
	.long	.LASF683
	.value	0x1a8
	.uleb128 0x1
	.long	.LASF684
	.value	0x1a9
	.uleb128 0x1
	.long	.LASF685
	.value	0x1aa
	.uleb128 0x1
	.long	.LASF686
	.value	0x1ab
	.uleb128 0x1
	.long	.LASF687
	.value	0x1ac
	.uleb128 0x1
	.long	.LASF688
	.value	0x1ad
	.uleb128 0x1
	.long	.LASF689
	.value	0x1ae
	.uleb128 0x1
	.long	.LASF690
	.value	0x1af
	.uleb128 0x1
	.long	.LASF691
	.value	0x1b0
	.uleb128 0x1
	.long	.LASF692
	.value	0x1b1
	.uleb128 0x1
	.long	.LASF693
	.value	0x1b2
	.uleb128 0x1
	.long	.LASF694
	.value	0x1b3
	.uleb128 0x1
	.long	.LASF695
	.value	0x1b4
	.uleb128 0x1
	.long	.LASF696
	.value	0x1b5
	.uleb128 0x1
	.long	.LASF697
	.value	0x1b6
	.uleb128 0x1
	.long	.LASF698
	.value	0x1b7
	.uleb128 0x1
	.long	.LASF699
	.value	0x1b8
	.uleb128 0x1
	.long	.LASF700
	.value	0x1b9
	.uleb128 0x1
	.long	.LASF701
	.value	0x1ba
	.uleb128 0x1
	.long	.LASF702
	.value	0x1bb
	.uleb128 0x1
	.long	.LASF703
	.value	0x1bc
	.uleb128 0x1
	.long	.LASF704
	.value	0x1bd
	.uleb128 0x1
	.long	.LASF705
	.value	0x1be
	.uleb128 0x1
	.long	.LASF706
	.value	0x1bf
	.uleb128 0x1
	.long	.LASF707
	.value	0x1c0
	.uleb128 0x1
	.long	.LASF708
	.value	0x1c1
	.uleb128 0x1
	.long	.LASF709
	.value	0x1c2
	.uleb128 0x1
	.long	.LASF710
	.value	0x1c3
	.uleb128 0x1
	.long	.LASF711
	.value	0x1c4
	.uleb128 0x1
	.long	.LASF712
	.value	0x1c5
	.uleb128 0x1
	.long	.LASF713
	.value	0x1c6
	.uleb128 0x1
	.long	.LASF714
	.value	0x1c7
	.uleb128 0x1
	.long	.LASF715
	.value	0x1c8
	.uleb128 0x1
	.long	.LASF716
	.value	0x1c9
	.uleb128 0x1
	.long	.LASF717
	.value	0x1ca
	.uleb128 0x1
	.long	.LASF718
	.value	0x1cb
	.uleb128 0x1
	.long	.LASF719
	.value	0x1cc
	.uleb128 0x1
	.long	.LASF720
	.value	0x1cd
	.uleb128 0x1
	.long	.LASF721
	.value	0x1ce
	.uleb128 0x1
	.long	.LASF722
	.value	0x1cf
	.uleb128 0x1
	.long	.LASF723
	.value	0x1d0
	.uleb128 0x1
	.long	.LASF724
	.value	0x1d1
	.uleb128 0x1
	.long	.LASF725
	.value	0x1d2
	.uleb128 0x1
	.long	.LASF726
	.value	0x1d3
	.uleb128 0x1
	.long	.LASF727
	.value	0x1d4
	.uleb128 0x1
	.long	.LASF728
	.value	0x1d5
	.uleb128 0x1
	.long	.LASF729
	.value	0x1d6
	.uleb128 0x1
	.long	.LASF730
	.value	0x1d7
	.uleb128 0x1
	.long	.LASF731
	.value	0x1d8
	.uleb128 0x1
	.long	.LASF732
	.value	0x1d9
	.uleb128 0x1
	.long	.LASF733
	.value	0x1da
	.uleb128 0x1
	.long	.LASF734
	.value	0x1db
	.uleb128 0x1
	.long	.LASF735
	.value	0x1dc
	.uleb128 0x1
	.long	.LASF736
	.value	0x1dd
	.uleb128 0x1
	.long	.LASF737
	.value	0x1de
	.uleb128 0x1
	.long	.LASF738
	.value	0x1df
	.uleb128 0x1
	.long	.LASF739
	.value	0x1e0
	.uleb128 0x1
	.long	.LASF740
	.value	0x1e1
	.uleb128 0x1
	.long	.LASF741
	.value	0x1e2
	.uleb128 0x1
	.long	.LASF742
	.value	0x1e3
	.uleb128 0x1
	.long	.LASF743
	.value	0x1e4
	.uleb128 0x1
	.long	.LASF744
	.value	0x1e5
	.uleb128 0x1
	.long	.LASF745
	.value	0x1e6
	.uleb128 0x1
	.long	.LASF746
	.value	0x1e7
	.uleb128 0x1
	.long	.LASF747
	.value	0x1e8
	.uleb128 0x1
	.long	.LASF748
	.value	0x1e9
	.uleb128 0x1
	.long	.LASF749
	.value	0x1ea
	.uleb128 0x1
	.long	.LASF750
	.value	0x1eb
	.uleb128 0x1
	.long	.LASF751
	.value	0x1ec
	.uleb128 0x1
	.long	.LASF752
	.value	0x1ed
	.uleb128 0x1
	.long	.LASF753
	.value	0x1ee
	.uleb128 0x1
	.long	.LASF754
	.value	0x1ef
	.uleb128 0x1
	.long	.LASF755
	.value	0x1f0
	.uleb128 0x1
	.long	.LASF756
	.value	0x1f1
	.uleb128 0x1
	.long	.LASF757
	.value	0x1f2
	.uleb128 0x1
	.long	.LASF758
	.value	0x1f3
	.uleb128 0x1
	.long	.LASF759
	.value	0x1f4
	.uleb128 0x1
	.long	.LASF760
	.value	0x1f5
	.uleb128 0x1
	.long	.LASF761
	.value	0x1f6
	.uleb128 0x1
	.long	.LASF762
	.value	0x1f7
	.uleb128 0x1
	.long	.LASF763
	.value	0x1f8
	.uleb128 0x1
	.long	.LASF764
	.value	0x1f9
	.uleb128 0x1
	.long	.LASF765
	.value	0x1fa
	.uleb128 0x1
	.long	.LASF766
	.value	0x1fb
	.uleb128 0x1
	.long	.LASF767
	.value	0x1fc
	.uleb128 0x1
	.long	.LASF768
	.value	0x1fd
	.uleb128 0x1
	.long	.LASF769
	.value	0x1fe
	.uleb128 0x1
	.long	.LASF770
	.value	0x1ff
	.uleb128 0x1
	.long	.LASF771
	.value	0x200
	.uleb128 0x1
	.long	.LASF772
	.value	0x201
	.uleb128 0x1
	.long	.LASF773
	.value	0x202
	.uleb128 0x1
	.long	.LASF774
	.value	0x203
	.uleb128 0x1
	.long	.LASF775
	.value	0x204
	.uleb128 0x1
	.long	.LASF776
	.value	0x205
	.uleb128 0x1
	.long	.LASF777
	.value	0x206
	.uleb128 0x1
	.long	.LASF778
	.value	0x207
	.uleb128 0x1
	.long	.LASF779
	.value	0x208
	.uleb128 0x1
	.long	.LASF780
	.value	0x209
	.uleb128 0x1
	.long	.LASF781
	.value	0x20a
	.uleb128 0x1
	.long	.LASF782
	.value	0x20b
	.uleb128 0x1
	.long	.LASF783
	.value	0x20c
	.uleb128 0x1
	.long	.LASF784
	.value	0x20d
	.uleb128 0x1
	.long	.LASF785
	.value	0x20e
	.uleb128 0x1
	.long	.LASF786
	.value	0x20f
	.uleb128 0x1
	.long	.LASF787
	.value	0x210
	.uleb128 0x1
	.long	.LASF788
	.value	0x211
	.uleb128 0x1
	.long	.LASF789
	.value	0x212
	.uleb128 0x1
	.long	.LASF790
	.value	0x213
	.uleb128 0x1
	.long	.LASF791
	.value	0x214
	.uleb128 0x1
	.long	.LASF792
	.value	0x215
	.uleb128 0x1
	.long	.LASF793
	.value	0x216
	.uleb128 0x1
	.long	.LASF794
	.value	0x217
	.uleb128 0x1
	.long	.LASF795
	.value	0x218
	.uleb128 0x1
	.long	.LASF796
	.value	0x219
	.uleb128 0x1
	.long	.LASF797
	.value	0x21a
	.uleb128 0x1
	.long	.LASF798
	.value	0x21b
	.uleb128 0x1
	.long	.LASF799
	.value	0x21c
	.uleb128 0x1
	.long	.LASF800
	.value	0x21d
	.uleb128 0x1
	.long	.LASF801
	.value	0x21e
	.uleb128 0x1
	.long	.LASF802
	.value	0x21f
	.uleb128 0x1
	.long	.LASF803
	.value	0x220
	.uleb128 0x1
	.long	.LASF804
	.value	0x221
	.uleb128 0x1
	.long	.LASF805
	.value	0x222
	.uleb128 0x1
	.long	.LASF806
	.value	0x223
	.uleb128 0x1
	.long	.LASF807
	.value	0x224
	.uleb128 0x1
	.long	.LASF808
	.value	0x225
	.uleb128 0x1
	.long	.LASF809
	.value	0x226
	.uleb128 0x1
	.long	.LASF810
	.value	0x227
	.uleb128 0x1
	.long	.LASF811
	.value	0x228
	.uleb128 0x1
	.long	.LASF812
	.value	0x229
	.uleb128 0x1
	.long	.LASF813
	.value	0x22a
	.uleb128 0x1
	.long	.LASF814
	.value	0x22b
	.uleb128 0x1
	.long	.LASF815
	.value	0x22c
	.uleb128 0x1
	.long	.LASF816
	.value	0x22d
	.uleb128 0x1
	.long	.LASF817
	.value	0x22e
	.uleb128 0x1
	.long	.LASF818
	.value	0x22f
	.uleb128 0x1
	.long	.LASF819
	.value	0x230
	.uleb128 0x1
	.long	.LASF820
	.value	0x231
	.uleb128 0x1
	.long	.LASF821
	.value	0x232
	.uleb128 0x1
	.long	.LASF822
	.value	0x233
	.uleb128 0x1
	.long	.LASF823
	.value	0x234
	.uleb128 0x1
	.long	.LASF824
	.value	0x235
	.uleb128 0x1
	.long	.LASF825
	.value	0x236
	.uleb128 0x1
	.long	.LASF826
	.value	0x237
	.uleb128 0x1
	.long	.LASF827
	.value	0x238
	.uleb128 0x1
	.long	.LASF828
	.value	0x239
	.uleb128 0x1
	.long	.LASF829
	.value	0x23a
	.uleb128 0x1
	.long	.LASF830
	.value	0x23b
	.uleb128 0x1
	.long	.LASF831
	.value	0x23c
	.uleb128 0x1
	.long	.LASF832
	.value	0x23d
	.uleb128 0x1
	.long	.LASF833
	.value	0x23e
	.uleb128 0x1
	.long	.LASF834
	.value	0x23f
	.uleb128 0x1
	.long	.LASF835
	.value	0x240
	.uleb128 0x1
	.long	.LASF836
	.value	0x241
	.uleb128 0x1
	.long	.LASF837
	.value	0x242
	.uleb128 0x1
	.long	.LASF838
	.value	0x243
	.uleb128 0x1
	.long	.LASF839
	.value	0x244
	.uleb128 0x1
	.long	.LASF840
	.value	0x245
	.uleb128 0x1
	.long	.LASF841
	.value	0x246
	.uleb128 0x1
	.long	.LASF842
	.value	0x247
	.uleb128 0x1
	.long	.LASF843
	.value	0x248
	.uleb128 0x1
	.long	.LASF844
	.value	0x249
	.uleb128 0x1
	.long	.LASF845
	.value	0x24a
	.uleb128 0x1
	.long	.LASF846
	.value	0x24b
	.uleb128 0x1
	.long	.LASF847
	.value	0x24c
	.uleb128 0x1
	.long	.LASF848
	.value	0x24d
	.uleb128 0x1
	.long	.LASF849
	.value	0x24e
	.uleb128 0x1
	.long	.LASF850
	.value	0x24f
	.uleb128 0x1
	.long	.LASF851
	.value	0x250
	.uleb128 0x1
	.long	.LASF852
	.value	0x251
	.uleb128 0x1
	.long	.LASF853
	.value	0x252
	.uleb128 0x1
	.long	.LASF854
	.value	0x253
	.uleb128 0x1
	.long	.LASF855
	.value	0x254
	.uleb128 0x1
	.long	.LASF856
	.value	0x255
	.uleb128 0x1
	.long	.LASF857
	.value	0x256
	.uleb128 0x1
	.long	.LASF858
	.value	0x257
	.uleb128 0x1
	.long	.LASF859
	.value	0x258
	.uleb128 0x1
	.long	.LASF860
	.value	0x259
	.uleb128 0x1
	.long	.LASF861
	.value	0x25a
	.uleb128 0x1
	.long	.LASF862
	.value	0x25b
	.uleb128 0x1
	.long	.LASF863
	.value	0x25c
	.uleb128 0x1
	.long	.LASF864
	.value	0x25d
	.uleb128 0x1
	.long	.LASF865
	.value	0x25e
	.uleb128 0x1
	.long	.LASF866
	.value	0x25f
	.uleb128 0x1
	.long	.LASF867
	.value	0x260
	.uleb128 0x1
	.long	.LASF868
	.value	0x261
	.uleb128 0x1
	.long	.LASF869
	.value	0x262
	.uleb128 0x1
	.long	.LASF870
	.value	0x263
	.uleb128 0x1
	.long	.LASF871
	.value	0x264
	.uleb128 0x1
	.long	.LASF872
	.value	0x265
	.uleb128 0x1
	.long	.LASF873
	.value	0x266
	.uleb128 0x1
	.long	.LASF874
	.value	0x267
	.uleb128 0x1
	.long	.LASF875
	.value	0x268
	.uleb128 0x1
	.long	.LASF876
	.value	0x269
	.uleb128 0x1
	.long	.LASF877
	.value	0x26a
	.uleb128 0x1
	.long	.LASF878
	.value	0x26b
	.uleb128 0x1
	.long	.LASF879
	.value	0x26c
	.uleb128 0x1
	.long	.LASF880
	.value	0x26d
	.uleb128 0x1
	.long	.LASF881
	.value	0x26e
	.uleb128 0x1
	.long	.LASF882
	.value	0x26f
	.uleb128 0x1
	.long	.LASF883
	.value	0x270
	.uleb128 0x1
	.long	.LASF884
	.value	0x271
	.uleb128 0x1
	.long	.LASF885
	.value	0x272
	.uleb128 0x1
	.long	.LASF886
	.value	0x273
	.uleb128 0x1
	.long	.LASF887
	.value	0x274
	.uleb128 0x1
	.long	.LASF888
	.value	0x275
	.uleb128 0x1
	.long	.LASF889
	.value	0x276
	.uleb128 0x1
	.long	.LASF890
	.value	0x277
	.uleb128 0x1
	.long	.LASF891
	.value	0x278
	.uleb128 0x1
	.long	.LASF892
	.value	0x279
	.uleb128 0x1
	.long	.LASF893
	.value	0x27a
	.uleb128 0x1
	.long	.LASF894
	.value	0x27b
	.uleb128 0x1
	.long	.LASF895
	.value	0x27c
	.uleb128 0x1
	.long	.LASF896
	.value	0x27d
	.uleb128 0x1
	.long	.LASF897
	.value	0x27e
	.uleb128 0x1
	.long	.LASF898
	.value	0x27f
	.uleb128 0x1
	.long	.LASF899
	.value	0x280
	.uleb128 0x1
	.long	.LASF900
	.value	0x281
	.uleb128 0x1
	.long	.LASF901
	.value	0x282
	.uleb128 0x1
	.long	.LASF902
	.value	0x283
	.uleb128 0x1
	.long	.LASF903
	.value	0x284
	.uleb128 0x1
	.long	.LASF904
	.value	0x285
	.uleb128 0x1
	.long	.LASF905
	.value	0x286
	.uleb128 0x1
	.long	.LASF906
	.value	0x287
	.uleb128 0x1
	.long	.LASF907
	.value	0x288
	.uleb128 0x1
	.long	.LASF908
	.value	0x289
	.uleb128 0x1
	.long	.LASF909
	.value	0x28a
	.uleb128 0x1
	.long	.LASF910
	.value	0x28b
	.uleb128 0x1
	.long	.LASF911
	.value	0x28c
	.uleb128 0x1
	.long	.LASF912
	.value	0x28d
	.uleb128 0x1
	.long	.LASF913
	.value	0x28e
	.uleb128 0x1
	.long	.LASF914
	.value	0x28f
	.uleb128 0x1
	.long	.LASF915
	.value	0x290
	.uleb128 0x1
	.long	.LASF916
	.value	0x291
	.uleb128 0x1
	.long	.LASF917
	.value	0x292
	.uleb128 0x1
	.long	.LASF918
	.value	0x293
	.uleb128 0x1
	.long	.LASF919
	.value	0x294
	.uleb128 0x1
	.long	.LASF920
	.value	0x295
	.uleb128 0x1
	.long	.LASF921
	.value	0x296
	.uleb128 0x1
	.long	.LASF922
	.value	0x297
	.uleb128 0x1
	.long	.LASF923
	.value	0x298
	.uleb128 0x1
	.long	.LASF924
	.value	0x299
	.uleb128 0x1
	.long	.LASF925
	.value	0x29a
	.uleb128 0x1
	.long	.LASF926
	.value	0x29b
	.uleb128 0x1
	.long	.LASF927
	.value	0x29c
	.uleb128 0x1
	.long	.LASF928
	.value	0x29d
	.uleb128 0x1
	.long	.LASF929
	.value	0x29e
	.uleb128 0x1
	.long	.LASF930
	.value	0x29f
	.uleb128 0x1
	.long	.LASF931
	.value	0x2a0
	.uleb128 0x1
	.long	.LASF932
	.value	0x2a1
	.uleb128 0x1
	.long	.LASF933
	.value	0x2a2
	.uleb128 0x1
	.long	.LASF934
	.value	0x2a3
	.uleb128 0x1
	.long	.LASF935
	.value	0x2a4
	.uleb128 0x1
	.long	.LASF936
	.value	0x2a5
	.uleb128 0x1
	.long	.LASF937
	.value	0x2a6
	.uleb128 0x1
	.long	.LASF938
	.value	0x2a7
	.uleb128 0x1
	.long	.LASF939
	.value	0x2a8
	.uleb128 0x1
	.long	.LASF940
	.value	0x2a9
	.uleb128 0x1
	.long	.LASF941
	.value	0x2aa
	.uleb128 0x1
	.long	.LASF942
	.value	0x2ab
	.uleb128 0x1
	.long	.LASF943
	.value	0x2ac
	.uleb128 0x1
	.long	.LASF944
	.value	0x2ad
	.uleb128 0x1
	.long	.LASF945
	.value	0x2ae
	.uleb128 0x1
	.long	.LASF946
	.value	0x2af
	.uleb128 0x1
	.long	.LASF947
	.value	0x2b0
	.uleb128 0x1
	.long	.LASF948
	.value	0x2b1
	.uleb128 0x1
	.long	.LASF949
	.value	0x2b2
	.uleb128 0x1
	.long	.LASF950
	.value	0x2b3
	.uleb128 0x1
	.long	.LASF951
	.value	0x2b4
	.uleb128 0x1
	.long	.LASF952
	.value	0x2b5
	.uleb128 0x1
	.long	.LASF953
	.value	0x2b6
	.uleb128 0x1
	.long	.LASF954
	.value	0x2b7
	.uleb128 0x1
	.long	.LASF955
	.value	0x2b8
	.uleb128 0x1
	.long	.LASF956
	.value	0x2b9
	.uleb128 0x1
	.long	.LASF957
	.value	0x2ba
	.uleb128 0x1
	.long	.LASF958
	.value	0x2bb
	.uleb128 0x1
	.long	.LASF959
	.value	0x2bc
	.uleb128 0x1
	.long	.LASF960
	.value	0x2bd
	.uleb128 0x1
	.long	.LASF961
	.value	0x2be
	.uleb128 0x1
	.long	.LASF962
	.value	0x2bf
	.uleb128 0x1
	.long	.LASF963
	.value	0x2c0
	.uleb128 0x1
	.long	.LASF964
	.value	0x2c1
	.uleb128 0x1
	.long	.LASF965
	.value	0x2c2
	.uleb128 0x1
	.long	.LASF966
	.value	0x2c3
	.uleb128 0x1
	.long	.LASF967
	.value	0x2c4
	.uleb128 0x1
	.long	.LASF968
	.value	0x2c5
	.uleb128 0x1
	.long	.LASF969
	.value	0x2c6
	.uleb128 0x1
	.long	.LASF970
	.value	0x2c7
	.uleb128 0x1
	.long	.LASF971
	.value	0x2c8
	.uleb128 0x1
	.long	.LASF972
	.value	0x2c9
	.uleb128 0x1
	.long	.LASF973
	.value	0x2ca
	.uleb128 0x1
	.long	.LASF974
	.value	0x2cb
	.uleb128 0x1
	.long	.LASF975
	.value	0x2cc
	.uleb128 0x1
	.long	.LASF976
	.value	0x2cd
	.uleb128 0x1
	.long	.LASF977
	.value	0x2ce
	.uleb128 0x1
	.long	.LASF978
	.value	0x2cf
	.uleb128 0x1
	.long	.LASF979
	.value	0x2d0
	.uleb128 0x1
	.long	.LASF980
	.value	0x2d1
	.uleb128 0x1
	.long	.LASF981
	.value	0x2d2
	.uleb128 0x1
	.long	.LASF982
	.value	0x2d3
	.uleb128 0x1
	.long	.LASF983
	.value	0x2d4
	.uleb128 0x1
	.long	.LASF984
	.value	0x2d5
	.uleb128 0x1
	.long	.LASF985
	.value	0x2d6
	.uleb128 0x1
	.long	.LASF986
	.value	0x2d7
	.uleb128 0x1
	.long	.LASF987
	.value	0x2d8
	.uleb128 0x1
	.long	.LASF988
	.value	0x2d9
	.uleb128 0x1
	.long	.LASF989
	.value	0x2da
	.uleb128 0x1
	.long	.LASF990
	.value	0x2db
	.uleb128 0x1
	.long	.LASF991
	.value	0x2dc
	.uleb128 0x1
	.long	.LASF992
	.value	0x2dd
	.uleb128 0x1
	.long	.LASF993
	.value	0x2de
	.uleb128 0x1
	.long	.LASF994
	.value	0x2df
	.uleb128 0x1
	.long	.LASF995
	.value	0x2e0
	.uleb128 0x1
	.long	.LASF996
	.value	0x2e1
	.uleb128 0x1
	.long	.LASF997
	.value	0x2e2
	.uleb128 0x1
	.long	.LASF998
	.value	0x2e3
	.uleb128 0x1
	.long	.LASF999
	.value	0x2e4
	.uleb128 0x1
	.long	.LASF1000
	.value	0x2e5
	.uleb128 0x1
	.long	.LASF1001
	.value	0x2e6
	.uleb128 0x1
	.long	.LASF1002
	.value	0x2e7
	.uleb128 0x1
	.long	.LASF1003
	.value	0x2e8
	.uleb128 0x1
	.long	.LASF1004
	.value	0x2e9
	.uleb128 0x1
	.long	.LASF1005
	.value	0x2ea
	.uleb128 0x1
	.long	.LASF1006
	.value	0x2eb
	.uleb128 0x1
	.long	.LASF1007
	.value	0x2ec
	.uleb128 0x1
	.long	.LASF1008
	.value	0x2ed
	.uleb128 0x1
	.long	.LASF1009
	.value	0x2ee
	.uleb128 0x1
	.long	.LASF1010
	.value	0x2ef
	.uleb128 0x1
	.long	.LASF1011
	.value	0x2f0
	.uleb128 0x1
	.long	.LASF1012
	.value	0x2f1
	.uleb128 0x1
	.long	.LASF1013
	.value	0x2f2
	.uleb128 0x1
	.long	.LASF1014
	.value	0x2f3
	.uleb128 0x1
	.long	.LASF1015
	.value	0x2f4
	.uleb128 0x1
	.long	.LASF1016
	.value	0x2f5
	.uleb128 0x1
	.long	.LASF1017
	.value	0x2f6
	.uleb128 0x1
	.long	.LASF1018
	.value	0x2f7
	.uleb128 0x1
	.long	.LASF1019
	.value	0x2f8
	.uleb128 0x1
	.long	.LASF1020
	.value	0x2f9
	.uleb128 0x1
	.long	.LASF1021
	.value	0x2fa
	.uleb128 0x1
	.long	.LASF1022
	.value	0x2fb
	.uleb128 0x1
	.long	.LASF1023
	.value	0x2fc
	.uleb128 0x1
	.long	.LASF1024
	.value	0x2fd
	.uleb128 0x1
	.long	.LASF1025
	.value	0x2fe
	.uleb128 0x1
	.long	.LASF1026
	.value	0x2ff
	.uleb128 0x1
	.long	.LASF1027
	.value	0x300
	.uleb128 0x1
	.long	.LASF1028
	.value	0x301
	.uleb128 0x1
	.long	.LASF1029
	.value	0x302
	.uleb128 0x1
	.long	.LASF1030
	.value	0x303
	.uleb128 0x1
	.long	.LASF1031
	.value	0x304
	.uleb128 0x1
	.long	.LASF1032
	.value	0x305
	.uleb128 0x1
	.long	.LASF1033
	.value	0x306
	.uleb128 0x1
	.long	.LASF1034
	.value	0x307
	.uleb128 0x1
	.long	.LASF1035
	.value	0x308
	.uleb128 0x1
	.long	.LASF1036
	.value	0x309
	.uleb128 0x1
	.long	.LASF1037
	.value	0x30a
	.uleb128 0x1
	.long	.LASF1038
	.value	0x30b
	.uleb128 0x1
	.long	.LASF1039
	.value	0x30c
	.uleb128 0x1
	.long	.LASF1040
	.value	0x30d
	.uleb128 0x1
	.long	.LASF1041
	.value	0x30e
	.uleb128 0x1
	.long	.LASF1042
	.value	0x30f
	.uleb128 0x1
	.long	.LASF1043
	.value	0x310
	.uleb128 0x1
	.long	.LASF1044
	.value	0x311
	.uleb128 0x1
	.long	.LASF1045
	.value	0x312
	.uleb128 0x1
	.long	.LASF1046
	.value	0x313
	.uleb128 0x1
	.long	.LASF1047
	.value	0x314
	.uleb128 0x1
	.long	.LASF1048
	.value	0x315
	.uleb128 0x1
	.long	.LASF1049
	.value	0x316
	.uleb128 0x1
	.long	.LASF1050
	.value	0x317
	.uleb128 0x1
	.long	.LASF1051
	.value	0x318
	.uleb128 0x1
	.long	.LASF1052
	.value	0x319
	.uleb128 0x1
	.long	.LASF1053
	.value	0x31a
	.uleb128 0x1
	.long	.LASF1054
	.value	0x31b
	.uleb128 0x1
	.long	.LASF1055
	.value	0x31c
	.uleb128 0x1
	.long	.LASF1056
	.value	0x31d
	.uleb128 0x1
	.long	.LASF1057
	.value	0x31e
	.uleb128 0x1
	.long	.LASF1058
	.value	0x31f
	.uleb128 0x1
	.long	.LASF1059
	.value	0x320
	.uleb128 0x1
	.long	.LASF1060
	.value	0x321
	.uleb128 0x1
	.long	.LASF1061
	.value	0x322
	.uleb128 0x1
	.long	.LASF1062
	.value	0x323
	.uleb128 0x1
	.long	.LASF1063
	.value	0x324
	.uleb128 0x1
	.long	.LASF1064
	.value	0x325
	.uleb128 0x1
	.long	.LASF1065
	.value	0x326
	.uleb128 0x1
	.long	.LASF1066
	.value	0x327
	.uleb128 0x1
	.long	.LASF1067
	.value	0x328
	.uleb128 0x1
	.long	.LASF1068
	.value	0x329
	.uleb128 0x1
	.long	.LASF1069
	.value	0x32a
	.uleb128 0x1
	.long	.LASF1070
	.value	0x32b
	.uleb128 0x1
	.long	.LASF1071
	.value	0x32c
	.uleb128 0x1
	.long	.LASF1072
	.value	0x32d
	.uleb128 0x1
	.long	.LASF1073
	.value	0x32e
	.uleb128 0x1
	.long	.LASF1074
	.value	0x32f
	.uleb128 0x1
	.long	.LASF1075
	.value	0x330
	.uleb128 0x1
	.long	.LASF1076
	.value	0x331
	.uleb128 0x1
	.long	.LASF1077
	.value	0x332
	.uleb128 0x1
	.long	.LASF1078
	.value	0x333
	.uleb128 0x1
	.long	.LASF1079
	.value	0x334
	.uleb128 0x1
	.long	.LASF1080
	.value	0x335
	.uleb128 0x1
	.long	.LASF1081
	.value	0x336
	.uleb128 0x1
	.long	.LASF1082
	.value	0x337
	.uleb128 0x1
	.long	.LASF1083
	.value	0x338
	.uleb128 0x1
	.long	.LASF1084
	.value	0x339
	.uleb128 0x1
	.long	.LASF1085
	.value	0x33a
	.uleb128 0x1
	.long	.LASF1086
	.value	0x33b
	.uleb128 0x1
	.long	.LASF1087
	.value	0x33c
	.uleb128 0x1
	.long	.LASF1088
	.value	0x33d
	.uleb128 0x1
	.long	.LASF1089
	.value	0x33e
	.uleb128 0x1
	.long	.LASF1090
	.value	0x33f
	.uleb128 0x1
	.long	.LASF1091
	.value	0x340
	.uleb128 0x1
	.long	.LASF1092
	.value	0x341
	.uleb128 0x1
	.long	.LASF1093
	.value	0x342
	.uleb128 0x1
	.long	.LASF1094
	.value	0x343
	.uleb128 0x1
	.long	.LASF1095
	.value	0x344
	.uleb128 0x1
	.long	.LASF1096
	.value	0x345
	.uleb128 0x1
	.long	.LASF1097
	.value	0x346
	.uleb128 0x1
	.long	.LASF1098
	.value	0x347
	.uleb128 0x1
	.long	.LASF1099
	.value	0x348
	.uleb128 0x1
	.long	.LASF1100
	.value	0x349
	.uleb128 0x1
	.long	.LASF1101
	.value	0x34a
	.uleb128 0x1
	.long	.LASF1102
	.value	0x34b
	.uleb128 0x1
	.long	.LASF1103
	.value	0x34c
	.uleb128 0x1
	.long	.LASF1104
	.value	0x34d
	.uleb128 0x1
	.long	.LASF1105
	.value	0x34e
	.uleb128 0x1
	.long	.LASF1106
	.value	0x34f
	.uleb128 0x1
	.long	.LASF1107
	.value	0x350
	.uleb128 0x1
	.long	.LASF1108
	.value	0x351
	.uleb128 0x1
	.long	.LASF1109
	.value	0x352
	.uleb128 0x1
	.long	.LASF1110
	.value	0x353
	.uleb128 0x1
	.long	.LASF1111
	.value	0x354
	.uleb128 0x1
	.long	.LASF1112
	.value	0x355
	.uleb128 0x1
	.long	.LASF1113
	.value	0x356
	.uleb128 0x1
	.long	.LASF1114
	.value	0x357
	.uleb128 0x1
	.long	.LASF1115
	.value	0x358
	.uleb128 0x1
	.long	.LASF1116
	.value	0x359
	.uleb128 0x1
	.long	.LASF1117
	.value	0x35a
	.uleb128 0x1
	.long	.LASF1118
	.value	0x35b
	.uleb128 0x1
	.long	.LASF1119
	.value	0x35c
	.uleb128 0x1
	.long	.LASF1120
	.value	0x35d
	.uleb128 0x1
	.long	.LASF1121
	.value	0x35e
	.uleb128 0x1
	.long	.LASF1122
	.value	0x35f
	.uleb128 0x1
	.long	.LASF1123
	.value	0x360
	.uleb128 0x1
	.long	.LASF1124
	.value	0x361
	.uleb128 0x1
	.long	.LASF1125
	.value	0x362
	.uleb128 0x1
	.long	.LASF1126
	.value	0x363
	.uleb128 0x1
	.long	.LASF1127
	.value	0x364
	.uleb128 0x1
	.long	.LASF1128
	.value	0x365
	.uleb128 0x1
	.long	.LASF1129
	.value	0x366
	.uleb128 0x1
	.long	.LASF1130
	.value	0x367
	.uleb128 0x1
	.long	.LASF1131
	.value	0x368
	.uleb128 0x1
	.long	.LASF1132
	.value	0x369
	.uleb128 0x1
	.long	.LASF1133
	.value	0x36a
	.uleb128 0x1
	.long	.LASF1134
	.value	0x36b
	.uleb128 0x1
	.long	.LASF1135
	.value	0x36c
	.uleb128 0x1
	.long	.LASF1136
	.value	0x36d
	.uleb128 0x1
	.long	.LASF1137
	.value	0x36e
	.uleb128 0x1
	.long	.LASF1138
	.value	0x36f
	.uleb128 0x1
	.long	.LASF1139
	.value	0x370
	.uleb128 0x1
	.long	.LASF1140
	.value	0x371
	.uleb128 0x1
	.long	.LASF1141
	.value	0x372
	.uleb128 0x1
	.long	.LASF1142
	.value	0x373
	.uleb128 0x1
	.long	.LASF1143
	.value	0x374
	.uleb128 0x1
	.long	.LASF1144
	.value	0x375
	.uleb128 0x1
	.long	.LASF1145
	.value	0x376
	.uleb128 0x1
	.long	.LASF1146
	.value	0x377
	.uleb128 0x1
	.long	.LASF1147
	.value	0x378
	.uleb128 0x1
	.long	.LASF1148
	.value	0x379
	.uleb128 0x1
	.long	.LASF1149
	.value	0x37a
	.uleb128 0x1
	.long	.LASF1150
	.value	0x37b
	.uleb128 0x1
	.long	.LASF1151
	.value	0x37c
	.uleb128 0x1
	.long	.LASF1152
	.value	0x37d
	.uleb128 0x1
	.long	.LASF1153
	.value	0x37e
	.uleb128 0x1
	.long	.LASF1154
	.value	0x37f
	.uleb128 0x1
	.long	.LASF1155
	.value	0x380
	.uleb128 0x1
	.long	.LASF1156
	.value	0x381
	.uleb128 0x1
	.long	.LASF1157
	.value	0x382
	.uleb128 0x1
	.long	.LASF1158
	.value	0x383
	.uleb128 0x1
	.long	.LASF1159
	.value	0x384
	.uleb128 0x1
	.long	.LASF1160
	.value	0x385
	.uleb128 0x1
	.long	.LASF1161
	.value	0x386
	.uleb128 0x1
	.long	.LASF1162
	.value	0x387
	.uleb128 0x1
	.long	.LASF1163
	.value	0x388
	.uleb128 0x1
	.long	.LASF1164
	.value	0x389
	.uleb128 0x1
	.long	.LASF1165
	.value	0x38a
	.uleb128 0x1
	.long	.LASF1166
	.value	0x38b
	.uleb128 0x1
	.long	.LASF1167
	.value	0x38c
	.uleb128 0x1
	.long	.LASF1168
	.value	0x38d
	.uleb128 0x1
	.long	.LASF1169
	.value	0x38e
	.uleb128 0x1
	.long	.LASF1170
	.value	0x38f
	.uleb128 0x1
	.long	.LASF1171
	.value	0x390
	.uleb128 0x1
	.long	.LASF1172
	.value	0x391
	.uleb128 0x1
	.long	.LASF1173
	.value	0x392
	.uleb128 0x1
	.long	.LASF1174
	.value	0x393
	.uleb128 0x1
	.long	.LASF1175
	.value	0x394
	.uleb128 0x1
	.long	.LASF1176
	.value	0x395
	.uleb128 0x1
	.long	.LASF1177
	.value	0x396
	.uleb128 0x1
	.long	.LASF1178
	.value	0x397
	.uleb128 0x1
	.long	.LASF1179
	.value	0x398
	.uleb128 0x1
	.long	.LASF1180
	.value	0x399
	.uleb128 0x1
	.long	.LASF1181
	.value	0x39a
	.uleb128 0x1
	.long	.LASF1182
	.value	0x39b
	.uleb128 0x1
	.long	.LASF1183
	.value	0x39c
	.uleb128 0x1
	.long	.LASF1184
	.value	0x39d
	.uleb128 0x1
	.long	.LASF1185
	.value	0x39e
	.uleb128 0x1
	.long	.LASF1186
	.value	0x39f
	.uleb128 0x1
	.long	.LASF1187
	.value	0x3a0
	.uleb128 0x1
	.long	.LASF1188
	.value	0x3a1
	.uleb128 0x1
	.long	.LASF1189
	.value	0x3a2
	.uleb128 0x1
	.long	.LASF1190
	.value	0x3a3
	.uleb128 0x1
	.long	.LASF1191
	.value	0x3a4
	.uleb128 0x1
	.long	.LASF1192
	.value	0x3a5
	.uleb128 0x1
	.long	.LASF1193
	.value	0x3a6
	.uleb128 0x1
	.long	.LASF1194
	.value	0x3a7
	.uleb128 0x1
	.long	.LASF1195
	.value	0x3a8
	.uleb128 0x1
	.long	.LASF1196
	.value	0x3a9
	.uleb128 0x1
	.long	.LASF1197
	.value	0x3aa
	.uleb128 0x1
	.long	.LASF1198
	.value	0x3ab
	.uleb128 0x1
	.long	.LASF1199
	.value	0x3ac
	.uleb128 0x1
	.long	.LASF1200
	.value	0x3ad
	.uleb128 0x1
	.long	.LASF1201
	.value	0x3ae
	.uleb128 0x1
	.long	.LASF1202
	.value	0x3af
	.uleb128 0x1
	.long	.LASF1203
	.value	0x3b0
	.uleb128 0x1
	.long	.LASF1204
	.value	0x3b1
	.uleb128 0x1
	.long	.LASF1205
	.value	0x3b2
	.uleb128 0x1
	.long	.LASF1206
	.value	0x3b3
	.uleb128 0x1
	.long	.LASF1207
	.value	0x3b4
	.uleb128 0x1
	.long	.LASF1208
	.value	0x3b5
	.uleb128 0x1
	.long	.LASF1209
	.value	0x3b6
	.uleb128 0x1
	.long	.LASF1210
	.value	0x3b7
	.uleb128 0x1
	.long	.LASF1211
	.value	0x3b8
	.uleb128 0x1
	.long	.LASF1212
	.value	0x3b9
	.uleb128 0x1
	.long	.LASF1213
	.value	0x3ba
	.uleb128 0x1
	.long	.LASF1214
	.value	0x3bb
	.uleb128 0x1
	.long	.LASF1215
	.value	0x3bc
	.uleb128 0x1
	.long	.LASF1216
	.value	0x3bd
	.uleb128 0x1
	.long	.LASF1217
	.value	0x3be
	.uleb128 0x1
	.long	.LASF1218
	.value	0x3bf
	.uleb128 0x1
	.long	.LASF1219
	.value	0x3c0
	.uleb128 0x1
	.long	.LASF1220
	.value	0x3c1
	.uleb128 0x1
	.long	.LASF1221
	.value	0x3c2
	.uleb128 0x1
	.long	.LASF1222
	.value	0x3c3
	.uleb128 0x1
	.long	.LASF1223
	.value	0x3c4
	.uleb128 0x1
	.long	.LASF1224
	.value	0x3c5
	.uleb128 0x1
	.long	.LASF1225
	.value	0x3c6
	.uleb128 0x1
	.long	.LASF1226
	.value	0x3c7
	.byte	0
	.uleb128 0x18
	.long	.LASF1227
	.byte	0xf
	.value	0x478
	.long	0x9ce
	.uleb128 0x1d
	.byte	0x38
	.byte	0xf
	.value	0x47b
	.long	0x23cb
	.uleb128 0x4
	.long	.LASF1228
	.byte	0xf
	.value	0x47d
	.byte	0xf
	.long	0x9c2
	.byte	0
	.uleb128 0x4
	.long	.LASF1229
	.byte	0xf
	.value	0x47e
	.byte	0xa
	.long	0xa3
	.byte	0x8
	.uleb128 0x4
	.long	.LASF1230
	.byte	0xf
	.value	0x47f
	.byte	0xa
	.long	0xa3
	.byte	0x10
	.uleb128 0x4
	.long	.LASF1231
	.byte	0xf
	.value	0x481
	.byte	0xf
	.long	0x5b3
	.byte	0x18
	.uleb128 0x4
	.long	.LASF1232
	.byte	0xf
	.value	0x482
	.byte	0x10
	.long	0x2353
	.byte	0x20
	.uleb128 0x4
	.long	.LASF1233
	.byte	0xf
	.value	0x483
	.byte	0xa
	.long	0xa3
	.byte	0x28
	.uleb128 0x4
	.long	.LASF1234
	.byte	0xf
	.value	0x483
	.byte	0x11
	.long	0xa3
	.byte	0x30
	.byte	0
	.uleb128 0x18
	.long	.LASF1235
	.byte	0xf
	.value	0x484
	.long	0x235f
	.uleb128 0x26
	.long	0x77
	.byte	0xf
	.value	0x48b
	.byte	0xe
	.long	0x2721
	.uleb128 0x2
	.long	.LASF1236
	.byte	0
	.uleb128 0x2
	.long	.LASF1237
	.byte	0x1
	.uleb128 0x2
	.long	.LASF1238
	.byte	0x2
	.uleb128 0x2
	.long	.LASF1239
	.byte	0x3
	.uleb128 0x2
	.long	.LASF1240
	.byte	0x4
	.uleb128 0x2
	.long	.LASF1241
	.byte	0x5
	.uleb128 0x2
	.long	.LASF1242
	.byte	0x6
	.uleb128 0x2
	.long	.LASF1243
	.byte	0x7
	.uleb128 0x2
	.long	.LASF1244
	.byte	0x8
	.uleb128 0x2
	.long	.LASF1245
	.byte	0x9
	.uleb128 0x2
	.long	.LASF1246
	.byte	0xa
	.uleb128 0x2
	.long	.LASF1247
	.byte	0xb
	.uleb128 0x2
	.long	.LASF1248
	.byte	0xc
	.uleb128 0x2
	.long	.LASF1249
	.byte	0xd
	.uleb128 0x2
	.long	.LASF1250
	.byte	0xe
	.uleb128 0x2
	.long	.LASF1251
	.byte	0xf
	.uleb128 0x2
	.long	.LASF1252
	.byte	0x10
	.uleb128 0x2
	.long	.LASF1253
	.byte	0x11
	.uleb128 0x2
	.long	.LASF1254
	.byte	0x12
	.uleb128 0x2
	.long	.LASF1255
	.byte	0x13
	.uleb128 0x2
	.long	.LASF1256
	.byte	0x14
	.uleb128 0x2
	.long	.LASF1257
	.byte	0x15
	.uleb128 0x2
	.long	.LASF1258
	.byte	0x16
	.uleb128 0x2
	.long	.LASF1259
	.byte	0x17
	.uleb128 0x2
	.long	.LASF1260
	.byte	0x18
	.uleb128 0x2
	.long	.LASF1261
	.byte	0x19
	.uleb128 0x2
	.long	.LASF1262
	.byte	0x1a
	.uleb128 0x2
	.long	.LASF1263
	.byte	0x1b
	.uleb128 0x2
	.long	.LASF1264
	.byte	0x1c
	.uleb128 0x2
	.long	.LASF1265
	.byte	0x1d
	.uleb128 0x2
	.long	.LASF1266
	.byte	0x1e
	.uleb128 0x2
	.long	.LASF1267
	.byte	0x1f
	.uleb128 0x2
	.long	.LASF1268
	.byte	0x20
	.uleb128 0x2
	.long	.LASF1269
	.byte	0x21
	.uleb128 0x2
	.long	.LASF1270
	.byte	0x22
	.uleb128 0x2
	.long	.LASF1271
	.byte	0x23
	.uleb128 0x2
	.long	.LASF1272
	.byte	0x24
	.uleb128 0x2
	.long	.LASF1273
	.byte	0x25
	.uleb128 0x2
	.long	.LASF1274
	.byte	0x26
	.uleb128 0x2
	.long	.LASF1275
	.byte	0x27
	.uleb128 0x2
	.long	.LASF1276
	.byte	0x28
	.uleb128 0x2
	.long	.LASF1277
	.byte	0x29
	.uleb128 0x2
	.long	.LASF1278
	.byte	0x2a
	.uleb128 0x2
	.long	.LASF1279
	.byte	0x2b
	.uleb128 0x2
	.long	.LASF1280
	.byte	0x2c
	.uleb128 0x2
	.long	.LASF1281
	.byte	0x2d
	.uleb128 0x2
	.long	.LASF1282
	.byte	0x2e
	.uleb128 0x2
	.long	.LASF1283
	.byte	0x2f
	.uleb128 0x2
	.long	.LASF1284
	.byte	0x30
	.uleb128 0x2
	.long	.LASF1285
	.byte	0x31
	.uleb128 0x2
	.long	.LASF1286
	.byte	0x32
	.uleb128 0x2
	.long	.LASF1287
	.byte	0x33
	.uleb128 0x2
	.long	.LASF1288
	.byte	0x34
	.uleb128 0x2
	.long	.LASF1289
	.byte	0x35
	.uleb128 0x2
	.long	.LASF1290
	.byte	0x36
	.uleb128 0x2
	.long	.LASF1291
	.byte	0x37
	.uleb128 0x2
	.long	.LASF1292
	.byte	0x38
	.uleb128 0x2
	.long	.LASF1293
	.byte	0x39
	.uleb128 0x2
	.long	.LASF1294
	.byte	0x3a
	.uleb128 0x2
	.long	.LASF1295
	.byte	0x3b
	.uleb128 0x2
	.long	.LASF1296
	.byte	0x3c
	.uleb128 0x2
	.long	.LASF1297
	.byte	0x3d
	.uleb128 0x2
	.long	.LASF1298
	.byte	0x3e
	.uleb128 0x2
	.long	.LASF1299
	.byte	0x3f
	.uleb128 0x2
	.long	.LASF1300
	.byte	0x40
	.uleb128 0x2
	.long	.LASF1301
	.byte	0x41
	.uleb128 0x2
	.long	.LASF1302
	.byte	0x42
	.uleb128 0x2
	.long	.LASF1303
	.byte	0x43
	.uleb128 0x2
	.long	.LASF1304
	.byte	0x44
	.uleb128 0x2
	.long	.LASF1305
	.byte	0x45
	.uleb128 0x2
	.long	.LASF1306
	.byte	0x46
	.uleb128 0x2
	.long	.LASF1307
	.byte	0x47
	.uleb128 0x2
	.long	.LASF1308
	.byte	0x48
	.uleb128 0x2
	.long	.LASF1309
	.byte	0x49
	.uleb128 0x2
	.long	.LASF1310
	.byte	0x4a
	.uleb128 0x2
	.long	.LASF1311
	.byte	0x4b
	.uleb128 0x2
	.long	.LASF1312
	.byte	0x4c
	.uleb128 0x2
	.long	.LASF1313
	.byte	0x4d
	.uleb128 0x2
	.long	.LASF1314
	.byte	0x4e
	.uleb128 0x2
	.long	.LASF1315
	.byte	0x4f
	.uleb128 0x2
	.long	.LASF1316
	.byte	0x50
	.uleb128 0x2
	.long	.LASF1317
	.byte	0x51
	.uleb128 0x2
	.long	.LASF1318
	.byte	0x52
	.uleb128 0x2
	.long	.LASF1319
	.byte	0x53
	.uleb128 0x2
	.long	.LASF1320
	.byte	0x54
	.uleb128 0x2
	.long	.LASF1321
	.byte	0x55
	.uleb128 0x2
	.long	.LASF1322
	.byte	0x56
	.uleb128 0x2
	.long	.LASF1323
	.byte	0x57
	.uleb128 0x2
	.long	.LASF1324
	.byte	0x58
	.uleb128 0x2
	.long	.LASF1325
	.byte	0x59
	.uleb128 0x2
	.long	.LASF1326
	.byte	0x5a
	.uleb128 0x2
	.long	.LASF1327
	.byte	0x5b
	.uleb128 0x2
	.long	.LASF1328
	.byte	0x5c
	.uleb128 0x2
	.long	.LASF1329
	.byte	0x5d
	.uleb128 0x2
	.long	.LASF1330
	.byte	0x5e
	.uleb128 0x2
	.long	.LASF1331
	.byte	0x5f
	.uleb128 0x2
	.long	.LASF1332
	.byte	0x60
	.uleb128 0x2
	.long	.LASF1333
	.byte	0x61
	.uleb128 0x2
	.long	.LASF1334
	.byte	0x62
	.uleb128 0x2
	.long	.LASF1335
	.byte	0x63
	.uleb128 0x2
	.long	.LASF1336
	.byte	0x64
	.uleb128 0x2
	.long	.LASF1337
	.byte	0x65
	.uleb128 0x2
	.long	.LASF1338
	.byte	0x66
	.uleb128 0x2
	.long	.LASF1339
	.byte	0x67
	.uleb128 0x2
	.long	.LASF1340
	.byte	0x68
	.uleb128 0x2
	.long	.LASF1341
	.byte	0x69
	.uleb128 0x2
	.long	.LASF1342
	.byte	0x6a
	.uleb128 0x2
	.long	.LASF1343
	.byte	0x6b
	.uleb128 0x2
	.long	.LASF1344
	.byte	0x6c
	.uleb128 0x2
	.long	.LASF1345
	.byte	0x6d
	.uleb128 0x2
	.long	.LASF1346
	.byte	0x6e
	.uleb128 0x2
	.long	.LASF1347
	.byte	0x6f
	.uleb128 0x2
	.long	.LASF1348
	.byte	0x70
	.uleb128 0x2
	.long	.LASF1349
	.byte	0x71
	.uleb128 0x2
	.long	.LASF1350
	.byte	0x72
	.uleb128 0x2
	.long	.LASF1351
	.byte	0x73
	.uleb128 0x2
	.long	.LASF1352
	.byte	0x74
	.uleb128 0x2
	.long	.LASF1353
	.byte	0x75
	.uleb128 0x2
	.long	.LASF1354
	.byte	0x76
	.uleb128 0x2
	.long	.LASF1355
	.byte	0x77
	.uleb128 0x2
	.long	.LASF1356
	.byte	0x78
	.uleb128 0x2
	.long	.LASF1357
	.byte	0x79
	.uleb128 0x2
	.long	.LASF1358
	.byte	0x7a
	.uleb128 0x2
	.long	.LASF1359
	.byte	0x7b
	.uleb128 0x2
	.long	.LASF1360
	.byte	0x7c
	.uleb128 0x2
	.long	.LASF1361
	.byte	0x7d
	.uleb128 0x2
	.long	.LASF1362
	.byte	0x7e
	.uleb128 0x2
	.long	.LASF1363
	.byte	0x7f
	.uleb128 0x2
	.long	.LASF1364
	.byte	0x80
	.uleb128 0x2
	.long	.LASF1365
	.byte	0x81
	.uleb128 0x2
	.long	.LASF1366
	.byte	0x82
	.uleb128 0x2
	.long	.LASF1367
	.byte	0x83
	.uleb128 0x2
	.long	.LASF1368
	.byte	0x84
	.uleb128 0x2
	.long	.LASF1369
	.byte	0x85
	.uleb128 0x2
	.long	.LASF1370
	.byte	0x86
	.uleb128 0x2
	.long	.LASF1371
	.byte	0x87
	.uleb128 0x2
	.long	.LASF1372
	.byte	0x88
	.uleb128 0x2
	.long	.LASF1373
	.byte	0x89
	.byte	0
	.uleb128 0x18
	.long	.LASF1374
	.byte	0xf
	.value	0x517
	.long	0x23d7
	.uleb128 0x1d
	.byte	0x5c
	.byte	0xf
	.value	0x519
	.long	0x2879
	.uleb128 0x4
	.long	.LASF1375
	.byte	0xf
	.value	0x51b
	.byte	0x9
	.long	0x9c
	.byte	0
	.uleb128 0x4
	.long	.LASF1376
	.byte	0xf
	.value	0x51c
	.byte	0x9
	.long	0x9c
	.byte	0x4
	.uleb128 0x4
	.long	.LASF1377
	.byte	0xf
	.value	0x51d
	.byte	0x9
	.long	0x9c
	.byte	0x8
	.uleb128 0x4
	.long	.LASF1378
	.byte	0xf
	.value	0x51e
	.byte	0x9
	.long	0x9c
	.byte	0xc
	.uleb128 0x4
	.long	.LASF1379
	.byte	0xf
	.value	0x51f
	.byte	0x9
	.long	0x9c
	.byte	0x10
	.uleb128 0x4
	.long	.LASF1380
	.byte	0xf
	.value	0x520
	.byte	0x9
	.long	0x9c
	.byte	0x14
	.uleb128 0x4
	.long	.LASF1381
	.byte	0xf
	.value	0x521
	.byte	0x9
	.long	0x9c
	.byte	0x18
	.uleb128 0x4
	.long	.LASF1382
	.byte	0xf
	.value	0x522
	.byte	0x9
	.long	0x9c
	.byte	0x1c
	.uleb128 0x4
	.long	.LASF1383
	.byte	0xf
	.value	0x523
	.byte	0x9
	.long	0x9c
	.byte	0x20
	.uleb128 0x4
	.long	.LASF1384
	.byte	0xf
	.value	0x524
	.byte	0x9
	.long	0x9c
	.byte	0x24
	.uleb128 0x4
	.long	.LASF1385
	.byte	0xf
	.value	0x525
	.byte	0x9
	.long	0x9c
	.byte	0x28
	.uleb128 0x4
	.long	.LASF1386
	.byte	0xf
	.value	0x526
	.byte	0x9
	.long	0x9c
	.byte	0x2c
	.uleb128 0x4
	.long	.LASF1387
	.byte	0xf
	.value	0x527
	.byte	0x9
	.long	0x9c
	.byte	0x30
	.uleb128 0x4
	.long	.LASF1388
	.byte	0xf
	.value	0x528
	.byte	0x9
	.long	0x9c
	.byte	0x34
	.uleb128 0x4
	.long	.LASF1389
	.byte	0xf
	.value	0x529
	.byte	0x9
	.long	0x9c
	.byte	0x38
	.uleb128 0x4
	.long	.LASF1390
	.byte	0xf
	.value	0x52a
	.byte	0x9
	.long	0x9c
	.byte	0x3c
	.uleb128 0x4
	.long	.LASF1391
	.byte	0xf
	.value	0x52b
	.byte	0x9
	.long	0x9c
	.byte	0x40
	.uleb128 0x4
	.long	.LASF1392
	.byte	0xf
	.value	0x52c
	.byte	0x9
	.long	0x9c
	.byte	0x44
	.uleb128 0x4
	.long	.LASF1393
	.byte	0xf
	.value	0x52d
	.byte	0x9
	.long	0x9c
	.byte	0x48
	.uleb128 0x4
	.long	.LASF1394
	.byte	0xf
	.value	0x52e
	.byte	0x9
	.long	0x9c
	.byte	0x4c
	.uleb128 0x4
	.long	.LASF1395
	.byte	0xf
	.value	0x52f
	.byte	0x9
	.long	0x9c
	.byte	0x50
	.uleb128 0x4
	.long	.LASF1396
	.byte	0xf
	.value	0x530
	.byte	0x9
	.long	0x9c
	.byte	0x54
	.uleb128 0x4
	.long	.LASF1397
	.byte	0xf
	.value	0x531
	.byte	0x9
	.long	0x9c
	.byte	0x58
	.byte	0
	.uleb128 0x18
	.long	.LASF1398
	.byte	0xf
	.value	0x533
	.long	0x272d
	.uleb128 0x17
	.long	.LASF1399
	.byte	0xe0
	.byte	0x10
	.byte	0xcf
	.byte	0x10
	.long	0x2a5d
	.uleb128 0x3
	.long	.LASF1400
	.byte	0x10
	.byte	0xd2
	.byte	0x10
	.long	0x605
	.byte	0
	.uleb128 0x9
	.string	"x"
	.byte	0x10
	.byte	0xd5
	.byte	0xe
	.long	0x4ee
	.byte	0x18
	.uleb128 0x9
	.string	"y"
	.byte	0x10
	.byte	0xd6
	.byte	0xe
	.long	0x4ee
	.byte	0x1c
	.uleb128 0x9
	.string	"z"
	.byte	0x10
	.byte	0xd7
	.byte	0xe
	.long	0x4ee
	.byte	0x20
	.uleb128 0x3
	.long	.LASF1401
	.byte	0x10
	.byte	0xda
	.byte	0x14
	.long	0x2a5d
	.byte	0x28
	.uleb128 0x3
	.long	.LASF1402
	.byte	0x10
	.byte	0xdb
	.byte	0x14
	.long	0x2a5d
	.byte	0x30
	.uleb128 0x3
	.long	.LASF116
	.byte	0x10
	.byte	0xde
	.byte	0xe
	.long	0x528
	.byte	0x38
	.uleb128 0x3
	.long	.LASF1228
	.byte	0x10
	.byte	0xdf
	.byte	0x12
	.long	0x9c2
	.byte	0x3c
	.uleb128 0x3
	.long	.LASF1229
	.byte	0x10
	.byte	0xe0
	.byte	0xb
	.long	0x9c
	.byte	0x40
	.uleb128 0x3
	.long	.LASF1403
	.byte	0x10
	.byte	0xe4
	.byte	0x14
	.long	0x2a5d
	.byte	0x48
	.uleb128 0x3
	.long	.LASF1404
	.byte	0x10
	.byte	0xe5
	.byte	0x14
	.long	0x2a5d
	.byte	0x50
	.uleb128 0x3
	.long	.LASF1405
	.byte	0x10
	.byte	0xe7
	.byte	0x19
	.long	0x2a97
	.byte	0x58
	.uleb128 0x3
	.long	.LASF1406
	.byte	0x10
	.byte	0xea
	.byte	0xe
	.long	0x4ee
	.byte	0x60
	.uleb128 0x3
	.long	.LASF1407
	.byte	0x10
	.byte	0xeb
	.byte	0xe
	.long	0x4ee
	.byte	0x64
	.uleb128 0x3
	.long	.LASF1391
	.byte	0x10
	.byte	0xee
	.byte	0xe
	.long	0x4ee
	.byte	0x68
	.uleb128 0x3
	.long	.LASF1392
	.byte	0x10
	.byte	0xef
	.byte	0xe
	.long	0x4ee
	.byte	0x6c
	.uleb128 0x3
	.long	.LASF1408
	.byte	0x10
	.byte	0xf2
	.byte	0xe
	.long	0x4ee
	.byte	0x70
	.uleb128 0x3
	.long	.LASF1409
	.byte	0x10
	.byte	0xf3
	.byte	0xe
	.long	0x4ee
	.byte	0x74
	.uleb128 0x3
	.long	.LASF1410
	.byte	0x10
	.byte	0xf4
	.byte	0xe
	.long	0x4ee
	.byte	0x78
	.uleb128 0x3
	.long	.LASF1411
	.byte	0x10
	.byte	0xf7
	.byte	0xb
	.long	0x9c
	.byte	0x7c
	.uleb128 0x3
	.long	.LASF94
	.byte	0x10
	.byte	0xf9
	.byte	0x11
	.long	0x2721
	.byte	0x80
	.uleb128 0x3
	.long	.LASF1412
	.byte	0x10
	.byte	0xfa
	.byte	0x12
	.long	0x2a9c
	.byte	0x88
	.uleb128 0x3
	.long	.LASF1230
	.byte	0x10
	.byte	0xfc
	.byte	0xb
	.long	0x9c
	.byte	0x90
	.uleb128 0x3
	.long	.LASF1413
	.byte	0x10
	.byte	0xfd
	.byte	0xf
	.long	0x2aa1
	.byte	0x98
	.uleb128 0x3
	.long	.LASF1396
	.byte	0x10
	.byte	0xfe
	.byte	0xb
	.long	0x9c
	.byte	0xa0
	.uleb128 0x3
	.long	.LASF1414
	.byte	0x10
	.byte	0xff
	.byte	0xb
	.long	0x9c
	.byte	0xa4
	.uleb128 0x4
	.long	.LASF1415
	.byte	0x10
	.value	0x102
	.byte	0xb
	.long	0x9c
	.byte	0xa8
	.uleb128 0x4
	.long	.LASF1416
	.byte	0x10
	.value	0x103
	.byte	0xb
	.long	0x9c
	.byte	0xac
	.uleb128 0x4
	.long	.LASF1417
	.byte	0x10
	.value	0x107
	.byte	0x14
	.long	0x2a5d
	.byte	0xb0
	.uleb128 0x4
	.long	.LASF1380
	.byte	0x10
	.value	0x10b
	.byte	0xb
	.long	0x9c
	.byte	0xb8
	.uleb128 0x4
	.long	.LASF1418
	.byte	0x10
	.value	0x10f
	.byte	0xb
	.long	0x9c
	.byte	0xbc
	.uleb128 0x4
	.long	.LASF1419
	.byte	0x10
	.value	0x113
	.byte	0x16
	.long	0x2c7b
	.byte	0xc0
	.uleb128 0x4
	.long	.LASF1420
	.byte	0x10
	.value	0x116
	.byte	0xb
	.long	0x9c
	.byte	0xc8
	.uleb128 0x4
	.long	.LASF1421
	.byte	0x10
	.value	0x119
	.byte	0x11
	.long	0x667
	.byte	0xcc
	.uleb128 0x4
	.long	.LASF1422
	.byte	0x10
	.value	0x11c
	.byte	0x14
	.long	0x2a5d
	.byte	0xd8
	.byte	0
	.uleb128 0x8
	.long	0x2885
	.uleb128 0x17
	.long	.LASF1423
	.byte	0x10
	.byte	0x11
	.byte	0xe3
	.byte	0x10
	.long	0x2a97
	.uleb128 0x3
	.long	.LASF1424
	.byte	0x11
	.byte	0xe5
	.byte	0xf
	.long	0x2ebe
	.byte	0
	.uleb128 0x3
	.long	.LASF1425
	.byte	0x11
	.byte	0xe6
	.byte	0xb
	.long	0x95
	.byte	0x8
	.uleb128 0x3
	.long	.LASF1426
	.byte	0x11
	.byte	0xe7
	.byte	0xb
	.long	0x95
	.byte	0xa
	.byte	0
	.uleb128 0x8
	.long	0x2a62
	.uleb128 0x8
	.long	0x2879
	.uleb128 0x8
	.long	0x23cb
	.uleb128 0x31
	.long	.LASF1427
	.value	0x140
	.byte	0x12
	.byte	0x53
	.byte	0x10
	.long	0x2c7b
	.uleb128 0x9
	.string	"mo"
	.byte	0x12
	.byte	0x55
	.byte	0xe
	.long	0x2dd3
	.byte	0
	.uleb128 0x3
	.long	.LASF1428
	.byte	0x12
	.byte	0x56
	.byte	0x13
	.long	0x306e
	.byte	0x8
	.uleb128 0x9
	.string	"cmd"
	.byte	0x12
	.byte	0x57
	.byte	0xf
	.long	0x3043
	.byte	0xc
	.uleb128 0x3
	.long	.LASF1429
	.byte	0x12
	.byte	0x5c
	.byte	0xe
	.long	0x4ee
	.byte	0x14
	.uleb128 0x3
	.long	.LASF1430
	.byte	0x12
	.byte	0x5e
	.byte	0xe
	.long	0x4ee
	.byte	0x18
	.uleb128 0x3
	.long	.LASF1431
	.byte	0x12
	.byte	0x60
	.byte	0x16
	.long	0x4ee
	.byte	0x1c
	.uleb128 0x9
	.string	"bob"
	.byte	0x12
	.byte	0x62
	.byte	0x16
	.long	0x4ee
	.byte	0x20
	.uleb128 0x3
	.long	.LASF1414
	.byte	0x12
	.byte	0x66
	.byte	0xb
	.long	0x9c
	.byte	0x24
	.uleb128 0x3
	.long	.LASF1432
	.byte	0x12
	.byte	0x67
	.byte	0xb
	.long	0x9c
	.byte	0x28
	.uleb128 0x3
	.long	.LASF1433
	.byte	0x12
	.byte	0x69
	.byte	0xb
	.long	0x9c
	.byte	0x2c
	.uleb128 0x3
	.long	.LASF1434
	.byte	0x12
	.byte	0x6c
	.byte	0xb
	.long	0x307a
	.byte	0x30
	.uleb128 0x3
	.long	.LASF1435
	.byte	0x12
	.byte	0x6d
	.byte	0xe
	.long	0x308a
	.byte	0x48
	.uleb128 0x3
	.long	.LASF1436
	.byte	0x12
	.byte	0x6e
	.byte	0xe
	.long	0x44e
	.byte	0x60
	.uleb128 0x3
	.long	.LASF1437
	.byte	0x12
	.byte	0x71
	.byte	0xb
	.long	0x2dd8
	.byte	0x64
	.uleb128 0x3
	.long	.LASF1438
	.byte	0x12
	.byte	0x72
	.byte	0x12
	.long	0x3c1
	.byte	0x74
	.uleb128 0x3
	.long	.LASF1439
	.byte	0x12
	.byte	0x75
	.byte	0x12
	.long	0x3c1
	.byte	0x78
	.uleb128 0x3
	.long	.LASF1440
	.byte	0x12
	.byte	0x77
	.byte	0xe
	.long	0x309a
	.byte	0x7c
	.uleb128 0x3
	.long	.LASF1441
	.byte	0x12
	.byte	0x78
	.byte	0xb
	.long	0x2dd8
	.byte	0xa0
	.uleb128 0x3
	.long	.LASF1442
	.byte	0x12
	.byte	0x79
	.byte	0xb
	.long	0x2dd8
	.byte	0xb0
	.uleb128 0x3
	.long	.LASF1443
	.byte	0x12
	.byte	0x7c
	.byte	0xb
	.long	0x9c
	.byte	0xc0
	.uleb128 0x3
	.long	.LASF1444
	.byte	0x12
	.byte	0x7d
	.byte	0xb
	.long	0x9c
	.byte	0xc4
	.uleb128 0x3
	.long	.LASF1445
	.byte	0x12
	.byte	0x81
	.byte	0xb
	.long	0x9c
	.byte	0xc8
	.uleb128 0x3
	.long	.LASF1446
	.byte	0x12
	.byte	0x84
	.byte	0xb
	.long	0x9c
	.byte	0xcc
	.uleb128 0x3
	.long	.LASF1447
	.byte	0x12
	.byte	0x87
	.byte	0xb
	.long	0x9c
	.byte	0xd0
	.uleb128 0x3
	.long	.LASF1448
	.byte	0x12
	.byte	0x88
	.byte	0xb
	.long	0x9c
	.byte	0xd4
	.uleb128 0x3
	.long	.LASF1449
	.byte	0x12
	.byte	0x89
	.byte	0xb
	.long	0x9c
	.byte	0xd8
	.uleb128 0x3
	.long	.LASF1450
	.byte	0x12
	.byte	0x8c
	.byte	0xc
	.long	0xc2
	.byte	0xe0
	.uleb128 0x3
	.long	.LASF1451
	.byte	0x12
	.byte	0x8f
	.byte	0xb
	.long	0x9c
	.byte	0xe8
	.uleb128 0x3
	.long	.LASF1452
	.byte	0x12
	.byte	0x90
	.byte	0xb
	.long	0x9c
	.byte	0xec
	.uleb128 0x3
	.long	.LASF1453
	.byte	0x12
	.byte	0x93
	.byte	0xe
	.long	0x2dd3
	.byte	0xf0
	.uleb128 0x3
	.long	.LASF1454
	.byte	0x12
	.byte	0x96
	.byte	0xb
	.long	0x9c
	.byte	0xf8
	.uleb128 0x3
	.long	.LASF1455
	.byte	0x12
	.byte	0x9a
	.byte	0xb
	.long	0x9c
	.byte	0xfc
	.uleb128 0x1e
	.long	.LASF1456
	.byte	0x9e
	.byte	0xb
	.long	0x9c
	.value	0x100
	.uleb128 0x1e
	.long	.LASF1457
	.byte	0xa1
	.byte	0xf
	.long	0x30aa
	.value	0x108
	.uleb128 0x1e
	.long	.LASF1458
	.byte	0xa4
	.byte	0xe
	.long	0x44e
	.value	0x138
	.byte	0
	.uleb128 0x8
	.long	0x2aa6
	.uleb128 0x18
	.long	.LASF1459
	.byte	0x10
	.value	0x11e
	.long	0x2885
	.uleb128 0x10
	.byte	0x8
	.byte	0x11
	.byte	0x47
	.long	0x2cab
	.uleb128 0x9
	.string	"x"
	.byte	0x11
	.byte	0x49
	.byte	0xd
	.long	0x4ee
	.byte	0
	.uleb128 0x9
	.string	"y"
	.byte	0x11
	.byte	0x4a
	.byte	0xd
	.long	0x4ee
	.byte	0x4
	.byte	0
	.uleb128 0x7
	.long	.LASF1460
	.byte	0x11
	.byte	0x4c
	.byte	0x3
	.long	0x2c8c
	.uleb128 0x10
	.byte	0x28
	.byte	0x11
	.byte	0x58
	.long	0x2cee
	.uleb128 0x3
	.long	.LASF1400
	.byte	0x11
	.byte	0x5a
	.byte	0x10
	.long	0x605
	.byte	0
	.uleb128 0x9
	.string	"x"
	.byte	0x11
	.byte	0x5b
	.byte	0xe
	.long	0x4ee
	.byte	0x18
	.uleb128 0x9
	.string	"y"
	.byte	0x11
	.byte	0x5c
	.byte	0xe
	.long	0x4ee
	.byte	0x1c
	.uleb128 0x9
	.string	"z"
	.byte	0x11
	.byte	0x5d
	.byte	0xe
	.long	0x4ee
	.byte	0x20
	.byte	0
	.uleb128 0x7
	.long	.LASF1461
	.byte	0x11
	.byte	0x5f
	.byte	0x3
	.long	0x2cb7
	.uleb128 0x10
	.byte	0x80
	.byte	0x11
	.byte	0x65
	.long	0x2dd3
	.uleb128 0x3
	.long	.LASF1462
	.byte	0x11
	.byte	0x67
	.byte	0xd
	.long	0x4ee
	.byte	0
	.uleb128 0x3
	.long	.LASF1463
	.byte	0x11
	.byte	0x68
	.byte	0xd
	.long	0x4ee
	.byte	0x4
	.uleb128 0x3
	.long	.LASF1464
	.byte	0x11
	.byte	0x69
	.byte	0xb
	.long	0x95
	.byte	0x8
	.uleb128 0x3
	.long	.LASF1465
	.byte	0x11
	.byte	0x6a
	.byte	0xb
	.long	0x95
	.byte	0xa
	.uleb128 0x3
	.long	.LASF1466
	.byte	0x11
	.byte	0x6b
	.byte	0xb
	.long	0x95
	.byte	0xc
	.uleb128 0x3
	.long	.LASF1467
	.byte	0x11
	.byte	0x6c
	.byte	0xb
	.long	0x95
	.byte	0xe
	.uleb128 0x9
	.string	"tag"
	.byte	0x11
	.byte	0x6d
	.byte	0xb
	.long	0x95
	.byte	0x10
	.uleb128 0x3
	.long	.LASF1468
	.byte	0x11
	.byte	0x70
	.byte	0xa
	.long	0x9c
	.byte	0x14
	.uleb128 0x3
	.long	.LASF1469
	.byte	0x11
	.byte	0x73
	.byte	0xd
	.long	0x2dd3
	.byte	0x18
	.uleb128 0x3
	.long	.LASF1470
	.byte	0x11
	.byte	0x76
	.byte	0xa
	.long	0x2dd8
	.byte	0x20
	.uleb128 0x3
	.long	.LASF1471
	.byte	0x11
	.byte	0x79
	.byte	0x11
	.long	0x2cee
	.byte	0x30
	.uleb128 0x3
	.long	.LASF1411
	.byte	0x11
	.byte	0x7c
	.byte	0xa
	.long	0x9c
	.byte	0x58
	.uleb128 0x3
	.long	.LASF1472
	.byte	0x11
	.byte	0x7f
	.byte	0xd
	.long	0x2dd3
	.byte	0x60
	.uleb128 0x3
	.long	.LASF1473
	.byte	0x11
	.byte	0x82
	.byte	0xb
	.long	0x7e
	.byte	0x68
	.uleb128 0x3
	.long	.LASF1474
	.byte	0x11
	.byte	0x84
	.byte	0xb
	.long	0x9c
	.byte	0x70
	.uleb128 0x3
	.long	.LASF1475
	.byte	0x11
	.byte	0x85
	.byte	0x15
	.long	0x2ea8
	.byte	0x78
	.byte	0
	.uleb128 0x8
	.long	0x2c80
	.uleb128 0xb
	.long	0x9c
	.long	0x2de8
	.uleb128 0xd
	.long	0x43
	.byte	0x3
	.byte	0
	.uleb128 0x17
	.long	.LASF1476
	.byte	0x58
	.byte	0x11
	.byte	0xb3
	.byte	0x10
	.long	0x2ea8
	.uleb128 0x9
	.string	"v1"
	.byte	0x11
	.byte	0xb6
	.byte	0xf
	.long	0x2ef4
	.byte	0
	.uleb128 0x9
	.string	"v2"
	.byte	0x11
	.byte	0xb7
	.byte	0xf
	.long	0x2ef4
	.byte	0x8
	.uleb128 0x9
	.string	"dx"
	.byte	0x11
	.byte	0xba
	.byte	0xd
	.long	0x4ee
	.byte	0x10
	.uleb128 0x9
	.string	"dy"
	.byte	0x11
	.byte	0xbb
	.byte	0xd
	.long	0x4ee
	.byte	0x14
	.uleb128 0x3
	.long	.LASF1396
	.byte	0x11
	.byte	0xbe
	.byte	0xb
	.long	0x95
	.byte	0x18
	.uleb128 0x3
	.long	.LASF1467
	.byte	0x11
	.byte	0xbf
	.byte	0xb
	.long	0x95
	.byte	0x1a
	.uleb128 0x9
	.string	"tag"
	.byte	0x11
	.byte	0xc0
	.byte	0xb
	.long	0x95
	.byte	0x1c
	.uleb128 0x3
	.long	.LASF1477
	.byte	0x11
	.byte	0xc4
	.byte	0xb
	.long	0x611
	.byte	0x1e
	.uleb128 0x3
	.long	.LASF1478
	.byte	0x11
	.byte	0xc8
	.byte	0xd
	.long	0x2ef9
	.byte	0x24
	.uleb128 0x3
	.long	.LASF1479
	.byte	0x11
	.byte	0xcb
	.byte	0x11
	.long	0x2ee8
	.byte	0x34
	.uleb128 0x3
	.long	.LASF1480
	.byte	0x11
	.byte	0xcf
	.byte	0xf
	.long	0x2ebe
	.byte	0x38
	.uleb128 0x3
	.long	.LASF1481
	.byte	0x11
	.byte	0xd0
	.byte	0xf
	.long	0x2ebe
	.byte	0x40
	.uleb128 0x3
	.long	.LASF1411
	.byte	0x11
	.byte	0xd3
	.byte	0xa
	.long	0x9c
	.byte	0x48
	.uleb128 0x3
	.long	.LASF1473
	.byte	0x11
	.byte	0xd6
	.byte	0xb
	.long	0x7e
	.byte	0x50
	.byte	0
	.uleb128 0x8
	.long	0x2ead
	.uleb128 0x8
	.long	0x2de8
	.uleb128 0x7
	.long	.LASF1482
	.byte	0x11
	.byte	0x87
	.byte	0x3
	.long	0x2cfa
	.uleb128 0x8
	.long	0x2eb2
	.uleb128 0x13
	.long	0x77
	.byte	0x11
	.byte	0xa9
	.byte	0x1
	.long	0x2ee8
	.uleb128 0x2
	.long	.LASF1483
	.byte	0
	.uleb128 0x2
	.long	.LASF1484
	.byte	0x1
	.uleb128 0x2
	.long	.LASF1485
	.byte	0x2
	.uleb128 0x2
	.long	.LASF1486
	.byte	0x3
	.byte	0
	.uleb128 0x7
	.long	.LASF1487
	.byte	0x11
	.byte	0xaf
	.byte	0x3
	.long	0x2ec3
	.uleb128 0x8
	.long	0x2cab
	.uleb128 0xb
	.long	0x4ee
	.long	0x2f09
	.uleb128 0xd
	.long	0x43
	.byte	0x3
	.byte	0
	.uleb128 0x7
	.long	.LASF1488
	.byte	0x11
	.byte	0xd7
	.byte	0x3
	.long	0x2de8
	.uleb128 0x8
	.long	0x2f09
	.uleb128 0x1d
	.byte	0x28
	.byte	0x11
	.value	0x164
	.long	0x2f6a
	.uleb128 0x4
	.long	.LASF1489
	.byte	0x11
	.value	0x166
	.byte	0xc
	.long	0x95
	.byte	0
	.uleb128 0x4
	.long	.LASF1392
	.byte	0x11
	.value	0x167
	.byte	0xc
	.long	0x95
	.byte	0x2
	.uleb128 0x4
	.long	.LASF1490
	.byte	0x11
	.value	0x168
	.byte	0xc
	.long	0x95
	.byte	0x4
	.uleb128 0x4
	.long	.LASF1491
	.byte	0x11
	.value	0x169
	.byte	0xc
	.long	0x95
	.byte	0x6
	.uleb128 0x4
	.long	.LASF1492
	.byte	0x11
	.value	0x16a
	.byte	0xb
	.long	0x2f6a
	.byte	0x8
	.byte	0
	.uleb128 0xb
	.long	0x9c
	.long	0x2f7a
	.uleb128 0xd
	.long	0x43
	.byte	0x7
	.byte	0
	.uleb128 0x18
	.long	.LASF1493
	.byte	0x11
	.value	0x16c
	.long	0x2f1a
	.uleb128 0x13
	.long	0x77
	.byte	0x13
	.byte	0x3d
	.byte	0x1
	.long	0x2fa5
	.uleb128 0x2
	.long	.LASF1494
	.byte	0
	.uleb128 0x2
	.long	.LASF1495
	.byte	0x1
	.uleb128 0x2
	.long	.LASF1496
	.byte	0x2
	.byte	0
	.uleb128 0x10
	.byte	0x18
	.byte	0x13
	.byte	0x44
	.long	0x2fe0
	.uleb128 0x3
	.long	.LASF1413
	.byte	0x13
	.byte	0x46
	.byte	0xe
	.long	0x2aa1
	.byte	0
	.uleb128 0x3
	.long	.LASF1230
	.byte	0x13
	.byte	0x47
	.byte	0xa
	.long	0x9c
	.byte	0x8
	.uleb128 0x9
	.string	"sx"
	.byte	0x13
	.byte	0x48
	.byte	0xd
	.long	0x4ee
	.byte	0xc
	.uleb128 0x9
	.string	"sy"
	.byte	0x13
	.byte	0x49
	.byte	0xd
	.long	0x4ee
	.byte	0x10
	.byte	0
	.uleb128 0x7
	.long	.LASF1497
	.byte	0x13
	.byte	0x4b
	.byte	0x3
	.long	0x2fa5
	.uleb128 0x10
	.byte	0x8
	.byte	0x14
	.byte	0x24
	.long	0x3043
	.uleb128 0x3
	.long	.LASF1498
	.byte	0x14
	.byte	0x26
	.byte	0xa
	.long	0x4a
	.byte	0
	.uleb128 0x3
	.long	.LASF1499
	.byte	0x14
	.byte	0x27
	.byte	0xa
	.long	0x4a
	.byte	0x1
	.uleb128 0x3
	.long	.LASF1500
	.byte	0x14
	.byte	0x28
	.byte	0xb
	.long	0x95
	.byte	0x2
	.uleb128 0x3
	.long	.LASF1501
	.byte	0x14
	.byte	0x29
	.byte	0xb
	.long	0x95
	.byte	0x4
	.uleb128 0x3
	.long	.LASF1502
	.byte	0x14
	.byte	0x2a
	.byte	0xa
	.long	0x45a
	.byte	0x6
	.uleb128 0x3
	.long	.LASF1503
	.byte	0x14
	.byte	0x2b
	.byte	0xa
	.long	0x45a
	.byte	0x7
	.byte	0
	.uleb128 0x7
	.long	.LASF1504
	.byte	0x14
	.byte	0x2c
	.byte	0x3
	.long	0x2fec
	.uleb128 0x13
	.long	0x77
	.byte	0x12
	.byte	0x36
	.byte	0x1
	.long	0x306e
	.uleb128 0x2
	.long	.LASF1505
	.byte	0
	.uleb128 0x2
	.long	.LASF1506
	.byte	0x1
	.uleb128 0x2
	.long	.LASF1507
	.byte	0x2
	.byte	0
	.uleb128 0x7
	.long	.LASF1508
	.byte	0x12
	.byte	0x3e
	.byte	0x3
	.long	0x304f
	.uleb128 0xb
	.long	0x9c
	.long	0x308a
	.uleb128 0xd
	.long	0x43
	.byte	0x5
	.byte	0
	.uleb128 0xb
	.long	0x44e
	.long	0x309a
	.uleb128 0xd
	.long	0x43
	.byte	0x5
	.byte	0
	.uleb128 0xb
	.long	0x44e
	.long	0x30aa
	.uleb128 0xd
	.long	0x43
	.byte	0x8
	.byte	0
	.uleb128 0xb
	.long	0x2fe0
	.long	0x30ba
	.uleb128 0xd
	.long	0x43
	.byte	0x1
	.byte	0
	.uleb128 0x7
	.long	.LASF1509
	.byte	0x12
	.byte	0xa6
	.byte	0x3
	.long	0x2aa6
	.uleb128 0xc
	.long	.LASF1510
	.byte	0x15
	.byte	0x4e
	.byte	0xd
	.long	0x9c
	.uleb128 0xc
	.long	.LASF1511
	.byte	0x15
	.byte	0x4f
	.byte	0x12
	.long	0x2ef4
	.uleb128 0xc
	.long	.LASF1512
	.byte	0x15
	.byte	0x54
	.byte	0xd
	.long	0x9c
	.uleb128 0xc
	.long	.LASF1513
	.byte	0x15
	.byte	0x55
	.byte	0x12
	.long	0x2ebe
	.uleb128 0xc
	.long	.LASF1425
	.byte	0x15
	.byte	0x5d
	.byte	0xd
	.long	0x9c
	.uleb128 0xc
	.long	.LASF1475
	.byte	0x15
	.byte	0x5e
	.byte	0x11
	.long	0x2f15
	.uleb128 0x8
	.long	0x30ba
	.uleb128 0x8
	.long	0x45a
	.uleb128 0xc
	.long	.LASF1514
	.byte	0x16
	.byte	0xfb
	.byte	0x11
	.long	0x4ee
	.uleb128 0xc
	.long	.LASF1515
	.byte	0x16
	.byte	0xfc
	.byte	0x11
	.long	0x4ee
	.uleb128 0xb
	.long	0x4a
	.long	0x3140
	.uleb128 0xd
	.long	0x43
	.byte	0x8
	.byte	0
	.uleb128 0x10
	.byte	0x10
	.byte	0x17
	.byte	0x22
	.long	0x3161
	.uleb128 0x3
	.long	.LASF1516
	.byte	0x17
	.byte	0x24
	.byte	0x14
	.long	0x3161
	.byte	0
	.uleb128 0x9
	.string	"p"
	.byte	0x17
	.byte	0x25
	.byte	0x14
	.long	0x3161
	.byte	0x8
	.byte	0
	.uleb128 0x8
	.long	0x80
	.uleb128 0x7
	.long	.LASF1517
	.byte	0x17
	.byte	0x27
	.byte	0x3
	.long	0x3140
	.uleb128 0xb
	.long	0x3113
	.long	0x3182
	.uleb128 0xd
	.long	0x43
	.byte	0x4
	.byte	0
	.uleb128 0xc
	.long	.LASF1518
	.byte	0x18
	.byte	0x2f
	.byte	0xf
	.long	0x3172
	.uleb128 0xc
	.long	.LASF1519
	.byte	0x19
	.byte	0x55
	.byte	0xe
	.long	0x9c
	.uleb128 0xc
	.long	.LASF1520
	.byte	0x19
	.byte	0x56
	.byte	0xe
	.long	0x9c
	.uleb128 0xc
	.long	.LASF1521
	.byte	0x19
	.byte	0x5c
	.byte	0x11
	.long	0x44e
	.uleb128 0xc
	.long	.LASF1522
	.byte	0x19
	.byte	0x60
	.byte	0x11
	.long	0x44e
	.uleb128 0xc
	.long	.LASF1523
	.byte	0x19
	.byte	0x84
	.byte	0x11
	.long	0x44e
	.uleb128 0xc
	.long	.LASF1524
	.byte	0x19
	.byte	0x89
	.byte	0x12
	.long	0x44e
	.uleb128 0xc
	.long	.LASF1525
	.byte	0x19
	.byte	0x9e
	.byte	0xd
	.long	0x9c
	.uleb128 0xc
	.long	.LASF1526
	.byte	0x19
	.byte	0xbb
	.byte	0x12
	.long	0x44e
	.uleb128 0xb
	.long	0x30ba
	.long	0x31fe
	.uleb128 0xd
	.long	0x43
	.byte	0x3
	.byte	0
	.uleb128 0xc
	.long	.LASF1527
	.byte	0x19
	.byte	0xd4
	.byte	0x11
	.long	0x31ee
	.uleb128 0xb
	.long	0x44e
	.long	0x321a
	.uleb128 0xd
	.long	0x43
	.byte	0x3
	.byte	0
	.uleb128 0xc
	.long	.LASF1528
	.byte	0x19
	.byte	0xd7
	.byte	0x12
	.long	0x320a
	.uleb128 0x10
	.byte	0x8
	.byte	0x1
	.byte	0x80
	.long	0x3245
	.uleb128 0x9
	.string	"x"
	.byte	0x1
	.byte	0x82
	.byte	0x9
	.long	0x9c
	.byte	0
	.uleb128 0x9
	.string	"y"
	.byte	0x1
	.byte	0x82
	.byte	0xc
	.long	0x9c
	.byte	0x4
	.byte	0
	.uleb128 0x7
	.long	.LASF1529
	.byte	0x1
	.byte	0x83
	.byte	0x3
	.long	0x3226
	.uleb128 0x10
	.byte	0x10
	.byte	0x1
	.byte	0x85
	.long	0x3270
	.uleb128 0x9
	.string	"a"
	.byte	0x1
	.byte	0x87
	.byte	0xe
	.long	0x3245
	.byte	0
	.uleb128 0x9
	.string	"b"
	.byte	0x1
	.byte	0x87
	.byte	0x11
	.long	0x3245
	.byte	0x8
	.byte	0
	.uleb128 0x7
	.long	.LASF1530
	.byte	0x1
	.byte	0x88
	.byte	0x3
	.long	0x3251
	.uleb128 0x10
	.byte	0x8
	.byte	0x1
	.byte	0x8a
	.long	0x329b
	.uleb128 0x9
	.string	"x"
	.byte	0x1
	.byte	0x8c
	.byte	0xe
	.long	0x4ee
	.byte	0
	.uleb128 0x9
	.string	"y"
	.byte	0x1
	.byte	0x8c
	.byte	0x10
	.long	0x4ee
	.byte	0x4
	.byte	0
	.uleb128 0x7
	.long	.LASF1531
	.byte	0x1
	.byte	0x8d
	.byte	0x3
	.long	0x327c
	.uleb128 0x10
	.byte	0x10
	.byte	0x1
	.byte	0x8f
	.long	0x32c6
	.uleb128 0x9
	.string	"a"
	.byte	0x1
	.byte	0x91
	.byte	0xe
	.long	0x329b
	.byte	0
	.uleb128 0x9
	.string	"b"
	.byte	0x1
	.byte	0x91
	.byte	0x11
	.long	0x329b
	.byte	0x8
	.byte	0
	.uleb128 0x7
	.long	.LASF1532
	.byte	0x1
	.byte	0x92
	.byte	0x3
	.long	0x32a7
	.uleb128 0x10
	.byte	0x8
	.byte	0x1
	.byte	0x94
	.long	0x32f5
	.uleb128 0x9
	.string	"slp"
	.byte	0x1
	.byte	0x96
	.byte	0xd
	.long	0x4ee
	.byte	0
	.uleb128 0x3
	.long	.LASF1533
	.byte	0x1
	.byte	0x96
	.byte	0x12
	.long	0x4ee
	.byte	0x4
	.byte	0
	.uleb128 0x7
	.long	.LASF1534
	.byte	0x1
	.byte	0x97
	.byte	0x3
	.long	0x32d2
	.uleb128 0xb
	.long	0x32c6
	.long	0x3311
	.uleb128 0xd
	.long	0x43
	.byte	0x6
	.byte	0
	.uleb128 0x1b
	.long	.LASF1535
	.byte	0xa1
	.long	0x3301
	.uleb128 0x9
	.byte	0x3
	.quad	player_arrow
	.uleb128 0xb
	.long	0x32c6
	.long	0x3335
	.uleb128 0xd
	.long	0x43
	.byte	0xf
	.byte	0
	.uleb128 0x1b
	.long	.LASF1536
	.byte	0xae
	.long	0x3325
	.uleb128 0x9
	.byte	0x3
	.quad	cheat_player_arrow
	.uleb128 0xb
	.long	0x32c6
	.long	0x3359
	.uleb128 0xd
	.long	0x43
	.byte	0x2
	.byte	0
	.uleb128 0x1b
	.long	.LASF1537
	.byte	0xc4
	.long	0x3349
	.uleb128 0x9
	.byte	0x3
	.quad	triangle_guy
	.uleb128 0x1b
	.long	.LASF1538
	.byte	0xcd
	.long	0x3349
	.uleb128 0x9
	.byte	0x3
	.quad	thintriangle_guy
	.uleb128 0xe
	.long	.LASF1540
	.byte	0xd8
	.byte	0xd
	.long	0x9c
	.uleb128 0x9
	.byte	0x3
	.quad	cheating
	.uleb128 0xe
	.long	.LASF1541
	.byte	0xd9
	.byte	0xd
	.long	0x9c
	.uleb128 0x9
	.byte	0x3
	.quad	grid
	.uleb128 0xe
	.long	.LASF1542
	.byte	0xdb
	.byte	0xd
	.long	0x9c
	.uleb128 0x9
	.byte	0x3
	.quad	leveljuststarted
	.uleb128 0x32
	.long	0x31be
	.byte	0x1
	.byte	0xdd
	.byte	0xd
	.uleb128 0x9
	.byte	0x3
	.quad	automapactive
	.uleb128 0xe
	.long	.LASF1543
	.byte	0xde
	.byte	0xd
	.long	0x9c
	.uleb128 0x9
	.byte	0x3
	.quad	finit_width
	.uleb128 0xe
	.long	.LASF1544
	.byte	0xdf
	.byte	0xd
	.long	0x9c
	.uleb128 0x9
	.byte	0x3
	.quad	finit_height
	.uleb128 0x15
	.string	"f_x"
	.byte	0xe2
	.byte	0xd
	.long	0x9c
	.uleb128 0x9
	.byte	0x3
	.quad	f_x
	.uleb128 0x15
	.string	"f_y"
	.byte	0xe3
	.byte	0xc
	.long	0x9c
	.uleb128 0x9
	.byte	0x3
	.quad	f_y
	.uleb128 0x15
	.string	"f_w"
	.byte	0xe6
	.byte	0xd
	.long	0x9c
	.uleb128 0x9
	.byte	0x3
	.quad	f_w
	.uleb128 0x15
	.string	"f_h"
	.byte	0xe7
	.byte	0xc
	.long	0x9c
	.uleb128 0x9
	.byte	0x3
	.quad	f_h
	.uleb128 0xe
	.long	.LASF1545
	.byte	0xe9
	.byte	0xd
	.long	0x9c
	.uleb128 0x9
	.byte	0x3
	.quad	lightlev
	.uleb128 0x15
	.string	"fb"
	.byte	0xea
	.byte	0xe
	.long	0x3113
	.uleb128 0x9
	.byte	0x3
	.quad	fb
	.uleb128 0xe
	.long	.LASF1546
	.byte	0xeb
	.byte	0xd
	.long	0x9c
	.uleb128 0x9
	.byte	0x3
	.quad	amclock
	.uleb128 0xe
	.long	.LASF1547
	.byte	0xed
	.byte	0x11
	.long	0x329b
	.uleb128 0x9
	.byte	0x3
	.quad	m_paninc
	.uleb128 0xe
	.long	.LASF1548
	.byte	0xee
	.byte	0x11
	.long	0x4ee
	.uleb128 0x9
	.byte	0x3
	.quad	mtof_zoommul
	.uleb128 0xe
	.long	.LASF1549
	.byte	0xef
	.byte	0x11
	.long	0x4ee
	.uleb128 0x9
	.byte	0x3
	.quad	ftom_zoommul
	.uleb128 0x15
	.string	"m_x"
	.byte	0xf1
	.byte	0x11
	.long	0x4ee
	.uleb128 0x9
	.byte	0x3
	.quad	m_x
	.uleb128 0x15
	.string	"m_y"
	.byte	0xf1
	.byte	0x16
	.long	0x4ee
	.uleb128 0x9
	.byte	0x3
	.quad	m_y
	.uleb128 0xe
	.long	.LASF1550
	.byte	0xf2
	.byte	0x11
	.long	0x4ee
	.uleb128 0x9
	.byte	0x3
	.quad	m_x2
	.uleb128 0xe
	.long	.LASF1551
	.byte	0xf2
	.byte	0x17
	.long	0x4ee
	.uleb128 0x9
	.byte	0x3
	.quad	m_y2
	.uleb128 0x15
	.string	"m_w"
	.byte	0xf7
	.byte	0x11
	.long	0x4ee
	.uleb128 0x9
	.byte	0x3
	.quad	m_w
	.uleb128 0x15
	.string	"m_h"
	.byte	0xf8
	.byte	0x10
	.long	0x4ee
	.uleb128 0x9
	.byte	0x3
	.quad	m_h
	.uleb128 0xe
	.long	.LASF1552
	.byte	0xfb
	.byte	0x11
	.long	0x4ee
	.uleb128 0x9
	.byte	0x3
	.quad	min_x
	.uleb128 0xe
	.long	.LASF1553
	.byte	0xfc
	.byte	0x10
	.long	0x4ee
	.uleb128 0x9
	.byte	0x3
	.quad	min_y
	.uleb128 0xe
	.long	.LASF1554
	.byte	0xfd
	.byte	0x11
	.long	0x4ee
	.uleb128 0x9
	.byte	0x3
	.quad	max_x
	.uleb128 0xe
	.long	.LASF1555
	.byte	0xfe
	.byte	0x11
	.long	0x4ee
	.uleb128 0x9
	.byte	0x3
	.quad	max_y
	.uleb128 0x5
	.long	.LASF1556
	.value	0x100
	.byte	0x11
	.long	0x4ee
	.uleb128 0x9
	.byte	0x3
	.quad	max_w
	.uleb128 0x5
	.long	.LASF1557
	.value	0x101
	.byte	0x11
	.long	0x4ee
	.uleb128 0x9
	.byte	0x3
	.quad	max_h
	.uleb128 0x5
	.long	.LASF1558
	.value	0x104
	.byte	0x11
	.long	0x4ee
	.uleb128 0x9
	.byte	0x3
	.quad	min_w
	.uleb128 0x5
	.long	.LASF1559
	.value	0x105
	.byte	0x11
	.long	0x4ee
	.uleb128 0x9
	.byte	0x3
	.quad	min_h
	.uleb128 0x5
	.long	.LASF1560
	.value	0x108
	.byte	0x11
	.long	0x4ee
	.uleb128 0x9
	.byte	0x3
	.quad	min_scale_mtof
	.uleb128 0x5
	.long	.LASF1561
	.value	0x109
	.byte	0x11
	.long	0x4ee
	.uleb128 0x9
	.byte	0x3
	.quad	max_scale_mtof
	.uleb128 0x5
	.long	.LASF1562
	.value	0x10c
	.byte	0x10
	.long	0x4ee
	.uleb128 0x9
	.byte	0x3
	.quad	old_m_w
	.uleb128 0x5
	.long	.LASF1563
	.value	0x10c
	.byte	0x19
	.long	0x4ee
	.uleb128 0x9
	.byte	0x3
	.quad	old_m_h
	.uleb128 0x5
	.long	.LASF1564
	.value	0x10d
	.byte	0x10
	.long	0x4ee
	.uleb128 0x9
	.byte	0x3
	.quad	old_m_x
	.uleb128 0x5
	.long	.LASF1565
	.value	0x10d
	.byte	0x19
	.long	0x4ee
	.uleb128 0x9
	.byte	0x3
	.quad	old_m_y
	.uleb128 0x5
	.long	.LASF1566
	.value	0x110
	.byte	0x11
	.long	0x329b
	.uleb128 0x9
	.byte	0x3
	.quad	f_oldloc
	.uleb128 0x5
	.long	.LASF1567
	.value	0x113
	.byte	0x10
	.long	0x4ee
	.uleb128 0x9
	.byte	0x3
	.quad	scale_mtof
	.uleb128 0x5
	.long	.LASF1568
	.value	0x115
	.byte	0x10
	.long	0x4ee
	.uleb128 0x9
	.byte	0x3
	.quad	scale_ftom
	.uleb128 0x6
	.string	"plr"
	.value	0x117
	.byte	0x12
	.long	0x310e
	.uleb128 0x9
	.byte	0x3
	.quad	plr
	.uleb128 0xb
	.long	0x36e3
	.long	0x36e3
	.uleb128 0xd
	.long	0x43
	.byte	0x9
	.byte	0
	.uleb128 0x8
	.long	0x2f7a
	.uleb128 0x5
	.long	.LASF1569
	.value	0x119
	.byte	0x11
	.long	0x36d3
	.uleb128 0x9
	.byte	0x3
	.quad	marknums
	.uleb128 0xb
	.long	0x329b
	.long	0x370e
	.uleb128 0xd
	.long	0x43
	.byte	0x9
	.byte	0
	.uleb128 0x5
	.long	.LASF1570
	.value	0x11a
	.byte	0x11
	.long	0x36fe
	.uleb128 0x9
	.byte	0x3
	.quad	markpoints
	.uleb128 0x5
	.long	.LASF1571
	.value	0x11b
	.byte	0xc
	.long	0x9c
	.uleb128 0x9
	.byte	0x3
	.quad	markpointnum
	.uleb128 0x5
	.long	.LASF1572
	.value	0x11d
	.byte	0xc
	.long	0x9c
	.uleb128 0x9
	.byte	0x3
	.quad	followplayer
	.uleb128 0xb
	.long	0x80
	.long	0x3760
	.uleb128 0xd
	.long	0x43
	.byte	0x4
	.byte	0
	.uleb128 0x5
	.long	.LASF1573
	.value	0x11f
	.byte	0x16
	.long	0x3750
	.uleb128 0x9
	.byte	0x3
	.quad	cheat_amap_seq
	.uleb128 0x5
	.long	.LASF1574
	.value	0x120
	.byte	0x13
	.long	0x3166
	.uleb128 0x9
	.byte	0x3
	.quad	cheat_amap
	.uleb128 0x5
	.long	.LASF1575
	.value	0x122
	.byte	0x10
	.long	0x44e
	.uleb128 0x9
	.byte	0x3
	.quad	stopped
	.uleb128 0x33
	.long	.LASF1576
	.byte	0x1
	.value	0x12a
	.byte	0x1
	.long	0x37c4
	.uleb128 0xa
	.long	0x9c
	.uleb128 0xa
	.long	0x9c
	.uleb128 0xa
	.long	0x9c
	.uleb128 0xa
	.long	0x9c
	.byte	0
	.uleb128 0x1f
	.long	.LASF1577
	.byte	0x18
	.byte	0x48
	.byte	0x1
	.long	0x37e5
	.uleb128 0xa
	.long	0x9c
	.uleb128 0xa
	.long	0x9c
	.uleb128 0xa
	.long	0x9c
	.uleb128 0xa
	.long	0x36e3
	.byte	0
	.uleb128 0x27
	.long	.LASF1578
	.value	0x165
	.long	0x9c
	.long	0x3800
	.uleb128 0xa
	.long	0x2b9
	.uleb128 0xa
	.long	0x2af
	.uleb128 0x1a
	.byte	0
	.uleb128 0x19
	.long	.LASF1579
	.byte	0x1a
	.byte	0x3d
	.byte	0xe
	.long	0x7e
	.long	0x3820
	.uleb128 0xa
	.long	0x7e
	.uleb128 0xa
	.long	0x9c
	.uleb128 0xa
	.long	0x6b
	.byte	0
	.uleb128 0x19
	.long	.LASF1580
	.byte	0x17
	.byte	0x2a
	.byte	0x1
	.long	0x9c
	.long	0x383b
	.uleb128 0xa
	.long	0x383b
	.uleb128 0xa
	.long	0x4a
	.byte	0
	.uleb128 0x8
	.long	0x3166
	.uleb128 0x1f
	.long	.LASF1581
	.byte	0x6
	.byte	0x36
	.byte	0x9
	.long	0x3857
	.uleb128 0xa
	.long	0x7e
	.uleb128 0xa
	.long	0x9c
	.byte	0
	.uleb128 0x1f
	.long	.LASF1582
	.byte	0x1b
	.byte	0x59
	.byte	0x6
	.long	0x386a
	.uleb128 0xa
	.long	0xc2
	.uleb128 0x1a
	.byte	0
	.uleb128 0x19
	.long	.LASF1583
	.byte	0x1c
	.byte	0x4f
	.byte	0x7
	.long	0x7e
	.long	0x3885
	.uleb128 0xa
	.long	0xc2
	.uleb128 0xa
	.long	0x9c
	.byte	0
	.uleb128 0x27
	.long	.LASF1584
	.value	0x16d
	.long	0x9c
	.long	0x38a0
	.uleb128 0xa
	.long	0xc2
	.uleb128 0xa
	.long	0x2aa
	.uleb128 0x1a
	.byte	0
	.uleb128 0x19
	.long	.LASF1585
	.byte	0x1d
	.byte	0x4d
	.byte	0x9
	.long	0x44e
	.long	0x38b6
	.uleb128 0xa
	.long	0x38b6
	.byte	0
	.uleb128 0x8
	.long	0x4d4
	.uleb128 0x19
	.long	.LASF1586
	.byte	0xa
	.byte	0x28
	.byte	0x9
	.long	0x4ee
	.long	0x38d6
	.uleb128 0xa
	.long	0x4ee
	.uleb128 0xa
	.long	0x4ee
	.byte	0
	.uleb128 0x19
	.long	.LASF1587
	.byte	0xa
	.byte	0x29
	.byte	0x9
	.long	0x4ee
	.long	0x38f1
	.uleb128 0xa
	.long	0x4ee
	.uleb128 0xa
	.long	0x4ee
	.byte	0
	.uleb128 0x16
	.long	.LASF1616
	.value	0x534
	.quad	.LFB33
	.quad	.LFE33-.LFB33
	.uleb128 0x1
	.byte	0x9c
	.uleb128 0x20
	.long	.LASF1588
	.value	0x52e
	.quad	.LFB32
	.quad	.LFE32-.LFB32
	.uleb128 0x1
	.byte	0x9c
	.long	0x3937
	.uleb128 0x11
	.long	.LASF1591
	.value	0x52e
	.byte	0x1b
	.long	0x9c
	.uleb128 0x2
	.byte	0x91
	.sleb128 -20
	.byte	0
	.uleb128 0xf
	.long	.LASF1589
	.value	0x519
	.byte	0x6
	.quad	.LFB31
	.quad	.LFE31-.LFB31
	.uleb128 0x1
	.byte	0x9c
	.long	0x3999
	.uleb128 0x6
	.string	"i"
	.value	0x51b
	.byte	0x9
	.long	0x9c
	.uleb128 0x2
	.byte	0x91
	.sleb128 -52
	.uleb128 0x6
	.string	"fx"
	.value	0x51b
	.byte	0xc
	.long	0x9c
	.uleb128 0x2
	.byte	0x91
	.sleb128 -40
	.uleb128 0x6
	.string	"fy"
	.value	0x51b
	.byte	0x10
	.long	0x9c
	.uleb128 0x2
	.byte	0x91
	.sleb128 -36
	.uleb128 0x6
	.string	"w"
	.value	0x51b
	.byte	0x14
	.long	0x9c
	.uleb128 0x2
	.byte	0x91
	.sleb128 -48
	.uleb128 0x6
	.string	"h"
	.value	0x51b
	.byte	0x17
	.long	0x9c
	.uleb128 0x2
	.byte	0x91
	.sleb128 -44
	.byte	0
	.uleb128 0xf
	.long	.LASF1590
	.value	0x505
	.byte	0x1
	.quad	.LFB30
	.quad	.LFE30-.LFB30
	.uleb128 0x1
	.byte	0x9c
	.long	0x39f0
	.uleb128 0x11
	.long	.LASF1592
	.value	0x506
	.byte	0x7
	.long	0x9c
	.uleb128 0x2
	.byte	0x91
	.sleb128 -36
	.uleb128 0x11
	.long	.LASF1593
	.value	0x507
	.byte	0x8
	.long	0x9c
	.uleb128 0x2
	.byte	0x91
	.sleb128 -40
	.uleb128 0x6
	.string	"i"
	.value	0x509
	.byte	0xa
	.long	0x9c
	.uleb128 0x2
	.byte	0x91
	.sleb128 -28
	.uleb128 0x6
	.string	"t"
	.value	0x50a
	.byte	0xd
	.long	0x2dd3
	.uleb128 0x2
	.byte	0x91
	.sleb128 -24
	.byte	0
	.uleb128 0xf
	.long	.LASF1594
	.value	0x4d8
	.byte	0x6
	.quad	.LFB29
	.quad	.LFE29-.LFB29
	.uleb128 0x1
	.byte	0x9c
	.long	0x3a5d
	.uleb128 0x6
	.string	"i"
	.value	0x4da
	.byte	0xa
	.long	0x9c
	.uleb128 0x2
	.byte	0x91
	.sleb128 -36
	.uleb128 0x6
	.string	"p"
	.value	0x4db
	.byte	0xf
	.long	0x310e
	.uleb128 0x2
	.byte	0x91
	.sleb128 -24
	.uleb128 0x5
	.long	.LASF1595
	.value	0x4dc
	.byte	0x11
	.long	0x2dd8
	.uleb128 0x9
	.byte	0x3
	.quad	their_colors.0
	.uleb128 0x5
	.long	.LASF1596
	.value	0x4dd
	.byte	0xa
	.long	0x9c
	.uleb128 0x2
	.byte	0x91
	.sleb128 -32
	.uleb128 0x5
	.long	.LASF1591
	.value	0x4de
	.byte	0xa
	.long	0x9c
	.uleb128 0x2
	.byte	0x91
	.sleb128 -28
	.byte	0
	.uleb128 0xf
	.long	.LASF1597
	.value	0x4a8
	.byte	0x1
	.quad	.LFB28
	.quad	.LFE28-.LFB28
	.uleb128 0x1
	.byte	0x9c
	.long	0x3b01
	.uleb128 0x11
	.long	.LASF1598
	.value	0x4a9
	.byte	0xc
	.long	0x3b01
	.uleb128 0x3
	.byte	0x91
	.sleb128 -72
	.uleb128 0x11
	.long	.LASF1599
	.value	0x4aa
	.byte	0x8
	.long	0x9c
	.uleb128 0x3
	.byte	0x91
	.sleb128 -76
	.uleb128 0x11
	.long	.LASF1600
	.value	0x4ab
	.byte	0xb
	.long	0x4ee
	.uleb128 0x3
	.byte	0x91
	.sleb128 -80
	.uleb128 0x11
	.long	.LASF116
	.value	0x4ac
	.byte	0xb
	.long	0x528
	.uleb128 0x3
	.byte	0x91
	.sleb128 -84
	.uleb128 0x11
	.long	.LASF1591
	.value	0x4ad
	.byte	0x8
	.long	0x9c
	.uleb128 0x3
	.byte	0x91
	.sleb128 -88
	.uleb128 0x12
	.string	"x"
	.value	0x4ae
	.byte	0xb
	.long	0x4ee
	.uleb128 0x3
	.byte	0x91
	.sleb128 -92
	.uleb128 0x12
	.string	"y"
	.value	0x4af
	.byte	0xb
	.long	0x4ee
	.uleb128 0x2
	.byte	0x91
	.sleb128 0
	.uleb128 0x6
	.string	"i"
	.value	0x4b1
	.byte	0xa
	.long	0x9c
	.uleb128 0x2
	.byte	0x91
	.sleb128 -52
	.uleb128 0x6
	.string	"l"
	.value	0x4b2
	.byte	0xd
	.long	0x32c6
	.uleb128 0x2
	.byte	0x91
	.sleb128 -48
	.byte	0
	.uleb128 0x8
	.long	0x32c6
	.uleb128 0xf
	.long	.LASF1601
	.value	0x495
	.byte	0x1
	.quad	.LFB27
	.quad	.LFE27-.LFB27
	.uleb128 0x1
	.byte	0x9c
	.long	0x3b5c
	.uleb128 0x12
	.string	"x"
	.value	0x496
	.byte	0xc
	.long	0x523
	.uleb128 0x2
	.byte	0x91
	.sleb128 -56
	.uleb128 0x12
	.string	"y"
	.value	0x497
	.byte	0xc
	.long	0x523
	.uleb128 0x2
	.byte	0x91
	.sleb128 -64
	.uleb128 0x12
	.string	"a"
	.value	0x498
	.byte	0xb
	.long	0x528
	.uleb128 0x3
	.byte	0x91
	.sleb128 -68
	.uleb128 0x5
	.long	.LASF1602
	.value	0x49a
	.byte	0xd
	.long	0x4ee
	.uleb128 0x2
	.byte	0x91
	.sleb128 -36
	.byte	0
	.uleb128 0xf
	.long	.LASF1603
	.value	0x45d
	.byte	0x6
	.quad	.LFB26
	.quad	.LFE26-.LFB26
	.uleb128 0x1
	.byte	0x9c
	.long	0x3b9c
	.uleb128 0x6
	.string	"i"
	.value	0x45f
	.byte	0x9
	.long	0x9c
	.uleb128 0x2
	.byte	0x91
	.sleb128 -20
	.uleb128 0x6
	.string	"l"
	.value	0x460
	.byte	0x14
	.long	0x32c6
	.uleb128 0x9
	.byte	0x3
	.quad	l.1
	.byte	0
	.uleb128 0xf
	.long	.LASF1604
	.value	0x42f
	.byte	0x6
	.quad	.LFB25
	.quad	.LFE25-.LFB25
	.uleb128 0x1
	.byte	0x9c
	.long	0x3c11
	.uleb128 0x11
	.long	.LASF1591
	.value	0x42f
	.byte	0x16
	.long	0x9c
	.uleb128 0x3
	.byte	0x91
	.sleb128 -68
	.uleb128 0x6
	.string	"x"
	.value	0x431
	.byte	0xd
	.long	0x4ee
	.uleb128 0x2
	.byte	0x91
	.sleb128 -64
	.uleb128 0x6
	.string	"y"
	.value	0x431
	.byte	0x10
	.long	0x4ee
	.uleb128 0x2
	.byte	0x91
	.sleb128 -60
	.uleb128 0x5
	.long	.LASF1605
	.value	0x432
	.byte	0xd
	.long	0x4ee
	.uleb128 0x2
	.byte	0x91
	.sleb128 -56
	.uleb128 0x6
	.string	"end"
	.value	0x432
	.byte	0x14
	.long	0x4ee
	.uleb128 0x2
	.byte	0x91
	.sleb128 -52
	.uleb128 0x6
	.string	"ml"
	.value	0x433
	.byte	0xd
	.long	0x32c6
	.uleb128 0x2
	.byte	0x91
	.sleb128 -48
	.byte	0
	.uleb128 0xf
	.long	.LASF1606
	.value	0x420
	.byte	0x1
	.quad	.LFB24
	.quad	.LFE24-.LFB24
	.uleb128 0x1
	.byte	0x9c
	.long	0x3c62
	.uleb128 0x12
	.string	"ml"
	.value	0x421
	.byte	0xc
	.long	0x3b01
	.uleb128 0x2
	.byte	0x91
	.sleb128 -24
	.uleb128 0x11
	.long	.LASF1591
	.value	0x422
	.byte	0x8
	.long	0x9c
	.uleb128 0x2
	.byte	0x91
	.sleb128 -28
	.uleb128 0x6
	.string	"fl"
	.value	0x424
	.byte	0x14
	.long	0x3270
	.uleb128 0x9
	.byte	0x3
	.quad	fl.2
	.byte	0
	.uleb128 0xf
	.long	.LASF1607
	.value	0x3d2
	.byte	0x1
	.quad	.LFB23
	.quad	.LFE23-.LFB23
	.uleb128 0x1
	.byte	0x9c
	.long	0x3d28
	.uleb128 0x12
	.string	"fl"
	.value	0x3d3
	.byte	0xc
	.long	0x3d28
	.uleb128 0x3
	.byte	0x91
	.sleb128 -72
	.uleb128 0x11
	.long	.LASF1591
	.value	0x3d4
	.byte	0x8
	.long	0x9c
	.uleb128 0x3
	.byte	0x91
	.sleb128 -76
	.uleb128 0x6
	.string	"x"
	.value	0x3d6
	.byte	0x12
	.long	0x9c
	.uleb128 0x1
	.byte	0x5d
	.uleb128 0x6
	.string	"y"
	.value	0x3d7
	.byte	0x12
	.long	0x9c
	.uleb128 0x1
	.byte	0x5c
	.uleb128 0x6
	.string	"dx"
	.value	0x3d8
	.byte	0x12
	.long	0x9c
	.uleb128 0x1
	.byte	0x53
	.uleb128 0x6
	.string	"dy"
	.value	0x3d9
	.byte	0x12
	.long	0x9c
	.uleb128 0x1
	.byte	0x53
	.uleb128 0x6
	.string	"sx"
	.value	0x3da
	.byte	0x12
	.long	0x9c
	.uleb128 0x1
	.byte	0x52
	.uleb128 0x6
	.string	"sy"
	.value	0x3db
	.byte	0x12
	.long	0x9c
	.uleb128 0x1
	.byte	0x54
	.uleb128 0x6
	.string	"ax"
	.value	0x3dc
	.byte	0x12
	.long	0x9c
	.uleb128 0x1
	.byte	0x5f
	.uleb128 0x6
	.string	"ay"
	.value	0x3dd
	.byte	0x12
	.long	0x9c
	.uleb128 0x1
	.byte	0x5e
	.uleb128 0x6
	.string	"d"
	.value	0x3de
	.byte	0x12
	.long	0x9c
	.uleb128 0x1
	.byte	0x53
	.uleb128 0x5
	.long	.LASF1608
	.value	0x3e0
	.byte	0xc
	.long	0x9c
	.uleb128 0x9
	.byte	0x3
	.quad	fuck.3
	.byte	0
	.uleb128 0x8
	.long	0x3270
	.uleb128 0x28
	.long	.LASF1624
	.value	0x34f
	.long	0x44e
	.quad	.LFB22
	.quad	.LFE22-.LFB22
	.uleb128 0x1
	.byte	0x9c
	.long	0x3de8
	.uleb128 0x12
	.string	"ml"
	.value	0x350
	.byte	0xc
	.long	0x3b01
	.uleb128 0x3
	.byte	0x91
	.sleb128 -72
	.uleb128 0x12
	.string	"fl"
	.value	0x351
	.byte	0xc
	.long	0x3d28
	.uleb128 0x3
	.byte	0x91
	.sleb128 -80
	.uleb128 0x26
	.long	0x77
	.byte	0x1
	.value	0x354
	.byte	0x5
	.long	0x3d92
	.uleb128 0x2
	.long	.LASF1609
	.byte	0x1
	.uleb128 0x2
	.long	.LASF1610
	.byte	0x2
	.uleb128 0x2
	.long	.LASF1611
	.byte	0x4
	.uleb128 0x34
	.string	"TOP"
	.byte	0x8
	.byte	0
	.uleb128 0x5
	.long	.LASF1612
	.value	0x35b
	.byte	0xe
	.long	0x9c
	.uleb128 0x1
	.byte	0x53
	.uleb128 0x5
	.long	.LASF1613
	.value	0x35c
	.byte	0xe
	.long	0x9c
	.uleb128 0x1
	.byte	0x5c
	.uleb128 0x5
	.long	.LASF1614
	.value	0x35d
	.byte	0xe
	.long	0x9c
	.uleb128 0x1
	.byte	0x5d
	.uleb128 0x6
	.string	"tmp"
	.value	0x35f
	.byte	0xe
	.long	0x3245
	.uleb128 0x2
	.byte	0x91
	.sleb128 -56
	.uleb128 0x6
	.string	"dx"
	.value	0x360
	.byte	0xa
	.long	0x9c
	.uleb128 0x2
	.byte	0x91
	.sleb128 -60
	.uleb128 0x6
	.string	"dy"
	.value	0x361
	.byte	0xa
	.long	0x9c
	.uleb128 0x2
	.byte	0x91
	.sleb128 -64
	.byte	0
	.uleb128 0xf
	.long	.LASF1615
	.value	0x341
	.byte	0x6
	.quad	.LFB21
	.quad	.LFE21-.LFB21
	.uleb128 0x1
	.byte	0x9c
	.long	0x3e16
	.uleb128 0x11
	.long	.LASF1591
	.value	0x341
	.byte	0x15
	.long	0x9c
	.uleb128 0x2
	.byte	0x91
	.sleb128 -20
	.byte	0
	.uleb128 0x16
	.long	.LASF1617
	.value	0x325
	.quad	.LFB20
	.quad	.LFE20-.LFB20
	.uleb128 0x1
	.byte	0x9c
	.uleb128 0x20
	.long	.LASF1618
	.value	0x310
	.quad	.LFB19
	.quad	.LFE19-.LFB19
	.uleb128 0x1
	.byte	0x9c
	.long	0x3e8f
	.uleb128 0x5
	.long	.LASF1619
	.value	0x312
	.byte	0xc
	.long	0x9c
	.uleb128 0x9
	.byte	0x3
	.quad	nexttic.6
	.uleb128 0x5
	.long	.LASF1620
	.value	0x314
	.byte	0x10
	.long	0x2f6a
	.uleb128 0x9
	.byte	0x3
	.quad	litelevels.4
	.uleb128 0x5
	.long	.LASF1621
	.value	0x315
	.byte	0x10
	.long	0x9c
	.uleb128 0x9
	.byte	0x3
	.quad	litelevelscnt.5
	.byte	0
	.uleb128 0x16
	.long	.LASF1622
	.value	0x2f8
	.quad	.LFB18
	.quad	.LFE18-.LFB18
	.uleb128 0x1
	.byte	0x9c
	.uleb128 0x16
	.long	.LASF1623
	.value	0x2e5
	.quad	.LFB17
	.quad	.LFE17-.LFB17
	.uleb128 0x1
	.byte	0x9c
	.uleb128 0x28
	.long	.LASF1625
	.value	0x266
	.long	0x44e
	.quad	.LFB16
	.quad	.LFE16-.LFB16
	.uleb128 0x1
	.byte	0x9c
	.long	0x3f41
	.uleb128 0x12
	.string	"ev"
	.value	0x267
	.byte	0xc
	.long	0x38b6
	.uleb128 0x2
	.byte	0x91
	.sleb128 -40
	.uleb128 0x6
	.string	"rc"
	.value	0x26a
	.byte	0x9
	.long	0x9c
	.uleb128 0x2
	.byte	0x91
	.sleb128 -20
	.uleb128 0x5
	.long	.LASF1626
	.value	0x26b
	.byte	0x10
	.long	0x9c
	.uleb128 0x9
	.byte	0x3
	.quad	cheatstate.7
	.uleb128 0x5
	.long	.LASF1627
	.value	0x26c
	.byte	0x10
	.long	0x9c
	.uleb128 0x9
	.byte	0x3
	.quad	bigstate.9
	.uleb128 0x5
	.long	.LASF1628
	.value	0x26d
	.byte	0x11
	.long	0x29a
	.uleb128 0x9
	.byte	0x3
	.quad	buffer.8
	.byte	0
	.uleb128 0x16
	.long	.LASF1629
	.value	0x25a
	.quad	.LFB15
	.quad	.LFE15-.LFB15
	.uleb128 0x1
	.byte	0x9c
	.uleb128 0x16
	.long	.LASF1630
	.value	0x250
	.quad	.LFB14
	.quad	.LFE14-.LFB14
	.uleb128 0x1
	.byte	0x9c
	.uleb128 0xf
	.long	.LASF1631
	.value	0x23d
	.byte	0x6
	.quad	.LFB13
	.quad	.LFE13-.LFB13
	.uleb128 0x1
	.byte	0x9c
	.long	0x3fbe
	.uleb128 0x5
	.long	.LASF1632
	.value	0x23f
	.byte	0x10
	.long	0x9c
	.uleb128 0x9
	.byte	0x3
	.quad	lastlevel.11
	.uleb128 0x5
	.long	.LASF1633
	.value	0x23f
	.byte	0x20
	.long	0x9c
	.uleb128 0x9
	.byte	0x3
	.quad	lastepisode.10
	.byte	0
	.uleb128 0xf
	.long	.LASF1634
	.value	0x230
	.byte	0x6
	.quad	.LFB12
	.quad	.LFE12-.LFB12
	.uleb128 0x1
	.byte	0x9c
	.long	0x3ff3
	.uleb128 0x5
	.long	.LASF1635
	.value	0x232
	.byte	0x14
	.long	0x4d4
	.uleb128 0x9
	.byte	0x3
	.quad	st_notify.12
	.byte	0
	.uleb128 0x16
	.long	.LASF1636
	.value	0x219
	.quad	.LFB11
	.quad	.LFE11-.LFB11
	.uleb128 0x1
	.byte	0x9c
	.uleb128 0x20
	.long	.LASF1637
	.value	0x20c
	.quad	.LFB10
	.quad	.LFE10-.LFB10
	.uleb128 0x1
	.byte	0x9c
	.long	0x4037
	.uleb128 0x6
	.string	"i"
	.value	0x20e
	.byte	0x9
	.long	0x9c
	.uleb128 0x2
	.byte	0x91
	.sleb128 -20
	.byte	0
	.uleb128 0xf
	.long	.LASF1638
	.value	0x203
	.byte	0x6
	.quad	.LFB9
	.quad	.LFE9-.LFB9
	.uleb128 0x1
	.byte	0x9c
	.long	0x4063
	.uleb128 0x6
	.string	"i"
	.value	0x205
	.byte	0x9
	.long	0x9c
	.uleb128 0x2
	.byte	0x91
	.sleb128 -20
	.byte	0
	.uleb128 0xf
	.long	.LASF1639
	.value	0x1f6
	.byte	0x6
	.quad	.LFB8
	.quad	.LFE8-.LFB8
	.uleb128 0x1
	.byte	0x9c
	.long	0x409e
	.uleb128 0x6
	.string	"i"
	.value	0x1f8
	.byte	0x9
	.long	0x9c
	.uleb128 0x2
	.byte	0x91
	.sleb128 -40
	.uleb128 0x5
	.long	.LASF1640
	.value	0x1f9
	.byte	0xa
	.long	0x3130
	.uleb128 0x2
	.byte	0x91
	.sleb128 -33
	.byte	0
	.uleb128 0xf
	.long	.LASF1641
	.value	0x1ca
	.byte	0x6
	.quad	.LFB7
	.quad	.LFE7-.LFB7
	.uleb128 0x1
	.byte	0x9c
	.long	0x40e2
	.uleb128 0x5
	.long	.LASF1642
	.value	0x1cc
	.byte	0x9
	.long	0x9c
	.uleb128 0x2
	.byte	0x91
	.sleb128 -20
	.uleb128 0x5
	.long	.LASF1635
	.value	0x1cd
	.byte	0x14
	.long	0x4d4
	.uleb128 0x9
	.byte	0x3
	.quad	st_notify.13
	.byte	0
	.uleb128 0x21
	.long	.LASF1643
	.value	0x1ad
	.quad	.LFB6
	.quad	.LFE6-.LFB6
	.uleb128 0x1
	.byte	0x9c
	.uleb128 0xf
	.long	.LASF1644
	.value	0x185
	.byte	0x6
	.quad	.LFB5
	.quad	.LFE5-.LFB5
	.uleb128 0x1
	.byte	0x9c
	.long	0x4141
	.uleb128 0x6
	.string	"i"
	.value	0x187
	.byte	0x9
	.long	0x9c
	.uleb128 0x2
	.byte	0x91
	.sleb128 -28
	.uleb128 0x6
	.string	"a"
	.value	0x188
	.byte	0xd
	.long	0x4ee
	.uleb128 0x2
	.byte	0x91
	.sleb128 -24
	.uleb128 0x6
	.string	"b"
	.value	0x189
	.byte	0xd
	.long	0x4ee
	.uleb128 0x2
	.byte	0x91
	.sleb128 -20
	.byte	0
	.uleb128 0x21
	.long	.LASF1645
	.value	0x179
	.quad	.LFB4
	.quad	.LFE4-.LFB4
	.uleb128 0x1
	.byte	0x9c
	.uleb128 0x16
	.long	.LASF1646
	.value	0x161
	.quad	.LFB3
	.quad	.LFE3-.LFB3
	.uleb128 0x1
	.byte	0x9c
	.uleb128 0x21
	.long	.LASF1647
	.value	0x156
	.quad	.LFB2
	.quad	.LFE2-.LFB2
	.uleb128 0x1
	.byte	0x9c
	.uleb128 0x16
	.long	.LASF1648
	.value	0x147
	.quad	.LFB1
	.quad	.LFE1-.LFB1
	.uleb128 0x1
	.byte	0x9c
	.uleb128 0xf
	.long	.LASF1649
	.value	0x135
	.byte	0x1
	.quad	.LFB0
	.quad	.LFE0-.LFB0
	.uleb128 0x1
	.byte	0x9c
	.long	0x41fc
	.uleb128 0x12
	.string	"ml"
	.value	0x136
	.byte	0xc
	.long	0x3b01
	.uleb128 0x2
	.byte	0x91
	.sleb128 -40
	.uleb128 0x12
	.string	"is"
	.value	0x137
	.byte	0xd
	.long	0x41fc
	.uleb128 0x2
	.byte	0x91
	.sleb128 -48
	.uleb128 0x6
	.string	"dx"
	.value	0x139
	.byte	0x9
	.long	0x9c
	.uleb128 0x2
	.byte	0x91
	.sleb128 -20
	.uleb128 0x6
	.string	"dy"
	.value	0x139
	.byte	0xd
	.long	0x9c
	.uleb128 0x2
	.byte	0x91
	.sleb128 -24
	.byte	0
	.uleb128 0x8
	.long	0x32f5
	.byte	0
	.section	.debug_abbrev,"",@progbits
.Ldebug_abbrev0:
	.uleb128 0x1
	.uleb128 0x28
	.byte	0
	.uleb128 0x3
	.uleb128 0xe
	.uleb128 0x1c
	.uleb128 0x5
	.byte	0
	.byte	0
	.uleb128 0x2
	.uleb128 0x28
	.byte	0
	.uleb128 0x3
	.uleb128 0xe
	.uleb128 0x1c
	.uleb128 0xb
	.byte	0
	.byte	0
	.uleb128 0x3
	.uleb128 0xd
	.byte	0
	.uleb128 0x3
	.uleb128 0xe
	.uleb128 0x3a
	.uleb128 0xb
	.uleb128 0x3b
	.uleb128 0xb
	.uleb128 0x39
	.uleb128 0xb
	.uleb128 0x49
	.uleb128 0x13
	.uleb128 0x38
	.uleb128 0xb
	.byte	0
	.byte	0
	.uleb128 0x4
	.uleb128 0xd
	.byte	0
	.uleb128 0x3
	.uleb128 0xe
	.uleb128 0x3a
	.uleb128 0xb
	.uleb128 0x3b
	.uleb128 0x5
	.uleb128 0x39
	.uleb128 0xb
	.uleb128 0x49
	.uleb128 0x13
	.uleb128 0x38
	.uleb128 0xb
	.byte	0
	.byte	0
	.uleb128 0x5
	.uleb128 0x34
	.byte	0
	.uleb128 0x3
	.uleb128 0xe
	.uleb128 0x3a
	.uleb128 0x21
	.sleb128 1
	.uleb128 0x3b
	.uleb128 0x5
	.uleb128 0x39
	.uleb128 0xb
	.uleb128 0x49
	.uleb128 0x13
	.uleb128 0x2
	.uleb128 0x18
	.byte	0
	.byte	0
	.uleb128 0x6
	.uleb128 0x34
	.byte	0
	.uleb128 0x3
	.uleb128 0x8
	.uleb128 0x3a
	.uleb128 0x21
	.sleb128 1
	.uleb128 0x3b
	.uleb128 0x5
	.uleb128 0x39
	.uleb128 0xb
	.uleb128 0x49
	.uleb128 0x13
	.uleb128 0x2
	.uleb128 0x18
	.byte	0
	.byte	0
	.uleb128 0x7
	.uleb128 0x16
	.byte	0
	.uleb128 0x3
	.uleb128 0xe
	.uleb128 0x3a
	.uleb128 0xb
	.uleb128 0x3b
	.uleb128 0xb
	.uleb128 0x39
	.uleb128 0xb
	.uleb128 0x49
	.uleb128 0x13
	.byte	0
	.byte	0
	.uleb128 0x8
	.uleb128 0xf
	.byte	0
	.uleb128 0xb
	.uleb128 0x21
	.sleb128 8
	.uleb128 0x49
	.uleb128 0x13
	.byte	0
	.byte	0
	.uleb128 0x9
	.uleb128 0xd
	.byte	0
	.uleb128 0x3
	.uleb128 0x8
	.uleb128 0x3a
	.uleb128 0xb
	.uleb128 0x3b
	.uleb128 0xb
	.uleb128 0x39
	.uleb128 0xb
	.uleb128 0x49
	.uleb128 0x13
	.uleb128 0x38
	.uleb128 0xb
	.byte	0
	.byte	0
	.uleb128 0xa
	.uleb128 0x5
	.byte	0
	.uleb128 0x49
	.uleb128 0x13
	.byte	0
	.byte	0
	.uleb128 0xb
	.uleb128 0x1
	.byte	0x1
	.uleb128 0x49
	.uleb128 0x13
	.uleb128 0x1
	.uleb128 0x13
	.byte	0
	.byte	0
	.uleb128 0xc
	.uleb128 0x34
	.byte	0
	.uleb128 0x3
	.uleb128 0xe
	.uleb128 0x3a
	.uleb128 0xb
	.uleb128 0x3b
	.uleb128 0xb
	.uleb128 0x39
	.uleb128 0xb
	.uleb128 0x49
	.uleb128 0x13
	.uleb128 0x3f
	.uleb128 0x19
	.uleb128 0x3c
	.uleb128 0x19
	.byte	0
	.byte	0
	.uleb128 0xd
	.uleb128 0x21
	.byte	0
	.uleb128 0x49
	.uleb128 0x13
	.uleb128 0x2f
	.uleb128 0xb
	.byte	0
	.byte	0
	.uleb128 0xe
	.uleb128 0x34
	.byte	0
	.uleb128 0x3
	.uleb128 0xe
	.uleb128 0x3a
	.uleb128 0x21
	.sleb128 1
	.uleb128 0x3b
	.uleb128 0xb
	.uleb128 0x39
	.uleb128 0xb
	.uleb128 0x49
	.uleb128 0x13
	.uleb128 0x2
	.uleb128 0x18
	.byte	0
	.byte	0
	.uleb128 0xf
	.uleb128 0x2e
	.byte	0x1
	.uleb128 0x3f
	.uleb128 0x19
	.uleb128 0x3
	.uleb128 0xe
	.uleb128 0x3a
	.uleb128 0x21
	.sleb128 1
	.uleb128 0x3b
	.uleb128 0x5
	.uleb128 0x39
	.uleb128 0xb
	.uleb128 0x27
	.uleb128 0x19
	.uleb128 0x11
	.uleb128 0x1
	.uleb128 0x12
	.uleb128 0x7
	.uleb128 0x40
	.uleb128 0x18
	.uleb128 0x7c
	.uleb128 0x19
	.uleb128 0x1
	.uleb128 0x13
	.byte	0
	.byte	0
	.uleb128 0x10
	.uleb128 0x13
	.byte	0x1
	.uleb128 0xb
	.uleb128 0xb
	.uleb128 0x3a
	.uleb128 0xb
	.uleb128 0x3b
	.uleb128 0xb
	.uleb128 0x39
	.uleb128 0x21
	.sleb128 9
	.uleb128 0x1
	.uleb128 0x13
	.byte	0
	.byte	0
	.uleb128 0x11
	.uleb128 0x5
	.byte	0
	.uleb128 0x3
	.uleb128 0xe
	.uleb128 0x3a
	.uleb128 0x21
	.sleb128 1
	.uleb128 0x3b
	.uleb128 0x5
	.uleb128 0x39
	.uleb128 0xb
	.uleb128 0x49
	.uleb128 0x13
	.uleb128 0x2
	.uleb128 0x18
	.byte	0
	.byte	0
	.uleb128 0x12
	.uleb128 0x5
	.byte	0
	.uleb128 0x3
	.uleb128 0x8
	.uleb128 0x3a
	.uleb128 0x21
	.sleb128 1
	.uleb128 0x3b
	.uleb128 0x5
	.uleb128 0x39
	.uleb128 0xb
	.uleb128 0x49
	.uleb128 0x13
	.uleb128 0x2
	.uleb128 0x18
	.byte	0
	.byte	0
	.uleb128 0x13
	.uleb128 0x4
	.byte	0x1
	.uleb128 0x3e
	.uleb128 0x21
	.sleb128 7
	.uleb128 0xb
	.uleb128 0x21
	.sleb128 4
	.uleb128 0x49
	.uleb128 0x13
	.uleb128 0x3a
	.uleb128 0xb
	.uleb128 0x3b
	.uleb128 0xb
	.uleb128 0x39
	.uleb128 0xb
	.uleb128 0x1
	.uleb128 0x13
	.byte	0
	.byte	0
	.uleb128 0x14
	.uleb128 0x24
	.byte	0
	.uleb128 0xb
	.uleb128 0xb
	.uleb128 0x3e
	.uleb128 0xb
	.uleb128 0x3
	.uleb128 0xe
	.byte	0
	.byte	0
	.uleb128 0x15
	.uleb128 0x34
	.byte	0
	.uleb128 0x3
	.uleb128 0x8
	.uleb128 0x3a
	.uleb128 0x21
	.sleb128 1
	.uleb128 0x3b
	.uleb128 0xb
	.uleb128 0x39
	.uleb128 0xb
	.uleb128 0x49
	.uleb128 0x13
	.uleb128 0x2
	.uleb128 0x18
	.byte	0
	.byte	0
	.uleb128 0x16
	.uleb128 0x2e
	.byte	0
	.uleb128 0x3f
	.uleb128 0x19
	.uleb128 0x3
	.uleb128 0xe
	.uleb128 0x3a
	.uleb128 0x21
	.sleb128 1
	.uleb128 0x3b
	.uleb128 0x5
	.uleb128 0x39
	.uleb128 0x21
	.sleb128 6
	.uleb128 0x27
	.uleb128 0x19
	.uleb128 0x11
	.uleb128 0x1
	.uleb128 0x12
	.uleb128 0x7
	.uleb128 0x40
	.uleb128 0x18
	.uleb128 0x7c
	.uleb128 0x19
	.byte	0
	.byte	0
	.uleb128 0x17
	.uleb128 0x13
	.byte	0x1
	.uleb128 0x3
	.uleb128 0xe
	.uleb128 0xb
	.uleb128 0xb
	.uleb128 0x3a
	.uleb128 0xb
	.uleb128 0x3b
	.uleb128 0xb
	.uleb128 0x39
	.uleb128 0xb
	.uleb128 0x1
	.uleb128 0x13
	.byte	0
	.byte	0
	.uleb128 0x18
	.uleb128 0x16
	.byte	0
	.uleb128 0x3
	.uleb128 0xe
	.uleb128 0x3a
	.uleb128 0xb
	.uleb128 0x3b
	.uleb128 0x5
	.uleb128 0x39
	.uleb128 0x21
	.sleb128 3
	.uleb128 0x49
	.uleb128 0x13
	.byte	0
	.byte	0
	.uleb128 0x19
	.uleb128 0x2e
	.byte	0x1
	.uleb128 0x3f
	.uleb128 0x19
	.uleb128 0x3
	.uleb128 0xe
	.uleb128 0x3a
	.uleb128 0xb
	.uleb128 0x3b
	.uleb128 0xb
	.uleb128 0x39
	.uleb128 0xb
	.uleb128 0x27
	.uleb128 0x19
	.uleb128 0x49
	.uleb128 0x13
	.uleb128 0x3c
	.uleb128 0x19
	.uleb128 0x1
	.uleb128 0x13
	.byte	0
	.byte	0
	.uleb128 0x1a
	.uleb128 0x18
	.byte	0
	.byte	0
	.byte	0
	.uleb128 0x1b
	.uleb128 0x34
	.byte	0
	.uleb128 0x3
	.uleb128 0xe
	.uleb128 0x3a
	.uleb128 0x21
	.sleb128 1
	.uleb128 0x3b
	.uleb128 0xb
	.uleb128 0x39
	.uleb128 0x21
	.sleb128 9
	.uleb128 0x49
	.uleb128 0x13
	.uleb128 0x3f
	.uleb128 0x19
	.uleb128 0x2
	.uleb128 0x18
	.byte	0
	.byte	0
	.uleb128 0x1c
	.uleb128 0x13
	.byte	0
	.uleb128 0x3
	.uleb128 0xe
	.uleb128 0x3c
	.uleb128 0x19
	.byte	0
	.byte	0
	.uleb128 0x1d
	.uleb128 0x13
	.byte	0x1
	.uleb128 0xb
	.uleb128 0xb
	.uleb128 0x3a
	.uleb128 0xb
	.uleb128 0x3b
	.uleb128 0x5
	.uleb128 0x39
	.uleb128 0x21
	.sleb128 9
	.uleb128 0x1
	.uleb128 0x13
	.byte	0
	.byte	0
	.uleb128 0x1e
	.uleb128 0xd
	.byte	0
	.uleb128 0x3
	.uleb128 0xe
	.uleb128 0x3a
	.uleb128 0x21
	.sleb128 18
	.uleb128 0x3b
	.uleb128 0xb
	.uleb128 0x39
	.uleb128 0xb
	.uleb128 0x49
	.uleb128 0x13
	.uleb128 0x38
	.uleb128 0x5
	.byte	0
	.byte	0
	.uleb128 0x1f
	.uleb128 0x2e
	.byte	0x1
	.uleb128 0x3f
	.uleb128 0x19
	.uleb128 0x3
	.uleb128 0xe
	.uleb128 0x3a
	.uleb128 0xb
	.uleb128 0x3b
	.uleb128 0xb
	.uleb128 0x39
	.uleb128 0xb
	.uleb128 0x27
	.uleb128 0x19
	.uleb128 0x3c
	.uleb128 0x19
	.uleb128 0x1
	.uleb128 0x13
	.byte	0
	.byte	0
	.uleb128 0x20
	.uleb128 0x2e
	.byte	0x1
	.uleb128 0x3f
	.uleb128 0x19
	.uleb128 0x3
	.uleb128 0xe
	.uleb128 0x3a
	.uleb128 0x21
	.sleb128 1
	.uleb128 0x3b
	.uleb128 0x5
	.uleb128 0x39
	.uleb128 0x21
	.sleb128 6
	.uleb128 0x27
	.uleb128 0x19
	.uleb128 0x11
	.uleb128 0x1
	.uleb128 0x12
	.uleb128 0x7
	.uleb128 0x40
	.uleb128 0x18
	.uleb128 0x7a
	.uleb128 0x19
	.uleb128 0x1
	.uleb128 0x13
	.byte	0
	.byte	0
	.uleb128 0x21
	.uleb128 0x2e
	.byte	0
	.uleb128 0x3f
	.uleb128 0x19
	.uleb128 0x3
	.uleb128 0xe
	.uleb128 0x3a
	.uleb128 0x21
	.sleb128 1
	.uleb128 0x3b
	.uleb128 0x5
	.uleb128 0x39
	.uleb128 0x21
	.sleb128 6
	.uleb128 0x27
	.uleb128 0x19
	.uleb128 0x11
	.uleb128 0x1
	.uleb128 0x12
	.uleb128 0x7
	.uleb128 0x40
	.uleb128 0x18
	.uleb128 0x7a
	.uleb128 0x19
	.byte	0
	.byte	0
	.uleb128 0x22
	.uleb128 0x26
	.byte	0
	.uleb128 0x49
	.uleb128 0x13
	.byte	0
	.byte	0
	.uleb128 0x23
	.uleb128 0x37
	.byte	0
	.uleb128 0x49
	.uleb128 0x13
	.byte	0
	.byte	0
	.uleb128 0x24
	.uleb128 0x15
	.byte	0x1
	.uleb128 0x27
	.uleb128 0x19
	.uleb128 0x1
	.uleb128 0x13
	.byte	0
	.byte	0
	.uleb128 0x25
	.uleb128 0xd
	.byte	0
	.uleb128 0x3
	.uleb128 0xe
	.uleb128 0x3a
	.uleb128 0x21
	.sleb128 13
	.uleb128 0x3b
	.uleb128 0xb
	.uleb128 0x39
	.uleb128 0x21
	.sleb128 14
	.uleb128 0x49
	.uleb128 0x13
	.byte	0
	.byte	0
	.uleb128 0x26
	.uleb128 0x4
	.byte	0x1
	.uleb128 0x3e
	.uleb128 0x21
	.sleb128 7
	.uleb128 0xb
	.uleb128 0x21
	.sleb128 4
	.uleb128 0x49
	.uleb128 0x13
	.uleb128 0x3a
	.uleb128 0xb
	.uleb128 0x3b
	.uleb128 0x5
	.uleb128 0x39
	.uleb128 0xb
	.uleb128 0x1
	.uleb128 0x13
	.byte	0
	.byte	0
	.uleb128 0x27
	.uleb128 0x2e
	.byte	0x1
	.uleb128 0x3f
	.uleb128 0x19
	.uleb128 0x3
	.uleb128 0xe
	.uleb128 0x3a
	.uleb128 0x21
	.sleb128 11
	.uleb128 0x3b
	.uleb128 0x5
	.uleb128 0x39
	.uleb128 0x21
	.sleb128 12
	.uleb128 0x27
	.uleb128 0x19
	.uleb128 0x49
	.uleb128 0x13
	.uleb128 0x3c
	.uleb128 0x19
	.uleb128 0x1
	.uleb128 0x13
	.byte	0
	.byte	0
	.uleb128 0x28
	.uleb128 0x2e
	.byte	0x1
	.uleb128 0x3f
	.uleb128 0x19
	.uleb128 0x3
	.uleb128 0xe
	.uleb128 0x3a
	.uleb128 0x21
	.sleb128 1
	.uleb128 0x3b
	.uleb128 0x5
	.uleb128 0x39
	.uleb128 0x21
	.sleb128 1
	.uleb128 0x27
	.uleb128 0x19
	.uleb128 0x49
	.uleb128 0x13
	.uleb128 0x11
	.uleb128 0x1
	.uleb128 0x12
	.uleb128 0x7
	.uleb128 0x40
	.uleb128 0x18
	.uleb128 0x7c
	.uleb128 0x19
	.uleb128 0x1
	.uleb128 0x13
	.byte	0
	.byte	0
	.uleb128 0x29
	.uleb128 0x11
	.byte	0x1
	.uleb128 0x25
	.uleb128 0xe
	.uleb128 0x13
	.uleb128 0xb
	.uleb128 0x3
	.uleb128 0x1f
	.uleb128 0x1b
	.uleb128 0x1f
	.uleb128 0x11
	.uleb128 0x1
	.uleb128 0x12
	.uleb128 0x7
	.uleb128 0x10
	.uleb128 0x17
	.byte	0
	.byte	0
	.uleb128 0x2a
	.uleb128 0xf
	.byte	0
	.uleb128 0xb
	.uleb128 0xb
	.byte	0
	.byte	0
	.uleb128 0x2b
	.uleb128 0x24
	.byte	0
	.uleb128 0xb
	.uleb128 0xb
	.uleb128 0x3e
	.uleb128 0xb
	.uleb128 0x3
	.uleb128 0x8
	.byte	0
	.byte	0
	.uleb128 0x2c
	.uleb128 0x16
	.byte	0
	.uleb128 0x3
	.uleb128 0xe
	.uleb128 0x3a
	.uleb128 0xb
	.uleb128 0x3b
	.uleb128 0xb
	.uleb128 0x39
	.uleb128 0xb
	.byte	0
	.byte	0
	.uleb128 0x2d
	.uleb128 0x21
	.byte	0
	.uleb128 0x49
	.uleb128 0x13
	.uleb128 0x2f
	.uleb128 0x5
	.byte	0
	.byte	0
	.uleb128 0x2e
	.uleb128 0x15
	.byte	0x1
	.uleb128 0x1
	.uleb128 0x13
	.byte	0
	.byte	0
	.uleb128 0x2f
	.uleb128 0x17
	.byte	0x1
	.uleb128 0xb
	.uleb128 0xb
	.uleb128 0x3a
	.uleb128 0xb
	.uleb128 0x3b
	.uleb128 0xb
	.uleb128 0x39
	.uleb128 0xb
	.uleb128 0x1
	.uleb128 0x13
	.byte	0
	.byte	0
	.uleb128 0x30
	.uleb128 0xd
	.byte	0
	.uleb128 0x3
	.uleb128 0x8
	.uleb128 0x3a
	.uleb128 0xb
	.uleb128 0x3b
	.uleb128 0xb
	.uleb128 0x39
	.uleb128 0xb
	.uleb128 0x49
	.uleb128 0x13
	.byte	0
	.byte	0
	.uleb128 0x31
	.uleb128 0x13
	.byte	0x1
	.uleb128 0x3
	.uleb128 0xe
	.uleb128 0xb
	.uleb128 0x5
	.uleb128 0x3a
	.uleb128 0xb
	.uleb128 0x3b
	.uleb128 0xb
	.uleb128 0x39
	.uleb128 0xb
	.uleb128 0x1
	.uleb128 0x13
	.byte	0
	.byte	0
	.uleb128 0x32
	.uleb128 0x34
	.byte	0
	.uleb128 0x47
	.uleb128 0x13
	.uleb128 0x3a
	.uleb128 0xb
	.uleb128 0x3b
	.uleb128 0xb
	.uleb128 0x39
	.uleb128 0xb
	.uleb128 0x2
	.uleb128 0x18
	.byte	0
	.byte	0
	.uleb128 0x33
	.uleb128 0x2e
	.byte	0x1
	.uleb128 0x3f
	.uleb128 0x19
	.uleb128 0x3
	.uleb128 0xe
	.uleb128 0x3a
	.uleb128 0xb
	.uleb128 0x3b
	.uleb128 0x5
	.uleb128 0x39
	.uleb128 0xb
	.uleb128 0x27
	.uleb128 0x19
	.uleb128 0x3c
	.uleb128 0x19
	.uleb128 0x1
	.uleb128 0x13
	.byte	0
	.byte	0
	.uleb128 0x34
	.uleb128 0x28
	.byte	0
	.uleb128 0x3
	.uleb128 0x8
	.uleb128 0x1c
	.uleb128 0xb
	.byte	0
	.byte	0
	.byte	0
	.section	.debug_aranges,"",@progbits
	.long	0x2c
	.value	0x2
	.long	.Ldebug_info0
	.byte	0x8
	.byte	0
	.value	0
	.value	0
	.quad	.Ltext0
	.quad	.Letext0-.Ltext0
	.quad	0
	.quad	0
	.section	.debug_line,"",@progbits
.Ldebug_line0:
	.section	.debug_str,"MS",@progbits,1
.LASF896:
	.string	"S_BSPI_RUN3"
.LASF897:
	.string	"S_BSPI_RUN4"
.LASF898:
	.string	"S_BSPI_RUN5"
.LASF899:
	.string	"S_BSPI_RUN6"
.LASF900:
	.string	"S_BSPI_RUN7"
.LASF901:
	.string	"S_BSPI_RUN8"
.LASF902:
	.string	"S_BSPI_RUN9"
.LASF186:
	.string	"SPR_YSKU"
.LASF1453:
	.string	"attacker"
.LASF549:
	.string	"S_FIRE10"
.LASF550:
	.string	"S_FIRE11"
.LASF551:
	.string	"S_FIRE12"
.LASF552:
	.string	"S_FIRE13"
.LASF553:
	.string	"S_FIRE14"
.LASF554:
	.string	"S_FIRE15"
.LASF555:
	.string	"S_FIRE16"
.LASF556:
	.string	"S_FIRE17"
.LASF41:
	.string	"_unused2"
.LASF558:
	.string	"S_FIRE19"
.LASF1370:
	.string	"MT_MISC84"
.LASF1530:
	.string	"fline_t"
.LASF1303:
	.string	"MT_MISC20"
.LASF1117:
	.string	"S_MEGA2"
.LASF27:
	.string	"_fileno"
.LASF1119:
	.string	"S_MEGA4"
.LASF1307:
	.string	"MT_MISC24"
.LASF1308:
	.string	"MT_MISC25"
.LASF1310:
	.string	"MT_MISC26"
.LASF1311:
	.string	"MT_MISC27"
.LASF1312:
	.string	"MT_MISC28"
.LASF1315:
	.string	"MT_MISC29"
.LASF748:
	.string	"S_SARG_PAIN2"
.LASF1418:
	.string	"threshold"
.LASF61:
	.string	"wp_pistol"
.LASF227:
	.string	"SPR_COL1"
.LASF228:
	.string	"SPR_COL2"
.LASF229:
	.string	"SPR_COL3"
.LASF230:
	.string	"SPR_COL4"
.LASF239:
	.string	"SPR_COL5"
.LASF233:
	.string	"SPR_COL6"
.LASF1581:
	.string	"Z_ChangeTag2"
.LASF559:
	.string	"S_FIRE20"
.LASF560:
	.string	"S_FIRE21"
.LASF561:
	.string	"S_FIRE22"
.LASF562:
	.string	"S_FIRE23"
.LASF563:
	.string	"S_FIRE24"
.LASF213:
	.string	"SPR_COLU"
.LASF565:
	.string	"S_FIRE26"
.LASF566:
	.string	"S_FIRE27"
.LASF567:
	.string	"S_FIRE28"
.LASF568:
	.string	"S_FIRE29"
.LASF1485:
	.string	"ST_POSITIVE"
.LASF1316:
	.string	"MT_MISC30"
.LASF1231:
	.string	"action"
.LASF1318:
	.string	"MT_MISC32"
.LASF1319:
	.string	"MT_MISC33"
.LASF910:
	.string	"S_BSPI_PAIN"
.LASF1321:
	.string	"MT_MISC35"
.LASF382:
	.string	"S_BFGEXP"
.LASF75:
	.string	"am_misl"
.LASF1324:
	.string	"MT_MISC38"
.LASF1325:
	.string	"MT_MISC39"
.LASF1464:
	.string	"floorpic"
.LASF912:
	.string	"S_BSPI_DIE1"
.LASF1641:
	.string	"AM_initVariables"
.LASF1496:
	.string	"NUMPSPRITES"
.LASF1586:
	.string	"FixedMul"
.LASF917:
	.string	"S_BSPI_DIE6"
.LASF613:
	.string	"S_SKEL_RAISE4"
.LASF1429:
	.string	"viewz"
.LASF808:
	.string	"S_BOSS_RAISE1"
.LASF809:
	.string	"S_BOSS_RAISE2"
.LASF1250:
	.string	"MT_HEAD"
.LASF810:
	.string	"S_BOSS_RAISE3"
.LASF569:
	.string	"S_FIRE30"
.LASF714:
	.string	"S_TROO_PAIN"
.LASF1003:
	.string	"S_SSWV_DIE1"
.LASF813:
	.string	"S_BOSS_RAISE6"
.LASF1005:
	.string	"S_SSWV_DIE3"
.LASF1006:
	.string	"S_SSWV_DIE4"
.LASF1007:
	.string	"S_SSWV_DIE5"
.LASF181:
	.string	"SPR_BKEY"
.LASF825:
	.string	"S_BOS2_ATK1"
.LASF826:
	.string	"S_BOS2_ATK2"
.LASF827:
	.string	"S_BOS2_ATK3"
.LASF215:
	.string	"SPR_GOR1"
.LASF222:
	.string	"SPR_GOR2"
.LASF32:
	.string	"_shortbuf"
.LASF224:
	.string	"SPR_GOR4"
.LASF225:
	.string	"SPR_GOR5"
.LASF1328:
	.string	"MT_MISC42"
.LASF1329:
	.string	"MT_MISC43"
.LASF582:
	.string	"S_SKEL_RUN1"
.LASF583:
	.string	"S_SKEL_RUN2"
.LASF584:
	.string	"S_SKEL_RUN3"
.LASF585:
	.string	"S_SKEL_RUN4"
.LASF586:
	.string	"S_SKEL_RUN5"
.LASF587:
	.string	"S_SKEL_RUN6"
.LASF588:
	.string	"S_SKEL_RUN7"
.LASF589:
	.string	"S_SKEL_RUN8"
.LASF590:
	.string	"S_SKEL_RUN9"
.LASF64:
	.string	"wp_missile"
.LASF1068:
	.string	"S_BEXP2"
.LASF1378:
	.string	"seestate"
.LASF763:
	.string	"S_HEAD_ATK1"
.LASF764:
	.string	"S_HEAD_ATK2"
.LASF765:
	.string	"S_HEAD_ATK3"
.LASF1479:
	.string	"slopetype"
.LASF1017:
	.string	"S_SSWV_RAISE1"
.LASF1018:
	.string	"S_SSWV_RAISE2"
.LASF1019:
	.string	"S_SSWV_RAISE3"
.LASF1020:
	.string	"S_SSWV_RAISE4"
.LASF1021:
	.string	"S_SSWV_RAISE5"
.LASF116:
	.string	"angle"
.LASF1245:
	.string	"MT_FATSHOT"
.LASF1633:
	.string	"lastepisode"
.LASF201:
	.string	"SPR_CELL"
.LASF1617:
	.string	"AM_Ticker"
.LASF202:
	.string	"SPR_CELP"
.LASF1183:
	.string	"S_HEARTCOL"
.LASF1474:
	.string	"linecount"
.LASF1425:
	.string	"numlines"
.LASF1100:
	.string	"S_MEDI"
.LASF1107:
	.string	"S_PINV"
.LASF1294:
	.string	"MT_INS"
.LASF1337:
	.string	"MT_MISC51"
.LASF1338:
	.string	"MT_MISC52"
.LASF1292:
	.string	"MT_INV"
.LASF1340:
	.string	"MT_MISC54"
.LASF1197:
	.string	"S_BTORCHSHRT"
.LASF318:
	.string	"S_MISSILEUP"
.LASF1343:
	.string	"MT_MISC57"
.LASF1344:
	.string	"MT_MISC58"
.LASF1345:
	.string	"MT_MISC59"
.LASF1538:
	.string	"thintriangle_guy"
.LASF495:
	.string	"S_SPOS_RAISE1"
.LASF1548:
	.string	"mtof_zoommul"
.LASF289:
	.string	"S_SGUNFLASH1"
.LASF290:
	.string	"S_SGUNFLASH2"
.LASF837:
	.string	"S_BOS2_RAISE1"
.LASF838:
	.string	"S_BOS2_RAISE2"
.LASF839:
	.string	"S_BOS2_RAISE3"
.LASF840:
	.string	"S_BOS2_RAISE4"
.LASF841:
	.string	"S_BOS2_RAISE5"
.LASF13:
	.string	"_flags"
.LASF843:
	.string	"S_BOS2_RAISE7"
.LASF602:
	.string	"S_SKEL_PAIN"
.LASF1089:
	.string	"S_RKEY"
.LASF50:
	.string	"next"
.LASF271:
	.string	"S_PISTOLUP"
.LASF957:
	.string	"S_CYBER_DIE8"
.LASF1636:
	.string	"AM_LevelInit"
.LASF11:
	.string	"__off_t"
.LASF1346:
	.string	"MT_MISC60"
.LASF1347:
	.string	"MT_MISC61"
.LASF1348:
	.string	"MT_MISC62"
.LASF1349:
	.string	"MT_MISC63"
.LASF1350:
	.string	"MT_MISC64"
.LASF1351:
	.string	"MT_MISC65"
.LASF1352:
	.string	"MT_MISC66"
.LASF1353:
	.string	"MT_MISC67"
.LASF386:
	.string	"S_EXPLODE1"
.LASF387:
	.string	"S_EXPLODE2"
.LASF388:
	.string	"S_EXPLODE3"
.LASF1598:
	.string	"lineguy"
.LASF577:
	.string	"S_TRACEEXP1"
.LASF578:
	.string	"S_TRACEEXP2"
.LASF579:
	.string	"S_TRACEEXP3"
.LASF965:
	.string	"S_PAIN_RUN5"
.LASF1067:
	.string	"S_BEXP"
.LASF966:
	.string	"S_PAIN_RUN6"
.LASF1454:
	.string	"extralight"
.LASF1184:
	.string	"S_HEARTCOL2"
.LASF363:
	.string	"S_RBALLX1"
.LASF1392:
	.string	"height"
.LASF1277:
	.string	"MT_TELEPORTMAN"
.LASF1528:
	.string	"playeringame"
.LASF33:
	.string	"_lock"
.LASF1545:
	.string	"lightlev"
.LASF1356:
	.string	"MT_MISC70"
.LASF146:
	.string	"SPR_IFOG"
.LASF1358:
	.string	"MT_MISC72"
.LASF1359:
	.string	"MT_MISC73"
.LASF1360:
	.string	"MT_MISC74"
.LASF1361:
	.string	"MT_MISC75"
.LASF1362:
	.string	"MT_MISC76"
.LASF1190:
	.string	"S_GREENTORCH2"
.LASF1191:
	.string	"S_GREENTORCH3"
.LASF1192:
	.string	"S_GREENTORCH4"
.LASF1031:
	.string	"S_COMMKEEN9"
.LASF680:
	.string	"S_CPOS_PAIN2"
.LASF903:
	.string	"S_BSPI_RUN10"
.LASF904:
	.string	"S_BSPI_RUN11"
.LASF905:
	.string	"S_BSPI_RUN12"
.LASF987:
	.string	"S_SSWV_RUN1"
.LASF988:
	.string	"S_SSWV_RUN2"
.LASF989:
	.string	"S_SSWV_RUN3"
.LASF990:
	.string	"S_SSWV_RUN4"
.LASF991:
	.string	"S_SSWV_RUN5"
.LASF992:
	.string	"S_SSWV_RUN6"
.LASF993:
	.string	"S_SSWV_RUN7"
.LASF994:
	.string	"S_SSWV_RUN8"
.LASF1172:
	.string	"S_SKULLCOL"
.LASF1244:
	.string	"MT_FATSO"
.LASF716:
	.string	"S_TROO_DIE1"
.LASF717:
	.string	"S_TROO_DIE2"
.LASF718:
	.string	"S_TROO_DIE3"
.LASF719:
	.string	"S_TROO_DIE4"
.LASF720:
	.string	"S_TROO_DIE5"
.LASF1639:
	.string	"AM_loadPics"
.LASF1097:
	.string	"S_YSKULL"
.LASF1098:
	.string	"S_YSKULL2"
.LASF199:
	.string	"SPR_ROCK"
.LASF1269:
	.string	"MT_ROCKET"
.LASF1367:
	.string	"MT_MISC81"
.LASF1368:
	.string	"MT_MISC82"
.LASF1369:
	.string	"MT_MISC83"
.LASF675:
	.string	"S_CPOS_ATK1"
.LASF676:
	.string	"S_CPOS_ATK2"
.LASF677:
	.string	"S_CPOS_ATK3"
.LASF678:
	.string	"S_CPOS_ATK4"
.LASF1236:
	.string	"MT_PLAYER"
.LASF211:
	.string	"SPR_SHOT"
.LASF404:
	.string	"S_IFOG2"
.LASF405:
	.string	"S_IFOG3"
.LASF406:
	.string	"S_IFOG4"
.LASF407:
	.string	"S_IFOG5"
.LASF140:
	.string	"SPR_PLSE"
.LASF132:
	.string	"SPR_PLSF"
.LASF131:
	.string	"SPR_PLSG"
.LASF1611:
	.string	"BOTTOM"
.LASF800:
	.string	"S_BOSS_PAIN2"
.LASF1525:
	.string	"consoleplayer"
.LASF500:
	.string	"S_VILE_STND"
.LASF1028:
	.string	"S_COMMKEEN6"
.LASF1029:
	.string	"S_COMMKEEN7"
.LASF1512:
	.string	"numsectors"
.LASF1030:
	.string	"S_COMMKEEN8"
.LASF139:
	.string	"SPR_PLSS"
.LASF879:
	.string	"S_SPID_PAIN2"
.LASF1393:
	.string	"mass"
.LASF252:
	.string	"SPR_POB1"
.LASF253:
	.string	"SPR_POB2"
.LASF1101:
	.string	"S_SOUL"
.LASF1111:
	.string	"S_PSTR"
.LASF1561:
	.string	"max_scale_mtof"
.LASF1638:
	.string	"AM_unloadPics"
.LASF943:
	.string	"S_CYBER_ATK1"
.LASF944:
	.string	"S_CYBER_ATK2"
.LASF945:
	.string	"S_CYBER_ATK3"
.LASF946:
	.string	"S_CYBER_ATK4"
.LASF947:
	.string	"S_CYBER_ATK5"
.LASF948:
	.string	"S_CYBER_ATK6"
.LASF1138:
	.string	"S_BFUG"
.LASF178:
	.string	"SPR_FCAN"
.LASF1488:
	.string	"line_t"
.LASF621:
	.string	"S_FATT_STND"
.LASF1058:
	.string	"S_BRAINEXPLODE1"
.LASF1059:
	.string	"S_BRAINEXPLODE2"
.LASF1060:
	.string	"S_BRAINEXPLODE3"
.LASF1532:
	.string	"mline_t"
.LASF342:
	.string	"S_BFGUP"
.LASF183:
	.string	"SPR_YKEY"
.LASF729:
	.string	"S_TROO_RAISE1"
.LASF730:
	.string	"S_TROO_RAISE2"
.LASF731:
	.string	"S_TROO_RAISE3"
.LASF732:
	.string	"S_TROO_RAISE4"
.LASF733:
	.string	"S_TROO_RAISE5"
.LASF1142:
	.string	"S_PLAS"
.LASF1024:
	.string	"S_COMMKEEN2"
.LASF1025:
	.string	"S_COMMKEEN3"
.LASF1026:
	.string	"S_COMMKEEN4"
.LASF1027:
	.string	"S_COMMKEEN5"
.LASF408:
	.string	"S_PLAY"
.LASF974:
	.string	"S_PAIN_DIE2"
.LASF975:
	.string	"S_PAIN_DIE3"
.LASF976:
	.string	"S_PAIN_DIE4"
.LASF977:
	.string	"S_PAIN_DIE5"
.LASF978:
	.string	"S_PAIN_DIE6"
.LASF1247:
	.string	"MT_TROOP"
.LASF529:
	.string	"S_VILE_PAIN2"
.LASF657:
	.string	"S_FATT_RAISE1"
.LASF65:
	.string	"wp_plasma"
.LASF659:
	.string	"S_FATT_RAISE3"
.LASF660:
	.string	"S_FATT_RAISE4"
.LASF661:
	.string	"S_FATT_RAISE5"
.LASF662:
	.string	"S_FATT_RAISE6"
.LASF19:
	.string	"_IO_write_end"
.LASF664:
	.string	"S_FATT_RAISE8"
.LASF373:
	.string	"S_ROCKET"
.LASF1268:
	.string	"MT_HEADSHOT"
.LASF1477:
	.string	"sidenum"
.LASF926:
	.string	"S_ARACH_PLAZ"
.LASF1165:
	.string	"S_STALAGTITE"
.LASF767:
	.string	"S_HEAD_PAIN2"
.LASF768:
	.string	"S_HEAD_PAIN3"
.LASF88:
	.string	"byte"
.LASF1609:
	.string	"LEFT"
.LASF1593:
	.string	"colorrange"
.LASF58:
	.string	"it_redskull"
.LASF1275:
	.string	"MT_TFOG"
.LASF476:
	.string	"S_SPOS_ATK1"
.LASF477:
	.string	"S_SPOS_ATK2"
.LASF478:
	.string	"S_SPOS_ATK3"
.LASF413:
	.string	"S_PLAY_ATK1"
.LASF414:
	.string	"S_PLAY_ATK2"
.LASF166:
	.string	"SPR_APLS"
.LASF1568:
	.string	"scale_ftom"
.LASF103:
	.string	"finesine"
.LASF1446:
	.string	"refire"
.LASF98:
	.string	"event_t"
.LASF1194:
	.string	"S_REDTORCH2"
.LASF1195:
	.string	"S_REDTORCH3"
.LASF1196:
	.string	"S_REDTORCH4"
.LASF703:
	.string	"S_TROO_RUN1"
.LASF704:
	.string	"S_TROO_RUN2"
.LASF705:
	.string	"S_TROO_RUN3"
.LASF706:
	.string	"S_TROO_RUN4"
.LASF707:
	.string	"S_TROO_RUN5"
.LASF708:
	.string	"S_TROO_RUN6"
.LASF709:
	.string	"S_TROO_RUN7"
.LASF710:
	.string	"S_TROO_RUN8"
.LASF90:
	.string	"ev_keyup"
.LASF1589:
	.string	"AM_drawMarks"
.LASF157:
	.string	"SPR_CPOS"
.LASF618:
	.string	"S_FATSHOTX1"
.LASF619:
	.string	"S_FATSHOTX2"
.LASF620:
	.string	"S_FATSHOTX3"
.LASF698:
	.string	"S_CPOS_RAISE5"
.LASF699:
	.string	"S_CPOS_RAISE6"
.LASF700:
	.string	"S_CPOS_RAISE7"
.LASF60:
	.string	"wp_fist"
.LASF1386:
	.string	"missilestate"
.LASF187:
	.string	"SPR_STIM"
.LASF1603:
	.string	"AM_drawWalls"
.LASF1511:
	.string	"vertexes"
.LASF734:
	.string	"S_SARG_STND"
.LASF959:
	.string	"S_CYBER_DIE10"
.LASF137:
	.string	"SPR_BAL1"
.LASF138:
	.string	"SPR_BAL2"
.LASF1634:
	.string	"AM_Stop"
.LASF160:
	.string	"SPR_BAL7"
.LASF1412:
	.string	"info"
.LASF1153:
	.string	"S_HEADSONSTICK"
.LASF1516:
	.string	"sequence"
.LASF1407:
	.string	"ceilingz"
.LASF610:
	.string	"S_SKEL_RAISE1"
.LASF125:
	.string	"SPR_SHT2"
.LASF264:
	.string	"S_PUNCH1"
.LASF265:
	.string	"S_PUNCH2"
.LASF266:
	.string	"S_PUNCH3"
.LASF267:
	.string	"S_PUNCH4"
.LASF268:
	.string	"S_PUNCH5"
.LASF627:
	.string	"S_FATT_RUN5"
.LASF263:
	.string	"S_PUNCHUP"
.LASF880:
	.string	"S_SPID_DIE1"
.LASF631:
	.string	"S_FATT_RUN9"
.LASF882:
	.string	"S_SPID_DIE3"
.LASF883:
	.string	"S_SPID_DIE4"
.LASF124:
	.string	"SPR_SHTF"
.LASF120:
	.string	"SPR_SHTG"
.LASF402:
	.string	"S_IFOG01"
.LASF403:
	.string	"S_IFOG02"
.LASF888:
	.string	"S_SPID_DIE9"
.LASF1130:
	.string	"S_AMMO"
.LASF1546:
	.string	"amclock"
.LASF91:
	.string	"ev_mouse"
.LASF76:
	.string	"NUMAMMO"
.LASF1602:
	.string	"tmpx"
.LASF961:
	.string	"S_PAIN_RUN1"
.LASF962:
	.string	"S_PAIN_RUN2"
.LASF963:
	.string	"S_PAIN_RUN3"
.LASF964:
	.string	"S_PAIN_RUN4"
.LASF246:
	.string	"SPR_HDB1"
.LASF247:
	.string	"SPR_HDB2"
.LASF248:
	.string	"SPR_HDB3"
.LASF249:
	.string	"SPR_HDB4"
.LASF250:
	.string	"SPR_HDB5"
.LASF251:
	.string	"SPR_HDB6"
.LASF1237:
	.string	"MT_POSSESSED"
.LASF296:
	.string	"S_DSGUN3"
.LASF297:
	.string	"S_DSGUN4"
.LASF94:
	.string	"type"
.LASF1515:
	.string	"bmaporgy"
.LASF316:
	.string	"S_MISSILE"
.LASF1640:
	.string	"namebuf"
.LASF1144:
	.string	"S_SHOT2"
.LASF1211:
	.string	"S_HANGTLOOKDN"
.LASF1415:
	.string	"movedir"
.LASF688:
	.string	"S_CPOS_XDIE1"
.LASF1584:
	.string	"sprintf"
.LASF111:
	.string	"actionf_t"
.LASF106:
	.string	"actionf_v"
.LASF207:
	.string	"SPR_MGUN"
.LASF1249:
	.string	"MT_SHADOWS"
.LASF591:
	.string	"S_SKEL_RUN10"
.LASF592:
	.string	"S_SKEL_RUN11"
.LASF593:
	.string	"S_SKEL_RUN12"
.LASF259:
	.string	"S_NULL"
.LASF801:
	.string	"S_BOSS_DIE1"
.LASF802:
	.string	"S_BOSS_DIE2"
.LASF803:
	.string	"S_BOSS_DIE3"
.LASF804:
	.string	"S_BOSS_DIE4"
.LASF805:
	.string	"S_BOSS_DIE5"
.LASF806:
	.string	"S_BOSS_DIE6"
.LASF807:
	.string	"S_BOSS_DIE7"
.LASF971:
	.string	"S_PAIN_PAIN"
.LASF340:
	.string	"S_BFG"
.LASF1384:
	.string	"painsound"
.LASF1621:
	.string	"litelevelscnt"
.LASF1509:
	.string	"player_t"
.LASF1467:
	.string	"special"
.LASF986:
	.string	"S_SSWV_STND2"
.LASF208:
	.string	"SPR_CSAW"
.LASF1121:
	.string	"S_PMAP"
.LASF26:
	.string	"_chain"
.LASF1127:
	.string	"S_PVIS"
.LASF341:
	.string	"S_BFGDOWN"
.LASF1261:
	.string	"MT_BOSSBRAIN"
.LASF154:
	.string	"SPR_SKEL"
.LASF336:
	.string	"S_PLASMA1"
.LASF337:
	.string	"S_PLASMA2"
.LASF1201:
	.string	"S_GTORCHSHRT"
.LASF1426:
	.string	"firstline"
.LASF1135:
	.string	"S_SHEL"
.LASF1623:
	.string	"AM_changeWindowScale"
.LASF892:
	.string	"S_BSPI_STND2"
.LASF5:
	.string	"unsigned char"
.LASF152:
	.string	"SPR_FATB"
.LASF257:
	.string	"NUMSPRITES"
.LASF375:
	.string	"S_BFGSHOT2"
.LASF156:
	.string	"SPR_FATT"
.LASF1102:
	.string	"S_SOUL2"
.LASF1103:
	.string	"S_SOUL3"
.LASF1104:
	.string	"S_SOUL4"
.LASF1105:
	.string	"S_SOUL5"
.LASF1106:
	.string	"S_SOUL6"
.LASF1651:
	.string	"_IO_lock_t"
.LASF862:
	.string	"S_SPID_RUN1"
.LASF863:
	.string	"S_SPID_RUN2"
.LASF864:
	.string	"S_SPID_RUN3"
.LASF865:
	.string	"S_SPID_RUN4"
.LASF866:
	.string	"S_SPID_RUN5"
.LASF867:
	.string	"S_SPID_RUN6"
.LASF868:
	.string	"S_SPID_RUN7"
.LASF869:
	.string	"S_SPID_RUN8"
.LASF99:
	.string	"float"
.LASF1069:
	.string	"S_BEXP3"
.LASF1070:
	.string	"S_BEXP4"
.LASF1158:
	.string	"S_DEADSTICK"
.LASF1455:
	.string	"fixedcolormap"
.LASF1440:
	.string	"weaponowned"
.LASF1278:
	.string	"MT_EXTRABFG"
.LASF448:
	.string	"S_POSS_DIE1"
.LASF449:
	.string	"S_POSS_DIE2"
.LASF450:
	.string	"S_POSS_DIE3"
.LASF451:
	.string	"S_POSS_DIE4"
.LASF452:
	.string	"S_POSS_DIE5"
.LASF278:
	.string	"S_SGUNDOWN"
.LASF127:
	.string	"SPR_CHGF"
.LASF126:
	.string	"SPR_CHGG"
.LASF1645:
	.string	"AM_addMark"
.LASF671:
	.string	"S_CPOS_RUN5"
.LASF930:
	.string	"S_ARACH_PLEX3"
.LASF672:
	.string	"S_CPOS_RUN6"
.LASF932:
	.string	"S_ARACH_PLEX5"
.LASF673:
	.string	"S_CPOS_RUN7"
.LASF1417:
	.string	"target"
.LASF237:
	.string	"SPR_CEYE"
.LASF1544:
	.string	"finit_height"
.LASF1483:
	.string	"ST_HORIZONTAL"
.LASF1590:
	.string	"AM_drawThings"
.LASF979:
	.string	"S_PAIN_RAISE1"
.LASF980:
	.string	"S_PAIN_RAISE2"
.LASF981:
	.string	"S_PAIN_RAISE3"
.LASF982:
	.string	"S_PAIN_RAISE4"
.LASF983:
	.string	"S_PAIN_RAISE5"
.LASF616:
	.string	"S_FATSHOT1"
.LASF617:
	.string	"S_FATSHOT2"
.LASF1484:
	.string	"ST_VERTICAL"
.LASF194:
	.string	"SPR_SUIT"
.LASF844:
	.string	"S_SKULL_STND"
.LASF878:
	.string	"S_SPID_PAIN"
.LASF1373:
	.string	"NUMMOBJTYPES"
.LASF176:
	.string	"SPR_BAR1"
.LASF1588:
	.string	"AM_drawCrosshair"
.LASF291:
	.string	"S_DSGUN"
.LASF1170:
	.string	"S_CANDLESTIK"
.LASF82:
	.string	"pw_allmap"
.LASF1226:
	.string	"NUMSTATES"
.LASF870:
	.string	"S_SPID_RUN9"
.LASF356:
	.string	"S_TBALL1"
.LASF357:
	.string	"S_TBALL2"
.LASF570:
	.string	"S_SMOKE1"
.LASF571:
	.string	"S_SMOKE2"
.LASF572:
	.string	"S_SMOKE3"
.LASF573:
	.string	"S_SMOKE4"
.LASF574:
	.string	"S_SMOKE5"
.LASF793:
	.string	"S_BOSS_RUN6"
.LASF794:
	.string	"S_BOSS_RUN7"
.LASF795:
	.string	"S_BOSS_RUN8"
.LASF159:
	.string	"SPR_HEAD"
.LASF1647:
	.string	"AM_saveScaleAndLoc"
.LASF1404:
	.string	"bprev"
.LASF220:
	.string	"SPR_POL1"
.LASF216:
	.string	"SPR_POL2"
.LASF219:
	.string	"SPR_POL3"
.LASF218:
	.string	"SPR_POL4"
.LASF217:
	.string	"SPR_POL5"
.LASF221:
	.string	"SPR_POL6"
.LASF1521:
	.string	"netgame"
.LASF1065:
	.string	"S_BAR1"
.LASF1163:
	.string	"S_MEAT4"
.LASF557:
	.string	"S_FIRE18"
.LASF1279:
	.string	"MT_MISC0"
.LASF1151:
	.string	"S_DEADTORSO"
.LASF1649:
	.string	"AM_getIslope"
.LASF293:
	.string	"S_DSGUNUP"
.LASF1574:
	.string	"cheat_amap"
.LASF1376:
	.string	"spawnstate"
.LASF702:
	.string	"S_TROO_STND2"
.LASF1222:
	.string	"S_TECH2LAMP"
.LASF1399:
	.string	"mobj_s"
.LASF1529:
	.string	"fpoint_t"
.LASF1265:
	.string	"MT_SPAWNFIRE"
.LASF1240:
	.string	"MT_FIRE"
.LASF1232:
	.string	"nextstate"
.LASF1520:
	.string	"gamemap"
.LASF799:
	.string	"S_BOSS_PAIN"
.LASF170:
	.string	"SPR_SSWV"
.LASF18:
	.string	"_IO_write_ptr"
.LASF1629:
	.string	"AM_maxOutWindowScale"
.LASF1208:
	.string	"S_RTORCHSHRT4"
.LASF361:
	.string	"S_RBALL1"
.LASF362:
	.string	"S_RBALL2"
.LASF1408:
	.string	"momx"
.LASF1166:
	.string	"S_TALLGRNCOL"
.LASF1420:
	.string	"lastlook"
.LASF1508:
	.string	"playerstate_t"
.LASF1155:
	.string	"S_HEADONASTICK"
.LASF435:
	.string	"S_POSS_RUN1"
.LASF377:
	.string	"S_BFGLAND2"
.LASF378:
	.string	"S_BFGLAND3"
.LASF379:
	.string	"S_BFGLAND4"
.LASF380:
	.string	"S_BFGLAND5"
.LASF381:
	.string	"S_BFGLAND6"
.LASF441:
	.string	"S_POSS_RUN7"
.LASF442:
	.string	"S_POSS_RUN8"
.LASF424:
	.string	"S_PLAY_XDIE1"
.LASF425:
	.string	"S_PLAY_XDIE2"
.LASF426:
	.string	"S_PLAY_XDIE3"
.LASF427:
	.string	"S_PLAY_XDIE4"
.LASF428:
	.string	"S_PLAY_XDIE5"
.LASF429:
	.string	"S_PLAY_XDIE6"
.LASF430:
	.string	"S_PLAY_XDIE7"
.LASF431:
	.string	"S_PLAY_XDIE8"
.LASF432:
	.string	"S_PLAY_XDIE9"
.LASF830:
	.string	"S_BOS2_DIE1"
.LASF831:
	.string	"S_BOS2_DIE2"
.LASF832:
	.string	"S_BOS2_DIE3"
.LASF833:
	.string	"S_BOS2_DIE4"
.LASF834:
	.string	"S_BOS2_DIE5"
.LASF835:
	.string	"S_BOS2_DIE6"
.LASF836:
	.string	"S_BOS2_DIE7"
.LASF1396:
	.string	"flags"
.LASF756:
	.string	"S_SARG_RAISE2"
.LASF757:
	.string	"S_SARG_RAISE3"
.LASF400:
	.string	"S_TFOG10"
.LASF758:
	.string	"S_SARG_RAISE4"
.LASF453:
	.string	"S_POSS_XDIE1"
.LASF454:
	.string	"S_POSS_XDIE2"
.LASF455:
	.string	"S_POSS_XDIE3"
.LASF456:
	.string	"S_POSS_XDIE4"
.LASF457:
	.string	"S_POSS_XDIE5"
.LASF458:
	.string	"S_POSS_XDIE6"
.LASF459:
	.string	"S_POSS_XDIE7"
.LASF72:
	.string	"am_clip"
.LASF461:
	.string	"S_POSS_XDIE9"
.LASF1154:
	.string	"S_GIBS"
.LASF769:
	.string	"S_HEAD_DIE1"
.LASF770:
	.string	"S_HEAD_DIE2"
.LASF771:
	.string	"S_HEAD_DIE3"
.LASF772:
	.string	"S_HEAD_DIE4"
.LASF773:
	.string	"S_HEAD_DIE5"
.LASF48:
	.string	"size"
.LASF622:
	.string	"S_FATT_STND2"
.LASF1145:
	.string	"S_COLU"
.LASF272:
	.string	"S_PISTOL1"
.LASF273:
	.string	"S_PISTOL2"
.LASF274:
	.string	"S_PISTOL3"
.LASF275:
	.string	"S_PISTOL4"
.LASF611:
	.string	"S_SKEL_RAISE2"
.LASF612:
	.string	"S_SKEL_RAISE3"
.LASF42:
	.string	"FILE"
.LASF614:
	.string	"S_SKEL_RAISE5"
.LASF615:
	.string	"S_SKEL_RAISE6"
.LASF1174:
	.string	"S_BIGTREE"
.LASF1565:
	.string	"old_m_y"
.LASF1542:
	.string	"leveljuststarted"
.LASF1486:
	.string	"ST_NEGATIVE"
.LASF1563:
	.string	"old_m_h"
.LASF1084:
	.string	"S_BON2C"
.LASF1085:
	.string	"S_BON2D"
.LASF390:
	.string	"S_TFOG01"
.LASF391:
	.string	"S_TFOG02"
.LASF209:
	.string	"SPR_LAUN"
.LASF446:
	.string	"S_POSS_PAIN"
.LASF740:
	.string	"S_SARG_RUN5"
.LASF741:
	.string	"S_SARG_RUN6"
.LASF1243:
	.string	"MT_SMOKE"
.LASF1257:
	.string	"MT_CYBORG"
.LASF1394:
	.string	"damage"
.LASF486:
	.string	"S_SPOS_XDIE1"
.LASF487:
	.string	"S_SPOS_XDIE2"
.LASF488:
	.string	"S_SPOS_XDIE3"
.LASF489:
	.string	"S_SPOS_XDIE4"
.LASF490:
	.string	"S_SPOS_XDIE5"
.LASF491:
	.string	"S_SPOS_XDIE6"
.LASF492:
	.string	"S_SPOS_XDIE7"
.LASF493:
	.string	"S_SPOS_XDIE8"
.LASF494:
	.string	"S_SPOS_XDIE9"
.LASF10:
	.string	"size_t"
.LASF1223:
	.string	"S_TECH2LAMP2"
.LASF1459:
	.string	"mobj_t"
.LASF1087:
	.string	"S_BKEY"
.LASF80:
	.string	"pw_invisibility"
.LASF1625:
	.string	"AM_Responder"
.LASF174:
	.string	"SPR_ARM1"
.LASF175:
	.string	"SPR_ARM2"
.LASF1239:
	.string	"MT_VILE"
.LASF56:
	.string	"it_blueskull"
.LASF1471:
	.string	"soundorg"
.LASF1564:
	.string	"old_m_x"
.LASF334:
	.string	"S_PLASMADOWN"
.LASF646:
	.string	"S_FATT_PAIN2"
.LASF1044:
	.string	"S_BRAINEYESEE"
.LASF1487:
	.string	"slopetype_t"
.LASF581:
	.string	"S_SKEL_STND2"
.LASF934:
	.string	"S_CYBER_STND2"
.LASF1235:
	.string	"state_t"
.LASF778:
	.string	"S_HEAD_RAISE4"
.LASF1004:
	.string	"S_SSWV_DIE2"
.LASF460:
	.string	"S_POSS_XDIE8"
.LASF1134:
	.string	"S_CELP"
.LASF1562:
	.string	"old_m_w"
.LASF1176:
	.string	"S_EVILEYE"
.LASF1202:
	.string	"S_GTORCHSHRT2"
.LASF1203:
	.string	"S_GTORCHSHRT3"
.LASF1204:
	.string	"S_GTORCHSHRT4"
.LASF781:
	.string	"S_BRBALL1"
.LASF782:
	.string	"S_BRBALL2"
.LASF1430:
	.string	"viewheight"
.LASF1403:
	.string	"bnext"
.LASF22:
	.string	"_IO_save_base"
.LASF635:
	.string	"S_FATT_ATK1"
.LASF168:
	.string	"SPR_CYBR"
.LASF636:
	.string	"S_FATT_ATK2"
.LASF539:
	.string	"S_VILE_DIE10"
.LASF129:
	.string	"SPR_MISF"
.LASF128:
	.string	"SPR_MISG"
.LASF1522:
	.string	"deathmatch"
.LASF141:
	.string	"SPR_MISL"
.LASF1093:
	.string	"S_BSKULL"
.LASF172:
	.string	"SPR_BBRN"
.LASF514:
	.string	"S_VILE_ATK1"
.LASF515:
	.string	"S_VILE_ATK2"
.LASF516:
	.string	"S_VILE_ATK3"
.LASF517:
	.string	"S_VILE_ATK4"
.LASF518:
	.string	"S_VILE_ATK5"
.LASF519:
	.string	"S_VILE_ATK6"
.LASF520:
	.string	"S_VILE_ATK7"
.LASF261:
	.string	"S_PUNCH"
.LASF522:
	.string	"S_VILE_ATK9"
.LASF243:
	.string	"SPR_SMBT"
.LASF817:
	.string	"S_BOS2_RUN1"
.LASF818:
	.string	"S_BOS2_RUN2"
.LASF819:
	.string	"S_BOS2_RUN3"
.LASF820:
	.string	"S_BOS2_RUN4"
.LASF821:
	.string	"S_BOS2_RUN5"
.LASF822:
	.string	"S_BOS2_RUN6"
.LASF823:
	.string	"S_BOS2_RUN7"
.LASF824:
	.string	"S_BOS2_RUN8"
.LASF1466:
	.string	"lightlevel"
.LASF1648:
	.string	"AM_activateNewScale"
.LASF234:
	.string	"SPR_TRE1"
.LASF235:
	.string	"SPR_TRE2"
.LASF891:
	.string	"S_BSPI_STND"
.LASF1618:
	.string	"AM_updateLightLev"
.LASF1385:
	.string	"meleestate"
.LASF1441:
	.string	"ammo"
.LASF681:
	.string	"S_CPOS_DIE1"
.LASF242:
	.string	"SPR_TRED"
.LASF135:
	.string	"SPR_BLUD"
.LASF637:
	.string	"S_FATT_ATK3"
.LASF638:
	.string	"S_FATT_ATK4"
.LASF639:
	.string	"S_FATT_ATK5"
.LASF640:
	.string	"S_FATT_ATK6"
.LASF641:
	.string	"S_FATT_ATK7"
.LASF642:
	.string	"S_FATT_ATK8"
.LASF643:
	.string	"S_FATT_ATK9"
.LASF145:
	.string	"SPR_TFOG"
.LASF349:
	.string	"S_BLOOD1"
.LASF350:
	.string	"S_BLOOD2"
.LASF351:
	.string	"S_BLOOD3"
.LASF1535:
	.string	"player_arrow"
.LASF1233:
	.string	"misc1"
.LASF1234:
	.string	"misc2"
.LASF1500:
	.string	"angleturn"
.LASF36:
	.string	"_wide_data"
.LASF1141:
	.string	"S_LAUN"
.LASF401:
	.string	"S_IFOG"
.LASF148:
	.string	"SPR_POSS"
.LASF153:
	.string	"SPR_FBXP"
.LASF1533:
	.string	"islp"
.LASF950:
	.string	"S_CYBER_DIE1"
.LASF951:
	.string	"S_CYBER_DIE2"
.LASF952:
	.string	"S_CYBER_DIE3"
.LASF953:
	.string	"S_CYBER_DIE4"
.LASF954:
	.string	"S_CYBER_DIE5"
.LASF955:
	.string	"S_CYBER_DIE6"
.LASF956:
	.string	"S_CYBER_DIE7"
.LASF828:
	.string	"S_BOS2_PAIN"
.LASF958:
	.string	"S_CYBER_DIE9"
.LASF1421:
	.string	"spawnpoint"
.LASF1228:
	.string	"sprite"
.LASF1608:
	.string	"fuck"
.LASF1575:
	.string	"stopped"
.LASF1306:
	.string	"MT_MISC23"
.LASF1493:
	.string	"patch_t"
.LASF1171:
	.string	"S_CANDELABRA"
.LASF511:
	.string	"S_VILE_RUN10"
.LASF512:
	.string	"S_VILE_RUN11"
.LASF513:
	.string	"S_VILE_RUN12"
.LASF1131:
	.string	"S_ROCK"
.LASF280:
	.string	"S_SGUN1"
.LASF281:
	.string	"S_SGUN2"
.LASF282:
	.string	"S_SGUN3"
.LASF283:
	.string	"S_SGUN4"
.LASF284:
	.string	"S_SGUN5"
.LASF285:
	.string	"S_SGUN6"
.LASF286:
	.string	"S_SGUN7"
.LASF287:
	.string	"S_SGUN8"
.LASF288:
	.string	"S_SGUN9"
.LASF1375:
	.string	"doomednum"
.LASF277:
	.string	"S_SGUN"
.LASF1524:
	.string	"viewactive"
.LASF1607:
	.string	"AM_drawFline"
.LASF1167:
	.string	"S_SHRTGRNCOL"
.LASF852:
	.string	"S_SKULL_PAIN"
.LASF1264:
	.string	"MT_SPAWNSHOT"
.LASF576:
	.string	"S_TRACER2"
.LASF1175:
	.string	"S_TECHPILLAR"
.LASF580:
	.string	"S_SKEL_STND"
.LASF735:
	.string	"S_SARG_STND2"
.LASF481:
	.string	"S_SPOS_DIE1"
.LASF482:
	.string	"S_SPOS_DIE2"
.LASF483:
	.string	"S_SPOS_DIE3"
.LASF484:
	.string	"S_SPOS_DIE4"
.LASF485:
	.string	"S_SPOS_DIE5"
.LASF1507:
	.string	"PST_REBORN"
.LASF1210:
	.string	"S_HANGBNOBRAIN"
.LASF744:
	.string	"S_SARG_ATK1"
.LASF745:
	.string	"S_SARG_ATK2"
.LASF746:
	.string	"S_SARG_ATK3"
.LASF1573:
	.string	"cheat_amap_seq"
.LASF335:
	.string	"S_PLASMAUP"
.LASF1534:
	.string	"islope_t"
.LASF1230:
	.string	"tics"
.LASF1578:
	.string	"fprintf"
.LASF1091:
	.string	"S_YKEY"
.LASF1390:
	.string	"speed"
.LASF1571:
	.string	"markpointnum"
.LASF304:
	.string	"S_DSNR1"
.LASF973:
	.string	"S_PAIN_DIE1"
.LASF503:
	.string	"S_VILE_RUN2"
.LASF1221:
	.string	"S_TECHLAMP4"
.LASF667:
	.string	"S_CPOS_RUN1"
.LASF668:
	.string	"S_CPOS_RUN2"
.LASF669:
	.string	"S_CPOS_RUN3"
.LASF670:
	.string	"S_CPOS_RUN4"
.LASF107:
	.string	"actionf_p1"
.LASF108:
	.string	"actionf_p2"
.LASF205:
	.string	"SPR_BPAK"
.LASF674:
	.string	"S_CPOS_RUN8"
.LASF1071:
	.string	"S_BEXP5"
.LASF118:
	.string	"mapthing_t"
.LASF436:
	.string	"S_POSS_RUN2"
.LASF437:
	.string	"S_POSS_RUN3"
.LASF438:
	.string	"S_POSS_RUN4"
.LASF755:
	.string	"S_SARG_RAISE1"
.LASF439:
	.string	"S_POSS_RUN5"
.LASF109:
	.string	"acp1"
.LASF110:
	.string	"acp2"
.LASF759:
	.string	"S_SARG_RAISE5"
.LASF760:
	.string	"S_SARG_RAISE6"
.LASF1339:
	.string	"MT_MISC53"
.LASF244:
	.string	"SPR_SMGT"
.LASF1035:
	.string	"S_KEENPAIN"
.LASF383:
	.string	"S_BFGEXP2"
.LASF384:
	.string	"S_BFGEXP3"
.LASF385:
	.string	"S_BFGEXP4"
.LASF314:
	.string	"S_CHAINFLASH1"
.LASF315:
	.string	"S_CHAINFLASH2"
.LASF270:
	.string	"S_PISTOLDOWN"
.LASF47:
	.string	"memblock_s"
.LASF52:
	.string	"memblock_t"
.LASF935:
	.string	"S_CYBER_RUN1"
.LASF936:
	.string	"S_CYBER_RUN2"
.LASF937:
	.string	"S_CYBER_RUN3"
.LASF938:
	.string	"S_CYBER_RUN4"
.LASF939:
	.string	"S_CYBER_RUN5"
.LASF940:
	.string	"S_CYBER_RUN6"
.LASF941:
	.string	"S_CYBER_RUN7"
.LASF942:
	.string	"S_CYBER_RUN8"
.LASF1379:
	.string	"seesound"
.LASF1122:
	.string	"S_PMAP2"
.LASF1123:
	.string	"S_PMAP3"
.LASF1124:
	.string	"S_PMAP4"
.LASF1125:
	.string	"S_PMAP5"
.LASF1126:
	.string	"S_PMAP6"
.LASF1452:
	.string	"bonuscount"
.LASF853:
	.string	"S_SKULL_PAIN2"
.LASF1383:
	.string	"painchance"
.LASF679:
	.string	"S_CPOS_PAIN"
.LASF1463:
	.string	"ceilingheight"
.LASF158:
	.string	"SPR_SARG"
.LASF1597:
	.string	"AM_drawLineCharacter"
.LASF984:
	.string	"S_PAIN_RAISE6"
.LASF1473:
	.string	"specialdata"
.LASF1322:
	.string	"MT_MISC36"
.LASF788:
	.string	"S_BOSS_RUN1"
.LASF789:
	.string	"S_BOSS_RUN2"
.LASF790:
	.string	"S_BOSS_RUN3"
.LASF791:
	.string	"S_BOSS_RUN4"
.LASF792:
	.string	"S_BOSS_RUN5"
.LASF310:
	.string	"S_CHAINUP"
.LASF1650:
	.string	"GNU C17 13.3.0 -mtune=generic -march=x86-64 -g -fasynchronous-unwind-tables -fstack-protector-strong -fstack-clash-protection -fcf-protection"
.LASF1447:
	.string	"killcount"
.LASF929:
	.string	"S_ARACH_PLEX2"
.LASF1173:
	.string	"S_TORCHTREE"
.LASF985:
	.string	"S_SSWV_STND"
.LASF931:
	.string	"S_ARACH_PLEX4"
.LASF1540:
	.string	"cheating"
.LASF1032:
	.string	"S_COMMKEEN10"
.LASF1033:
	.string	"S_COMMKEEN11"
.LASF1034:
	.string	"S_COMMKEEN12"
.LASF949:
	.string	"S_CYBER_PAIN"
.LASF102:
	.string	"stderr"
.LASF468:
	.string	"S_SPOS_RUN1"
.LASF226:
	.string	"SPR_SMIT"
.LASF87:
	.string	"boolean"
.LASF471:
	.string	"S_SPOS_RUN4"
.LASF472:
	.string	"S_SPOS_RUN5"
.LASF163:
	.string	"SPR_SKUL"
.LASF474:
	.string	"S_SPOS_RUN7"
.LASF475:
	.string	"S_SPOS_RUN8"
.LASF1132:
	.string	"S_BROK"
.LASF1377:
	.string	"spawnhealth"
.LASF262:
	.string	"S_PUNCHDOWN"
.LASF928:
	.string	"S_ARACH_PLEX"
.LASF1189:
	.string	"S_GREENTORCH"
.LASF68:
	.string	"wp_supershotgun"
.LASF328:
	.string	"S_SAWDOWN"
.LASF24:
	.string	"_IO_save_end"
.LASF1632:
	.string	"lastlevel"
.LASF1537:
	.string	"triangle_guy"
.LASF1227:
	.string	"statenum_t"
.LASF1267:
	.string	"MT_TROOPSHOT"
.LASF1252:
	.string	"MT_BRUISERSHOT"
.LASF1504:
	.string	"ticcmd_t"
.LASF1372:
	.string	"MT_MISC86"
.LASF933:
	.string	"S_CYBER_STND"
.LASF416:
	.string	"S_PLAY_PAIN2"
.LASF811:
	.string	"S_BOSS_RAISE4"
.LASF812:
	.string	"S_BOSS_RAISE5"
.LASF1229:
	.string	"frame"
.LASF155:
	.string	"SPR_MANF"
.LASF666:
	.string	"S_CPOS_STND2"
.LASF479:
	.string	"S_SPOS_PAIN"
.LASF62:
	.string	"wp_shotgun"
.LASF447:
	.string	"S_POSS_PAIN2"
.LASF1273:
	.string	"MT_PUFF"
.LASF319:
	.string	"S_MISSILE1"
.LASF320:
	.string	"S_MISSILE2"
.LASF321:
	.string	"S_MISSILE3"
.LASF695:
	.string	"S_CPOS_RAISE2"
.LASF696:
	.string	"S_CPOS_RAISE3"
.LASF697:
	.string	"S_CPOS_RAISE4"
.LASF1457:
	.string	"psprites"
.LASF1139:
	.string	"S_MGUN"
.LASF1251:
	.string	"MT_BRUISER"
.LASF204:
	.string	"SPR_SBOX"
.LASF1549:
	.string	"ftom_zoommul"
.LASF1449:
	.string	"secretcount"
.LASF1374:
	.string	"mobjtype_t"
.LASF1388:
	.string	"xdeathstate"
.LASF1434:
	.string	"powers"
.LASF848:
	.string	"S_SKULL_ATK1"
.LASF849:
	.string	"S_SKULL_ATK2"
.LASF850:
	.string	"S_SKULL_ATK3"
.LASF851:
	.string	"S_SKULL_ATK4"
.LASF829:
	.string	"S_BOS2_PAIN2"
.LASF6:
	.string	"short unsigned int"
.LASF1253:
	.string	"MT_KNIGHT"
.LASF1554:
	.string	"max_x"
.LASF7:
	.string	"signed char"
.LASF1499:
	.string	"sidemove"
.LASF1395:
	.string	"activesound"
.LASF480:
	.string	"S_SPOS_PAIN2"
.LASF1605:
	.string	"start"
.LASF1536:
	.string	"cheat_player_arrow"
.LASF644:
	.string	"S_FATT_ATK10"
.LASF1326:
	.string	"MT_MISC40"
.LASF241:
	.string	"SPR_TGRN"
.LASF1494:
	.string	"ps_weapon"
.LASF1298:
	.string	"MT_MEGA"
.LASF143:
	.string	"SPR_BFE1"
.LASF144:
	.string	"SPR_BFE2"
.LASF1472:
	.string	"thinglist"
.LASF1332:
	.string	"MT_MISC46"
.LASF1492:
	.string	"columnofs"
.LASF1260:
	.string	"MT_KEEN"
.LASF1470:
	.string	"blockbox"
.LASF1045:
	.string	"S_BRAINEYE1"
.LASF701:
	.string	"S_TROO_STND"
.LASF648:
	.string	"S_FATT_DIE2"
.LASF339:
	.string	"S_PLASMAFLASH2"
.LASF71:
	.string	"weapontype_t"
.LASF1502:
	.string	"chatchar"
.LASF392:
	.string	"S_TFOG2"
.LASF393:
	.string	"S_TFOG3"
.LASF394:
	.string	"S_TFOG4"
.LASF395:
	.string	"S_TFOG5"
.LASF396:
	.string	"S_TFOG6"
.LASF397:
	.string	"S_TFOG7"
.LASF398:
	.string	"S_TFOG8"
.LASF399:
	.string	"S_TFOG9"
.LASF814:
	.string	"S_BOSS_RAISE7"
.LASF1443:
	.string	"attackdown"
.LASF119:
	.string	"SPR_TROO"
.LASF12:
	.string	"__off64_t"
.LASF130:
	.string	"SPR_SAWG"
.LASF774:
	.string	"S_HEAD_DIE6"
.LASF179:
	.string	"SPR_BON1"
.LASF16:
	.string	"_IO_read_base"
.LASF34:
	.string	"_offset"
.LASF55:
	.string	"it_redcard"
.LASF1168:
	.string	"S_TALLREDCOL"
.LASF1582:
	.string	"I_Error"
.LASF1413:
	.string	"state"
.LASF21:
	.string	"_IO_buf_end"
.LASF1143:
	.string	"S_SHOT"
.LASF999:
	.string	"S_SSWV_ATK5"
.LASF1148:
	.string	"S_BLOODYTWITCH2"
.LASF1149:
	.string	"S_BLOODYTWITCH3"
.LASF1150:
	.string	"S_BLOODYTWITCH4"
.LASF889:
	.string	"S_SPID_DIE10"
.LASF890:
	.string	"S_SPID_DIE11"
.LASF1435:
	.string	"cards"
.LASF1612:
	.string	"outcode1"
.LASF236:
	.string	"SPR_ELEC"
.LASF1037:
	.string	"S_BRAIN"
.LASF1619:
	.string	"nexttic"
.LASF1255:
	.string	"MT_SPIDER"
.LASF1120:
	.string	"S_SUIT"
.LASF134:
	.string	"SPR_BFGF"
.LASF133:
	.string	"SPR_BFGG"
.LASF40:
	.string	"_mode"
.LASF960:
	.string	"S_PAIN_STND"
.LASF17:
	.string	"_IO_write_base"
.LASF376:
	.string	"S_BFGLAND"
.LASF1066:
	.string	"S_BAR2"
.LASF1439:
	.string	"pendingweapon"
.LASF1595:
	.string	"their_colors"
.LASF114:
	.string	"function"
.LASF73:
	.string	"am_shell"
.LASF1583:
	.string	"W_CacheLumpName"
.LASF1411:
	.string	"validcount"
.LASF1450:
	.string	"message"
.LASF656:
	.string	"S_FATT_DIE10"
.LASF59:
	.string	"NUMCARDS"
.LASF1193:
	.string	"S_REDTORCH"
.LASF1594:
	.string	"AM_drawPlayers"
.LASF1271:
	.string	"MT_BFG"
.LASF440:
	.string	"S_POSS_RUN6"
.LASF150:
	.string	"SPR_VILE"
.LASF1274:
	.string	"MT_BLOOD"
.LASF269:
	.string	"S_PISTOL"
.LASF86:
	.string	"true"
.LASF501:
	.string	"S_VILE_STND2"
.LASF919:
	.string	"S_BSPI_RAISE1"
.LASF920:
	.string	"S_BSPI_RAISE2"
.LASF921:
	.string	"S_BSPI_RAISE3"
.LASF922:
	.string	"S_BSPI_RAISE4"
.LASF923:
	.string	"S_BSPI_RAISE5"
.LASF924:
	.string	"S_BSPI_RAISE6"
.LASF925:
	.string	"S_BSPI_RAISE7"
.LASF92:
	.string	"ev_joystick"
.LASF1409:
	.string	"momy"
.LASF9:
	.string	"long int"
.LASF1008:
	.string	"S_SSWV_XDIE1"
.LASF1009:
	.string	"S_SSWV_XDIE2"
.LASF1010:
	.string	"S_SSWV_XDIE3"
.LASF1011:
	.string	"S_SSWV_XDIE4"
.LASF1012:
	.string	"S_SSWV_XDIE5"
.LASF1013:
	.string	"S_SSWV_XDIE6"
.LASF1014:
	.string	"S_SSWV_XDIE7"
.LASF1015:
	.string	"S_SSWV_XDIE8"
.LASF1016:
	.string	"S_SSWV_XDIE9"
.LASF306:
	.string	"S_DSGUNFLASH1"
.LASF307:
	.string	"S_DSGUNFLASH2"
.LASF1305:
	.string	"MT_MISC22"
.LASF1458:
	.string	"didsecret"
.LASF564:
	.string	"S_FIRE25"
.LASF658:
	.string	"S_FATT_RAISE2"
.LASF1341:
	.string	"MT_MISC55"
.LASF1431:
	.string	"deltaviewheight"
.LASF57:
	.string	"it_yellowskull"
.LASF1096:
	.string	"S_RSKULL2"
.LASF1422:
	.string	"tracer"
.LASF663:
	.string	"S_FATT_RAISE7"
.LASF1498:
	.string	"forwardmove"
.LASF871:
	.string	"S_SPID_RUN10"
.LASF872:
	.string	"S_SPID_RUN11"
.LASF873:
	.string	"S_SPID_RUN12"
.LASF43:
	.string	"_IO_marker"
.LASF1539:
	.string	"rcsid"
.LASF1599:
	.string	"lineguylines"
.LASF1577:
	.string	"V_DrawPatch"
.LASF1397:
	.string	"raisestate"
.LASF322:
	.string	"S_MISSILEFLASH1"
.LASF323:
	.string	"S_MISSILEFLASH2"
.LASF324:
	.string	"S_MISSILEFLASH3"
.LASF325:
	.string	"S_MISSILEFLASH4"
.LASF185:
	.string	"SPR_RSKU"
.LASF112:
	.string	"think_t"
.LASF682:
	.string	"S_CPOS_DIE2"
.LASF683:
	.string	"S_CPOS_DIE3"
.LASF684:
	.string	"S_CPOS_DIE4"
.LASF685:
	.string	"S_CPOS_DIE5"
.LASF686:
	.string	"S_CPOS_DIE6"
.LASF687:
	.string	"S_CPOS_DIE7"
.LASF1128:
	.string	"S_PVIS2"
.LASF1620:
	.string	"litelevels"
.LASF1266:
	.string	"MT_BARREL"
.LASF860:
	.string	"S_SPID_STND"
.LASF632:
	.string	"S_FATT_RUN10"
.LASF633:
	.string	"S_FATT_RUN11"
.LASF634:
	.string	"S_FATT_RUN12"
.LASF1258:
	.string	"MT_PAIN"
.LASF44:
	.string	"_IO_codecvt"
.LASF1186:
	.string	"S_BLUETORCH2"
.LASF1398:
	.string	"mobjinfo_t"
.LASF1187:
	.string	"S_BLUETORCH3"
.LASF1188:
	.string	"S_BLUETORCH4"
.LASF245:
	.string	"SPR_SMRT"
.LASF347:
	.string	"S_BFGFLASH1"
.LASF348:
	.string	"S_BFGFLASH2"
.LASF881:
	.string	"S_SPID_DIE2"
.LASF1526:
	.string	"singledemo"
.LASF162:
	.string	"SPR_BOS2"
.LASF884:
	.string	"S_SPID_DIE5"
.LASF885:
	.string	"S_SPID_DIE6"
.LASF1606:
	.string	"AM_drawMline"
.LASF886:
	.string	"S_SPID_DIE7"
.LASF887:
	.string	"S_SPID_DIE8"
.LASF1177:
	.string	"S_EVILEYE2"
.LASF1178:
	.string	"S_EVILEYE3"
.LASF1179:
	.string	"S_EVILEYE4"
.LASF352:
	.string	"S_PUFF1"
.LASF353:
	.string	"S_PUFF2"
.LASF354:
	.string	"S_PUFF3"
.LASF173:
	.string	"SPR_BOSF"
.LASF1475:
	.string	"lines"
.LASF161:
	.string	"SPR_BOSS"
.LASF1270:
	.string	"MT_PLASMA"
.LASF906:
	.string	"S_BSPI_ATK1"
.LASF907:
	.string	"S_BSPI_ATK2"
.LASF908:
	.string	"S_BSPI_ATK3"
.LASF909:
	.string	"S_BSPI_ATK4"
.LASF1088:
	.string	"S_BKEY2"
.LASF69:
	.string	"NUMWEAPONS"
.LASF893:
	.string	"S_BSPI_SIGHT"
.LASF2:
	.string	"long unsigned int"
.LASF1572:
	.string	"followplayer"
.LASF895:
	.string	"S_BSPI_RUN2"
.LASF1039:
	.string	"S_BRAIN_DIE1"
.LASF1040:
	.string	"S_BRAIN_DIE2"
.LASF1041:
	.string	"S_BRAIN_DIE3"
.LASF1042:
	.string	"S_BRAIN_DIE4"
.LASF374:
	.string	"S_BFGSHOT"
.LASF1180:
	.string	"S_FLOATSKULL"
.LASF530:
	.string	"S_VILE_DIE1"
.LASF531:
	.string	"S_VILE_DIE2"
.LASF532:
	.string	"S_VILE_DIE3"
.LASF533:
	.string	"S_VILE_DIE4"
.LASF534:
	.string	"S_VILE_DIE5"
.LASF535:
	.string	"S_VILE_DIE6"
.LASF536:
	.string	"S_VILE_DIE7"
.LASF537:
	.string	"S_VILE_DIE8"
.LASF538:
	.string	"S_VILE_DIE9"
.LASF1451:
	.string	"damagecount"
.LASF214:
	.string	"SPR_SMT2"
.LASF1090:
	.string	"S_RKEY2"
.LASF1061:
	.string	"S_ARM1"
.LASF1063:
	.string	"S_ARM2"
.LASF1156:
	.string	"S_HEADCANDLES"
.LASF192:
	.string	"SPR_PINS"
.LASF786:
	.string	"S_BOSS_STND"
.LASF766:
	.string	"S_HEAD_PAIN"
.LASF54:
	.string	"it_yellowcard"
.LASF1637:
	.string	"AM_clearMarks"
.LASF1644:
	.string	"AM_findMinMaxBoundaries"
.LASF1242:
	.string	"MT_TRACER"
.LASF647:
	.string	"S_FATT_DIE1"
.LASF3:
	.string	"char"
.LASF649:
	.string	"S_FATT_DIE3"
.LASF650:
	.string	"S_FATT_DIE4"
.LASF651:
	.string	"S_FATT_DIE5"
.LASF652:
	.string	"S_FATT_DIE6"
.LASF653:
	.string	"S_FATT_DIE7"
.LASF654:
	.string	"S_FATT_DIE8"
.LASF655:
	.string	"S_FATT_DIE9"
.LASF722:
	.string	"S_TROO_XDIE2"
.LASF723:
	.string	"S_TROO_XDIE3"
.LASF724:
	.string	"S_TROO_XDIE4"
.LASF725:
	.string	"S_TROO_XDIE5"
.LASF726:
	.string	"S_TROO_XDIE6"
.LASF727:
	.string	"S_TROO_XDIE7"
.LASF728:
	.string	"S_TROO_XDIE8"
.LASF197:
	.string	"SPR_CLIP"
.LASF1169:
	.string	"S_SHRTREDCOL"
.LASF1510:
	.string	"numvertexes"
.LASF1212:
	.string	"S_HANGTSKULL"
.LASF1527:
	.string	"players"
.LASF1569:
	.string	"marknums"
.LASF20:
	.string	"_IO_buf_base"
.LASF84:
	.string	"NUMPOWERS"
.LASF997:
	.string	"S_SSWV_ATK3"
.LASF998:
	.string	"S_SSWV_ATK4"
.LASF303:
	.string	"S_DSGUN10"
.LASF79:
	.string	"pw_strength"
.LASF1591:
	.string	"color"
.LASF231:
	.string	"SPR_CAND"
.LASF1567:
	.string	"scale_mtof"
.LASF1248:
	.string	"MT_SERGEANT"
.LASF1159:
	.string	"S_LIVESTICK"
.LASF15:
	.string	"_IO_read_end"
.LASF1099:
	.string	"S_STIM"
.LASF1541:
	.string	"grid"
.LASF74:
	.string	"am_cell"
.LASF53:
	.string	"it_bluecard"
.LASF1406:
	.string	"floorz"
.LASF762:
	.string	"S_HEAD_RUN1"
.LASF417:
	.string	"S_PLAY_DIE1"
.LASF418:
	.string	"S_PLAY_DIE2"
.LASF419:
	.string	"S_PLAY_DIE3"
.LASF420:
	.string	"S_PLAY_DIE4"
.LASF46:
	.string	"_IO_FILE"
.LASF422:
	.string	"S_PLAY_DIE6"
.LASF423:
	.string	"S_PLAY_DIE7"
.LASF433:
	.string	"S_POSS_STND"
.LASF389:
	.string	"S_TFOG"
.LASF45:
	.string	"_IO_wide_data"
.LASF1327:
	.string	"MT_MISC41"
.LASF1423:
	.string	"subsector_s"
.LASF749:
	.string	"S_SARG_DIE1"
.LASF750:
	.string	"S_SARG_DIE2"
.LASF751:
	.string	"S_SARG_DIE3"
.LASF752:
	.string	"S_SARG_DIE4"
.LASF1050:
	.string	"S_SPAWNFIRE1"
.LASF1051:
	.string	"S_SPAWNFIRE2"
.LASF1052:
	.string	"S_SPAWNFIRE3"
.LASF1053:
	.string	"S_SPAWNFIRE4"
.LASF1054:
	.string	"S_SPAWNFIRE5"
.LASF1055:
	.string	"S_SPAWNFIRE6"
.LASF1056:
	.string	"S_SPAWNFIRE7"
.LASF1057:
	.string	"S_SPAWNFIRE8"
.LASF721:
	.string	"S_TROO_XDIE1"
.LASF1501:
	.string	"consistancy"
.LASF1628:
	.string	"buffer"
.LASF1424:
	.string	"sector"
.LASF1543:
	.string	"finit_width"
.LASF1214:
	.string	"S_HANGTNOBRAIN"
.LASF1551:
	.string	"m_y2"
.LASF369:
	.string	"S_PLASEXP2"
.LASF370:
	.string	"S_PLASEXP3"
.LASF371:
	.string	"S_PLASEXP4"
.LASF372:
	.string	"S_PLASEXP5"
.LASF66:
	.string	"wp_bfg"
.LASF1198:
	.string	"S_BTORCHSHRT2"
.LASF1199:
	.string	"S_BTORCHSHRT3"
.LASF1200:
	.string	"S_BTORCHSHRT4"
.LASF502:
	.string	"S_VILE_RUN1"
.LASF292:
	.string	"S_DSGUNDOWN"
.LASF504:
	.string	"S_VILE_RUN3"
.LASF505:
	.string	"S_VILE_RUN4"
.LASF506:
	.string	"S_VILE_RUN5"
.LASF507:
	.string	"S_VILE_RUN6"
.LASF508:
	.string	"S_VILE_RUN7"
.LASF509:
	.string	"S_VILE_RUN8"
.LASF510:
	.string	"S_VILE_RUN9"
.LASF753:
	.string	"S_SARG_DIE5"
.LASF754:
	.string	"S_SARG_DIE6"
.LASF1400:
	.string	"thinker"
.LASF594:
	.string	"S_SKEL_FIST1"
.LASF595:
	.string	"S_SKEL_FIST2"
.LASF596:
	.string	"S_SKEL_FIST3"
.LASF597:
	.string	"S_SKEL_FIST4"
.LASF333:
	.string	"S_PLASMA"
.LASF1112:
	.string	"S_PINS"
.LASF1513:
	.string	"sectors"
.LASF1185:
	.string	"S_BLUETORCH"
.LASF623:
	.string	"S_FATT_RUN1"
.LASF624:
	.string	"S_FATT_RUN2"
.LASF625:
	.string	"S_FATT_RUN3"
.LASF626:
	.string	"S_FATT_RUN4"
.LASF81:
	.string	"pw_ironfeet"
.LASF628:
	.string	"S_FATT_RUN6"
.LASF629:
	.string	"S_FATT_RUN7"
.LASF630:
	.string	"S_FATT_RUN8"
.LASF1161:
	.string	"S_MEAT2"
.LASF1162:
	.string	"S_MEAT3"
.LASF39:
	.string	"__pad5"
.LASF1164:
	.string	"S_MEAT5"
.LASF276:
	.string	"S_PISTOLFLASH"
.LASF1462:
	.string	"floorheight"
.LASF496:
	.string	"S_SPOS_RAISE2"
.LASF497:
	.string	"S_SPOS_RAISE3"
.LASF498:
	.string	"S_SPOS_RAISE4"
.LASF499:
	.string	"S_SPOS_RAISE5"
.LASF188:
	.string	"SPR_MEDI"
.LASF190:
	.string	"SPR_PINV"
.LASF1038:
	.string	"S_BRAIN_PAIN"
.LASF309:
	.string	"S_CHAINDOWN"
.LASF1635:
	.string	"st_notify"
.LASF1557:
	.string	"max_h"
.LASF528:
	.string	"S_VILE_PAIN"
.LASF575:
	.string	"S_TRACER"
.LASF25:
	.string	"_markers"
.LASF995:
	.string	"S_SSWV_ATK1"
.LASF996:
	.string	"S_SSWV_ATK2"
.LASF525:
	.string	"S_VILE_HEAL1"
.LASF526:
	.string	"S_VILE_HEAL2"
.LASF527:
	.string	"S_VILE_HEAL3"
.LASF1000:
	.string	"S_SSWV_ATK6"
.LASF1416:
	.string	"movecount"
.LASF182:
	.string	"SPR_RKEY"
.LASF1556:
	.string	"max_w"
.LASF1146:
	.string	"S_STALAG"
.LASF1518:
	.string	"screens"
.LASF1604:
	.string	"AM_drawGrid"
.LASF861:
	.string	"S_SPID_STND2"
.LASF105:
	.string	"angle_t"
.LASF35:
	.string	"_codecvt"
.LASF1465:
	.string	"ceilingpic"
.LASF1147:
	.string	"S_BLOODYTWITCH"
.LASF1216:
	.string	"S_SMALLPOOL"
.LASF1497:
	.string	"pspdef_t"
.LASF1342:
	.string	"MT_MISC56"
.LASF645:
	.string	"S_FATT_PAIN"
.LASF409:
	.string	"S_PLAY_RUN1"
.LASF410:
	.string	"S_PLAY_RUN2"
.LASF411:
	.string	"S_PLAY_RUN3"
.LASF412:
	.string	"S_PLAY_RUN4"
.LASF1137:
	.string	"S_BPAK"
.LASF100:
	.string	"double"
.LASF177:
	.string	"SPR_BEXP"
.LASF1427:
	.string	"player_s"
.LASF1627:
	.string	"bigstate"
.LASF1094:
	.string	"S_BSKULL2"
.LASF136:
	.string	"SPR_PUFF"
.LASF1023:
	.string	"S_COMMKEEN"
.LASF1444:
	.string	"usedown"
.LASF815:
	.string	"S_BOS2_STND"
.LASF142:
	.string	"SPR_BFS1"
.LASF1046:
	.string	"S_SPAWN1"
.LASF1047:
	.string	"S_SPAWN2"
.LASF1048:
	.string	"S_SPAWN3"
.LASF1049:
	.string	"S_SPAWN4"
.LASF1219:
	.string	"S_TECHLAMP2"
.LASF1220:
	.string	"S_TECHLAMP3"
.LASF67:
	.string	"wp_chainsaw"
.LASF1256:
	.string	"MT_BABY"
.LASF1442:
	.string	"maxammo"
.LASF1160:
	.string	"S_LIVESTICK2"
.LASF1205:
	.string	"S_RTORCHSHRT"
.LASF1302:
	.string	"MT_MISC19"
.LASF164:
	.string	"SPR_SPID"
.LASF761:
	.string	"S_HEAD_STND"
.LASF1523:
	.string	"automapactive"
.LASF1600:
	.string	"scale"
.LASF736:
	.string	"S_SARG_RUN1"
.LASF737:
	.string	"S_SARG_RUN2"
.LASF95:
	.string	"data1"
.LASF96:
	.string	"data2"
.LASF97:
	.string	"data3"
.LASF742:
	.string	"S_SARG_RUN7"
.LASF743:
	.string	"S_SARG_RUN8"
.LASF1280:
	.string	"MT_MISC1"
.LASF1281:
	.string	"MT_MISC2"
.LASF1282:
	.string	"MT_MISC3"
.LASF1283:
	.string	"MT_MISC4"
.LASF1284:
	.string	"MT_MISC5"
.LASF1285:
	.string	"MT_MISC6"
.LASF1286:
	.string	"MT_MISC7"
.LASF1287:
	.string	"MT_MISC8"
.LASF1288:
	.string	"MT_MISC9"
.LASF326:
	.string	"S_SAW"
.LASF193:
	.string	"SPR_MEGA"
.LASF415:
	.string	"S_PLAY_PAIN"
.LASF367:
	.string	"S_PLASBALL2"
.LASF1495:
	.string	"ps_flash"
.LASF1428:
	.string	"playerstate"
.LASF171:
	.string	"SPR_KEEN"
.LASF1001:
	.string	"S_SSWV_PAIN"
.LASF1382:
	.string	"painstate"
.LASF1036:
	.string	"S_KEENPAIN2"
.LASF83:
	.string	"pw_infrared"
.LASF523:
	.string	"S_VILE_ATK10"
.LASF1592:
	.string	"colors"
.LASF524:
	.string	"S_VILE_ATK11"
.LASF1491:
	.string	"topoffset"
.LASF1002:
	.string	"S_SSWV_PAIN2"
.LASF1366:
	.string	"MT_MISC80"
.LASF1389:
	.string	"deathsound"
.LASF1076:
	.string	"S_BON1A"
.LASF1077:
	.string	"S_BON1B"
.LASF1078:
	.string	"S_BON1C"
.LASF1079:
	.string	"S_BON1D"
.LASF1080:
	.string	"S_BON1E"
.LASF1482:
	.string	"sector_t"
.LASF1489:
	.string	"width"
.LASF191:
	.string	"SPR_PSTR"
.LASF1304:
	.string	"MT_MISC21"
.LASF747:
	.string	"S_SARG_PAIN"
.LASF180:
	.string	"SPR_BON2"
.LASF1299:
	.string	"MT_CLIP"
.LASF206:
	.string	"SPR_BFUG"
.LASF1354:
	.string	"MT_MISC68"
.LASF1072:
	.string	"S_BBAR1"
.LASF1073:
	.string	"S_BBAR2"
.LASF1074:
	.string	"S_BBAR3"
.LASF260:
	.string	"S_LIGHTDONE"
.LASF911:
	.string	"S_BSPI_PAIN2"
.LASF1436:
	.string	"backpack"
.LASF1610:
	.string	"RIGHT"
.LASF711:
	.string	"S_TROO_ATK1"
.LASF712:
	.string	"S_TROO_ATK2"
.LASF713:
	.string	"S_TROO_ATK3"
.LASF855:
	.string	"S_SKULL_DIE2"
.LASF856:
	.string	"S_SKULL_DIE3"
.LASF857:
	.string	"S_SKULL_DIE4"
.LASF858:
	.string	"S_SKULL_DIE5"
.LASF859:
	.string	"S_SKULL_DIE6"
.LASF210:
	.string	"SPR_PLAS"
.LASF1082:
	.string	"S_BON2A"
.LASF1083:
	.string	"S_BON2B"
.LASF123:
	.string	"SPR_PISF"
.LASF122:
	.string	"SPR_PISG"
.LASF1086:
	.string	"S_BON2E"
.LASF1309:
	.string	"MT_CHAINGUN"
.LASF358:
	.string	"S_TBALLX1"
.LASF359:
	.string	"S_TBALLX2"
.LASF360:
	.string	"S_TBALLX3"
.LASF70:
	.string	"wp_nochange"
.LASF421:
	.string	"S_PLAY_DIE5"
.LASF1246:
	.string	"MT_CHAINGUY"
.LASF1461:
	.string	"degenmobj_t"
.LASF1118:
	.string	"S_MEGA3"
.LASF854:
	.string	"S_SKULL_DIE1"
.LASF1506:
	.string	"PST_DEAD"
.LASF1217:
	.string	"S_BRAINSTEM"
.LASF1022:
	.string	"S_KEENSTND"
.LASF147:
	.string	"SPR_PLAY"
.LASF38:
	.string	"_freeres_buf"
.LASF1438:
	.string	"readyweapon"
.LASF1570:
	.string	"markpoints"
.LASF1643:
	.string	"AM_changeWindowLoc"
.LASF1576:
	.string	"V_MarkRect"
.LASF1157:
	.string	"S_HEADCANDLES2"
.LASF1276:
	.string	"MT_IFOG"
.LASF30:
	.string	"_cur_column"
.LASF238:
	.string	"SPR_FSKU"
.LASF1517:
	.string	"cheatseq_t"
.LASF473:
	.string	"S_SPOS_RUN6"
.LASF1566:
	.string	"f_oldloc"
.LASF329:
	.string	"S_SAWUP"
.LASF1062:
	.string	"S_ARM1A"
.LASF665:
	.string	"S_CPOS_STND"
.LASF1317:
	.string	"MT_MISC31"
.LASF1410:
	.string	"momz"
.LASF1136:
	.string	"S_SBOX"
.LASF1468:
	.string	"soundtraversed"
.LASF1320:
	.string	"MT_MISC34"
.LASF1478:
	.string	"bbox"
.LASF368:
	.string	"S_PLASEXP"
.LASF1323:
	.string	"MT_MISC37"
.LASF1152:
	.string	"S_DEADBOTTOM"
.LASF1209:
	.string	"S_HANGNOGUTS"
.LASF223:
	.string	"SPR_GOR3"
.LASF1622:
	.string	"AM_doFollowPlayer"
.LASF1381:
	.string	"attacksound"
.LASF1113:
	.string	"S_PINS2"
.LASF1114:
	.string	"S_PINS3"
.LASF1115:
	.string	"S_PINS4"
.LASF967:
	.string	"S_PAIN_ATK1"
.LASF968:
	.string	"S_PAIN_ATK2"
.LASF969:
	.string	"S_PAIN_ATK3"
.LASF970:
	.string	"S_PAIN_ATK4"
.LASF1642:
	.string	"pnum"
.LASF279:
	.string	"S_SGUNUP"
.LASF1480:
	.string	"frontsector"
.LASF1615:
	.string	"AM_clearFB"
.LASF232:
	.string	"SPR_CBRA"
.LASF1387:
	.string	"deathstate"
.LASF1064:
	.string	"S_ARM2A"
.LASF89:
	.string	"ev_keydown"
.LASF1490:
	.string	"leftoffset"
.LASF1092:
	.string	"S_YKEY2"
.LASF542:
	.string	"S_FIRE3"
.LASF1380:
	.string	"reactiontime"
.LASF23:
	.string	"_IO_backup_base"
.LASF1559:
	.string	"min_h"
.LASF547:
	.string	"S_FIRE8"
.LASF787:
	.string	"S_BOSS_STND2"
.LASF14:
	.string	"_IO_read_ptr"
.LASF1560:
	.string	"min_scale_mtof"
.LASF1626:
	.string	"cheatstate"
.LASF1614:
	.string	"outside"
.LASF1558:
	.string	"min_w"
.LASF1552:
	.string	"min_x"
.LASF1553:
	.string	"min_y"
.LASF1402:
	.string	"sprev"
.LASF330:
	.string	"S_SAW1"
.LASF331:
	.string	"S_SAW2"
.LASF332:
	.string	"S_SAW3"
.LASF1075:
	.string	"S_BON1"
.LASF1081:
	.string	"S_BON2"
.LASF1419:
	.string	"player"
.LASF327:
	.string	"S_SAWB"
.LASF715:
	.string	"S_TROO_PAIN2"
.LASF37:
	.string	"_freeres_list"
.LASF1262:
	.string	"MT_BOSSSPIT"
.LASF540:
	.string	"S_FIRE1"
.LASF541:
	.string	"S_FIRE2"
.LASF101:
	.string	"fixed_t"
.LASF543:
	.string	"S_FIRE4"
.LASF544:
	.string	"S_FIRE5"
.LASF545:
	.string	"S_FIRE6"
.LASF546:
	.string	"S_FIRE7"
.LASF200:
	.string	"SPR_BROK"
.LASF548:
	.string	"S_FIRE9"
.LASF1330:
	.string	"MT_MISC44"
.LASF1331:
	.string	"MT_MISC45"
.LASF1133:
	.string	"S_CELL"
.LASF1333:
	.string	"MT_MISC47"
.LASF198:
	.string	"SPR_AMMO"
.LASF1334:
	.string	"MT_MISC48"
.LASF1335:
	.string	"MT_MISC49"
.LASF846:
	.string	"S_SKULL_RUN1"
.LASF847:
	.string	"S_SKULL_RUN2"
.LASF1213:
	.string	"S_HANGTLOOKUP"
.LASF308:
	.string	"S_CHAIN"
.LASF93:
	.string	"evtype_t"
.LASF338:
	.string	"S_PLASMAFLASH1"
.LASF294:
	.string	"S_DSGUN1"
.LASF295:
	.string	"S_DSGUN2"
.LASF189:
	.string	"SPR_SOUL"
.LASF149:
	.string	"SPR_SPOS"
.LASF298:
	.string	"S_DSGUN5"
.LASF299:
	.string	"S_DSGUN6"
.LASF300:
	.string	"S_DSGUN7"
.LASF301:
	.string	"S_DSGUN8"
.LASF302:
	.string	"S_DSGUN9"
.LASF466:
	.string	"S_SPOS_STND"
.LASF169:
	.string	"SPR_PAIN"
.LASF694:
	.string	"S_CPOS_RAISE1"
.LASF1437:
	.string	"frags"
.LASF1630:
	.string	"AM_minOutWindowScale"
.LASF29:
	.string	"_old_offset"
.LASF1432:
	.string	"armorpoints"
.LASF1503:
	.string	"buttons"
.LASF343:
	.string	"S_BFG1"
.LASF344:
	.string	"S_BFG2"
.LASF345:
	.string	"S_BFG3"
.LASF346:
	.string	"S_BFG4"
.LASF1531:
	.string	"mpoint_t"
.LASF1624:
	.string	"AM_clipMline"
.LASF258:
	.string	"spritenum_t"
.LASF305:
	.string	"S_DSNR2"
.LASF845:
	.string	"S_SKULL_STND2"
.LASF1108:
	.string	"S_PINV2"
.LASF1109:
	.string	"S_PINV3"
.LASF738:
	.string	"S_SARG_RUN3"
.LASF739:
	.string	"S_SARG_RUN4"
.LASF1224:
	.string	"S_TECH2LAMP3"
.LASF1225:
	.string	"S_TECH2LAMP4"
.LASF104:
	.string	"finecosine"
.LASF1476:
	.string	"line_s"
.LASF121:
	.string	"SPR_PUNG"
.LASF689:
	.string	"S_CPOS_XDIE2"
.LASF690:
	.string	"S_CPOS_XDIE3"
.LASF691:
	.string	"S_CPOS_XDIE4"
.LASF692:
	.string	"S_CPOS_XDIE5"
.LASF693:
	.string	"S_CPOS_XDIE6"
.LASF874:
	.string	"S_SPID_ATK1"
.LASF875:
	.string	"S_SPID_ATK2"
.LASF876:
	.string	"S_SPID_ATK3"
.LASF28:
	.string	"_flags2"
.LASF598:
	.string	"S_SKEL_MISS1"
.LASF599:
	.string	"S_SKEL_MISS2"
.LASF600:
	.string	"S_SKEL_MISS3"
.LASF601:
	.string	"S_SKEL_MISS4"
.LASF355:
	.string	"S_PUFF4"
.LASF1095:
	.string	"S_RSKULL"
.LASF927:
	.string	"S_ARACH_PLAZ2"
.LASF1601:
	.string	"AM_rotate"
.LASF1336:
	.string	"MT_MISC50"
.LASF775:
	.string	"S_HEAD_RAISE1"
.LASF1371:
	.string	"MT_MISC85"
.LASF776:
	.string	"S_HEAD_RAISE2"
.LASF1631:
	.string	"AM_Start"
.LASF777:
	.string	"S_HEAD_RAISE3"
.LASF1445:
	.string	"cheats"
.LASF184:
	.string	"SPR_BSKU"
.LASF779:
	.string	"S_HEAD_RAISE5"
.LASF780:
	.string	"S_HEAD_RAISE6"
.LASF1514:
	.string	"bmaporgx"
.LASF1596:
	.string	"their_color"
.LASF1579:
	.string	"memset"
.LASF1314:
	.string	"MT_SUPERSHOTGUN"
.LASF195:
	.string	"SPR_PMAP"
.LASF1043:
	.string	"S_BRAINEYE"
.LASF196:
	.string	"SPR_PVIS"
.LASF1580:
	.string	"cht_CheckCheat"
.LASF1505:
	.string	"PST_LIVE"
.LASF1519:
	.string	"gameepisode"
.LASF1272:
	.string	"MT_ARACHPLAZ"
.LASF49:
	.string	"user"
.LASF521:
	.string	"S_VILE_ATK8"
.LASF462:
	.string	"S_POSS_RAISE1"
.LASF463:
	.string	"S_POSS_RAISE2"
.LASF464:
	.string	"S_POSS_RAISE3"
.LASF465:
	.string	"S_POSS_RAISE4"
.LASF317:
	.string	"S_MISSILEDOWN"
.LASF1547:
	.string	"m_paninc"
.LASF1181:
	.string	"S_FLOATSKULL2"
.LASF1182:
	.string	"S_FLOATSKULL3"
.LASF1116:
	.string	"S_MEGA"
.LASF796:
	.string	"S_BOSS_ATK1"
.LASF797:
	.string	"S_BOSS_ATK2"
.LASF798:
	.string	"S_BOSS_ATK3"
.LASF1405:
	.string	"subsector"
.LASF254:
	.string	"SPR_BRS1"
.LASF1460:
	.string	"vertex_t"
.LASF603:
	.string	"S_SKEL_PAIN2"
.LASF1140:
	.string	"S_CSAW"
.LASF78:
	.string	"pw_invulnerability"
.LASF783:
	.string	"S_BRBALLX1"
.LASF784:
	.string	"S_BRBALLX2"
.LASF785:
	.string	"S_BRBALLX3"
.LASF913:
	.string	"S_BSPI_DIE2"
.LASF914:
	.string	"S_BSPI_DIE3"
.LASF915:
	.string	"S_BSPI_DIE4"
.LASF916:
	.string	"S_BSPI_DIE5"
.LASF63:
	.string	"wp_chaingun"
.LASF918:
	.string	"S_BSPI_DIE7"
.LASF842:
	.string	"S_BOS2_RAISE6"
.LASF469:
	.string	"S_SPOS_RUN2"
.LASF1481:
	.string	"backsector"
.LASF470:
	.string	"S_SPOS_RUN3"
.LASF1613:
	.string	"outcode2"
.LASF972:
	.string	"S_PAIN_PAIN2"
.LASF607:
	.string	"S_SKEL_DIE4"
.LASF203:
	.string	"SPR_SHEL"
.LASF1355:
	.string	"MT_MISC69"
.LASF1433:
	.string	"armortype"
.LASF85:
	.string	"false"
.LASF255:
	.string	"SPR_TLMP"
.LASF434:
	.string	"S_POSS_STND2"
.LASF1313:
	.string	"MT_SHOTGUN"
.LASF1238:
	.string	"MT_SHOTGUY"
.LASF1448:
	.string	"itemcount"
.LASF1218:
	.string	"S_TECHLAMP"
.LASF1585:
	.string	"ST_Responder"
.LASF1259:
	.string	"MT_WOLFSS"
.LASF816:
	.string	"S_BOS2_STND2"
.LASF1469:
	.string	"soundtarget"
.LASF311:
	.string	"S_CHAIN1"
.LASF312:
	.string	"S_CHAIN2"
.LASF313:
	.string	"S_CHAIN3"
.LASF364:
	.string	"S_RBALLX2"
.LASF365:
	.string	"S_RBALLX3"
.LASF240:
	.string	"SPR_TBLU"
.LASF467:
	.string	"S_SPOS_STND2"
.LASF4:
	.string	"unsigned int"
.LASF1401:
	.string	"snext"
.LASF1587:
	.string	"FixedDiv"
.LASF77:
	.string	"am_noammo"
.LASF113:
	.string	"thinker_s"
.LASF115:
	.string	"thinker_t"
.LASF1616:
	.string	"AM_Drawer"
.LASF443:
	.string	"S_POSS_ATK1"
.LASF444:
	.string	"S_POSS_ATK2"
.LASF445:
	.string	"S_POSS_ATK3"
.LASF1357:
	.string	"MT_MISC71"
.LASF1206:
	.string	"S_RTORCHSHRT2"
.LASF1207:
	.string	"S_RTORCHSHRT3"
.LASF877:
	.string	"S_SPID_ATK4"
.LASF1110:
	.string	"S_PINV4"
.LASF8:
	.string	"short int"
.LASF894:
	.string	"S_BSPI_RUN1"
.LASF1555:
	.string	"max_y"
.LASF1363:
	.string	"MT_MISC77"
.LASF1364:
	.string	"MT_MISC78"
.LASF1365:
	.string	"MT_MISC79"
.LASF1254:
	.string	"MT_SKULL"
.LASF1241:
	.string	"MT_UNDEAD"
.LASF51:
	.string	"prev"
.LASF31:
	.string	"_vtable_offset"
.LASF604:
	.string	"S_SKEL_DIE1"
.LASF605:
	.string	"S_SKEL_DIE2"
.LASF606:
	.string	"S_SKEL_DIE3"
.LASF151:
	.string	"SPR_FIRE"
.LASF608:
	.string	"S_SKEL_DIE5"
.LASF609:
	.string	"S_SKEL_DIE6"
.LASF1646:
	.string	"AM_restoreScaleAndLoc"
.LASF1215:
	.string	"S_COLONGIBS"
.LASF256:
	.string	"SPR_TLP2"
.LASF366:
	.string	"S_PLASBALL"
.LASF212:
	.string	"SPR_SGN2"
.LASF117:
	.string	"options"
.LASF165:
	.string	"SPR_BSPI"
.LASF1550:
	.string	"m_x2"
.LASF167:
	.string	"SPR_APBX"
.LASF1456:
	.string	"colormap"
.LASF1289:
	.string	"MT_MISC10"
.LASF1290:
	.string	"MT_MISC11"
.LASF1291:
	.string	"MT_MISC12"
.LASF1293:
	.string	"MT_MISC13"
.LASF1295:
	.string	"MT_MISC14"
.LASF1296:
	.string	"MT_MISC15"
.LASF1297:
	.string	"MT_MISC16"
.LASF1300:
	.string	"MT_MISC17"
.LASF1301:
	.string	"MT_MISC18"
.LASF1129:
	.string	"S_CLIP"
.LASF1391:
	.string	"radius"
.LASF1414:
	.string	"health"
.LASF1263:
	.string	"MT_BOSSTARGET"
	.section	.debug_line_str,"MS",@progbits,1
.LASF0:
	.string	"am_map.c"
.LASF1:
	.string	"/home/astrid/Documents/enseignements/DOOM/linuxdoom-1.10"
	.ident	"GCC: (Ubuntu 13.3.0-6ubuntu2~24.04) 13.3.0"
	.section	.note.GNU-stack,"",@progbits
	.section	.note.gnu.property,"a"
	.align 8
	.long	1f - 0f
	.long	4f - 1f
	.long	5
0:
	.string	"GNU"
1:
	.align 8
	.long	0xc0000002
	.long	3f - 2f
2:
	.long	0x3
3:
	.align 8
4:
