	.file	"d_main.c"
# GNU C17 (Ubuntu 13.3.0-6ubuntu2~24.04) version 13.3.0 (x86_64-linux-gnu)
#	compiled by GNU C version 13.3.0, GMP version 6.3.0, MPFR version 4.2.1, MPC version 1.3.1, isl version isl-0.26-GMP

# GGC heuristics: --param ggc-min-expand=100 --param ggc-min-heapsize=131072
# options passed: -mtune=generic -march=x86-64 -g -fasynchronous-unwind-tables -fstack-protector-strong -fstack-clash-protection -fcf-protection
	.text
.Ltext0:
	.file 0 "/home/astrid/Documents/enseignements/DOOM/linuxdoom-1.10" "d_main.c"
	.section	.rodata
	.align 32
	.type	rcsid, @object
	.size	rcsid, 49
rcsid:
	.string	"$Id: d_main.c,v 1.8 1997/02/03 22:45:09 b1 Exp $"
	.globl	wadfiles
	.bss
	.align 32
	.type	wadfiles, @object
	.size	wadfiles, 160
wadfiles:
	.zero	160
	.globl	devparm
	.align 4
	.type	devparm, @object
	.size	devparm, 4
devparm:
	.zero	4
	.globl	nomonsters
	.align 4
	.type	nomonsters, @object
	.size	nomonsters, 4
nomonsters:
	.zero	4
	.globl	respawnparm
	.align 4
	.type	respawnparm, @object
	.size	respawnparm, 4
respawnparm:
	.zero	4
	.globl	fastparm
	.align 4
	.type	fastparm, @object
	.size	fastparm, 4
fastparm:
	.zero	4
	.globl	drone
	.align 4
	.type	drone, @object
	.size	drone, 4
drone:
	.zero	4
	.globl	singletics
	.align 4
	.type	singletics, @object
	.size	singletics, 4
singletics:
	.zero	4
	.globl	startskill
	.align 4
	.type	startskill, @object
	.size	startskill, 4
startskill:
	.zero	4
	.globl	startepisode
	.align 4
	.type	startepisode, @object
	.size	startepisode, 4
startepisode:
	.zero	4
	.globl	startmap
	.align 4
	.type	startmap, @object
	.size	startmap, 4
startmap:
	.zero	4
	.globl	autostart
	.align 4
	.type	autostart, @object
	.size	autostart, 4
autostart:
	.zero	4
	.globl	debugfile
	.align 8
	.type	debugfile, @object
	.size	debugfile, 8
debugfile:
	.zero	8
	.globl	advancedemo
	.align 4
	.type	advancedemo, @object
	.size	advancedemo, 4
advancedemo:
	.zero	4
	.globl	wadfile
	.align 32
	.type	wadfile, @object
	.size	wadfile, 1024
wadfile:
	.zero	1024
	.globl	mapdir
	.align 32
	.type	mapdir, @object
	.size	mapdir, 1024
mapdir:
	.zero	1024
	.globl	basedefault
	.align 32
	.type	basedefault, @object
	.size	basedefault, 1024
basedefault:
	.zero	1024
	.globl	events
	.align 32
	.type	events, @object
	.size	events, 1024
events:
	.zero	1024
	.globl	eventhead
	.align 4
	.type	eventhead, @object
	.size	eventhead, 4
eventhead:
	.zero	4
	.globl	eventtail
	.align 4
	.type	eventtail, @object
	.size	eventtail, 4
eventtail:
	.zero	4
	.text
	.globl	D_PostEvent
	.type	D_PostEvent, @function
D_PostEvent:
.LFB6:
	.file 1 "d_main.c"
	.loc 1 151 1
	.cfi_startproc
	endbr64	
	pushq	%rbp	#
	.cfi_def_cfa_offset 16
	.cfi_offset 6, -16
	movq	%rsp, %rbp	#,
	.cfi_def_cfa_register 6
	movq	%rdi, -8(%rbp)	# ev, ev
# d_main.c:152:     events[eventhead] = *ev;
	.loc 1 152 11
	movl	eventhead(%rip), %eax	# eventhead, eventhead.0_1
# d_main.c:152:     events[eventhead] = *ev;
	.loc 1 152 23
	cltq
	salq	$4, %rax	#, tmp87
	movq	%rax, %rsi	# tmp87, tmp88
	leaq	events(%rip), %rcx	#, tmp89
	movq	-8(%rbp), %rax	# ev, tmp90
	movq	8(%rax), %rdx	# *ev_7(D),
	movq	(%rax), %rax	# *ev_7(D), tmp91
	movq	%rax, (%rsi,%rcx)	# tmp91, events[eventhead.0_1]
	movq	%rdx, 8(%rsi,%rcx)	#, events[eventhead.0_1]
# d_main.c:153:     eventhead = (++eventhead)&(MAXEVENTS-1);
	.loc 1 153 18
	movl	eventhead(%rip), %eax	# eventhead, eventhead.1_2
	addl	$1, %eax	#, _3
# d_main.c:153:     eventhead = (++eventhead)&(MAXEVENTS-1);
	.loc 1 153 15
	movl	%eax, eventhead(%rip)	# _3, eventhead
# d_main.c:153:     eventhead = (++eventhead)&(MAXEVENTS-1);
	.loc 1 153 18
	movl	eventhead(%rip), %eax	# eventhead, eventhead.2_4
# d_main.c:153:     eventhead = (++eventhead)&(MAXEVENTS-1);
	.loc 1 153 30
	andl	$63, %eax	#, _5
# d_main.c:153:     eventhead = (++eventhead)&(MAXEVENTS-1);
	.loc 1 153 15
	movl	%eax, eventhead(%rip)	# _5, eventhead
# d_main.c:154: }
	.loc 1 154 1
	nop	
	popq	%rbp	#
	.cfi_def_cfa 7, 8
	ret	
	.cfi_endproc
.LFE6:
	.size	D_PostEvent, .-D_PostEvent
	.section	.rodata
.LC0:
	.string	"map01"
	.text
	.globl	D_ProcessEvents
	.type	D_ProcessEvents, @function
D_ProcessEvents:
.LFB7:
	.loc 1 162 1
	.cfi_startproc
	endbr64	
	pushq	%rbp	#
	.cfi_def_cfa_offset 16
	.cfi_offset 6, -16
	movq	%rsp, %rbp	#,
	.cfi_def_cfa_register 6
	subq	$16, %rsp	#,
# d_main.c:166:     if ( ( gamemode == commercial )
	.loc 1 166 21
	movl	gamemode(%rip), %eax	# gamemode, gamemode.3_1
# d_main.c:166:     if ( ( gamemode == commercial )
	.loc 1 166 8
	cmpl	$2, %eax	#, gamemode.3_1
	jne	.L5	#,
# d_main.c:167: 	 && (W_CheckNumForName("map01")<0) )
	.loc 1 167 7
	leaq	.LC0(%rip), %rax	#, tmp92
	movq	%rax, %rdi	# tmp92,
	call	W_CheckNumForName@PLT	#
# d_main.c:167: 	 && (W_CheckNumForName("map01")<0) )
	.loc 1 167 3 discriminator 1
	testl	%eax, %eax	# _2
	js	.L9	#,
# d_main.c:170:     for ( ; eventtail != eventhead ; eventtail = (++eventtail)&(MAXEVENTS-1) )
	.loc 1 170 5
	jmp	.L5	#
.L8:
# d_main.c:172: 	ev = &events[eventtail];
	.loc 1 172 14
	movl	eventtail(%rip), %eax	# eventtail, eventtail.4_3
# d_main.c:172: 	ev = &events[eventtail];
	.loc 1 172 5
	cltq
	salq	$4, %rax	#, tmp93
	movq	%rax, %rdx	# tmp93, tmp94
	leaq	events(%rip), %rax	#, tmp95
	addq	%rdx, %rax	# tmp94, tmp96
	movq	%rax, -8(%rbp)	# tmp96, ev
# d_main.c:173: 	if (M_Responder (ev))
	.loc 1 173 6
	movq	-8(%rbp), %rax	# ev, tmp97
	movq	%rax, %rdi	# tmp97,
	call	M_Responder@PLT	#
# d_main.c:173: 	if (M_Responder (ev))
	.loc 1 173 5 discriminator 1
	testl	%eax, %eax	# _4
	jne	.L10	#,
# d_main.c:175: 	G_Responder (ev);
	.loc 1 175 2
	movq	-8(%rbp), %rax	# ev, tmp98
	movq	%rax, %rdi	# tmp98,
	call	G_Responder@PLT	#
	jmp	.L7	#
.L10:
# d_main.c:174: 	    continue;               // menu ate the event
	.loc 1 174 6
	nop	
.L7:
# d_main.c:170:     for ( ; eventtail != eventhead ; eventtail = (++eventtail)&(MAXEVENTS-1) )
	.loc 1 170 51
	movl	eventtail(%rip), %eax	# eventtail, eventtail.5_5
	addl	$1, %eax	#, _6
# d_main.c:170:     for ( ; eventtail != eventhead ; eventtail = (++eventtail)&(MAXEVENTS-1) )
	.loc 1 170 48
	movl	%eax, eventtail(%rip)	# _6, eventtail
# d_main.c:170:     for ( ; eventtail != eventhead ; eventtail = (++eventtail)&(MAXEVENTS-1) )
	.loc 1 170 51
	movl	eventtail(%rip), %eax	# eventtail, eventtail.6_7
# d_main.c:170:     for ( ; eventtail != eventhead ; eventtail = (++eventtail)&(MAXEVENTS-1) )
	.loc 1 170 63
	andl	$63, %eax	#, _8
# d_main.c:170:     for ( ; eventtail != eventhead ; eventtail = (++eventtail)&(MAXEVENTS-1) )
	.loc 1 170 48
	movl	%eax, eventtail(%rip)	# _8, eventtail
.L5:
# d_main.c:170:     for ( ; eventtail != eventhead ; eventtail = (++eventtail)&(MAXEVENTS-1) )
	.loc 1 170 23 discriminator 1
	movl	eventtail(%rip), %edx	# eventtail, eventtail.7_9
	movl	eventhead(%rip), %eax	# eventhead, eventhead.8_10
	cmpl	%eax, %edx	# eventhead.8_10, eventtail.7_9
	jne	.L8	#,
	jmp	.L2	#
.L9:
# d_main.c:168:       return;
	.loc 1 168 7
	nop	
.L2:
# d_main.c:177: }
	.loc 1 177 1
	leave	
	.cfi_def_cfa 7, 8
	ret	
	.cfi_endproc
.LFE7:
	.size	D_ProcessEvents, .-D_ProcessEvents
	.globl	wipegamestate
	.data
	.align 4
	.type	wipegamestate, @object
	.size	wipegamestate, 4
wipegamestate:
	.long	3
	.section	.rodata
.LC1:
	.string	"PLAYPAL"
.LC2:
	.string	"M_PAUSE"
	.text
	.globl	D_Display
	.type	D_Display, @function
D_Display:
.LFB8:
	.loc 1 194 1
	.cfi_startproc
	endbr64	
	pushq	%rbp	#
	.cfi_def_cfa_offset 16
	.cfi_offset 6, -16
	movq	%rsp, %rbp	#,
	.cfi_def_cfa_register 6
	subq	$32, %rsp	#,
# d_main.c:209:     if (nodrawers)
	.loc 1 209 9
	movl	nodrawers(%rip), %eax	# nodrawers, nodrawers.9_1
# d_main.c:209:     if (nodrawers)
	.loc 1 209 8
	testl	%eax, %eax	# nodrawers.9_1
	jne	.L41	#,
# d_main.c:212:     redrawsbar = false;
	.loc 1 212 16
	movl	$0, -16(%rbp)	#, redrawsbar
# d_main.c:215:     if (setsizeneeded)
	.loc 1 215 9
	movl	setsizeneeded(%rip), %eax	# setsizeneeded, setsizeneeded.10_2
# d_main.c:215:     if (setsizeneeded)
	.loc 1 215 8
	testl	%eax, %eax	# setsizeneeded.10_2
	je	.L14	#,
# d_main.c:217: 	R_ExecuteSetViewSize ();
	.loc 1 217 2
	call	R_ExecuteSetViewSize@PLT	#
# d_main.c:218: 	oldgamestate = -1;                      // force background redraw
	.loc 1 218 15
	movl	$-1, oldgamestate.5(%rip)	#, oldgamestate
# d_main.c:219: 	borderdrawcount = 3;
	.loc 1 219 18
	movl	$3, borderdrawcount.4(%rip)	#, borderdrawcount
.L14:
# d_main.c:223:     if (gamestate != wipegamestate)
	.loc 1 223 19
	movl	gamestate(%rip), %edx	# gamestate, gamestate.11_3
	movl	wipegamestate(%rip), %eax	# wipegamestate, wipegamestate.12_4
# d_main.c:223:     if (gamestate != wipegamestate)
	.loc 1 223 8
	cmpl	%eax, %edx	# wipegamestate.12_4, gamestate.11_3
	je	.L15	#,
# d_main.c:225: 	wipe = true;
	.loc 1 225 7
	movl	$1, -20(%rbp)	#, wipe
# d_main.c:226: 	wipe_StartScreen(0, 0, SCREENWIDTH, SCREENHEIGHT);
	.loc 1 226 2
	movl	$200, %ecx	#,
	movl	$320, %edx	#,
	movl	$0, %esi	#,
	movl	$0, %edi	#,
	call	wipe_StartScreen@PLT	#
	jmp	.L16	#
.L15:
# d_main.c:229: 	wipe = false;
	.loc 1 229 7
	movl	$0, -20(%rbp)	#, wipe
.L16:
# d_main.c:231:     if (gamestate == GS_LEVEL && gametic)
	.loc 1 231 19
	movl	gamestate(%rip), %eax	# gamestate, gamestate.13_5
# d_main.c:231:     if (gamestate == GS_LEVEL && gametic)
	.loc 1 231 8
	testl	%eax, %eax	# gamestate.13_5
	jne	.L17	#,
# d_main.c:231:     if (gamestate == GS_LEVEL && gametic)
	.loc 1 231 31 discriminator 1
	movl	gametic(%rip), %eax	# gametic, gametic.14_6
	testl	%eax, %eax	# gametic.14_6
	je	.L17	#,
# d_main.c:232: 	HU_Erase();
	.loc 1 232 2
	call	HU_Erase@PLT	#
.L17:
# d_main.c:235:     switch (gamestate)
	.loc 1 235 5
	movl	gamestate(%rip), %eax	# gamestate, gamestate.15_7
	cmpl	$3, %eax	#, gamestate.15_7
	je	.L18	#,
	cmpl	$3, %eax	#, gamestate.15_7
	ja	.L19	#,
	cmpl	$2, %eax	#, gamestate.15_7
	je	.L20	#,
	cmpl	$2, %eax	#, gamestate.15_7
	ja	.L19	#,
	testl	%eax, %eax	# gamestate.15_7
	je	.L21	#,
	cmpl	$1, %eax	#, gamestate.15_7
	je	.L22	#,
	jmp	.L19	#
.L21:
# d_main.c:238: 	if (!gametic)
	.loc 1 238 6
	movl	gametic(%rip), %eax	# gametic, gametic.16_8
# d_main.c:238: 	if (!gametic)
	.loc 1 238 5
	testl	%eax, %eax	# gametic.16_8
	je	.L42	#,
# d_main.c:240: 	if (automapactive)
	.loc 1 240 6
	movl	automapactive(%rip), %eax	# automapactive, automapactive.17_9
# d_main.c:240: 	if (automapactive)
	.loc 1 240 5
	testl	%eax, %eax	# automapactive.17_9
	je	.L24	#,
# d_main.c:241: 	    AM_Drawer ();
	.loc 1 241 6
	call	AM_Drawer@PLT	#
.L24:
# d_main.c:242: 	if (wipe || (viewheight != 200 && fullscreen) )
	.loc 1 242 5
	cmpl	$0, -20(%rbp)	#, wipe
	jne	.L25	#,
# d_main.c:242: 	if (wipe || (viewheight != 200 && fullscreen) )
	.loc 1 242 26 discriminator 1
	movl	viewheight(%rip), %eax	# viewheight, viewheight.18_10
# d_main.c:242: 	if (wipe || (viewheight != 200 && fullscreen) )
	.loc 1 242 11 discriminator 1
	cmpl	$200, %eax	#, viewheight.18_10
	je	.L26	#,
# d_main.c:242: 	if (wipe || (viewheight != 200 && fullscreen) )
	.loc 1 242 33 discriminator 2
	movl	fullscreen.3(%rip), %eax	# fullscreen, fullscreen.19_11
	testl	%eax, %eax	# fullscreen.19_11
	je	.L26	#,
.L25:
# d_main.c:243: 	    redrawsbar = true;
	.loc 1 243 17
	movl	$1, -16(%rbp)	#, redrawsbar
.L26:
# d_main.c:244: 	if (inhelpscreensstate && !inhelpscreens)
	.loc 1 244 6
	movl	inhelpscreensstate.2(%rip), %eax	# inhelpscreensstate, inhelpscreensstate.20_12
# d_main.c:244: 	if (inhelpscreensstate && !inhelpscreens)
	.loc 1 244 5
	testl	%eax, %eax	# inhelpscreensstate.20_12
	je	.L27	#,
# d_main.c:244: 	if (inhelpscreensstate && !inhelpscreens)
	.loc 1 244 28 discriminator 1
	movl	inhelpscreens(%rip), %eax	# inhelpscreens, inhelpscreens.21_13
# d_main.c:244: 	if (inhelpscreensstate && !inhelpscreens)
	.loc 1 244 25 discriminator 1
	testl	%eax, %eax	# inhelpscreens.21_13
	jne	.L27	#,
# d_main.c:245: 	    redrawsbar = true;              // just put away the help screen
	.loc 1 245 17
	movl	$1, -16(%rbp)	#, redrawsbar
.L27:
# d_main.c:246: 	ST_Drawer (viewheight == 200, redrawsbar );
	.loc 1 246 2
	movl	viewheight(%rip), %eax	# viewheight, viewheight.22_14
	cmpl	$200, %eax	#, viewheight.22_14
	sete	%al	#, _15
	movzbl	%al, %eax	# _15, _16
	movl	-16(%rbp), %edx	# redrawsbar, tmp139
	movl	%edx, %esi	# tmp139,
	movl	%eax, %edi	# _16,
	call	ST_Drawer@PLT	#
# d_main.c:247: 	fullscreen = viewheight == 200;
	.loc 1 247 26
	movl	viewheight(%rip), %eax	# viewheight, viewheight.23_17
	cmpl	$200, %eax	#, viewheight.23_17
	sete	%al	#, _18
	movzbl	%al, %eax	# _18, _19
# d_main.c:247: 	fullscreen = viewheight == 200;
	.loc 1 247 13
	movl	%eax, fullscreen.3(%rip)	# _19, fullscreen
# d_main.c:248: 	break;
	.loc 1 248 2
	jmp	.L19	#
.L22:
# d_main.c:251: 	WI_Drawer ();
	.loc 1 251 2
	call	WI_Drawer@PLT	#
# d_main.c:252: 	break;
	.loc 1 252 2
	jmp	.L19	#
.L20:
# d_main.c:255: 	F_Drawer ();
	.loc 1 255 2
	call	F_Drawer@PLT	#
# d_main.c:256: 	break;
	.loc 1 256 2
	jmp	.L19	#
.L18:
# d_main.c:259: 	D_PageDrawer ();
	.loc 1 259 2
	call	D_PageDrawer	#
# d_main.c:260: 	break;
	.loc 1 260 2
	jmp	.L19	#
.L42:
# d_main.c:239: 	    break;
	.loc 1 239 6
	nop	
.L19:
# d_main.c:264:     I_UpdateNoBlit ();
	.loc 1 264 5
	call	I_UpdateNoBlit@PLT	#
# d_main.c:267:     if (gamestate == GS_LEVEL && !automapactive && gametic)
	.loc 1 267 19
	movl	gamestate(%rip), %eax	# gamestate, gamestate.24_20
# d_main.c:267:     if (gamestate == GS_LEVEL && !automapactive && gametic)
	.loc 1 267 8
	testl	%eax, %eax	# gamestate.24_20
	jne	.L28	#,
# d_main.c:267:     if (gamestate == GS_LEVEL && !automapactive && gametic)
	.loc 1 267 34 discriminator 1
	movl	automapactive(%rip), %eax	# automapactive, automapactive.25_21
# d_main.c:267:     if (gamestate == GS_LEVEL && !automapactive && gametic)
	.loc 1 267 31 discriminator 1
	testl	%eax, %eax	# automapactive.25_21
	jne	.L28	#,
# d_main.c:267:     if (gamestate == GS_LEVEL && !automapactive && gametic)
	.loc 1 267 49 discriminator 2
	movl	gametic(%rip), %eax	# gametic, gametic.26_22
	testl	%eax, %eax	# gametic.26_22
	je	.L28	#,
# d_main.c:268: 	R_RenderPlayerView (&players[displayplayer]);
	.loc 1 268 30
	movl	displayplayer(%rip), %eax	# displayplayer, displayplayer.27_23
# d_main.c:268: 	R_RenderPlayerView (&players[displayplayer]);
	.loc 1 268 2
	movslq	%eax, %rdx	# displayplayer.27_23, tmp140
	movq	%rdx, %rax	# tmp140, tmp141
	salq	$2, %rax	#, tmp141
	addq	%rdx, %rax	# tmp140, tmp141
	salq	$6, %rax	#, tmp142
	leaq	players(%rip), %rdx	#, tmp143
	addq	%rdx, %rax	# tmp143, _24
	movq	%rax, %rdi	# _24,
	call	R_RenderPlayerView@PLT	#
.L28:
# d_main.c:270:     if (gamestate == GS_LEVEL && gametic)
	.loc 1 270 19
	movl	gamestate(%rip), %eax	# gamestate, gamestate.28_25
# d_main.c:270:     if (gamestate == GS_LEVEL && gametic)
	.loc 1 270 8
	testl	%eax, %eax	# gamestate.28_25
	jne	.L29	#,
# d_main.c:270:     if (gamestate == GS_LEVEL && gametic)
	.loc 1 270 31 discriminator 1
	movl	gametic(%rip), %eax	# gametic, gametic.29_26
	testl	%eax, %eax	# gametic.29_26
	je	.L29	#,
# d_main.c:271: 	HU_Drawer ();
	.loc 1 271 2
	call	HU_Drawer@PLT	#
.L29:
# d_main.c:274:     if (gamestate != oldgamestate && gamestate != GS_LEVEL)
	.loc 1 274 19
	movl	gamestate(%rip), %edx	# gamestate, gamestate.30_27
	movl	oldgamestate.5(%rip), %eax	# oldgamestate, oldgamestate.31_28
# d_main.c:274:     if (gamestate != oldgamestate && gamestate != GS_LEVEL)
	.loc 1 274 8
	cmpl	%eax, %edx	# oldgamestate.31_28, gamestate.30_27
	je	.L30	#,
# d_main.c:274:     if (gamestate != oldgamestate && gamestate != GS_LEVEL)
	.loc 1 274 48 discriminator 1
	movl	gamestate(%rip), %eax	# gamestate, gamestate.32_29
# d_main.c:274:     if (gamestate != oldgamestate && gamestate != GS_LEVEL)
	.loc 1 274 35 discriminator 1
	testl	%eax, %eax	# gamestate.32_29
	je	.L30	#,
# d_main.c:275: 	I_SetPalette (W_CacheLumpName ("PLAYPAL",PU_CACHE));
	.loc 1 275 16
	movl	$101, %esi	#,
	leaq	.LC1(%rip), %rax	#, tmp144
	movq	%rax, %rdi	# tmp144,
	call	W_CacheLumpName@PLT	#
# d_main.c:275: 	I_SetPalette (W_CacheLumpName ("PLAYPAL",PU_CACHE));
	.loc 1 275 2 discriminator 1
	movq	%rax, %rdi	# _30,
	call	I_SetPalette@PLT	#
.L30:
# d_main.c:278:     if (gamestate == GS_LEVEL && oldgamestate != GS_LEVEL)
	.loc 1 278 19
	movl	gamestate(%rip), %eax	# gamestate, gamestate.33_31
# d_main.c:278:     if (gamestate == GS_LEVEL && oldgamestate != GS_LEVEL)
	.loc 1 278 8
	testl	%eax, %eax	# gamestate.33_31
	jne	.L31	#,
# d_main.c:278:     if (gamestate == GS_LEVEL && oldgamestate != GS_LEVEL)
	.loc 1 278 47 discriminator 1
	movl	oldgamestate.5(%rip), %eax	# oldgamestate, oldgamestate.34_32
# d_main.c:278:     if (gamestate == GS_LEVEL && oldgamestate != GS_LEVEL)
	.loc 1 278 31 discriminator 1
	testl	%eax, %eax	# oldgamestate.34_32
	je	.L31	#,
# d_main.c:280: 	viewactivestate = false;        // view was not active
	.loc 1 280 18
	movl	$0, viewactivestate.1(%rip)	#, viewactivestate
# d_main.c:281: 	R_FillBackScreen ();    // draw the pattern into the back screen
	.loc 1 281 2
	call	R_FillBackScreen@PLT	#
.L31:
# d_main.c:285:     if (gamestate == GS_LEVEL && !automapactive && scaledviewwidth != 320)
	.loc 1 285 19
	movl	gamestate(%rip), %eax	# gamestate, gamestate.35_33
# d_main.c:285:     if (gamestate == GS_LEVEL && !automapactive && scaledviewwidth != 320)
	.loc 1 285 8
	testl	%eax, %eax	# gamestate.35_33
	jne	.L32	#,
# d_main.c:285:     if (gamestate == GS_LEVEL && !automapactive && scaledviewwidth != 320)
	.loc 1 285 34 discriminator 1
	movl	automapactive(%rip), %eax	# automapactive, automapactive.36_34
# d_main.c:285:     if (gamestate == GS_LEVEL && !automapactive && scaledviewwidth != 320)
	.loc 1 285 31 discriminator 1
	testl	%eax, %eax	# automapactive.36_34
	jne	.L32	#,
# d_main.c:285:     if (gamestate == GS_LEVEL && !automapactive && scaledviewwidth != 320)
	.loc 1 285 68 discriminator 2
	movl	scaledviewwidth(%rip), %eax	# scaledviewwidth, scaledviewwidth.37_35
# d_main.c:285:     if (gamestate == GS_LEVEL && !automapactive && scaledviewwidth != 320)
	.loc 1 285 49 discriminator 2
	cmpl	$320, %eax	#, scaledviewwidth.37_35
	je	.L32	#,
# d_main.c:287: 	if (menuactive || menuactivestate || !viewactivestate)
	.loc 1 287 6
	movl	menuactive(%rip), %eax	# menuactive, menuactive.38_36
# d_main.c:287: 	if (menuactive || menuactivestate || !viewactivestate)
	.loc 1 287 5
	testl	%eax, %eax	# menuactive.38_36
	jne	.L33	#,
# d_main.c:287: 	if (menuactive || menuactivestate || !viewactivestate)
	.loc 1 287 17 discriminator 1
	movl	menuactivestate.0(%rip), %eax	# menuactivestate, menuactivestate.39_37
	testl	%eax, %eax	# menuactivestate.39_37
	jne	.L33	#,
# d_main.c:287: 	if (menuactive || menuactivestate || !viewactivestate)
	.loc 1 287 39 discriminator 2
	movl	viewactivestate.1(%rip), %eax	# viewactivestate, viewactivestate.40_38
# d_main.c:287: 	if (menuactive || menuactivestate || !viewactivestate)
	.loc 1 287 36 discriminator 2
	testl	%eax, %eax	# viewactivestate.40_38
	jne	.L34	#,
.L33:
# d_main.c:288: 	    borderdrawcount = 3;
	.loc 1 288 22
	movl	$3, borderdrawcount.4(%rip)	#, borderdrawcount
.L34:
# d_main.c:289: 	if (borderdrawcount)
	.loc 1 289 6
	movl	borderdrawcount.4(%rip), %eax	# borderdrawcount, borderdrawcount.41_39
# d_main.c:289: 	if (borderdrawcount)
	.loc 1 289 5
	testl	%eax, %eax	# borderdrawcount.41_39
	je	.L32	#,
# d_main.c:291: 	    R_DrawViewBorder ();    // erase old menu stuff
	.loc 1 291 6
	call	R_DrawViewBorder@PLT	#
# d_main.c:292: 	    borderdrawcount--;
	.loc 1 292 21
	movl	borderdrawcount.4(%rip), %eax	# borderdrawcount, borderdrawcount.42_40
	subl	$1, %eax	#, _41
	movl	%eax, borderdrawcount.4(%rip)	# _41, borderdrawcount
.L32:
# d_main.c:297:     menuactivestate = menuactive;
	.loc 1 297 21
	movl	menuactive(%rip), %eax	# menuactive, menuactive.43_42
	movl	%eax, menuactivestate.0(%rip)	# menuactive.43_42, menuactivestate
# d_main.c:298:     viewactivestate = viewactive;
	.loc 1 298 21
	movl	viewactive(%rip), %eax	# viewactive, viewactive.44_43
	movl	%eax, viewactivestate.1(%rip)	# viewactive.44_43, viewactivestate
# d_main.c:299:     inhelpscreensstate = inhelpscreens;
	.loc 1 299 24
	movl	inhelpscreens(%rip), %eax	# inhelpscreens, inhelpscreens.45_44
	movl	%eax, inhelpscreensstate.2(%rip)	# inhelpscreens.45_44, inhelpscreensstate
# d_main.c:300:     oldgamestate = wipegamestate = gamestate;
	.loc 1 300 34
	movl	gamestate(%rip), %eax	# gamestate, gamestate.46_45
	movl	%eax, wipegamestate(%rip)	# gamestate.46_45, wipegamestate
# d_main.c:300:     oldgamestate = wipegamestate = gamestate;
	.loc 1 300 18
	movl	wipegamestate(%rip), %eax	# wipegamestate, wipegamestate.47_46
	movl	%eax, oldgamestate.5(%rip)	# wipegamestate.47_46, oldgamestate
# d_main.c:303:     if (paused)
	.loc 1 303 9
	movl	paused(%rip), %eax	# paused, paused.48_47
# d_main.c:303:     if (paused)
	.loc 1 303 8
	testl	%eax, %eax	# paused.48_47
	je	.L35	#,
# d_main.c:305: 	if (automapactive)
	.loc 1 305 6
	movl	automapactive(%rip), %eax	# automapactive, automapactive.49_48
# d_main.c:305: 	if (automapactive)
	.loc 1 305 5
	testl	%eax, %eax	# automapactive.49_48
	je	.L36	#,
# d_main.c:306: 	    y = 4;
	.loc 1 306 8
	movl	$4, -24(%rbp)	#, y
	jmp	.L37	#
.L36:
# d_main.c:308: 	    y = viewwindowy+4;
	.loc 1 308 21
	movl	viewwindowy(%rip), %eax	# viewwindowy, viewwindowy.50_49
# d_main.c:308: 	    y = viewwindowy+4;
	.loc 1 308 8
	addl	$4, %eax	#, tmp145
	movl	%eax, -24(%rbp)	# tmp145, y
.L37:
# d_main.c:310: 			  y,0,W_CacheLumpName ("M_PAUSE", PU_CACHE));
	.loc 1 310 10
	movl	$101, %esi	#,
	leaq	.LC2(%rip), %rax	#, tmp146
	movq	%rax, %rdi	# tmp146,
	call	W_CacheLumpName@PLT	#
	movq	%rax, %rdx	#, _50
# d_main.c:309: 	V_DrawPatchDirect(viewwindowx+(scaledviewwidth-68)/2,
	.loc 1 309 48
	movl	scaledviewwidth(%rip), %eax	# scaledviewwidth, scaledviewwidth.51_51
	subl	$68, %eax	#, _52
# d_main.c:309: 	V_DrawPatchDirect(viewwindowx+(scaledviewwidth-68)/2,
	.loc 1 309 52
	movl	%eax, %ecx	# _52, tmp147
	shrl	$31, %ecx	#, tmp147
	addl	%ecx, %eax	# tmp147, tmp148
	sarl	%eax	# tmp149
	movl	%eax, %ecx	# tmp149, _53
# d_main.c:309: 	V_DrawPatchDirect(viewwindowx+(scaledviewwidth-68)/2,
	.loc 1 309 2
	movl	viewwindowx(%rip), %eax	# viewwindowx, viewwindowx.52_54
	leal	(%rcx,%rax), %edi	#, _55
	movl	-24(%rbp), %eax	# y, tmp150
	movq	%rdx, %rcx	# _50,
	movl	$0, %edx	#,
	movl	%eax, %esi	# tmp150,
	call	V_DrawPatchDirect@PLT	#
.L35:
# d_main.c:315:     M_Drawer ();          // menu is drawn even on top of everything
	.loc 1 315 5
	call	M_Drawer@PLT	#
# d_main.c:316:     NetUpdate ();         // send out any new accumulation
	.loc 1 316 5
	call	NetUpdate@PLT	#
# d_main.c:320:     if (!wipe)
	.loc 1 320 8
	cmpl	$0, -20(%rbp)	#, wipe
	jne	.L38	#,
# d_main.c:322: 	I_FinishUpdate ();              // page flip or blit buffer
	.loc 1 322 2
	call	I_FinishUpdate@PLT	#
# d_main.c:323: 	return;
	.loc 1 323 2
	jmp	.L11	#
.L38:
# d_main.c:327:     wipe_EndScreen(0, 0, SCREENWIDTH, SCREENHEIGHT);
	.loc 1 327 5
	movl	$200, %ecx	#,
	movl	$320, %edx	#,
	movl	$0, %esi	#,
	movl	$0, %edi	#,
	call	wipe_EndScreen@PLT	#
# d_main.c:329:     wipestart = I_GetTime () - 1;
	.loc 1 329 17
	call	I_GetTime@PLT	#
# d_main.c:329:     wipestart = I_GetTime () - 1;
	.loc 1 329 15 discriminator 1
	subl	$1, %eax	#, tmp151
	movl	%eax, -28(%rbp)	# tmp151, wipestart
.L39:
# d_main.c:335: 	    nowtime = I_GetTime ();
	.loc 1 335 16
	call	I_GetTime@PLT	#
	movl	%eax, -12(%rbp)	# tmp152, nowtime
# d_main.c:336: 	    tics = nowtime - wipestart;
	.loc 1 336 11
	movl	-12(%rbp), %eax	# nowtime, tmp156
	subl	-28(%rbp), %eax	# wipestart, tmp155
	movl	%eax, -8(%rbp)	# tmp155, tics
# d_main.c:337: 	} while (!tics);
	.loc 1 337 11 discriminator 1
	cmpl	$0, -8(%rbp)	#, tics
	je	.L39	#,
# d_main.c:338: 	wipestart = nowtime;
	.loc 1 338 12
	movl	-12(%rbp), %eax	# nowtime, tmp157
	movl	%eax, -28(%rbp)	# tmp157, wipestart
# d_main.c:339: 	done = wipe_ScreenWipe(wipe_Melt
	.loc 1 339 9
	movl	-8(%rbp), %eax	# tics, tmp158
	movl	%eax, %r9d	# tmp158,
	movl	$200, %r8d	#,
	movl	$320, %ecx	#,
	movl	$0, %edx	#,
	movl	$0, %esi	#,
	movl	$1, %edi	#,
	call	wipe_ScreenWipe@PLT	#
# d_main.c:339: 	done = wipe_ScreenWipe(wipe_Melt
	.loc 1 339 7 discriminator 1
	movl	%eax, -4(%rbp)	# _57, done
# d_main.c:341: 	I_UpdateNoBlit ();
	.loc 1 341 2
	call	I_UpdateNoBlit@PLT	#
# d_main.c:342: 	M_Drawer ();                            // menu is drawn even on top of wipes
	.loc 1 342 2
	call	M_Drawer@PLT	#
# d_main.c:343: 	I_FinishUpdate ();                      // page flip or blit buffer
	.loc 1 343 2
	call	I_FinishUpdate@PLT	#
# d_main.c:344:     } while (!done);
	.loc 1 344 14
	cmpl	$0, -4(%rbp)	#, done
	je	.L39	#,
	jmp	.L11	#
.L41:
# d_main.c:210: 	return;                    // for comparative timing / profiling
	.loc 1 210 2
	nop	
.L11:
# d_main.c:345: }
	.loc 1 345 1
	leave	
	.cfi_def_cfa 7, 8
	ret	
	.cfi_endproc
.LFE8:
	.size	D_Display, .-D_Display
	.section	.rodata
.LC3:
	.string	"-debugfile"
.LC4:
	.string	"debug%i.txt"
.LC5:
	.string	"debug output to: %s\n"
.LC6:
	.string	"w"
	.text
	.globl	D_DoomLoop
	.type	D_DoomLoop, @function
D_DoomLoop:
.LFB9:
	.loc 1 355 1
	.cfi_startproc
	endbr64	
	pushq	%rbp	#
	.cfi_def_cfa_offset 16
	.cfi_offset 6, -16
	movq	%rsp, %rbp	#,
	.cfi_def_cfa_register 6
	subq	$32, %rsp	#,
# d_main.c:355: {
	.loc 1 355 1
	movq	%fs:40, %rax	# MEM[(<address-space-1> long unsigned int *)40B], tmp125
	movq	%rax, -8(%rbp)	# tmp125, D.8959
	xorl	%eax, %eax	# tmp125
# d_main.c:356:     if (demorecording)
	.loc 1 356 9
	movl	demorecording(%rip), %eax	# demorecording, demorecording.53_1
# d_main.c:356:     if (demorecording)
	.loc 1 356 8
	testl	%eax, %eax	# demorecording.53_1
	je	.L44	#,
# d_main.c:357: 	G_BeginRecording ();
	.loc 1 357 2
	call	G_BeginRecording@PLT	#
.L44:
# d_main.c:359:     if (M_CheckParm ("-debugfile"))
	.loc 1 359 9
	leaq	.LC3(%rip), %rax	#, tmp98
	movq	%rax, %rdi	# tmp98,
	call	M_CheckParm@PLT	#
# d_main.c:359:     if (M_CheckParm ("-debugfile"))
	.loc 1 359 8 discriminator 1
	testl	%eax, %eax	# _2
	je	.L45	#,
.LBB2:
# d_main.c:362: 	sprintf (filename,"debug%i.txt",consoleplayer);
	.loc 1 362 2
	movl	consoleplayer(%rip), %edx	# consoleplayer, consoleplayer.54_3
	leaq	-32(%rbp), %rax	#, tmp99
	leaq	.LC4(%rip), %rcx	#, tmp100
	movq	%rcx, %rsi	# tmp100,
	movq	%rax, %rdi	# tmp99,
	movl	$0, %eax	#,
	call	sprintf@PLT	#
# d_main.c:363: 	printf ("debug output to: %s\n",filename);
	.loc 1 363 2
	leaq	-32(%rbp), %rax	#, tmp101
	movq	%rax, %rsi	# tmp101,
	leaq	.LC5(%rip), %rax	#, tmp102
	movq	%rax, %rdi	# tmp102,
	movl	$0, %eax	#,
	call	printf@PLT	#
# d_main.c:364: 	debugfile = fopen (filename,"w");
	.loc 1 364 14
	leaq	-32(%rbp), %rax	#, tmp103
	leaq	.LC6(%rip), %rdx	#, tmp104
	movq	%rdx, %rsi	# tmp104,
	movq	%rax, %rdi	# tmp103,
	call	fopen@PLT	#
# d_main.c:364: 	debugfile = fopen (filename,"w");
	.loc 1 364 12 discriminator 1
	movq	%rax, debugfile(%rip)	# _4, debugfile
.L45:
.LBE2:
# d_main.c:367:     I_InitGraphics ();
	.loc 1 367 5
	call	I_InitGraphics@PLT	#
.L49:
# d_main.c:372: 	I_StartFrame ();                
	.loc 1 372 2
	call	I_StartFrame@PLT	#
# d_main.c:375: 	if (singletics)
	.loc 1 375 6
	movl	singletics(%rip), %eax	# singletics, singletics.55_5
# d_main.c:375: 	if (singletics)
	.loc 1 375 5
	testl	%eax, %eax	# singletics.55_5
	je	.L46	#,
# d_main.c:377: 	    I_StartTic ();
	.loc 1 377 6
	call	I_StartTic@PLT	#
# d_main.c:378: 	    D_ProcessEvents ();
	.loc 1 378 6
	call	D_ProcessEvents	#
# d_main.c:379: 	    G_BuildTiccmd (&netcmds[consoleplayer][maketic%BACKUPTICS]);
	.loc 1 379 44
	movl	consoleplayer(%rip), %esi	# consoleplayer, consoleplayer.56_6
# d_main.c:379: 	    G_BuildTiccmd (&netcmds[consoleplayer][maketic%BACKUPTICS]);
	.loc 1 379 52
	movl	maketic(%rip), %ecx	# maketic, maketic.57_7
	movslq	%ecx, %rax	# maketic.57_7, tmp106
	imulq	$715827883, %rax, %rax	#, tmp106, tmp107
	shrq	$32, %rax	#, tmp108
	movl	%eax, %edx	# tmp108, tmp109
	sarl	%edx	# tmp109
	movl	%ecx, %eax	# maketic.57_7, tmp110
	sarl	$31, %eax	#, tmp110
	subl	%eax, %edx	# tmp110, _8
	movl	%edx, %eax	# _8, tmp111
	addl	%eax, %eax	# tmp111
	addl	%edx, %eax	# _8, tmp111
	sall	$2, %eax	#, tmp112
	subl	%eax, %ecx	# tmp111, maketic.57_7
	movl	%ecx, %edx	# maketic.57_7, _8
# d_main.c:379: 	    G_BuildTiccmd (&netcmds[consoleplayer][maketic%BACKUPTICS]);
	.loc 1 379 6
	movslq	%edx, %rcx	# _8, tmp113
	movslq	%esi, %rdx	# consoleplayer.56_6, tmp114
	movq	%rdx, %rax	# tmp114, tmp115
	addq	%rax, %rax	# tmp115
	addq	%rdx, %rax	# tmp114, tmp115
	salq	$2, %rax	#, tmp116
	addq	%rcx, %rax	# tmp113, tmp117
	leaq	0(,%rax,8), %rdx	#, tmp118
	leaq	netcmds(%rip), %rax	#, tmp119
	addq	%rdx, %rax	# tmp118, _9
	movq	%rax, %rdi	# _9,
	call	G_BuildTiccmd@PLT	#
# d_main.c:380: 	    if (advancedemo)
	.loc 1 380 10
	movl	advancedemo(%rip), %eax	# advancedemo, advancedemo.58_10
# d_main.c:380: 	    if (advancedemo)
	.loc 1 380 9
	testl	%eax, %eax	# advancedemo.58_10
	je	.L47	#,
# d_main.c:381: 		D_DoAdvanceDemo ();
	.loc 1 381 3
	call	D_DoAdvanceDemo	#
.L47:
# d_main.c:382: 	    M_Ticker ();
	.loc 1 382 6
	call	M_Ticker@PLT	#
# d_main.c:383: 	    G_Ticker ();
	.loc 1 383 6
	call	G_Ticker@PLT	#
# d_main.c:384: 	    gametic++;
	.loc 1 384 13
	movl	gametic(%rip), %eax	# gametic, gametic.59_11
	addl	$1, %eax	#, _12
	movl	%eax, gametic(%rip)	# _12, gametic
# d_main.c:385: 	    maketic++;
	.loc 1 385 13
	movl	maketic(%rip), %eax	# maketic, maketic.60_13
	addl	$1, %eax	#, _14
	movl	%eax, maketic(%rip)	# _14, maketic
	jmp	.L48	#
.L46:
# d_main.c:389: 	    TryRunTics (); // will run at least one tic
	.loc 1 389 6
	call	TryRunTics@PLT	#
.L48:
# d_main.c:392: 	S_UpdateSounds (players[consoleplayer].mo);// move positional sounds
	.loc 1 392 2
	movl	consoleplayer(%rip), %eax	# consoleplayer, consoleplayer.61_15
# d_main.c:392: 	S_UpdateSounds (players[consoleplayer].mo);// move positional sounds
	.loc 1 392 40
	movslq	%eax, %rdx	# consoleplayer.61_15, tmp120
	movq	%rdx, %rax	# tmp120, tmp122
	salq	$2, %rax	#, tmp122
	addq	%rdx, %rax	# tmp120, tmp122
	salq	$6, %rax	#, tmp123
	movq	%rax, %rdx	# tmp122, tmp121
	leaq	players(%rip), %rax	#, tmp124
	movq	(%rdx,%rax), %rax	# players[consoleplayer.61_15].mo, _16
# d_main.c:392: 	S_UpdateSounds (players[consoleplayer].mo);// move positional sounds
	.loc 1 392 2
	movq	%rax, %rdi	# _16,
	call	S_UpdateSounds@PLT	#
# d_main.c:395: 	D_Display ();
	.loc 1 395 2
	call	D_Display	#
# d_main.c:404: 	I_SubmitSound();
	.loc 1 404 2
	call	I_SubmitSound@PLT	#
# d_main.c:372: 	I_StartFrame ();                
	.loc 1 372 2
	jmp	.L49	#
	.cfi_endproc
.LFE9:
	.size	D_DoomLoop, .-D_DoomLoop
	.globl	demosequence
	.bss
	.align 4
	.type	demosequence, @object
	.size	demosequence, 4
demosequence:
	.zero	4
	.globl	pagetic
	.align 4
	.type	pagetic, @object
	.size	pagetic, 4
pagetic:
	.zero	4
	.globl	pagename
	.align 8
	.type	pagename, @object
	.size	pagename, 8
pagename:
	.zero	8
	.text
	.globl	D_PageTicker
	.type	D_PageTicker, @function
D_PageTicker:
.LFB10:
	.loc 1 424 1
	.cfi_startproc
	endbr64	
	pushq	%rbp	#
	.cfi_def_cfa_offset 16
	.cfi_offset 6, -16
	movq	%rsp, %rbp	#,
	.cfi_def_cfa_register 6
# d_main.c:425:     if (--pagetic < 0)
	.loc 1 425 9
	movl	pagetic(%rip), %eax	# pagetic, pagetic.62_1
	subl	$1, %eax	#, _2
# d_main.c:425:     if (--pagetic < 0)
	.loc 1 425 8
	movl	%eax, pagetic(%rip)	# _2, pagetic
# d_main.c:425:     if (--pagetic < 0)
	.loc 1 425 9
	movl	pagetic(%rip), %eax	# pagetic, pagetic.63_3
# d_main.c:425:     if (--pagetic < 0)
	.loc 1 425 8
	testl	%eax, %eax	# pagetic.63_3
	jns	.L53	#,
# d_main.c:426: 	D_AdvanceDemo ();
	.loc 1 426 2
	call	D_AdvanceDemo	#
.L53:
# d_main.c:427: }
	.loc 1 427 1
	nop	
	popq	%rbp	#
	.cfi_def_cfa 7, 8
	ret	
	.cfi_endproc
.LFE10:
	.size	D_PageTicker, .-D_PageTicker
	.globl	D_PageDrawer
	.type	D_PageDrawer, @function
D_PageDrawer:
.LFB11:
	.loc 1 435 1
	.cfi_startproc
	endbr64	
	pushq	%rbp	#
	.cfi_def_cfa_offset 16
	.cfi_offset 6, -16
	movq	%rsp, %rbp	#,
	.cfi_def_cfa_register 6
# d_main.c:436:     V_DrawPatch (0,0, 0, W_CacheLumpName(pagename, PU_CACHE));
	.loc 1 436 5
	movq	pagename(%rip), %rax	# pagename, pagename.64_1
# d_main.c:436:     V_DrawPatch (0,0, 0, W_CacheLumpName(pagename, PU_CACHE));
	.loc 1 436 26
	movl	$101, %esi	#,
	movq	%rax, %rdi	# pagename.64_1,
	call	W_CacheLumpName@PLT	#
# d_main.c:436:     V_DrawPatch (0,0, 0, W_CacheLumpName(pagename, PU_CACHE));
	.loc 1 436 5 discriminator 1
	movq	%rax, %rcx	# _2,
	movl	$0, %edx	#,
	movl	$0, %esi	#,
	movl	$0, %edi	#,
	call	V_DrawPatch@PLT	#
# d_main.c:437: }
	.loc 1 437 1
	nop	
	popq	%rbp	#
	.cfi_def_cfa 7, 8
	ret	
	.cfi_endproc
.LFE11:
	.size	D_PageDrawer, .-D_PageDrawer
	.globl	D_AdvanceDemo
	.type	D_AdvanceDemo, @function
D_AdvanceDemo:
.LFB12:
	.loc 1 445 1
	.cfi_startproc
	endbr64	
	pushq	%rbp	#
	.cfi_def_cfa_offset 16
	.cfi_offset 6, -16
	movq	%rsp, %rbp	#,
	.cfi_def_cfa_register 6
# d_main.c:446:     advancedemo = true;
	.loc 1 446 17
	movl	$1, advancedemo(%rip)	#, advancedemo
# d_main.c:447: }
	.loc 1 447 1
	nop	
	popq	%rbp	#
	.cfi_def_cfa 7, 8
	ret	
	.cfi_endproc
.LFE12:
	.size	D_AdvanceDemo, .-D_AdvanceDemo
	.section	.rodata
.LC7:
	.string	"TITLEPIC"
.LC8:
	.string	"demo1"
.LC9:
	.string	"CREDIT"
.LC10:
	.string	"demo2"
.LC11:
	.string	"HELP2"
.LC12:
	.string	"demo3"
.LC13:
	.string	"demo4"
	.text
	.globl	D_DoAdvanceDemo
	.type	D_DoAdvanceDemo, @function
D_DoAdvanceDemo:
.LFB13:
	.loc 1 455 1
	.cfi_startproc
	endbr64	
	pushq	%rbp	#
	.cfi_def_cfa_offset 16
	.cfi_offset 6, -16
	movq	%rsp, %rbp	#,
	.cfi_def_cfa_register 6
# d_main.c:456:     players[consoleplayer].playerstate = PST_LIVE;  // not reborn
	.loc 1 456 27
	movl	consoleplayer(%rip), %eax	# consoleplayer, consoleplayer.65_1
# d_main.c:456:     players[consoleplayer].playerstate = PST_LIVE;  // not reborn
	.loc 1 456 40
	movslq	%eax, %rdx	# consoleplayer.65_1, tmp95
	movq	%rdx, %rax	# tmp95, tmp97
	salq	$2, %rax	#, tmp97
	addq	%rdx, %rax	# tmp95, tmp97
	salq	$6, %rax	#, tmp98
	movq	%rax, %rdx	# tmp97, tmp96
	leaq	8+players(%rip), %rax	#, tmp99
	movl	$0, (%rdx,%rax)	#, players[consoleplayer.65_1].playerstate
# d_main.c:457:     advancedemo = false;
	.loc 1 457 17
	movl	$0, advancedemo(%rip)	#, advancedemo
# d_main.c:458:     usergame = false;               // no save / end game here
	.loc 1 458 14
	movl	$0, usergame(%rip)	#, usergame
# d_main.c:459:     paused = false;
	.loc 1 459 12
	movl	$0, paused(%rip)	#, paused
# d_main.c:460:     gameaction = ga_nothing;
	.loc 1 460 16
	movl	$0, gameaction(%rip)	#, gameaction
# d_main.c:462:     if ( gamemode == retail )
	.loc 1 462 19
	movl	gamemode(%rip), %eax	# gamemode, gamemode.66_2
# d_main.c:462:     if ( gamemode == retail )
	.loc 1 462 8
	cmpl	$3, %eax	#, gamemode.66_2
	jne	.L57	#,
# d_main.c:463:       demosequence = (demosequence+1)%7;
	.loc 1 463 35
	movl	demosequence(%rip), %eax	# demosequence, demosequence.67_3
	addl	$1, %eax	#, _4
# d_main.c:463:       demosequence = (demosequence+1)%7;
	.loc 1 463 38
	movslq	%eax, %rdx	# _4, tmp100
	imulq	$-1840700269, %rdx, %rdx	#, tmp100, tmp101
	shrq	$32, %rdx	#, tmp102
	addl	%eax, %edx	# _4, tmp103
	sarl	$2, %edx	#, tmp104
	movl	%eax, %ecx	# _4, tmp105
	sarl	$31, %ecx	#, tmp105
	subl	%ecx, %edx	# tmp105, _5
	movl	%edx, %ecx	# _5, tmp106
	sall	$3, %ecx	#, tmp107
	subl	%edx, %ecx	# _5, tmp106
	subl	%ecx, %eax	# tmp106, _4
	movl	%eax, %edx	# _4, _5
# d_main.c:463:       demosequence = (demosequence+1)%7;
	.loc 1 463 20
	movl	%edx, demosequence(%rip)	# _5, demosequence
	jmp	.L58	#
.L57:
# d_main.c:465:       demosequence = (demosequence+1)%6;
	.loc 1 465 35
	movl	demosequence(%rip), %eax	# demosequence, demosequence.68_6
	leal	1(%rax), %ecx	#, _7
# d_main.c:465:       demosequence = (demosequence+1)%6;
	.loc 1 465 38
	movslq	%ecx, %rax	# _7, tmp108
	imulq	$715827883, %rax, %rax	#, tmp108, tmp109
	shrq	$32, %rax	#, tmp109
	movq	%rax, %rdx	# tmp109, tmp110
	movl	%ecx, %eax	# _7, tmp111
	sarl	$31, %eax	#, tmp111
	subl	%eax, %edx	# tmp111, _8
	movl	%edx, %eax	# _8, tmp112
	addl	%eax, %eax	# tmp112
	addl	%edx, %eax	# _8, tmp112
	addl	%eax, %eax	# tmp113
	subl	%eax, %ecx	# tmp112, _7
	movl	%ecx, %edx	# _7, _8
# d_main.c:465:       demosequence = (demosequence+1)%6;
	.loc 1 465 20
	movl	%edx, demosequence(%rip)	# _8, demosequence
.L58:
# d_main.c:467:     switch (demosequence)
	.loc 1 467 5
	movl	demosequence(%rip), %eax	# demosequence, demosequence.69_9
	cmpl	$6, %eax	#, demosequence.69_9
	ja	.L75	#,
	movl	%eax, %eax	# demosequence.69_9, tmp114
	leaq	0(,%rax,4), %rdx	#, tmp115
	leaq	.L61(%rip), %rax	#, tmp116
	movl	(%rdx,%rax), %eax	#, tmp117
	cltq
	leaq	.L61(%rip), %rdx	#, tmp120
	addq	%rdx, %rax	# tmp120, tmp119
	notrack jmp	*%rax	# tmp119
	.section	.rodata
	.align 4
	.align 4
.L61:
	.long	.L67-.L61
	.long	.L66-.L61
	.long	.L65-.L61
	.long	.L64-.L61
	.long	.L63-.L61
	.long	.L62-.L61
	.long	.L60-.L61
	.text
.L67:
# d_main.c:470: 	if ( gamemode == commercial )
	.loc 1 470 16
	movl	gamemode(%rip), %eax	# gamemode, gamemode.70_10
# d_main.c:470: 	if ( gamemode == commercial )
	.loc 1 470 5
	cmpl	$2, %eax	#, gamemode.70_10
	jne	.L68	#,
# d_main.c:471: 	    pagetic = 35 * 11;
	.loc 1 471 14
	movl	$385, pagetic(%rip)	#, pagetic
	jmp	.L69	#
.L68:
# d_main.c:473: 	    pagetic = 170;
	.loc 1 473 14
	movl	$170, pagetic(%rip)	#, pagetic
.L69:
# d_main.c:474: 	gamestate = GS_DEMOSCREEN;
	.loc 1 474 12
	movl	$3, gamestate(%rip)	#, gamestate
# d_main.c:475: 	pagename = "TITLEPIC";
	.loc 1 475 11
	leaq	.LC7(%rip), %rax	#, tmp121
	movq	%rax, pagename(%rip)	# tmp121, pagename
# d_main.c:476: 	if ( gamemode == commercial )
	.loc 1 476 16
	movl	gamemode(%rip), %eax	# gamemode, gamemode.71_11
# d_main.c:476: 	if ( gamemode == commercial )
	.loc 1 476 5
	cmpl	$2, %eax	#, gamemode.71_11
	jne	.L70	#,
# d_main.c:477: 	  S_StartMusic(mus_dm2ttl);
	.loc 1 477 4
	movl	$66, %edi	#,
	call	S_StartMusic@PLT	#
# d_main.c:480: 	break;
	.loc 1 480 2
	jmp	.L59	#
.L70:
# d_main.c:479: 	  S_StartMusic (mus_intro);
	.loc 1 479 4
	movl	$29, %edi	#,
	call	S_StartMusic@PLT	#
# d_main.c:480: 	break;
	.loc 1 480 2
	jmp	.L59	#
.L66:
# d_main.c:482: 	G_DeferedPlayDemo ("demo1");
	.loc 1 482 2
	leaq	.LC8(%rip), %rax	#, tmp122
	movq	%rax, %rdi	# tmp122,
	call	G_DeferedPlayDemo@PLT	#
# d_main.c:483: 	break;
	.loc 1 483 2
	jmp	.L59	#
.L65:
# d_main.c:485: 	pagetic = 200;
	.loc 1 485 10
	movl	$200, pagetic(%rip)	#, pagetic
# d_main.c:486: 	gamestate = GS_DEMOSCREEN;
	.loc 1 486 12
	movl	$3, gamestate(%rip)	#, gamestate
# d_main.c:487: 	pagename = "CREDIT";
	.loc 1 487 11
	leaq	.LC9(%rip), %rax	#, tmp123
	movq	%rax, pagename(%rip)	# tmp123, pagename
# d_main.c:488: 	break;
	.loc 1 488 2
	jmp	.L59	#
.L64:
# d_main.c:490: 	G_DeferedPlayDemo ("demo2");
	.loc 1 490 2
	leaq	.LC10(%rip), %rax	#, tmp124
	movq	%rax, %rdi	# tmp124,
	call	G_DeferedPlayDemo@PLT	#
# d_main.c:491: 	break;
	.loc 1 491 2
	jmp	.L59	#
.L63:
# d_main.c:493: 	gamestate = GS_DEMOSCREEN;
	.loc 1 493 12
	movl	$3, gamestate(%rip)	#, gamestate
# d_main.c:494: 	if ( gamemode == commercial)
	.loc 1 494 16
	movl	gamemode(%rip), %eax	# gamemode, gamemode.72_12
# d_main.c:494: 	if ( gamemode == commercial)
	.loc 1 494 5
	cmpl	$2, %eax	#, gamemode.72_12
	jne	.L72	#,
# d_main.c:496: 	    pagetic = 35 * 11;
	.loc 1 496 14
	movl	$385, pagetic(%rip)	#, pagetic
# d_main.c:497: 	    pagename = "TITLEPIC";
	.loc 1 497 15
	leaq	.LC7(%rip), %rax	#, tmp125
	movq	%rax, pagename(%rip)	# tmp125, pagename
# d_main.c:498: 	    S_StartMusic(mus_dm2ttl);
	.loc 1 498 6
	movl	$66, %edi	#,
	call	S_StartMusic@PLT	#
# d_main.c:509: 	break;
	.loc 1 509 2
	jmp	.L59	#
.L72:
# d_main.c:502: 	    pagetic = 200;
	.loc 1 502 14
	movl	$200, pagetic(%rip)	#, pagetic
# d_main.c:504: 	    if ( gamemode == retail )
	.loc 1 504 20
	movl	gamemode(%rip), %eax	# gamemode, gamemode.73_13
# d_main.c:504: 	    if ( gamemode == retail )
	.loc 1 504 9
	cmpl	$3, %eax	#, gamemode.73_13
	jne	.L74	#,
# d_main.c:505: 	      pagename = "CREDIT";
	.loc 1 505 17
	leaq	.LC9(%rip), %rax	#, tmp126
	movq	%rax, pagename(%rip)	# tmp126, pagename
# d_main.c:509: 	break;
	.loc 1 509 2
	jmp	.L59	#
.L74:
# d_main.c:507: 	      pagename = "HELP2";
	.loc 1 507 17
	leaq	.LC11(%rip), %rax	#, tmp127
	movq	%rax, pagename(%rip)	# tmp127, pagename
# d_main.c:509: 	break;
	.loc 1 509 2
	jmp	.L59	#
.L62:
# d_main.c:511: 	G_DeferedPlayDemo ("demo3");
	.loc 1 511 2
	leaq	.LC12(%rip), %rax	#, tmp128
	movq	%rax, %rdi	# tmp128,
	call	G_DeferedPlayDemo@PLT	#
# d_main.c:512: 	break;
	.loc 1 512 2
	jmp	.L59	#
.L60:
# d_main.c:515: 	G_DeferedPlayDemo ("demo4");
	.loc 1 515 2
	leaq	.LC13(%rip), %rax	#, tmp129
	movq	%rax, %rdi	# tmp129,
	call	G_DeferedPlayDemo@PLT	#
# d_main.c:516: 	break;
	.loc 1 516 2
	nop	
.L59:
.L75:
# d_main.c:518: }
	.loc 1 518 1
	nop	
	popq	%rbp	#
	.cfi_def_cfa 7, 8
	ret	
	.cfi_endproc
.LFE13:
	.size	D_DoAdvanceDemo, .-D_DoAdvanceDemo
	.globl	D_StartTitle
	.type	D_StartTitle, @function
D_StartTitle:
.LFB14:
	.loc 1 526 1
	.cfi_startproc
	endbr64	
	pushq	%rbp	#
	.cfi_def_cfa_offset 16
	.cfi_offset 6, -16
	movq	%rsp, %rbp	#,
	.cfi_def_cfa_register 6
# d_main.c:527:     gameaction = ga_nothing;
	.loc 1 527 16
	movl	$0, gameaction(%rip)	#, gameaction
# d_main.c:528:     demosequence = -1;
	.loc 1 528 18
	movl	$-1, demosequence(%rip)	#, demosequence
# d_main.c:529:     D_AdvanceDemo ();
	.loc 1 529 5
	call	D_AdvanceDemo	#
# d_main.c:530: }
	.loc 1 530 1
	nop	
	popq	%rbp	#
	.cfi_def_cfa 7, 8
	ret	
	.cfi_endproc
.LFE14:
	.size	D_StartTitle, .-D_StartTitle
	.globl	title
	.bss
	.align 32
	.type	title, @object
	.size	title, 128
title:
	.zero	128
	.text
	.globl	D_AddFile
	.type	D_AddFile, @function
D_AddFile:
.LFB15:
	.loc 1 544 1
	.cfi_startproc
	endbr64	
	pushq	%rbp	#
	.cfi_def_cfa_offset 16
	.cfi_offset 6, -16
	movq	%rsp, %rbp	#,
	.cfi_def_cfa_register 6
	subq	$32, %rsp	#,
	movq	%rdi, -24(%rbp)	# file, file
# d_main.c:548:     for (numwadfiles = 0 ; wadfiles[numwadfiles] ; numwadfiles++)
	.loc 1 548 22
	movl	$0, -12(%rbp)	#, numwadfiles
# d_main.c:548:     for (numwadfiles = 0 ; wadfiles[numwadfiles] ; numwadfiles++)
	.loc 1 548 5
	jmp	.L78	#
.L79:
# d_main.c:548:     for (numwadfiles = 0 ; wadfiles[numwadfiles] ; numwadfiles++)
	.loc 1 548 63 discriminator 3
	addl	$1, -12(%rbp)	#, numwadfiles
.L78:
# d_main.c:548:     for (numwadfiles = 0 ; wadfiles[numwadfiles] ; numwadfiles++)
	.loc 1 548 36 discriminator 1
	movl	-12(%rbp), %eax	# numwadfiles, tmp86
	cltq
	leaq	0(,%rax,8), %rdx	#, tmp87
	leaq	wadfiles(%rip), %rax	#, tmp88
	movq	(%rdx,%rax), %rax	# wadfiles[numwadfiles_4], _1
# d_main.c:548:     for (numwadfiles = 0 ; wadfiles[numwadfiles] ; numwadfiles++)
	.loc 1 548 28 discriminator 1
	testq	%rax, %rax	# _1
	jne	.L79	#,
# d_main.c:551:     newfile = malloc (strlen(file)+1);
	.loc 1 551 23
	movq	-24(%rbp), %rax	# file, tmp89
	movq	%rax, %rdi	# tmp89,
	call	strlen@PLT	#
# d_main.c:551:     newfile = malloc (strlen(file)+1);
	.loc 1 551 15 discriminator 1
	addq	$1, %rax	#, _3
	movq	%rax, %rdi	# _3,
	call	malloc@PLT	#
	movq	%rax, -8(%rbp)	# tmp90, newfile
# d_main.c:552:     strcpy (newfile, file);
	.loc 1 552 5
	movq	-24(%rbp), %rdx	# file, tmp91
	movq	-8(%rbp), %rax	# newfile, tmp92
	movq	%rdx, %rsi	# tmp91,
	movq	%rax, %rdi	# tmp92,
	call	strcpy@PLT	#
# d_main.c:554:     wadfiles[numwadfiles] = newfile;
	.loc 1 554 27
	movl	-12(%rbp), %eax	# numwadfiles, tmp94
	cltq
	leaq	0(,%rax,8), %rcx	#, tmp95
	leaq	wadfiles(%rip), %rdx	#, tmp96
	movq	-8(%rbp), %rax	# newfile, tmp97
	movq	%rax, (%rcx,%rdx)	# tmp97, wadfiles[numwadfiles_4]
# d_main.c:555: }
	.loc 1 555 1
	nop	
	leave	
	.cfi_def_cfa 7, 8
	ret	
	.cfi_endproc
.LFE15:
	.size	D_AddFile, .-D_AddFile
	.section	.rodata
.LC14:
	.string	"DOOMWADDIR"
.LC15:
	.string	"."
.LC16:
	.string	"%s/doom2.wad"
.LC17:
	.string	"%s/doomu.wad"
.LC18:
	.string	"%s/doom.wad"
.LC19:
	.string	"%s/doom1.wad"
.LC20:
	.string	"%s/plutonia.wad"
.LC21:
	.string	"%s/tnt.wad"
.LC22:
	.string	"%s/doom2f.wad"
.LC23:
	.string	"HOME"
	.align 8
.LC24:
	.string	"Please set $HOME to your home directory"
.LC25:
	.string	"%s/.doomrc"
.LC26:
	.string	"-shdev"
.LC27:
	.string	"devdatadoom1.wad"
.LC28:
	.string	"devmapsdata_se/texture1.lmp"
.LC29:
	.string	"devmapsdata_se/pnames.lmp"
.LC30:
	.string	"-regdev"
.LC31:
	.string	"devdatadoom.wad"
.LC32:
	.string	"devmapsdata_se/texture2.lmp"
.LC33:
	.string	"-comdev"
.LC34:
	.string	"devdatadoom2.wad"
.LC35:
	.string	"devmapscdata/texture1.lmp"
.LC36:
	.string	"devmapscdata/pnames.lmp"
.LC37:
	.string	"French version"
.LC38:
	.string	"Game mode indeterminate."
	.text
	.globl	IdentifyVersion
	.type	IdentifyVersion, @function
IdentifyVersion:
.LFB16:
	.loc 1 564 1
	.cfi_startproc
	endbr64	
	pushq	%rbp	#
	.cfi_def_cfa_offset 16
	.cfi_offset 6, -16
	movq	%rsp, %rbp	#,
	.cfi_def_cfa_register 6
	subq	$80, %rsp	#,
# d_main.c:578:     doomwaddir = getenv("DOOMWADDIR");
	.loc 1 578 18
	leaq	.LC14(%rip), %rax	#, tmp106
	movq	%rax, %rdi	# tmp106,
	call	getenv@PLT	#
	movq	%rax, -72(%rbp)	# tmp107, doomwaddir
# d_main.c:579:     if (!doomwaddir)
	.loc 1 579 8
	cmpq	$0, -72(%rbp)	#, doomwaddir
	jne	.L81	#,
# d_main.c:580: 	doomwaddir = ".";
	.loc 1 580 13
	leaq	.LC15(%rip), %rax	#, tmp108
	movq	%rax, -72(%rbp)	# tmp108, doomwaddir
.L81:
# d_main.c:583:     doom2wad = malloc(strlen(doomwaddir)+1+9+1);
	.loc 1 583 23
	movq	-72(%rbp), %rax	# doomwaddir, tmp109
	movq	%rax, %rdi	# tmp109,
	call	strlen@PLT	#
# d_main.c:583:     doom2wad = malloc(strlen(doomwaddir)+1+9+1);
	.loc 1 583 16 discriminator 1
	addq	$11, %rax	#, _2
	movq	%rax, %rdi	# _2,
	call	malloc@PLT	#
	movq	%rax, -64(%rbp)	# tmp110, doom2wad
# d_main.c:584:     sprintf(doom2wad, "%s/doom2.wad", doomwaddir);
	.loc 1 584 5
	movq	-72(%rbp), %rdx	# doomwaddir, tmp111
	movq	-64(%rbp), %rax	# doom2wad, tmp112
	leaq	.LC16(%rip), %rcx	#, tmp113
	movq	%rcx, %rsi	# tmp113,
	movq	%rax, %rdi	# tmp112,
	movl	$0, %eax	#,
	call	sprintf@PLT	#
# d_main.c:587:     doomuwad = malloc(strlen(doomwaddir)+1+8+1);
	.loc 1 587 23
	movq	-72(%rbp), %rax	# doomwaddir, tmp114
	movq	%rax, %rdi	# tmp114,
	call	strlen@PLT	#
# d_main.c:587:     doomuwad = malloc(strlen(doomwaddir)+1+8+1);
	.loc 1 587 16 discriminator 1
	addq	$10, %rax	#, _4
	movq	%rax, %rdi	# _4,
	call	malloc@PLT	#
	movq	%rax, -56(%rbp)	# tmp115, doomuwad
# d_main.c:588:     sprintf(doomuwad, "%s/doomu.wad", doomwaddir);
	.loc 1 588 5
	movq	-72(%rbp), %rdx	# doomwaddir, tmp116
	movq	-56(%rbp), %rax	# doomuwad, tmp117
	leaq	.LC17(%rip), %rcx	#, tmp118
	movq	%rcx, %rsi	# tmp118,
	movq	%rax, %rdi	# tmp117,
	movl	$0, %eax	#,
	call	sprintf@PLT	#
# d_main.c:591:     doomwad = malloc(strlen(doomwaddir)+1+8+1);
	.loc 1 591 22
	movq	-72(%rbp), %rax	# doomwaddir, tmp119
	movq	%rax, %rdi	# tmp119,
	call	strlen@PLT	#
# d_main.c:591:     doomwad = malloc(strlen(doomwaddir)+1+8+1);
	.loc 1 591 15 discriminator 1
	addq	$10, %rax	#, _6
	movq	%rax, %rdi	# _6,
	call	malloc@PLT	#
	movq	%rax, -48(%rbp)	# tmp120, doomwad
# d_main.c:592:     sprintf(doomwad, "%s/doom.wad", doomwaddir);
	.loc 1 592 5
	movq	-72(%rbp), %rdx	# doomwaddir, tmp121
	movq	-48(%rbp), %rax	# doomwad, tmp122
	leaq	.LC18(%rip), %rcx	#, tmp123
	movq	%rcx, %rsi	# tmp123,
	movq	%rax, %rdi	# tmp122,
	movl	$0, %eax	#,
	call	sprintf@PLT	#
# d_main.c:595:     doom1wad = malloc(strlen(doomwaddir)+1+9+1);
	.loc 1 595 23
	movq	-72(%rbp), %rax	# doomwaddir, tmp124
	movq	%rax, %rdi	# tmp124,
	call	strlen@PLT	#
# d_main.c:595:     doom1wad = malloc(strlen(doomwaddir)+1+9+1);
	.loc 1 595 16 discriminator 1
	addq	$11, %rax	#, _8
	movq	%rax, %rdi	# _8,
	call	malloc@PLT	#
	movq	%rax, -40(%rbp)	# tmp125, doom1wad
# d_main.c:596:     sprintf(doom1wad, "%s/doom1.wad", doomwaddir);
	.loc 1 596 5
	movq	-72(%rbp), %rdx	# doomwaddir, tmp126
	movq	-40(%rbp), %rax	# doom1wad, tmp127
	leaq	.LC19(%rip), %rcx	#, tmp128
	movq	%rcx, %rsi	# tmp128,
	movq	%rax, %rdi	# tmp127,
	movl	$0, %eax	#,
	call	sprintf@PLT	#
# d_main.c:600:     plutoniawad = malloc(strlen(doomwaddir)+1+/*9*/12+1);
	.loc 1 600 26
	movq	-72(%rbp), %rax	# doomwaddir, tmp129
	movq	%rax, %rdi	# tmp129,
	call	strlen@PLT	#
# d_main.c:600:     plutoniawad = malloc(strlen(doomwaddir)+1+/*9*/12+1);
	.loc 1 600 19 discriminator 1
	addq	$14, %rax	#, _10
	movq	%rax, %rdi	# _10,
	call	malloc@PLT	#
	movq	%rax, -32(%rbp)	# tmp130, plutoniawad
# d_main.c:601:     sprintf(plutoniawad, "%s/plutonia.wad", doomwaddir);
	.loc 1 601 5
	movq	-72(%rbp), %rdx	# doomwaddir, tmp131
	movq	-32(%rbp), %rax	# plutoniawad, tmp132
	leaq	.LC20(%rip), %rcx	#, tmp133
	movq	%rcx, %rsi	# tmp133,
	movq	%rax, %rdi	# tmp132,
	movl	$0, %eax	#,
	call	sprintf@PLT	#
# d_main.c:603:     tntwad = malloc(strlen(doomwaddir)+1+9+1);
	.loc 1 603 21
	movq	-72(%rbp), %rax	# doomwaddir, tmp134
	movq	%rax, %rdi	# tmp134,
	call	strlen@PLT	#
# d_main.c:603:     tntwad = malloc(strlen(doomwaddir)+1+9+1);
	.loc 1 603 14 discriminator 1
	addq	$11, %rax	#, _12
	movq	%rax, %rdi	# _12,
	call	malloc@PLT	#
	movq	%rax, -24(%rbp)	# tmp135, tntwad
# d_main.c:604:     sprintf(tntwad, "%s/tnt.wad", doomwaddir);
	.loc 1 604 5
	movq	-72(%rbp), %rdx	# doomwaddir, tmp136
	movq	-24(%rbp), %rax	# tntwad, tmp137
	leaq	.LC21(%rip), %rcx	#, tmp138
	movq	%rcx, %rsi	# tmp138,
	movq	%rax, %rdi	# tmp137,
	movl	$0, %eax	#,
	call	sprintf@PLT	#
# d_main.c:608:     doom2fwad = malloc(strlen(doomwaddir)+1+10+1);
	.loc 1 608 24
	movq	-72(%rbp), %rax	# doomwaddir, tmp139
	movq	%rax, %rdi	# tmp139,
	call	strlen@PLT	#
# d_main.c:608:     doom2fwad = malloc(strlen(doomwaddir)+1+10+1);
	.loc 1 608 17 discriminator 1
	addq	$12, %rax	#, _14
	movq	%rax, %rdi	# _14,
	call	malloc@PLT	#
	movq	%rax, -16(%rbp)	# tmp140, doom2fwad
# d_main.c:609:     sprintf(doom2fwad, "%s/doom2f.wad", doomwaddir);
	.loc 1 609 5
	movq	-72(%rbp), %rdx	# doomwaddir, tmp141
	movq	-16(%rbp), %rax	# doom2fwad, tmp142
	leaq	.LC22(%rip), %rcx	#, tmp143
	movq	%rcx, %rsi	# tmp143,
	movq	%rax, %rdi	# tmp142,
	movl	$0, %eax	#,
	call	sprintf@PLT	#
# d_main.c:611:     home = getenv("HOME");
	.loc 1 611 12
	leaq	.LC23(%rip), %rax	#, tmp144
	movq	%rax, %rdi	# tmp144,
	call	getenv@PLT	#
	movq	%rax, -8(%rbp)	# tmp145, home
# d_main.c:612:     if (!home)
	.loc 1 612 8
	cmpq	$0, -8(%rbp)	#, home
	jne	.L82	#,
# d_main.c:613:       I_Error("Please set $HOME to your home directory");
	.loc 1 613 7
	leaq	.LC24(%rip), %rax	#, tmp146
	movq	%rax, %rdi	# tmp146,
	movl	$0, %eax	#,
	call	I_Error@PLT	#
.L82:
# d_main.c:614:     sprintf(basedefault, "%s/.doomrc", home);
	.loc 1 614 5
	movq	-8(%rbp), %rax	# home, tmp147
	movq	%rax, %rdx	# tmp147,
	leaq	.LC25(%rip), %rax	#, tmp148
	movq	%rax, %rsi	# tmp148,
	leaq	basedefault(%rip), %rax	#, tmp149
	movq	%rax, %rdi	# tmp149,
	movl	$0, %eax	#,
	call	sprintf@PLT	#
# d_main.c:617:     if (M_CheckParm ("-shdev"))
	.loc 1 617 9
	leaq	.LC26(%rip), %rax	#, tmp150
	movq	%rax, %rdi	# tmp150,
	call	M_CheckParm@PLT	#
# d_main.c:617:     if (M_CheckParm ("-shdev"))
	.loc 1 617 8 discriminator 1
	testl	%eax, %eax	# _15
	je	.L83	#,
# d_main.c:619: 	gamemode = shareware;
	.loc 1 619 11
	movl	$0, gamemode(%rip)	#, gamemode
# d_main.c:620: 	devparm = true;
	.loc 1 620 10
	movl	$1, devparm(%rip)	#, devparm
# d_main.c:621: 	D_AddFile (DEVDATA"doom1.wad");
	.loc 1 621 2
	leaq	.LC27(%rip), %rax	#, tmp151
	movq	%rax, %rdi	# tmp151,
	call	D_AddFile	#
# d_main.c:622: 	D_AddFile (DEVMAPS"data_se/texture1.lmp");
	.loc 1 622 2
	leaq	.LC28(%rip), %rax	#, tmp152
	movq	%rax, %rdi	# tmp152,
	call	D_AddFile	#
# d_main.c:623: 	D_AddFile (DEVMAPS"data_se/pnames.lmp");
	.loc 1 623 2
	leaq	.LC29(%rip), %rax	#, tmp153
	movq	%rax, %rdi	# tmp153,
	call	D_AddFile	#
# d_main.c:624: 	strcpy (basedefault,DEVDATA"default.cfg");
	.loc 1 624 2
	movabsq	$7233190438179857764, %rax	#, tmp180
	movabsq	$7146777667858163301, %rdx	#,
	movq	%rax, basedefault(%rip)	# tmp180, MEM <char[1:19]> [(void *)&basedefault]
	movq	%rdx, 8+basedefault(%rip)	#, MEM <char[1:19]> [(void *)&basedefault]
	movl	$6776419, 15+basedefault(%rip)	#, MEM <char[1:19]> [(void *)&basedefault]
# d_main.c:625: 	return;
	.loc 1 625 2
	jmp	.L80	#
.L83:
# d_main.c:628:     if (M_CheckParm ("-regdev"))
	.loc 1 628 9
	leaq	.LC30(%rip), %rax	#, tmp154
	movq	%rax, %rdi	# tmp154,
	call	M_CheckParm@PLT	#
# d_main.c:628:     if (M_CheckParm ("-regdev"))
	.loc 1 628 8 discriminator 1
	testl	%eax, %eax	# _16
	je	.L85	#,
# d_main.c:630: 	gamemode = registered;
	.loc 1 630 11
	movl	$1, gamemode(%rip)	#, gamemode
# d_main.c:631: 	devparm = true;
	.loc 1 631 10
	movl	$1, devparm(%rip)	#, devparm
# d_main.c:632: 	D_AddFile (DEVDATA"doom.wad");
	.loc 1 632 2
	leaq	.LC31(%rip), %rax	#, tmp155
	movq	%rax, %rdi	# tmp155,
	call	D_AddFile	#
# d_main.c:633: 	D_AddFile (DEVMAPS"data_se/texture1.lmp");
	.loc 1 633 2
	leaq	.LC28(%rip), %rax	#, tmp156
	movq	%rax, %rdi	# tmp156,
	call	D_AddFile	#
# d_main.c:634: 	D_AddFile (DEVMAPS"data_se/texture2.lmp");
	.loc 1 634 2
	leaq	.LC32(%rip), %rax	#, tmp157
	movq	%rax, %rdi	# tmp157,
	call	D_AddFile	#
# d_main.c:635: 	D_AddFile (DEVMAPS"data_se/pnames.lmp");
	.loc 1 635 2
	leaq	.LC29(%rip), %rax	#, tmp158
	movq	%rax, %rdi	# tmp158,
	call	D_AddFile	#
# d_main.c:636: 	strcpy (basedefault,DEVDATA"default.cfg");
	.loc 1 636 2
	movabsq	$7233190438179857764, %rax	#, tmp181
	movabsq	$7146777667858163301, %rdx	#,
	movq	%rax, basedefault(%rip)	# tmp181, MEM <char[1:19]> [(void *)&basedefault]
	movq	%rdx, 8+basedefault(%rip)	#, MEM <char[1:19]> [(void *)&basedefault]
	movl	$6776419, 15+basedefault(%rip)	#, MEM <char[1:19]> [(void *)&basedefault]
# d_main.c:637: 	return;
	.loc 1 637 2
	jmp	.L80	#
.L85:
# d_main.c:640:     if (M_CheckParm ("-comdev"))
	.loc 1 640 9
	leaq	.LC33(%rip), %rax	#, tmp159
	movq	%rax, %rdi	# tmp159,
	call	M_CheckParm@PLT	#
# d_main.c:640:     if (M_CheckParm ("-comdev"))
	.loc 1 640 8 discriminator 1
	testl	%eax, %eax	# _17
	je	.L86	#,
# d_main.c:642: 	gamemode = commercial;
	.loc 1 642 11
	movl	$2, gamemode(%rip)	#, gamemode
# d_main.c:643: 	devparm = true;
	.loc 1 643 10
	movl	$1, devparm(%rip)	#, devparm
# d_main.c:650: 	    D_AddFile (DEVDATA"doom2.wad");
	.loc 1 650 6
	leaq	.LC34(%rip), %rax	#, tmp160
	movq	%rax, %rdi	# tmp160,
	call	D_AddFile	#
# d_main.c:652: 	D_AddFile (DEVMAPS"cdata/texture1.lmp");
	.loc 1 652 2
	leaq	.LC35(%rip), %rax	#, tmp161
	movq	%rax, %rdi	# tmp161,
	call	D_AddFile	#
# d_main.c:653: 	D_AddFile (DEVMAPS"cdata/pnames.lmp");
	.loc 1 653 2
	leaq	.LC36(%rip), %rax	#, tmp162
	movq	%rax, %rdi	# tmp162,
	call	D_AddFile	#
# d_main.c:654: 	strcpy (basedefault,DEVDATA"default.cfg");
	.loc 1 654 2
	movabsq	$7233190438179857764, %rax	#, tmp182
	movabsq	$7146777667858163301, %rdx	#,
	movq	%rax, basedefault(%rip)	# tmp182, MEM <char[1:19]> [(void *)&basedefault]
	movq	%rdx, 8+basedefault(%rip)	#, MEM <char[1:19]> [(void *)&basedefault]
	movl	$6776419, 15+basedefault(%rip)	#, MEM <char[1:19]> [(void *)&basedefault]
# d_main.c:655: 	return;
	.loc 1 655 2
	jmp	.L80	#
.L86:
# d_main.c:658:     if ( !access (doom2fwad,R_OK) )
	.loc 1 658 11
	movq	-16(%rbp), %rax	# doom2fwad, tmp163
	movl	$4, %esi	#,
	movq	%rax, %rdi	# tmp163,
	call	access@PLT	#
# d_main.c:658:     if ( !access (doom2fwad,R_OK) )
	.loc 1 658 8 discriminator 1
	testl	%eax, %eax	# _18
	jne	.L87	#,
# d_main.c:660: 	gamemode = commercial;
	.loc 1 660 11
	movl	$2, gamemode(%rip)	#, gamemode
# d_main.c:663: 	language = french;
	.loc 1 663 11
	movl	$1, language(%rip)	#, language
# d_main.c:664: 	printf("French version\n");
	.loc 1 664 2
	leaq	.LC37(%rip), %rax	#, tmp164
	movq	%rax, %rdi	# tmp164,
	call	puts@PLT	#
# d_main.c:665: 	D_AddFile (doom2fwad);
	.loc 1 665 2
	movq	-16(%rbp), %rax	# doom2fwad, tmp165
	movq	%rax, %rdi	# tmp165,
	call	D_AddFile	#
# d_main.c:666: 	return;
	.loc 1 666 2
	jmp	.L80	#
.L87:
# d_main.c:669:     if ( !access (doom2wad,R_OK) )
	.loc 1 669 11
	movq	-64(%rbp), %rax	# doom2wad, tmp166
	movl	$4, %esi	#,
	movq	%rax, %rdi	# tmp166,
	call	access@PLT	#
# d_main.c:669:     if ( !access (doom2wad,R_OK) )
	.loc 1 669 8 discriminator 1
	testl	%eax, %eax	# _19
	jne	.L88	#,
# d_main.c:671: 	gamemode = commercial;
	.loc 1 671 11
	movl	$2, gamemode(%rip)	#, gamemode
# d_main.c:672: 	D_AddFile (doom2wad);
	.loc 1 672 2
	movq	-64(%rbp), %rax	# doom2wad, tmp167
	movq	%rax, %rdi	# tmp167,
	call	D_AddFile	#
# d_main.c:673: 	return;
	.loc 1 673 2
	jmp	.L80	#
.L88:
# d_main.c:676:     if ( !access (plutoniawad, R_OK ) )
	.loc 1 676 11
	movq	-32(%rbp), %rax	# plutoniawad, tmp168
	movl	$4, %esi	#,
	movq	%rax, %rdi	# tmp168,
	call	access@PLT	#
# d_main.c:676:     if ( !access (plutoniawad, R_OK ) )
	.loc 1 676 8 discriminator 1
	testl	%eax, %eax	# _20
	jne	.L89	#,
# d_main.c:678:       gamemode = commercial;
	.loc 1 678 16
	movl	$2, gamemode(%rip)	#, gamemode
# d_main.c:679:       D_AddFile (plutoniawad);
	.loc 1 679 7
	movq	-32(%rbp), %rax	# plutoniawad, tmp169
	movq	%rax, %rdi	# tmp169,
	call	D_AddFile	#
# d_main.c:680:       return;
	.loc 1 680 7
	jmp	.L80	#
.L89:
# d_main.c:683:     if ( !access ( tntwad, R_OK ) )
	.loc 1 683 11
	movq	-24(%rbp), %rax	# tntwad, tmp170
	movl	$4, %esi	#,
	movq	%rax, %rdi	# tmp170,
	call	access@PLT	#
# d_main.c:683:     if ( !access ( tntwad, R_OK ) )
	.loc 1 683 8 discriminator 1
	testl	%eax, %eax	# _21
	jne	.L90	#,
# d_main.c:685:       gamemode = commercial;
	.loc 1 685 16
	movl	$2, gamemode(%rip)	#, gamemode
# d_main.c:686:       D_AddFile (tntwad);
	.loc 1 686 7
	movq	-24(%rbp), %rax	# tntwad, tmp171
	movq	%rax, %rdi	# tmp171,
	call	D_AddFile	#
# d_main.c:687:       return;
	.loc 1 687 7
	jmp	.L80	#
.L90:
# d_main.c:690:     if ( !access (doomuwad,R_OK) )
	.loc 1 690 11
	movq	-56(%rbp), %rax	# doomuwad, tmp172
	movl	$4, %esi	#,
	movq	%rax, %rdi	# tmp172,
	call	access@PLT	#
# d_main.c:690:     if ( !access (doomuwad,R_OK) )
	.loc 1 690 8 discriminator 1
	testl	%eax, %eax	# _22
	jne	.L91	#,
# d_main.c:692:       gamemode = retail;
	.loc 1 692 16
	movl	$3, gamemode(%rip)	#, gamemode
# d_main.c:693:       D_AddFile (doomuwad);
	.loc 1 693 7
	movq	-56(%rbp), %rax	# doomuwad, tmp173
	movq	%rax, %rdi	# tmp173,
	call	D_AddFile	#
# d_main.c:694:       return;
	.loc 1 694 7
	jmp	.L80	#
.L91:
# d_main.c:697:     if ( !access (doomwad,R_OK) )
	.loc 1 697 11
	movq	-48(%rbp), %rax	# doomwad, tmp174
	movl	$4, %esi	#,
	movq	%rax, %rdi	# tmp174,
	call	access@PLT	#
# d_main.c:697:     if ( !access (doomwad,R_OK) )
	.loc 1 697 8 discriminator 1
	testl	%eax, %eax	# _23
	jne	.L92	#,
# d_main.c:699:       gamemode = registered;
	.loc 1 699 16
	movl	$1, gamemode(%rip)	#, gamemode
# d_main.c:700:       D_AddFile (doomwad);
	.loc 1 700 7
	movq	-48(%rbp), %rax	# doomwad, tmp175
	movq	%rax, %rdi	# tmp175,
	call	D_AddFile	#
# d_main.c:701:       return;
	.loc 1 701 7
	jmp	.L80	#
.L92:
# d_main.c:704:     if ( !access (doom1wad,R_OK) )
	.loc 1 704 11
	movq	-40(%rbp), %rax	# doom1wad, tmp176
	movl	$4, %esi	#,
	movq	%rax, %rdi	# tmp176,
	call	access@PLT	#
# d_main.c:704:     if ( !access (doom1wad,R_OK) )
	.loc 1 704 8 discriminator 1
	testl	%eax, %eax	# _24
	jne	.L93	#,
# d_main.c:706:       gamemode = shareware;
	.loc 1 706 16
	movl	$0, gamemode(%rip)	#, gamemode
# d_main.c:707:       D_AddFile (doom1wad);
	.loc 1 707 7
	movq	-40(%rbp), %rax	# doom1wad, tmp177
	movq	%rax, %rdi	# tmp177,
	call	D_AddFile	#
# d_main.c:708:       return;
	.loc 1 708 7
	jmp	.L80	#
.L93:
# d_main.c:711:     printf("Game mode indeterminate.\n");
	.loc 1 711 5
	leaq	.LC38(%rip), %rax	#, tmp178
	movq	%rax, %rdi	# tmp178,
	call	puts@PLT	#
# d_main.c:712:     gamemode = indetermined;
	.loc 1 712 14
	movl	$4, gamemode(%rip)	#, gamemode
.L80:
# d_main.c:717: }
	.loc 1 717 1
	leave	
	.cfi_def_cfa 7, 8
	ret	
	.cfi_endproc
.LFE16:
	.size	IdentifyVersion, .-IdentifyVersion
	.section	.rodata
.LC39:
	.string	"rb"
.LC40:
	.string	"\nNo such response file!"
.LC41:
	.string	"Found response file %s!\n"
.LC42:
	.string	"%d command-line args:\n"
	.text
	.globl	FindResponseFile
	.type	FindResponseFile, @function
FindResponseFile:
.LFB17:
	.loc 1 723 1
	.cfi_startproc
	endbr64	
	pushq	%rbp	#
	.cfi_def_cfa_offset 16
	.cfi_offset 6, -16
	movq	%rsp, %rbp	#,
	.cfi_def_cfa_register 6
	subq	$240, %rsp	#,
# d_main.c:723: {
	.loc 1 723 1
	movq	%fs:40, %rax	# MEM[(<address-space-1> long unsigned int *)40B], tmp200
	movq	%rax, -8(%rbp)	# tmp200, D.8997
	xorl	%eax, %eax	# tmp200
# d_main.c:727:     for (i = 1;i < myargc;i++)
	.loc 1 727 12
	movl	$1, -228(%rbp)	#, i
# d_main.c:727:     for (i = 1;i < myargc;i++)
	.loc 1 727 5
	jmp	.L95	#
.L112:
# d_main.c:728: 	if (myargv[i][0] == '@')
	.loc 1 728 12
	movq	myargv(%rip), %rax	# myargv, myargv.74_1
	movl	-228(%rbp), %edx	# i, tmp149
	movslq	%edx, %rdx	# tmp149, _2
	salq	$3, %rdx	#, _3
	addq	%rdx, %rax	# _3, _4
	movq	(%rax), %rax	# *_4, _5
# d_main.c:728: 	if (myargv[i][0] == '@')
	.loc 1 728 15
	movzbl	(%rax), %eax	# *_5, _6
# d_main.c:728: 	if (myargv[i][0] == '@')
	.loc 1 728 5
	cmpb	$64, %al	#, _6
	jne	.L96	#,
.LBB3:
# d_main.c:741: 	    handle = fopen (&myargv[i][1],"rb");
	.loc 1 741 29
	movq	myargv(%rip), %rax	# myargv, myargv.75_7
	movl	-228(%rbp), %edx	# i, tmp150
	movslq	%edx, %rdx	# tmp150, _8
	salq	$3, %rdx	#, _9
	addq	%rdx, %rax	# _9, _10
	movq	(%rax), %rax	# *_10, _11
# d_main.c:741: 	    handle = fopen (&myargv[i][1],"rb");
	.loc 1 741 22
	addq	$1, %rax	#, _12
# d_main.c:741: 	    handle = fopen (&myargv[i][1],"rb");
	.loc 1 741 15
	leaq	.LC39(%rip), %rdx	#, tmp151
	movq	%rdx, %rsi	# tmp151,
	movq	%rax, %rdi	# _12,
	call	fopen@PLT	#
	movq	%rax, -208(%rbp)	# tmp152, handle
# d_main.c:742: 	    if (!handle)
	.loc 1 742 9
	cmpq	$0, -208(%rbp)	#, handle
	jne	.L97	#,
# d_main.c:744: 		printf ("\nNo such response file!");
	.loc 1 744 3
	leaq	.LC40(%rip), %rax	#, tmp153
	movq	%rax, %rdi	# tmp153,
	movl	$0, %eax	#,
	call	printf@PLT	#
# d_main.c:745: 		exit(1);
	.loc 1 745 3
	movl	$1, %edi	#,
	call	exit@PLT	#
.L97:
# d_main.c:747: 	    printf("Found response file %s!\n",&myargv[i][1]);
	.loc 1 747 48
	movq	myargv(%rip), %rax	# myargv, myargv.76_13
	movl	-228(%rbp), %edx	# i, tmp154
	movslq	%edx, %rdx	# tmp154, _14
	salq	$3, %rdx	#, _15
	addq	%rdx, %rax	# _15, _16
	movq	(%rax), %rax	# *_16, _17
# d_main.c:747: 	    printf("Found response file %s!\n",&myargv[i][1]);
	.loc 1 747 6
	addq	$1, %rax	#, _18
	movq	%rax, %rsi	# _18,
	leaq	.LC41(%rip), %rax	#, tmp155
	movq	%rax, %rdi	# tmp155,
	movl	$0, %eax	#,
	call	printf@PLT	#
# d_main.c:748: 	    fseek (handle,0,SEEK_END);
	.loc 1 748 6
	movq	-208(%rbp), %rax	# handle, tmp156
	movl	$2, %edx	#,
	movl	$0, %esi	#,
	movq	%rax, %rdi	# tmp156,
	call	fseek@PLT	#
# d_main.c:749: 	    size = ftell(handle);
	.loc 1 749 13
	movq	-208(%rbp), %rax	# handle, tmp157
	movq	%rax, %rdi	# tmp157,
	call	ftell@PLT	#
# d_main.c:749: 	    size = ftell(handle);
	.loc 1 749 11 discriminator 1
	movl	%eax, -212(%rbp)	# _19, size
# d_main.c:750: 	    fseek (handle,0,SEEK_SET);
	.loc 1 750 6
	movq	-208(%rbp), %rax	# handle, tmp158
	movl	$0, %edx	#,
	movl	$0, %esi	#,
	movq	%rax, %rdi	# tmp158,
	call	fseek@PLT	#
# d_main.c:751: 	    file = malloc (size);
	.loc 1 751 13
	movl	-212(%rbp), %eax	# size, tmp159
	cltq
	movq	%rax, %rdi	# _20,
	call	malloc@PLT	#
	movq	%rax, -200(%rbp)	# tmp160, file
# d_main.c:752: 	    fread (file,size,1,handle);
	.loc 1 752 6
	movl	-212(%rbp), %eax	# size, tmp161
	movslq	%eax, %rsi	# tmp161, _21
	movq	-208(%rbp), %rdx	# handle, tmp162
	movq	-200(%rbp), %rax	# file, tmp163
	movq	%rdx, %rcx	# tmp162,
	movl	$1, %edx	#,
	movq	%rax, %rdi	# tmp163,
	call	fread@PLT	#
# d_main.c:753: 	    fclose (handle);
	.loc 1 753 6
	movq	-208(%rbp), %rax	# handle, tmp164
	movq	%rax, %rdi	# tmp164,
	call	fclose@PLT	#
# d_main.c:756: 	    for (index = 0,k = i+1; k < myargc; k++)
	.loc 1 756 17
	movl	$0, -220(%rbp)	#, index
# d_main.c:756: 	    for (index = 0,k = i+1; k < myargc; k++)
	.loc 1 756 23
	movl	-228(%rbp), %eax	# i, tmp168
	addl	$1, %eax	#, tmp167
	movl	%eax, -224(%rbp)	# tmp167, k
# d_main.c:756: 	    for (index = 0,k = i+1; k < myargc; k++)
	.loc 1 756 6
	jmp	.L98	#
.L99:
# d_main.c:757: 		moreargs[index++] = myargv[k];
	.loc 1 757 29
	movq	myargv(%rip), %rax	# myargv, myargv.77_22
	movl	-224(%rbp), %edx	# k, tmp169
	movslq	%edx, %rdx	# tmp169, _23
	salq	$3, %rdx	#, _24
	leaq	(%rax,%rdx), %rcx	#, _25
# d_main.c:757: 		moreargs[index++] = myargv[k];
	.loc 1 757 17
	movl	-220(%rbp), %eax	# index, index.78_26
	leal	1(%rax), %edx	#, tmp170
	movl	%edx, -220(%rbp)	# tmp170, index
# d_main.c:757: 		moreargs[index++] = myargv[k];
	.loc 1 757 29
	movq	(%rcx), %rdx	# *_25, _27
# d_main.c:757: 		moreargs[index++] = myargv[k];
	.loc 1 757 21
	cltq
	movq	%rdx, -176(%rbp,%rax,8)	# _27, moreargs[index.78_26]
# d_main.c:756: 	    for (index = 0,k = i+1; k < myargc; k++)
	.loc 1 756 43 discriminator 3
	addl	$1, -224(%rbp)	#, k
.L98:
# d_main.c:756: 	    for (index = 0,k = i+1; k < myargc; k++)
	.loc 1 756 32 discriminator 1
	movl	myargc(%rip), %eax	# myargc, myargc.79_28
	cmpl	%eax, -224(%rbp)	# myargc.79_28, k
	jl	.L99	#,
# d_main.c:759: 	    firstargv = myargv[0];
	.loc 1 759 24
	movq	myargv(%rip), %rax	# myargv, myargv.80_29
# d_main.c:759: 	    firstargv = myargv[0];
	.loc 1 759 16
	movq	(%rax), %rax	# *myargv.80_29, tmp172
	movq	%rax, -192(%rbp)	# tmp172, firstargv
# d_main.c:760: 	    myargv = malloc(sizeof(char *)*MAXARGVS);
	.loc 1 760 15
	movl	$800, %edi	#,
	call	malloc@PLT	#
# d_main.c:760: 	    myargv = malloc(sizeof(char *)*MAXARGVS);
	.loc 1 760 13 discriminator 1
	movq	%rax, myargv(%rip)	# _30, myargv
# d_main.c:761: 	    memset(myargv,0,sizeof(char *)*MAXARGVS);
	.loc 1 761 6
	movq	myargv(%rip), %rax	# myargv, myargv.81_31
	movl	$800, %edx	#,
	movl	$0, %esi	#,
	movq	%rax, %rdi	# myargv.81_31,
	call	memset@PLT	#
# d_main.c:762: 	    myargv[0] = firstargv;
	.loc 1 762 12
	movq	myargv(%rip), %rax	# myargv, myargv.82_32
# d_main.c:762: 	    myargv[0] = firstargv;
	.loc 1 762 16
	movq	-192(%rbp), %rdx	# firstargv, tmp174
	movq	%rdx, (%rax)	# tmp174, *myargv.82_32
# d_main.c:764: 	    infile = file;
	.loc 1 764 13
	movq	-200(%rbp), %rax	# file, tmp175
	movq	%rax, -184(%rbp)	# tmp175, infile
# d_main.c:765: 	    indexinfile = k = 0;
	.loc 1 765 22
	movl	$0, -224(%rbp)	#, k
# d_main.c:765: 	    indexinfile = k = 0;
	.loc 1 765 18
	movl	-224(%rbp), %eax	# k, tmp176
	movl	%eax, -216(%rbp)	# tmp176, indexinfile
# d_main.c:766: 	    indexinfile++;  // SKIP PAST ARGV[0] (KEEP IT)
	.loc 1 766 17
	addl	$1, -216(%rbp)	#, indexinfile
.L106:
# d_main.c:769: 		myargv[indexinfile++] = infile+k;
	.loc 1 769 33
	movl	-224(%rbp), %eax	# k, tmp177
	movslq	%eax, %rcx	# tmp177, _33
# d_main.c:769: 		myargv[indexinfile++] = infile+k;
	.loc 1 769 9
	movq	myargv(%rip), %rsi	# myargv, myargv.83_34
# d_main.c:769: 		myargv[indexinfile++] = infile+k;
	.loc 1 769 21
	movl	-216(%rbp), %eax	# indexinfile, indexinfile.84_35
	leal	1(%rax), %edx	#, tmp178
	movl	%edx, -216(%rbp)	# tmp178, indexinfile
	cltq
# d_main.c:769: 		myargv[indexinfile++] = infile+k;
	.loc 1 769 9
	salq	$3, %rax	#, _37
	addq	%rsi, %rax	# myargv.83_34, _38
# d_main.c:769: 		myargv[indexinfile++] = infile+k;
	.loc 1 769 33
	movq	-184(%rbp), %rdx	# infile, tmp179
	addq	%rcx, %rdx	# _33, _39
# d_main.c:769: 		myargv[indexinfile++] = infile+k;
	.loc 1 769 25
	movq	%rdx, (%rax)	# _39, *_38
# d_main.c:770: 		while(k < size &&
	.loc 1 770 8
	jmp	.L100	#
.L102:
# d_main.c:772: 		    k++;
	.loc 1 772 8
	addl	$1, -224(%rbp)	#, k
.L100:
# d_main.c:770: 		while(k < size &&
	.loc 1 770 18
	movl	-224(%rbp), %eax	# k, tmp180
	cmpl	-212(%rbp), %eax	# size, tmp180
	jge	.L101	#,
# d_main.c:771: 		      ((*(infile+k)>= ' '+1) && (*(infile+k)<='z')))
	.loc 1 771 19
	movl	-224(%rbp), %eax	# k, tmp181
	movslq	%eax, %rdx	# tmp181, _40
	movq	-184(%rbp), %rax	# infile, tmp182
	addq	%rdx, %rax	# _40, _41
# d_main.c:771: 		      ((*(infile+k)>= ' '+1) && (*(infile+k)<='z')))
	.loc 1 771 11
	movzbl	(%rax), %eax	# *_41, _42
# d_main.c:770: 		while(k < size &&
	.loc 1 770 18 discriminator 1
	cmpb	$32, %al	#, _42
	jle	.L101	#,
# d_main.c:771: 		      ((*(infile+k)>= ' '+1) && (*(infile+k)<='z')))
	.loc 1 771 44
	movl	-224(%rbp), %eax	# k, tmp183
	movslq	%eax, %rdx	# tmp183, _43
	movq	-184(%rbp), %rax	# infile, tmp184
	addq	%rdx, %rax	# _43, _44
# d_main.c:771: 		      ((*(infile+k)>= ' '+1) && (*(infile+k)<='z')))
	.loc 1 771 36
	movzbl	(%rax), %eax	# *_44, _45
# d_main.c:771: 		      ((*(infile+k)>= ' '+1) && (*(infile+k)<='z')))
	.loc 1 771 32
	cmpb	$122, %al	#, _45
	jle	.L102	#,
.L101:
# d_main.c:773: 		*(infile+k) = 0;
	.loc 1 773 11
	movl	-224(%rbp), %eax	# k, tmp185
	movslq	%eax, %rdx	# tmp185, _46
	movq	-184(%rbp), %rax	# infile, tmp186
	addq	%rdx, %rax	# _46, _47
# d_main.c:773: 		*(infile+k) = 0;
	.loc 1 773 15
	movb	$0, (%rax)	#, *_47
# d_main.c:774: 		while(k < size &&
	.loc 1 774 8
	jmp	.L103	#
.L105:
# d_main.c:776: 		    k++;
	.loc 1 776 8
	addl	$1, -224(%rbp)	#, k
.L103:
# d_main.c:774: 		while(k < size &&
	.loc 1 774 18
	movl	-224(%rbp), %eax	# k, tmp187
	cmpl	-212(%rbp), %eax	# size, tmp187
	jge	.L104	#,
# d_main.c:775: 		      ((*(infile+k)<= ' ') || (*(infile+k)>'z')))
	.loc 1 775 19
	movl	-224(%rbp), %eax	# k, tmp188
	movslq	%eax, %rdx	# tmp188, _48
	movq	-184(%rbp), %rax	# infile, tmp189
	addq	%rdx, %rax	# _48, _49
# d_main.c:775: 		      ((*(infile+k)<= ' ') || (*(infile+k)>'z')))
	.loc 1 775 11
	movzbl	(%rax), %eax	# *_49, _50
# d_main.c:774: 		while(k < size &&
	.loc 1 774 18 discriminator 1
	cmpb	$32, %al	#, _50
	jle	.L105	#,
# d_main.c:775: 		      ((*(infile+k)<= ' ') || (*(infile+k)>'z')))
	.loc 1 775 42
	movl	-224(%rbp), %eax	# k, tmp190
	movslq	%eax, %rdx	# tmp190, _51
	movq	-184(%rbp), %rax	# infile, tmp191
	addq	%rdx, %rax	# _51, _52
# d_main.c:775: 		      ((*(infile+k)<= ' ') || (*(infile+k)>'z')))
	.loc 1 775 34
	movzbl	(%rax), %eax	# *_52, _53
# d_main.c:775: 		      ((*(infile+k)<= ' ') || (*(infile+k)>'z')))
	.loc 1 775 30
	cmpb	$122, %al	#, _53
	jg	.L105	#,
.L104:
# d_main.c:777: 	    } while(k < size);
	.loc 1 777 16
	movl	-224(%rbp), %eax	# k, tmp192
	cmpl	-212(%rbp), %eax	# size, tmp192
	jl	.L106	#,
# d_main.c:779: 	    for (k = 0;k < index;k++)
	.loc 1 779 13
	movl	$0, -224(%rbp)	#, k
# d_main.c:779: 	    for (k = 0;k < index;k++)
	.loc 1 779 6
	jmp	.L107	#
.L108:
# d_main.c:780: 		myargv[indexinfile++] = moreargs[k];
	.loc 1 780 9
	movq	myargv(%rip), %rcx	# myargv, myargv.85_54
# d_main.c:780: 		myargv[indexinfile++] = moreargs[k];
	.loc 1 780 21
	movl	-216(%rbp), %eax	# indexinfile, indexinfile.86_55
	leal	1(%rax), %edx	#, tmp193
	movl	%edx, -216(%rbp)	# tmp193, indexinfile
	cltq
# d_main.c:780: 		myargv[indexinfile++] = moreargs[k];
	.loc 1 780 9
	salq	$3, %rax	#, _57
	leaq	(%rcx,%rax), %rdx	#, _58
# d_main.c:780: 		myargv[indexinfile++] = moreargs[k];
	.loc 1 780 35
	movl	-224(%rbp), %eax	# k, tmp195
	cltq
	movq	-176(%rbp,%rax,8), %rax	# moreargs[k_73], _59
# d_main.c:780: 		myargv[indexinfile++] = moreargs[k];
	.loc 1 780 25
	movq	%rax, (%rdx)	# _59, *_58
# d_main.c:779: 	    for (k = 0;k < index;k++)
	.loc 1 779 28 discriminator 3
	addl	$1, -224(%rbp)	#, k
.L107:
# d_main.c:779: 	    for (k = 0;k < index;k++)
	.loc 1 779 19 discriminator 1
	movl	-224(%rbp), %eax	# k, tmp196
	cmpl	-220(%rbp), %eax	# index, tmp196
	jl	.L108	#,
# d_main.c:781: 	    myargc = indexinfile;
	.loc 1 781 13
	movl	-216(%rbp), %eax	# indexinfile, tmp197
	movl	%eax, myargc(%rip)	# tmp197, myargc
# d_main.c:784: 	    printf("%d command-line args:\n",myargc);
	.loc 1 784 6
	movl	myargc(%rip), %eax	# myargc, myargc.87_60
	movl	%eax, %esi	# myargc.87_60,
	leaq	.LC42(%rip), %rax	#, tmp198
	movq	%rax, %rdi	# tmp198,
	movl	$0, %eax	#,
	call	printf@PLT	#
# d_main.c:785: 	    for (k=1;k<myargc;k++)
	.loc 1 785 12
	movl	$1, -224(%rbp)	#, k
# d_main.c:785: 	    for (k=1;k<myargc;k++)
	.loc 1 785 6
	jmp	.L109	#
.L110:
# d_main.c:786: 		printf("%s\n",myargv[k]);
	.loc 1 786 23
	movq	myargv(%rip), %rax	# myargv, myargv.88_61
	movl	-224(%rbp), %edx	# k, tmp199
	movslq	%edx, %rdx	# tmp199, _62
	salq	$3, %rdx	#, _63
	addq	%rdx, %rax	# _63, _64
# d_main.c:786: 		printf("%s\n",myargv[k]);
	.loc 1 786 3
	movq	(%rax), %rax	# *_64, _65
	movq	%rax, %rdi	# _65,
	call	puts@PLT	#
# d_main.c:785: 	    for (k=1;k<myargc;k++)
	.loc 1 785 25 discriminator 3
	addl	$1, -224(%rbp)	#, k
.L109:
# d_main.c:785: 	    for (k=1;k<myargc;k++)
	.loc 1 785 16 discriminator 1
	movl	myargc(%rip), %eax	# myargc, myargc.89_66
	cmpl	%eax, -224(%rbp)	# myargc.89_66, k
	jl	.L110	#,
# d_main.c:788: 	    break;
	.loc 1 788 6
	jmp	.L111	#
.L96:
.LBE3:
# d_main.c:727:     for (i = 1;i < myargc;i++)
	.loc 1 727 28 discriminator 2
	addl	$1, -228(%rbp)	#, i
.L95:
# d_main.c:727:     for (i = 1;i < myargc;i++)
	.loc 1 727 18 discriminator 1
	movl	myargc(%rip), %eax	# myargc, myargc.90_67
	cmpl	%eax, -228(%rbp)	# myargc.90_67, i
	jl	.L112	#,
.L111:
# d_main.c:790: }
	.loc 1 790 1
	nop	
	movq	-8(%rbp), %rax	# D.8997, tmp201
	subq	%fs:40, %rax	# MEM[(<address-space-1> long unsigned int *)40B], tmp201
	je	.L113	#,
	call	__stack_chk_fail@PLT	#
.L113:
	leave	
	.cfi_def_cfa 7, 8
	ret	
	.cfi_endproc
.LFE17:
	.size	FindResponseFile, .-FindResponseFile
	.section	.rodata
.LC43:
	.string	"-nomonsters"
.LC44:
	.string	"-respawn"
.LC45:
	.string	"-fast"
.LC46:
	.string	"-devparm"
.LC47:
	.string	"-altdeath"
.LC48:
	.string	"-deathmatch"
	.align 8
.LC49:
	.string	"                         The Ultimate DOOM Startup v%i.%i                           "
	.align 8
.LC50:
	.string	"                            DOOM Shareware Startup v%i.%i                           "
	.align 8
.LC51:
	.string	"                            DOOM Registered Startup v%i.%i                           "
	.align 8
.LC52:
	.string	"                         DOOM 2: Hell on Earth v%i.%i                           "
	.align 8
.LC53:
	.string	"                     Public DOOM - v%i.%i                           "
.LC54:
	.string	"Development mode ON."
.LC55:
	.string	"-cdrom"
	.align 8
.LC56:
	.string	"CD-ROM Version: default.cfg from c:\\doomdata"
.LC57:
	.string	"c:\\doomdata"
.LC58:
	.string	"-turbo"
.LC59:
	.string	"turbo scale: %i%%\n"
.LC60:
	.string	"-wart"
.LC61:
	.string	"~devmapsE%cM%c.wad"
	.align 8
.LC62:
	.string	"Warping to Episode %s, Map %s.\n"
.LC63:
	.string	"~devmapscdata/map0%i.wad"
.LC64:
	.string	"~devmapscdata/map%i.wad"
.LC65:
	.string	"-file"
.LC66:
	.string	"-playdemo"
.LC67:
	.string	"-timedemo"
.LC68:
	.string	"%s.lmp"
.LC69:
	.string	"Playing demo %s.lmp.\n"
.LC70:
	.string	"-skill"
.LC71:
	.string	"-episode"
.LC72:
	.string	"-timer"
	.align 8
.LC73:
	.string	"Levels will end after %d minute"
.LC74:
	.string	"-avg"
	.align 8
.LC75:
	.string	"Austin Virtual Gaming: Levels will end after 20 minutes"
.LC76:
	.string	"-warp"
.LC77:
	.string	"V_Init: allocate screens."
	.align 8
.LC78:
	.string	"M_LoadDefaults: Load system defaults."
	.align 8
.LC79:
	.string	"Z_Init: Init zone memory allocation daemon. "
.LC80:
	.string	"W_Init: Init WADfiles."
	.align 8
.LC81:
	.string	"\nYou cannot -file with the shareware version. Register!"
	.align 8
.LC82:
	.string	"\nThis is not the registered version."
	.align 8
.LC83:
	.ascii	"============================================================"
	.ascii	"===============\nATTENTION:  This version of DOOM has been m"
	.ascii	"odified.  If you would like to\nget a co"
	.string	"py of the original game, call 1-800-IDGAMES or see the readme file.\n        You will not receive technical support for modified games.\n                      press enter to continue\n==========================================================================="
	.align 8
.LC84:
	.string	"===========================================================================\n                                Shareware!\n==========================================================================="
	.align 8
.LC85:
	.ascii	"=================="
	.string	"=========================================================\n                 Commercial product - do not distribute!\n         Please report software piracy to the SPA: 1-800-388-PIR8\n==========================================================================="
	.align 8
.LC86:
	.string	"M_Init: Init miscellaneous info."
	.align 8
.LC87:
	.string	"R_Init: Init DOOM refresh daemon - "
.LC88:
	.string	"\nP_Init: Init Playloop state."
	.align 8
.LC89:
	.string	"I_Init: Setting up machine state."
	.align 8
.LC90:
	.string	"D_CheckNetGame: Checking network game status."
.LC91:
	.string	"S_Init: Setting up sound."
	.align 8
.LC92:
	.string	"HU_Init: Setting up heads up display."
.LC93:
	.string	"ST_Init: Init status bar."
.LC94:
	.string	"-statcopy"
	.align 8
.LC95:
	.string	"External statistics registered."
.LC96:
	.string	"-record"
.LC97:
	.string	"-loadgame"
.LC98:
	.string	"c:\\doomdata\\doomsav%c.dsg"
.LC99:
	.string	"doomsav%c.dsg"
	.text
	.globl	D_DoomMain
	.type	D_DoomMain, @function
D_DoomMain:
.LFB18:
	.loc 1 797 1
	.cfi_startproc
	endbr64	
	pushq	%rbp	#
	.cfi_def_cfa_offset 16
	.cfi_offset 6, -16
	movq	%rsp, %rbp	#,
	.cfi_def_cfa_register 6
	subq	$480, %rsp	#,
# d_main.c:797: {
	.loc 1 797 1
	movq	%fs:40, %rax	# MEM[(<address-space-1> long unsigned int *)40B], tmp462
	movq	%rax, -8(%rbp)	# tmp462, D.9002
	xorl	%eax, %eax	# tmp462
# d_main.c:801:     FindResponseFile ();
	.loc 1 801 5
	call	FindResponseFile	#
# d_main.c:803:     IdentifyVersion ();
	.loc 1 803 5
	call	IdentifyVersion	#
# d_main.c:805:     setbuf (stdout, NULL);
	.loc 1 805 5
	movq	stdout(%rip), %rax	# stdout, stdout.91_1
	movl	$0, %esi	#,
	movq	%rax, %rdi	# stdout.91_1,
	call	setbuf@PLT	#
# d_main.c:806:     modifiedgame = false;
	.loc 1 806 18
	movl	$0, modifiedgame(%rip)	#, modifiedgame
# d_main.c:808:     nomonsters = M_CheckParm ("-nomonsters");
	.loc 1 808 18
	leaq	.LC43(%rip), %rax	#, tmp316
	movq	%rax, %rdi	# tmp316,
	call	M_CheckParm@PLT	#
# d_main.c:808:     nomonsters = M_CheckParm ("-nomonsters");
	.loc 1 808 16 discriminator 1
	movl	%eax, nomonsters(%rip)	# _3, nomonsters
# d_main.c:809:     respawnparm = M_CheckParm ("-respawn");
	.loc 1 809 19
	leaq	.LC44(%rip), %rax	#, tmp317
	movq	%rax, %rdi	# tmp317,
	call	M_CheckParm@PLT	#
# d_main.c:809:     respawnparm = M_CheckParm ("-respawn");
	.loc 1 809 17 discriminator 1
	movl	%eax, respawnparm(%rip)	# _5, respawnparm
# d_main.c:810:     fastparm = M_CheckParm ("-fast");
	.loc 1 810 16
	leaq	.LC45(%rip), %rax	#, tmp318
	movq	%rax, %rdi	# tmp318,
	call	M_CheckParm@PLT	#
# d_main.c:810:     fastparm = M_CheckParm ("-fast");
	.loc 1 810 14 discriminator 1
	movl	%eax, fastparm(%rip)	# _7, fastparm
# d_main.c:811:     devparm = M_CheckParm ("-devparm");
	.loc 1 811 15
	leaq	.LC46(%rip), %rax	#, tmp319
	movq	%rax, %rdi	# tmp319,
	call	M_CheckParm@PLT	#
# d_main.c:811:     devparm = M_CheckParm ("-devparm");
	.loc 1 811 13 discriminator 1
	movl	%eax, devparm(%rip)	# _9, devparm
# d_main.c:812:     if (M_CheckParm ("-altdeath"))
	.loc 1 812 9
	leaq	.LC47(%rip), %rax	#, tmp320
	movq	%rax, %rdi	# tmp320,
	call	M_CheckParm@PLT	#
# d_main.c:812:     if (M_CheckParm ("-altdeath"))
	.loc 1 812 8 discriminator 1
	testl	%eax, %eax	# _10
	je	.L115	#,
# d_main.c:813: 	deathmatch = 2;
	.loc 1 813 13
	movl	$2, deathmatch(%rip)	#, deathmatch
	jmp	.L116	#
.L115:
# d_main.c:814:     else if (M_CheckParm ("-deathmatch"))
	.loc 1 814 14
	leaq	.LC48(%rip), %rax	#, tmp321
	movq	%rax, %rdi	# tmp321,
	call	M_CheckParm@PLT	#
# d_main.c:814:     else if (M_CheckParm ("-deathmatch"))
	.loc 1 814 13 discriminator 1
	testl	%eax, %eax	# _11
	je	.L116	#,
# d_main.c:815: 	deathmatch = 1;
	.loc 1 815 13
	movl	$1, deathmatch(%rip)	#, deathmatch
.L116:
# d_main.c:817:     switch ( gamemode )
	.loc 1 817 5
	movl	gamemode(%rip), %eax	# gamemode, gamemode.92_12
	cmpl	$3, %eax	#, gamemode.92_12
	je	.L117	#,
	cmpl	$3, %eax	#, gamemode.92_12
	ja	.L118	#,
	cmpl	$2, %eax	#, gamemode.92_12
	je	.L119	#,
	cmpl	$2, %eax	#, gamemode.92_12
	ja	.L118	#,
	testl	%eax, %eax	# gamemode.92_12
	je	.L120	#,
	cmpl	$1, %eax	#, gamemode.92_12
	je	.L121	#,
	jmp	.L118	#
.L117:
# d_main.c:820: 	sprintf (title,
	.loc 1 820 2
	movl	$10, %ecx	#,
	movl	$1, %edx	#,
	leaq	.LC49(%rip), %rax	#, tmp322
	movq	%rax, %rsi	# tmp322,
	leaq	title(%rip), %rax	#, tmp323
	movq	%rax, %rdi	# tmp323,
	movl	$0, %eax	#,
	call	sprintf@PLT	#
# d_main.c:825: 	break;
	.loc 1 825 2
	jmp	.L122	#
.L120:
# d_main.c:827: 	sprintf (title,
	.loc 1 827 2
	movl	$10, %ecx	#,
	movl	$1, %edx	#,
	leaq	.LC50(%rip), %rax	#, tmp324
	movq	%rax, %rsi	# tmp324,
	leaq	title(%rip), %rax	#, tmp325
	movq	%rax, %rdi	# tmp325,
	movl	$0, %eax	#,
	call	sprintf@PLT	#
# d_main.c:832: 	break;
	.loc 1 832 2
	jmp	.L122	#
.L121:
# d_main.c:834: 	sprintf (title,
	.loc 1 834 2
	movl	$10, %ecx	#,
	movl	$1, %edx	#,
	leaq	.LC51(%rip), %rax	#, tmp326
	movq	%rax, %rsi	# tmp326,
	leaq	title(%rip), %rax	#, tmp327
	movq	%rax, %rdi	# tmp327,
	movl	$0, %eax	#,
	call	sprintf@PLT	#
# d_main.c:839: 	break;
	.loc 1 839 2
	jmp	.L122	#
.L119:
# d_main.c:841: 	sprintf (title,
	.loc 1 841 2
	movl	$10, %ecx	#,
	movl	$1, %edx	#,
	leaq	.LC52(%rip), %rax	#, tmp328
	movq	%rax, %rsi	# tmp328,
	leaq	title(%rip), %rax	#, tmp329
	movq	%rax, %rdi	# tmp329,
	movl	$0, %eax	#,
	call	sprintf@PLT	#
# d_main.c:846: 	break;
	.loc 1 846 2
	jmp	.L122	#
.L118:
# d_main.c:864: 	sprintf (title,
	.loc 1 864 2
	movl	$10, %ecx	#,
	movl	$1, %edx	#,
	leaq	.LC53(%rip), %rax	#, tmp330
	movq	%rax, %rsi	# tmp330,
	leaq	title(%rip), %rax	#, tmp331
	movq	%rax, %rdi	# tmp331,
	movl	$0, %eax	#,
	call	sprintf@PLT	#
# d_main.c:869: 	break;
	.loc 1 869 2
	nop	
.L122:
# d_main.c:872:     printf ("%s\n",title);
	.loc 1 872 5
	leaq	title(%rip), %rax	#, tmp332
	movq	%rax, %rdi	# tmp332,
	call	puts@PLT	#
# d_main.c:874:     if (devparm)
	.loc 1 874 9
	movl	devparm(%rip), %eax	# devparm, devparm.93_13
# d_main.c:874:     if (devparm)
	.loc 1 874 8
	testl	%eax, %eax	# devparm.93_13
	je	.L123	#,
# d_main.c:875: 	printf(D_DEVSTR);
	.loc 1 875 2
	leaq	.LC54(%rip), %rax	#, tmp333
	movq	%rax, %rdi	# tmp333,
	call	puts@PLT	#
.L123:
# d_main.c:877:     if (M_CheckParm("-cdrom"))
	.loc 1 877 9
	leaq	.LC55(%rip), %rax	#, tmp334
	movq	%rax, %rdi	# tmp334,
	call	M_CheckParm@PLT	#
# d_main.c:877:     if (M_CheckParm("-cdrom"))
	.loc 1 877 8 discriminator 1
	testl	%eax, %eax	# _14
	je	.L124	#,
# d_main.c:879: 	printf(D_CDROM);
	.loc 1 879 2
	leaq	.LC56(%rip), %rax	#, tmp335
	movq	%rax, %rdi	# tmp335,
	call	puts@PLT	#
# d_main.c:880: 	mkdir("c:\\doomdata",0);
	.loc 1 880 2
	movl	$0, %esi	#,
	leaq	.LC57(%rip), %rax	#, tmp336
	movq	%rax, %rdi	# tmp336,
	call	mkdir@PLT	#
# d_main.c:881: 	strcpy (basedefault,"c:/doomdata/default.cfg");
	.loc 1 881 2
	movabsq	$7236562700467124835, %rax	#, tmp465
	movabsq	$7018408550269547617, %rdx	#,
	movq	%rax, basedefault(%rip)	# tmp465, MEM <char[1:24]> [(void *)&basedefault]
	movq	%rdx, 8+basedefault(%rip)	#, MEM <char[1:24]> [(void *)&basedefault]
	movabsq	$29104498768374901, %rax	#, tmp466
	movq	%rax, 16+basedefault(%rip)	# tmp466, MEM <char[1:24]> [(void *)&basedefault]
.L124:
# d_main.c:885:     if ( (p=M_CheckParm ("-turbo")) )
	.loc 1 885 13
	leaq	.LC58(%rip), %rax	#, tmp337
	movq	%rax, %rdi	# tmp337,
	call	M_CheckParm@PLT	#
	movl	%eax, -480(%rbp)	# tmp338, p
# d_main.c:885:     if ( (p=M_CheckParm ("-turbo")) )
	.loc 1 885 8 discriminator 1
	cmpl	$0, -480(%rbp)	#, p
	je	.L125	#,
.LBB4:
# d_main.c:887: 	int     scale = 200;
	.loc 1 887 10
	movl	$200, -476(%rbp)	#, scale
# d_main.c:891: 	if (p<myargc-1)
	.loc 1 891 14
	movl	myargc(%rip), %eax	# myargc, myargc.94_15
	subl	$1, %eax	#, _16
# d_main.c:891: 	if (p<myargc-1)
	.loc 1 891 5
	cmpl	%eax, -480(%rbp)	# _16, p
	jge	.L126	#,
# d_main.c:892: 	    scale = atoi (myargv[p+1]);
	.loc 1 892 26
	movq	myargv(%rip), %rax	# myargv, myargv.95_17
	movl	-480(%rbp), %edx	# p, tmp339
	movslq	%edx, %rdx	# tmp339, _18
	addq	$1, %rdx	#, _19
	salq	$3, %rdx	#, _20
	addq	%rdx, %rax	# _20, _21
# d_main.c:892: 	    scale = atoi (myargv[p+1]);
	.loc 1 892 14
	movq	(%rax), %rax	# *_21, _22
	movq	%rax, %rdi	# _22,
	call	atoi@PLT	#
	movl	%eax, -476(%rbp)	# tmp340, scale
.L126:
# d_main.c:893: 	if (scale < 10)
	.loc 1 893 5
	cmpl	$9, -476(%rbp)	#, scale
	jg	.L127	#,
# d_main.c:894: 	    scale = 10;
	.loc 1 894 12
	movl	$10, -476(%rbp)	#, scale
.L127:
# d_main.c:895: 	if (scale > 400)
	.loc 1 895 5
	cmpl	$400, -476(%rbp)	#, scale
	jle	.L128	#,
# d_main.c:896: 	    scale = 400;
	.loc 1 896 12
	movl	$400, -476(%rbp)	#, scale
.L128:
# d_main.c:897: 	printf ("turbo scale: %i%%\n",scale);
	.loc 1 897 2
	movl	-476(%rbp), %eax	# scale, tmp341
	movl	%eax, %esi	# tmp341,
	leaq	.LC59(%rip), %rax	#, tmp342
	movq	%rax, %rdi	# tmp342,
	movl	$0, %eax	#,
	call	printf@PLT	#
# d_main.c:898: 	forwardmove[0] = forwardmove[0]*scale/100;
	.loc 1 898 30
	movl	forwardmove(%rip), %eax	# forwardmove[0], _23
# d_main.c:898: 	forwardmove[0] = forwardmove[0]*scale/100;
	.loc 1 898 33
	imull	-476(%rbp), %eax	# scale, _24
# d_main.c:898: 	forwardmove[0] = forwardmove[0]*scale/100;
	.loc 1 898 39
	movslq	%eax, %rdx	# _24, tmp343
	imulq	$1374389535, %rdx, %rdx	#, tmp343, tmp344
	shrq	$32, %rdx	#, tmp345
	movl	%edx, %ecx	# tmp345, tmp346
	sarl	$5, %ecx	#, tmp346
	cltd
	movl	%ecx, %eax	# tmp346, tmp346
	subl	%edx, %eax	# tmp347, tmp346
# d_main.c:898: 	forwardmove[0] = forwardmove[0]*scale/100;
	.loc 1 898 17
	movl	%eax, forwardmove(%rip)	# _25, forwardmove[0]
# d_main.c:899: 	forwardmove[1] = forwardmove[1]*scale/100;
	.loc 1 899 30
	movl	4+forwardmove(%rip), %eax	# forwardmove[1], _26
# d_main.c:899: 	forwardmove[1] = forwardmove[1]*scale/100;
	.loc 1 899 33
	imull	-476(%rbp), %eax	# scale, _27
# d_main.c:899: 	forwardmove[1] = forwardmove[1]*scale/100;
	.loc 1 899 39
	movslq	%eax, %rdx	# _27, tmp348
	imulq	$1374389535, %rdx, %rdx	#, tmp348, tmp349
	shrq	$32, %rdx	#, tmp350
	movl	%edx, %ecx	# tmp350, tmp351
	sarl	$5, %ecx	#, tmp351
	cltd
	movl	%ecx, %eax	# tmp351, tmp351
	subl	%edx, %eax	# tmp352, tmp351
# d_main.c:899: 	forwardmove[1] = forwardmove[1]*scale/100;
	.loc 1 899 17
	movl	%eax, 4+forwardmove(%rip)	# _28, forwardmove[1]
# d_main.c:900: 	sidemove[0] = sidemove[0]*scale/100;
	.loc 1 900 24
	movl	sidemove(%rip), %eax	# sidemove[0], _29
# d_main.c:900: 	sidemove[0] = sidemove[0]*scale/100;
	.loc 1 900 27
	imull	-476(%rbp), %eax	# scale, _30
# d_main.c:900: 	sidemove[0] = sidemove[0]*scale/100;
	.loc 1 900 33
	movslq	%eax, %rdx	# _30, tmp353
	imulq	$1374389535, %rdx, %rdx	#, tmp353, tmp354
	shrq	$32, %rdx	#, tmp355
	movl	%edx, %ecx	# tmp355, tmp356
	sarl	$5, %ecx	#, tmp356
	cltd
	movl	%ecx, %eax	# tmp356, tmp356
	subl	%edx, %eax	# tmp357, tmp356
# d_main.c:900: 	sidemove[0] = sidemove[0]*scale/100;
	.loc 1 900 14
	movl	%eax, sidemove(%rip)	# _31, sidemove[0]
# d_main.c:901: 	sidemove[1] = sidemove[1]*scale/100;
	.loc 1 901 24
	movl	4+sidemove(%rip), %eax	# sidemove[1], _32
# d_main.c:901: 	sidemove[1] = sidemove[1]*scale/100;
	.loc 1 901 27
	imull	-476(%rbp), %eax	# scale, _33
# d_main.c:901: 	sidemove[1] = sidemove[1]*scale/100;
	.loc 1 901 33
	movslq	%eax, %rdx	# _33, tmp358
	imulq	$1374389535, %rdx, %rdx	#, tmp358, tmp359
	shrq	$32, %rdx	#, tmp360
	movl	%edx, %ecx	# tmp360, tmp361
	sarl	$5, %ecx	#, tmp361
	cltd
	movl	%ecx, %eax	# tmp361, tmp361
	subl	%edx, %eax	# tmp362, tmp361
# d_main.c:901: 	sidemove[1] = sidemove[1]*scale/100;
	.loc 1 901 14
	movl	%eax, 4+sidemove(%rip)	# _34, sidemove[1]
.L125:
.LBE4:
# d_main.c:909:     p = M_CheckParm ("-wart");
	.loc 1 909 9
	leaq	.LC60(%rip), %rax	#, tmp363
	movq	%rax, %rdi	# tmp363,
	call	M_CheckParm@PLT	#
	movl	%eax, -480(%rbp)	# tmp364, p
# d_main.c:910:     if (p)
	.loc 1 910 8
	cmpl	$0, -480(%rbp)	#, p
	je	.L129	#,
# d_main.c:912: 	myargv[p][4] = 'p';     // big hack, change to -warp
	.loc 1 912 8
	movq	myargv(%rip), %rax	# myargv, myargv.96_35
	movl	-480(%rbp), %edx	# p, tmp365
	movslq	%edx, %rdx	# tmp365, _36
	salq	$3, %rdx	#, _37
	addq	%rdx, %rax	# _37, _38
	movq	(%rax), %rax	# *_38, _39
# d_main.c:912: 	myargv[p][4] = 'p';     // big hack, change to -warp
	.loc 1 912 11
	addq	$4, %rax	#, _40
# d_main.c:912: 	myargv[p][4] = 'p';     // big hack, change to -warp
	.loc 1 912 15
	movb	$112, (%rax)	#, *_40
# d_main.c:915: 	switch (gamemode )
	.loc 1 915 2
	movl	gamemode(%rip), %eax	# gamemode, gamemode.97_41
	cmpl	$1, %eax	#, gamemode.97_41
	jbe	.L130	#,
	cmpl	$3, %eax	#, gamemode.97_41
	jne	.L131	#,
.L130:
# d_main.c:921: 		     myargv[p+1][0], myargv[p+2][0]);
	.loc 1 921 30
	movq	myargv(%rip), %rax	# myargv, myargv.98_42
	movl	-480(%rbp), %edx	# p, tmp366
	movslq	%edx, %rdx	# tmp366, _43
	addq	$2, %rdx	#, _44
	salq	$3, %rdx	#, _45
	addq	%rdx, %rax	# _45, _46
	movq	(%rax), %rax	# *_46, _47
# d_main.c:921: 		     myargv[p+1][0], myargv[p+2][0]);
	.loc 1 921 35
	movzbl	(%rax), %eax	# *_47, _48
# d_main.c:920: 	    sprintf (file,"~"DEVMAPS"E%cM%c.wad",
	.loc 1 920 6
	movsbl	%al, %ecx	# _48, _49
# d_main.c:921: 		     myargv[p+1][0], myargv[p+2][0]);
	.loc 1 921 14
	movq	myargv(%rip), %rax	# myargv, myargv.99_50
	movl	-480(%rbp), %edx	# p, tmp367
	movslq	%edx, %rdx	# tmp367, _51
	addq	$1, %rdx	#, _52
	salq	$3, %rdx	#, _53
	addq	%rdx, %rax	# _53, _54
	movq	(%rax), %rax	# *_54, _55
# d_main.c:921: 		     myargv[p+1][0], myargv[p+2][0]);
	.loc 1 921 19
	movzbl	(%rax), %eax	# *_55, _56
# d_main.c:920: 	    sprintf (file,"~"DEVMAPS"E%cM%c.wad",
	.loc 1 920 6
	movsbl	%al, %edx	# _56, _57
	leaq	-272(%rbp), %rax	#, tmp368
	leaq	.LC61(%rip), %rsi	#, tmp369
	movq	%rax, %rdi	# tmp368,
	movl	$0, %eax	#,
	call	sprintf@PLT	#
# d_main.c:923: 		   myargv[p+1],myargv[p+2]);
	.loc 1 923 24
	movq	myargv(%rip), %rax	# myargv, myargv.100_58
	movl	-480(%rbp), %edx	# p, tmp370
	movslq	%edx, %rdx	# tmp370, _59
	addq	$2, %rdx	#, _60
	salq	$3, %rdx	#, _61
	addq	%rdx, %rax	# _61, _62
# d_main.c:922: 	    printf("Warping to Episode %s, Map %s.\n",
	.loc 1 922 6
	movq	(%rax), %rdx	# *_62, _63
# d_main.c:923: 		   myargv[p+1],myargv[p+2]);
	.loc 1 923 12
	movq	myargv(%rip), %rax	# myargv, myargv.101_64
	movl	-480(%rbp), %ecx	# p, tmp371
	movslq	%ecx, %rcx	# tmp371, _65
	addq	$1, %rcx	#, _66
	salq	$3, %rcx	#, _67
	addq	%rcx, %rax	# _67, _68
# d_main.c:922: 	    printf("Warping to Episode %s, Map %s.\n",
	.loc 1 922 6
	movq	(%rax), %rax	# *_68, _69
	movq	%rax, %rsi	# _69,
	leaq	.LC62(%rip), %rax	#, tmp372
	movq	%rax, %rdi	# tmp372,
	movl	$0, %eax	#,
	call	printf@PLT	#
# d_main.c:924: 	    break;
	.loc 1 924 6
	jmp	.L132	#
.L131:
# d_main.c:928: 	    p = atoi (myargv[p+1]);
	.loc 1 928 22
	movq	myargv(%rip), %rax	# myargv, myargv.102_70
	movl	-480(%rbp), %edx	# p, tmp373
	movslq	%edx, %rdx	# tmp373, _71
	addq	$1, %rdx	#, _72
	salq	$3, %rdx	#, _73
	addq	%rdx, %rax	# _73, _74
# d_main.c:928: 	    p = atoi (myargv[p+1]);
	.loc 1 928 10
	movq	(%rax), %rax	# *_74, _75
	movq	%rax, %rdi	# _75,
	call	atoi@PLT	#
	movl	%eax, -480(%rbp)	# tmp374, p
# d_main.c:929: 	    if (p<10)
	.loc 1 929 9
	cmpl	$9, -480(%rbp)	#, p
	jg	.L133	#,
# d_main.c:930: 	      sprintf (file,"~"DEVMAPS"cdata/map0%i.wad", p);
	.loc 1 930 8
	movl	-480(%rbp), %edx	# p, tmp375
	leaq	-272(%rbp), %rax	#, tmp376
	leaq	.LC63(%rip), %rcx	#, tmp377
	movq	%rcx, %rsi	# tmp377,
	movq	%rax, %rdi	# tmp376,
	movl	$0, %eax	#,
	call	sprintf@PLT	#
# d_main.c:933: 	    break;
	.loc 1 933 6
	jmp	.L171	#
.L133:
# d_main.c:932: 	      sprintf (file,"~"DEVMAPS"cdata/map%i.wad", p);
	.loc 1 932 8
	movl	-480(%rbp), %edx	# p, tmp378
	leaq	-272(%rbp), %rax	#, tmp379
	leaq	.LC64(%rip), %rcx	#, tmp380
	movq	%rcx, %rsi	# tmp380,
	movq	%rax, %rdi	# tmp379,
	movl	$0, %eax	#,
	call	sprintf@PLT	#
.L171:
# d_main.c:933: 	    break;
	.loc 1 933 6
	nop	
.L132:
# d_main.c:935: 	D_AddFile (file);
	.loc 1 935 2
	leaq	-272(%rbp), %rax	#, tmp381
	movq	%rax, %rdi	# tmp381,
	call	D_AddFile	#
.L129:
# d_main.c:938:     p = M_CheckParm ("-file");
	.loc 1 938 9
	leaq	.LC65(%rip), %rax	#, tmp382
	movq	%rax, %rdi	# tmp382,
	call	M_CheckParm@PLT	#
	movl	%eax, -480(%rbp)	# tmp383, p
# d_main.c:939:     if (p)
	.loc 1 939 8
	cmpl	$0, -480(%rbp)	#, p
	je	.L135	#,
# d_main.c:943: 	modifiedgame = true;            // homebrew levels
	.loc 1 943 15
	movl	$1, modifiedgame(%rip)	#, modifiedgame
# d_main.c:944: 	while (++p != myargc && myargv[p][0] != '-')
	.loc 1 944 8
	jmp	.L136	#
.L137:
# d_main.c:945: 	    D_AddFile (myargv[p]);
	.loc 1 945 23
	movq	myargv(%rip), %rax	# myargv, myargv.103_76
	movl	-480(%rbp), %edx	# p, tmp384
	movslq	%edx, %rdx	# tmp384, _77
	salq	$3, %rdx	#, _78
	addq	%rdx, %rax	# _78, _79
# d_main.c:945: 	    D_AddFile (myargv[p]);
	.loc 1 945 6
	movq	(%rax), %rax	# *_79, _80
	movq	%rax, %rdi	# _80,
	call	D_AddFile	#
.L136:
# d_main.c:944: 	while (++p != myargc && myargv[p][0] != '-')
	.loc 1 944 23
	addl	$1, -480(%rbp)	#, p
# d_main.c:944: 	while (++p != myargc && myargv[p][0] != '-')
	.loc 1 944 13
	movl	myargc(%rip), %eax	# myargc, myargc.104_81
# d_main.c:944: 	while (++p != myargc && myargv[p][0] != '-')
	.loc 1 944 23
	cmpl	%eax, -480(%rbp)	# myargc.104_81, p
	je	.L135	#,
# d_main.c:944: 	while (++p != myargc && myargv[p][0] != '-')
	.loc 1 944 32 discriminator 1
	movq	myargv(%rip), %rax	# myargv, myargv.105_82
	movl	-480(%rbp), %edx	# p, tmp385
	movslq	%edx, %rdx	# tmp385, _83
	salq	$3, %rdx	#, _84
	addq	%rdx, %rax	# _84, _85
	movq	(%rax), %rax	# *_85, _86
# d_main.c:944: 	while (++p != myargc && myargv[p][0] != '-')
	.loc 1 944 35 discriminator 1
	movzbl	(%rax), %eax	# *_86, _87
# d_main.c:944: 	while (++p != myargc && myargv[p][0] != '-')
	.loc 1 944 23 discriminator 1
	cmpb	$45, %al	#, _87
	jne	.L137	#,
.L135:
# d_main.c:948:     p = M_CheckParm ("-playdemo");
	.loc 1 948 9
	leaq	.LC66(%rip), %rax	#, tmp386
	movq	%rax, %rdi	# tmp386,
	call	M_CheckParm@PLT	#
	movl	%eax, -480(%rbp)	# tmp387, p
# d_main.c:950:     if (!p)
	.loc 1 950 8
	cmpl	$0, -480(%rbp)	#, p
	jne	.L138	#,
# d_main.c:951: 	p = M_CheckParm ("-timedemo");
	.loc 1 951 6
	leaq	.LC67(%rip), %rax	#, tmp388
	movq	%rax, %rdi	# tmp388,
	call	M_CheckParm@PLT	#
	movl	%eax, -480(%rbp)	# tmp389, p
.L138:
# d_main.c:953:     if (p && p < myargc-1)
	.loc 1 953 8
	cmpl	$0, -480(%rbp)	#, p
	je	.L139	#,
# d_main.c:953:     if (p && p < myargc-1)
	.loc 1 953 24 discriminator 1
	movl	myargc(%rip), %eax	# myargc, myargc.106_88
	subl	$1, %eax	#, _89
# d_main.c:953:     if (p && p < myargc-1)
	.loc 1 953 11 discriminator 1
	cmpl	%eax, -480(%rbp)	# _89, p
	jge	.L139	#,
# d_main.c:955: 	sprintf (file,"%s.lmp", myargv[p+1]);
	.loc 1 955 32
	movq	myargv(%rip), %rax	# myargv, myargv.107_90
	movl	-480(%rbp), %edx	# p, tmp390
	movslq	%edx, %rdx	# tmp390, _91
	addq	$1, %rdx	#, _92
	salq	$3, %rdx	#, _93
	addq	%rdx, %rax	# _93, _94
# d_main.c:955: 	sprintf (file,"%s.lmp", myargv[p+1]);
	.loc 1 955 2
	movq	(%rax), %rdx	# *_94, _95
	leaq	-272(%rbp), %rax	#, tmp391
	leaq	.LC68(%rip), %rcx	#, tmp392
	movq	%rcx, %rsi	# tmp392,
	movq	%rax, %rdi	# tmp391,
	movl	$0, %eax	#,
	call	sprintf@PLT	#
# d_main.c:956: 	D_AddFile (file);
	.loc 1 956 2
	leaq	-272(%rbp), %rax	#, tmp393
	movq	%rax, %rdi	# tmp393,
	call	D_AddFile	#
# d_main.c:957: 	printf("Playing demo %s.lmp.\n",myargv[p+1]);
	.loc 1 957 40
	movq	myargv(%rip), %rax	# myargv, myargv.108_96
	movl	-480(%rbp), %edx	# p, tmp394
	movslq	%edx, %rdx	# tmp394, _97
	addq	$1, %rdx	#, _98
	salq	$3, %rdx	#, _99
	addq	%rdx, %rax	# _99, _100
# d_main.c:957: 	printf("Playing demo %s.lmp.\n",myargv[p+1]);
	.loc 1 957 2
	movq	(%rax), %rax	# *_100, _101
	movq	%rax, %rsi	# _101,
	leaq	.LC69(%rip), %rax	#, tmp395
	movq	%rax, %rdi	# tmp395,
	movl	$0, %eax	#,
	call	printf@PLT	#
.L139:
# d_main.c:961:     startskill = sk_medium;
	.loc 1 961 16
	movl	$2, startskill(%rip)	#, startskill
# d_main.c:962:     startepisode = 1;
	.loc 1 962 18
	movl	$1, startepisode(%rip)	#, startepisode
# d_main.c:963:     startmap = 1;
	.loc 1 963 14
	movl	$1, startmap(%rip)	#, startmap
# d_main.c:964:     autostart = false;
	.loc 1 964 15
	movl	$0, autostart(%rip)	#, autostart
# d_main.c:967:     p = M_CheckParm ("-skill");
	.loc 1 967 9
	leaq	.LC70(%rip), %rax	#, tmp396
	movq	%rax, %rdi	# tmp396,
	call	M_CheckParm@PLT	#
	movl	%eax, -480(%rbp)	# tmp397, p
# d_main.c:968:     if (p && p < myargc-1)
	.loc 1 968 8
	cmpl	$0, -480(%rbp)	#, p
	je	.L140	#,
# d_main.c:968:     if (p && p < myargc-1)
	.loc 1 968 24 discriminator 1
	movl	myargc(%rip), %eax	# myargc, myargc.109_102
	subl	$1, %eax	#, _103
# d_main.c:968:     if (p && p < myargc-1)
	.loc 1 968 11 discriminator 1
	cmpl	%eax, -480(%rbp)	# _103, p
	jge	.L140	#,
# d_main.c:970: 	startskill = myargv[p+1][0]-'1';
	.loc 1 970 21
	movq	myargv(%rip), %rax	# myargv, myargv.110_104
	movl	-480(%rbp), %edx	# p, tmp398
	movslq	%edx, %rdx	# tmp398, _105
	addq	$1, %rdx	#, _106
	salq	$3, %rdx	#, _107
	addq	%rdx, %rax	# _107, _108
	movq	(%rax), %rax	# *_108, _109
# d_main.c:970: 	startskill = myargv[p+1][0]-'1';
	.loc 1 970 26
	movzbl	(%rax), %eax	# *_109, _110
	movsbl	%al, %eax	# _110, _111
# d_main.c:970: 	startskill = myargv[p+1][0]-'1';
	.loc 1 970 29
	subl	$49, %eax	#, _112
# d_main.c:970: 	startskill = myargv[p+1][0]-'1';
	.loc 1 970 13
	movl	%eax, startskill(%rip)	# _113, startskill
# d_main.c:971: 	autostart = true;
	.loc 1 971 12
	movl	$1, autostart(%rip)	#, autostart
.L140:
# d_main.c:974:     p = M_CheckParm ("-episode");
	.loc 1 974 9
	leaq	.LC71(%rip), %rax	#, tmp399
	movq	%rax, %rdi	# tmp399,
	call	M_CheckParm@PLT	#
	movl	%eax, -480(%rbp)	# tmp400, p
# d_main.c:975:     if (p && p < myargc-1)
	.loc 1 975 8
	cmpl	$0, -480(%rbp)	#, p
	je	.L141	#,
# d_main.c:975:     if (p && p < myargc-1)
	.loc 1 975 24 discriminator 1
	movl	myargc(%rip), %eax	# myargc, myargc.111_114
	subl	$1, %eax	#, _115
# d_main.c:975:     if (p && p < myargc-1)
	.loc 1 975 11 discriminator 1
	cmpl	%eax, -480(%rbp)	# _115, p
	jge	.L141	#,
# d_main.c:977: 	startepisode = myargv[p+1][0]-'0';
	.loc 1 977 23
	movq	myargv(%rip), %rax	# myargv, myargv.112_116
	movl	-480(%rbp), %edx	# p, tmp401
	movslq	%edx, %rdx	# tmp401, _117
	addq	$1, %rdx	#, _118
	salq	$3, %rdx	#, _119
	addq	%rdx, %rax	# _119, _120
	movq	(%rax), %rax	# *_120, _121
# d_main.c:977: 	startepisode = myargv[p+1][0]-'0';
	.loc 1 977 28
	movzbl	(%rax), %eax	# *_121, _122
	movsbl	%al, %eax	# _122, _123
# d_main.c:977: 	startepisode = myargv[p+1][0]-'0';
	.loc 1 977 31
	subl	$48, %eax	#, _124
# d_main.c:977: 	startepisode = myargv[p+1][0]-'0';
	.loc 1 977 15
	movl	%eax, startepisode(%rip)	# _124, startepisode
# d_main.c:978: 	startmap = 1;
	.loc 1 978 11
	movl	$1, startmap(%rip)	#, startmap
# d_main.c:979: 	autostart = true;
	.loc 1 979 12
	movl	$1, autostart(%rip)	#, autostart
.L141:
# d_main.c:982:     p = M_CheckParm ("-timer");
	.loc 1 982 9
	leaq	.LC72(%rip), %rax	#, tmp402
	movq	%rax, %rdi	# tmp402,
	call	M_CheckParm@PLT	#
	movl	%eax, -480(%rbp)	# tmp403, p
# d_main.c:983:     if (p && p < myargc-1 && deathmatch)
	.loc 1 983 8
	cmpl	$0, -480(%rbp)	#, p
	je	.L142	#,
# d_main.c:983:     if (p && p < myargc-1 && deathmatch)
	.loc 1 983 24 discriminator 1
	movl	myargc(%rip), %eax	# myargc, myargc.113_125
	subl	$1, %eax	#, _126
# d_main.c:983:     if (p && p < myargc-1 && deathmatch)
	.loc 1 983 11 discriminator 1
	cmpl	%eax, -480(%rbp)	# _126, p
	jge	.L142	#,
# d_main.c:983:     if (p && p < myargc-1 && deathmatch)
	.loc 1 983 27 discriminator 2
	movl	deathmatch(%rip), %eax	# deathmatch, deathmatch.114_127
	testl	%eax, %eax	# deathmatch.114_127
	je	.L142	#,
.LBB5:
# d_main.c:986: 	time = atoi(myargv[p+1]);
	.loc 1 986 20
	movq	myargv(%rip), %rax	# myargv, myargv.115_128
	movl	-480(%rbp), %edx	# p, tmp404
	movslq	%edx, %rdx	# tmp404, _129
	addq	$1, %rdx	#, _130
	salq	$3, %rdx	#, _131
	addq	%rdx, %rax	# _131, _132
# d_main.c:986: 	time = atoi(myargv[p+1]);
	.loc 1 986 9
	movq	(%rax), %rax	# *_132, _133
	movq	%rax, %rdi	# _133,
	call	atoi@PLT	#
	movl	%eax, -468(%rbp)	# tmp405, time
# d_main.c:987: 	printf("Levels will end after %d minute",time);
	.loc 1 987 2
	movl	-468(%rbp), %eax	# time, tmp406
	movl	%eax, %esi	# tmp406,
	leaq	.LC73(%rip), %rax	#, tmp407
	movq	%rax, %rdi	# tmp407,
	movl	$0, %eax	#,
	call	printf@PLT	#
# d_main.c:988: 	if (time>1)
	.loc 1 988 5
	cmpl	$1, -468(%rbp)	#, time
	jle	.L143	#,
# d_main.c:989: 	    printf("s");
	.loc 1 989 6
	movl	$115, %edi	#,
	call	putchar@PLT	#
.L143:
# d_main.c:990: 	printf(".\n");
	.loc 1 990 2
	leaq	.LC15(%rip), %rax	#, tmp408
	movq	%rax, %rdi	# tmp408,
	call	puts@PLT	#
.L142:
.LBE5:
# d_main.c:993:     p = M_CheckParm ("-avg");
	.loc 1 993 9
	leaq	.LC74(%rip), %rax	#, tmp409
	movq	%rax, %rdi	# tmp409,
	call	M_CheckParm@PLT	#
	movl	%eax, -480(%rbp)	# tmp410, p
# d_main.c:994:     if (p && p < myargc-1 && deathmatch)
	.loc 1 994 8
	cmpl	$0, -480(%rbp)	#, p
	je	.L144	#,
# d_main.c:994:     if (p && p < myargc-1 && deathmatch)
	.loc 1 994 24 discriminator 1
	movl	myargc(%rip), %eax	# myargc, myargc.116_134
	subl	$1, %eax	#, _135
# d_main.c:994:     if (p && p < myargc-1 && deathmatch)
	.loc 1 994 11 discriminator 1
	cmpl	%eax, -480(%rbp)	# _135, p
	jge	.L144	#,
# d_main.c:994:     if (p && p < myargc-1 && deathmatch)
	.loc 1 994 27 discriminator 2
	movl	deathmatch(%rip), %eax	# deathmatch, deathmatch.117_136
	testl	%eax, %eax	# deathmatch.117_136
	je	.L144	#,
# d_main.c:995: 	printf("Austin Virtual Gaming: Levels will end after 20 minutes\n");
	.loc 1 995 2
	leaq	.LC75(%rip), %rax	#, tmp411
	movq	%rax, %rdi	# tmp411,
	call	puts@PLT	#
.L144:
# d_main.c:997:     p = M_CheckParm ("-warp");
	.loc 1 997 9
	leaq	.LC76(%rip), %rax	#, tmp412
	movq	%rax, %rdi	# tmp412,
	call	M_CheckParm@PLT	#
	movl	%eax, -480(%rbp)	# tmp413, p
# d_main.c:998:     if (p && p < myargc-1)
	.loc 1 998 8
	cmpl	$0, -480(%rbp)	#, p
	je	.L145	#,
# d_main.c:998:     if (p && p < myargc-1)
	.loc 1 998 24 discriminator 1
	movl	myargc(%rip), %eax	# myargc, myargc.118_137
	subl	$1, %eax	#, _138
# d_main.c:998:     if (p && p < myargc-1)
	.loc 1 998 11 discriminator 1
	cmpl	%eax, -480(%rbp)	# _138, p
	jge	.L145	#,
# d_main.c:1000: 	if (gamemode == commercial)
	.loc 1 1000 15
	movl	gamemode(%rip), %eax	# gamemode, gamemode.119_139
# d_main.c:1000: 	if (gamemode == commercial)
	.loc 1 1000 5
	cmpl	$2, %eax	#, gamemode.119_139
	jne	.L146	#,
# d_main.c:1001: 	    startmap = atoi (myargv[p+1]);
	.loc 1 1001 29
	movq	myargv(%rip), %rax	# myargv, myargv.120_140
	movl	-480(%rbp), %edx	# p, tmp414
	movslq	%edx, %rdx	# tmp414, _141
	addq	$1, %rdx	#, _142
	salq	$3, %rdx	#, _143
	addq	%rdx, %rax	# _143, _144
# d_main.c:1001: 	    startmap = atoi (myargv[p+1]);
	.loc 1 1001 17
	movq	(%rax), %rax	# *_144, _145
	movq	%rax, %rdi	# _145,
	call	atoi@PLT	#
# d_main.c:1001: 	    startmap = atoi (myargv[p+1]);
	.loc 1 1001 15 discriminator 1
	movl	%eax, startmap(%rip)	# _146, startmap
	jmp	.L147	#
.L146:
# d_main.c:1004: 	    startepisode = myargv[p+1][0]-'0';
	.loc 1 1004 27
	movq	myargv(%rip), %rax	# myargv, myargv.121_147
	movl	-480(%rbp), %edx	# p, tmp415
	movslq	%edx, %rdx	# tmp415, _148
	addq	$1, %rdx	#, _149
	salq	$3, %rdx	#, _150
	addq	%rdx, %rax	# _150, _151
	movq	(%rax), %rax	# *_151, _152
# d_main.c:1004: 	    startepisode = myargv[p+1][0]-'0';
	.loc 1 1004 32
	movzbl	(%rax), %eax	# *_152, _153
	movsbl	%al, %eax	# _153, _154
# d_main.c:1004: 	    startepisode = myargv[p+1][0]-'0';
	.loc 1 1004 35
	subl	$48, %eax	#, _155
# d_main.c:1004: 	    startepisode = myargv[p+1][0]-'0';
	.loc 1 1004 19
	movl	%eax, startepisode(%rip)	# _155, startepisode
# d_main.c:1005: 	    startmap = myargv[p+2][0]-'0';
	.loc 1 1005 23
	movq	myargv(%rip), %rax	# myargv, myargv.122_156
	movl	-480(%rbp), %edx	# p, tmp416
	movslq	%edx, %rdx	# tmp416, _157
	addq	$2, %rdx	#, _158
	salq	$3, %rdx	#, _159
	addq	%rdx, %rax	# _159, _160
	movq	(%rax), %rax	# *_160, _161
# d_main.c:1005: 	    startmap = myargv[p+2][0]-'0';
	.loc 1 1005 28
	movzbl	(%rax), %eax	# *_161, _162
	movsbl	%al, %eax	# _162, _163
# d_main.c:1005: 	    startmap = myargv[p+2][0]-'0';
	.loc 1 1005 31
	subl	$48, %eax	#, _164
# d_main.c:1005: 	    startmap = myargv[p+2][0]-'0';
	.loc 1 1005 15
	movl	%eax, startmap(%rip)	# _164, startmap
.L147:
# d_main.c:1007: 	autostart = true;
	.loc 1 1007 12
	movl	$1, autostart(%rip)	#, autostart
.L145:
# d_main.c:1011:     printf ("V_Init: allocate screens.\n");
	.loc 1 1011 5
	leaq	.LC77(%rip), %rax	#, tmp417
	movq	%rax, %rdi	# tmp417,
	call	puts@PLT	#
# d_main.c:1012:     V_Init ();
	.loc 1 1012 5
	call	V_Init@PLT	#
# d_main.c:1014:     printf ("M_LoadDefaults: Load system defaults.\n");
	.loc 1 1014 5
	leaq	.LC78(%rip), %rax	#, tmp418
	movq	%rax, %rdi	# tmp418,
	call	puts@PLT	#
# d_main.c:1015:     M_LoadDefaults ();              // load before initing other systems
	.loc 1 1015 5
	call	M_LoadDefaults@PLT	#
# d_main.c:1017:     printf ("Z_Init: Init zone memory allocation daemon. \n");
	.loc 1 1017 5
	leaq	.LC79(%rip), %rax	#, tmp419
	movq	%rax, %rdi	# tmp419,
	call	puts@PLT	#
# d_main.c:1018:     Z_Init ();
	.loc 1 1018 5
	call	Z_Init@PLT	#
# d_main.c:1020:     printf ("W_Init: Init WADfiles.\n");
	.loc 1 1020 5
	leaq	.LC80(%rip), %rax	#, tmp420
	movq	%rax, %rdi	# tmp420,
	call	puts@PLT	#
# d_main.c:1021:     W_InitMultipleFiles (wadfiles);
	.loc 1 1021 5
	leaq	wadfiles(%rip), %rax	#, tmp421
	movq	%rax, %rdi	# tmp421,
	call	W_InitMultipleFiles@PLT	#
# d_main.c:1025:     if (modifiedgame)
	.loc 1 1025 9
	movl	modifiedgame(%rip), %eax	# modifiedgame, modifiedgame.123_165
# d_main.c:1025:     if (modifiedgame)
	.loc 1 1025 8
	testl	%eax, %eax	# modifiedgame.123_165
	je	.L148	#,
.LBB6:
# d_main.c:1029: 	char name[23][8]=
	.loc 1 1029 7
	movq	$829239909, -464(%rbp)	#, name[0]
	movq	$846017125, -456(%rbp)	#, name[1]
	movq	$862794341, -448(%rbp)	#, name[2]
	movq	$879571557, -440(%rbp)	#, name[3]
	movq	$896348773, -432(%rbp)	#, name[4]
	movq	$913125989, -424(%rbp)	#, name[5]
	movq	$929903205, -416(%rbp)	#, name[6]
	movq	$946680421, -408(%rbp)	#, name[7]
	movq	$963457637, -400(%rbp)	#, name[8]
	movq	$829240165, -392(%rbp)	#, name[9]
	movq	$862794597, -384(%rbp)	#, name[10]
	movq	$862794597, -376(%rbp)	#, name[11]
	movq	$879571813, -368(%rbp)	#, name[12]
	movq	$896349029, -360(%rbp)	#, name[13]
	movq	$913126245, -352(%rbp)	#, name[14]
	movq	$929903461, -344(%rbp)	#, name[15]
	movq	$946680677, -336(%rbp)	#, name[16]
	movq	$963457893, -328(%rbp)	#, name[17]
	movabsq	$112628796518500, %rax	#, tmp475
	movq	%rax, -320(%rbp)	# tmp475, name[18]
	movabsq	$53194904790626, %rax	#, tmp476
	movq	%rax, -312(%rbp)	# tmp476, name[19]
	movabsq	$54294365693288, %rax	#, tmp477
	movq	%rax, -304(%rbp)	# tmp477, name[20]
	movabsq	$54294600644963, %rax	#, tmp478
	movq	%rax, -296(%rbp)	# tmp478, name[21]
	movabsq	$3559023899895754867, %rax	#, tmp479
	movq	%rax, -288(%rbp)	# tmp479, name[22]
# d_main.c:1037: 	if ( gamemode == shareware)
	.loc 1 1037 16
	movl	gamemode(%rip), %eax	# gamemode, gamemode.124_166
# d_main.c:1037: 	if ( gamemode == shareware)
	.loc 1 1037 5
	testl	%eax, %eax	# gamemode.124_166
	jne	.L149	#,
# d_main.c:1038: 	    I_Error("\nYou cannot -file with the shareware "
	.loc 1 1038 6
	leaq	.LC81(%rip), %rax	#, tmp422
	movq	%rax, %rdi	# tmp422,
	movl	$0, %eax	#,
	call	I_Error@PLT	#
.L149:
# d_main.c:1043: 	if (gamemode == registered)
	.loc 1 1043 15
	movl	gamemode(%rip), %eax	# gamemode, gamemode.125_167
# d_main.c:1043: 	if (gamemode == registered)
	.loc 1 1043 5
	cmpl	$1, %eax	#, gamemode.125_167
	jne	.L148	#,
# d_main.c:1044: 	    for (i = 0;i < 23; i++)
	.loc 1 1044 13
	movl	$0, -472(%rbp)	#, i
# d_main.c:1044: 	    for (i = 0;i < 23; i++)
	.loc 1 1044 6
	jmp	.L151	#
.L153:
# d_main.c:1045: 		if (W_CheckNumForName(name[i])<0)
	.loc 1 1045 29
	leaq	-464(%rbp), %rax	#, tmp423
	movl	-472(%rbp), %edx	# i, tmp425
	movslq	%edx, %rdx	# tmp425, tmp424
	salq	$3, %rdx	#, tmp426
	addq	%rdx, %rax	# tmp426, _168
# d_main.c:1045: 		if (W_CheckNumForName(name[i])<0)
	.loc 1 1045 7
	movq	%rax, %rdi	# _168,
	call	W_CheckNumForName@PLT	#
# d_main.c:1045: 		if (W_CheckNumForName(name[i])<0)
	.loc 1 1045 6 discriminator 1
	testl	%eax, %eax	# _169
	jns	.L152	#,
# d_main.c:1046: 		    I_Error("\nThis is not the registered version.");
	.loc 1 1046 7
	leaq	.LC82(%rip), %rax	#, tmp427
	movq	%rax, %rdi	# tmp427,
	movl	$0, %eax	#,
	call	I_Error@PLT	#
.L152:
# d_main.c:1044: 	    for (i = 0;i < 23; i++)
	.loc 1 1044 26 discriminator 2
	addl	$1, -472(%rbp)	#, i
.L151:
# d_main.c:1044: 	    for (i = 0;i < 23; i++)
	.loc 1 1044 19 discriminator 1
	cmpl	$22, -472(%rbp)	#, i
	jle	.L153	#,
.L148:
.LBE6:
# d_main.c:1050:     if (modifiedgame)
	.loc 1 1050 9
	movl	modifiedgame(%rip), %eax	# modifiedgame, modifiedgame.126_170
# d_main.c:1050:     if (modifiedgame)
	.loc 1 1050 8
	testl	%eax, %eax	# modifiedgame.126_170
	je	.L154	#,
# d_main.c:1052: 	/*m*/printf (
	.loc 1 1052 7
	leaq	.LC83(%rip), %rax	#, tmp428
	movq	%rax, %rdi	# tmp428,
	call	puts@PLT	#
# d_main.c:1060: 	getchar ();
	.loc 1 1060 2
	call	getchar@PLT	#
.L154:
# d_main.c:1065:     switch ( gamemode )
	.loc 1 1065 5
	movl	gamemode(%rip), %eax	# gamemode, gamemode.127_171
	cmpl	$4, %eax	#, gamemode.127_171
	je	.L155	#,
	cmpl	$4, %eax	#, gamemode.127_171
	ja	.L172	#,
	testl	%eax, %eax	# gamemode.127_171
	je	.L155	#,
	subl	$1, %eax	#, _445
	cmpl	$2, %eax	#, _445
	ja	.L172	#,
	jmp	.L170	#
.L155:
# d_main.c:1069: 	printf (
	.loc 1 1069 2
	leaq	.LC84(%rip), %rax	#, tmp429
	movq	%rax, %rdi	# tmp429,
	call	puts@PLT	#
# d_main.c:1074: 	break;
	.loc 1 1074 2
	jmp	.L158	#
.L170:
# d_main.c:1078: 	printf (
	.loc 1 1078 2
	leaq	.LC85(%rip), %rax	#, tmp430
	movq	%rax, %rdi	# tmp430,
	call	puts@PLT	#
# d_main.c:1084: 	break;
	.loc 1 1084 2
	jmp	.L158	#
.L172:
# d_main.c:1088: 	break;
	.loc 1 1088 2
	nop	
.L158:
# d_main.c:1091:     printf ("M_Init: Init miscellaneous info.\n");
	.loc 1 1091 5
	leaq	.LC86(%rip), %rax	#, tmp431
	movq	%rax, %rdi	# tmp431,
	call	puts@PLT	#
# d_main.c:1092:     M_Init ();
	.loc 1 1092 5
	call	M_Init@PLT	#
# d_main.c:1094:     printf ("R_Init: Init DOOM refresh daemon - ");
	.loc 1 1094 5
	leaq	.LC87(%rip), %rax	#, tmp432
	movq	%rax, %rdi	# tmp432,
	movl	$0, %eax	#,
	call	printf@PLT	#
# d_main.c:1095:     R_Init ();
	.loc 1 1095 5
	call	R_Init@PLT	#
# d_main.c:1097:     printf ("\nP_Init: Init Playloop state.\n");
	.loc 1 1097 5
	leaq	.LC88(%rip), %rax	#, tmp433
	movq	%rax, %rdi	# tmp433,
	call	puts@PLT	#
# d_main.c:1098:     P_Init ();
	.loc 1 1098 5
	call	P_Init@PLT	#
# d_main.c:1100:     printf ("I_Init: Setting up machine state.\n");
	.loc 1 1100 5
	leaq	.LC89(%rip), %rax	#, tmp434
	movq	%rax, %rdi	# tmp434,
	call	puts@PLT	#
# d_main.c:1101:     I_Init ();
	.loc 1 1101 5
	call	I_Init@PLT	#
# d_main.c:1103:     printf ("D_CheckNetGame: Checking network game status.\n");
	.loc 1 1103 5
	leaq	.LC90(%rip), %rax	#, tmp435
	movq	%rax, %rdi	# tmp435,
	call	puts@PLT	#
# d_main.c:1104:     D_CheckNetGame ();
	.loc 1 1104 5
	call	D_CheckNetGame@PLT	#
# d_main.c:1106:     printf ("S_Init: Setting up sound.\n");
	.loc 1 1106 5
	leaq	.LC91(%rip), %rax	#, tmp436
	movq	%rax, %rdi	# tmp436,
	call	puts@PLT	#
# d_main.c:1107:     S_Init (snd_SfxVolume /* *8 */, snd_MusicVolume /* *8*/ );
	.loc 1 1107 5
	movl	snd_MusicVolume(%rip), %edx	# snd_MusicVolume, snd_MusicVolume.128_172
	movl	snd_SfxVolume(%rip), %eax	# snd_SfxVolume, snd_SfxVolume.129_173
	movl	%edx, %esi	# snd_MusicVolume.128_172,
	movl	%eax, %edi	# snd_SfxVolume.129_173,
	call	S_Init@PLT	#
# d_main.c:1109:     printf ("HU_Init: Setting up heads up display.\n");
	.loc 1 1109 5
	leaq	.LC92(%rip), %rax	#, tmp437
	movq	%rax, %rdi	# tmp437,
	call	puts@PLT	#
# d_main.c:1110:     HU_Init ();
	.loc 1 1110 5
	call	HU_Init@PLT	#
# d_main.c:1112:     printf ("ST_Init: Init status bar.\n");
	.loc 1 1112 5
	leaq	.LC93(%rip), %rax	#, tmp438
	movq	%rax, %rdi	# tmp438,
	call	puts@PLT	#
# d_main.c:1113:     ST_Init ();
	.loc 1 1113 5
	call	ST_Init@PLT	#
# d_main.c:1116:     p = M_CheckParm ("-statcopy");
	.loc 1 1116 9
	leaq	.LC94(%rip), %rax	#, tmp439
	movq	%rax, %rdi	# tmp439,
	call	M_CheckParm@PLT	#
	movl	%eax, -480(%rbp)	# tmp440, p
# d_main.c:1117:     if (p && p<myargc-1)
	.loc 1 1117 8
	cmpl	$0, -480(%rbp)	#, p
	je	.L159	#,
# d_main.c:1117:     if (p && p<myargc-1)
	.loc 1 1117 22 discriminator 1
	movl	myargc(%rip), %eax	# myargc, myargc.130_174
	subl	$1, %eax	#, _175
# d_main.c:1117:     if (p && p<myargc-1)
	.loc 1 1117 11 discriminator 1
	cmpl	%eax, -480(%rbp)	# _175, p
	jge	.L159	#,
.LBB7:
# d_main.c:1122: 	statcopy = (void*)atoi(myargv[p+1]);
	.loc 1 1122 31
	movq	myargv(%rip), %rax	# myargv, myargv.131_176
	movl	-480(%rbp), %edx	# p, tmp441
	movslq	%edx, %rdx	# tmp441, _177
	addq	$1, %rdx	#, _178
	salq	$3, %rdx	#, _179
	addq	%rdx, %rax	# _179, _180
# d_main.c:1122: 	statcopy = (void*)atoi(myargv[p+1]);
	.loc 1 1122 20
	movq	(%rax), %rax	# *_180, _181
	movq	%rax, %rdi	# _181,
	call	atoi@PLT	#
# d_main.c:1122: 	statcopy = (void*)atoi(myargv[p+1]);
	.loc 1 1122 20 is_stmt 0 discriminator 1
	cltq
# d_main.c:1122: 	statcopy = (void*)atoi(myargv[p+1]);
	.loc 1 1122 11 is_stmt 1 discriminator 1
	movq	%rax, statcopy(%rip)	# _184, statcopy
# d_main.c:1123: 	printf ("External statistics registered.\n");
	.loc 1 1123 2
	leaq	.LC95(%rip), %rax	#, tmp442
	movq	%rax, %rdi	# tmp442,
	call	puts@PLT	#
.L159:
.LBE7:
# d_main.c:1127:     p = M_CheckParm ("-record");
	.loc 1 1127 9
	leaq	.LC96(%rip), %rax	#, tmp443
	movq	%rax, %rdi	# tmp443,
	call	M_CheckParm@PLT	#
	movl	%eax, -480(%rbp)	# tmp444, p
# d_main.c:1129:     if (p && p < myargc-1)
	.loc 1 1129 8
	cmpl	$0, -480(%rbp)	#, p
	je	.L160	#,
# d_main.c:1129:     if (p && p < myargc-1)
	.loc 1 1129 24 discriminator 1
	movl	myargc(%rip), %eax	# myargc, myargc.132_185
	subl	$1, %eax	#, _186
# d_main.c:1129:     if (p && p < myargc-1)
	.loc 1 1129 11 discriminator 1
	cmpl	%eax, -480(%rbp)	# _186, p
	jge	.L160	#,
# d_main.c:1131: 	G_RecordDemo (myargv[p+1]);
	.loc 1 1131 22
	movq	myargv(%rip), %rax	# myargv, myargv.133_187
	movl	-480(%rbp), %edx	# p, tmp445
	movslq	%edx, %rdx	# tmp445, _188
	addq	$1, %rdx	#, _189
	salq	$3, %rdx	#, _190
	addq	%rdx, %rax	# _190, _191
# d_main.c:1131: 	G_RecordDemo (myargv[p+1]);
	.loc 1 1131 2
	movq	(%rax), %rax	# *_191, _192
	movq	%rax, %rdi	# _192,
	call	G_RecordDemo@PLT	#
# d_main.c:1132: 	autostart = true;
	.loc 1 1132 12
	movl	$1, autostart(%rip)	#, autostart
.L160:
# d_main.c:1135:     p = M_CheckParm ("-playdemo");
	.loc 1 1135 9
	leaq	.LC66(%rip), %rax	#, tmp446
	movq	%rax, %rdi	# tmp446,
	call	M_CheckParm@PLT	#
	movl	%eax, -480(%rbp)	# tmp447, p
# d_main.c:1136:     if (p && p < myargc-1)
	.loc 1 1136 8
	cmpl	$0, -480(%rbp)	#, p
	je	.L161	#,
# d_main.c:1136:     if (p && p < myargc-1)
	.loc 1 1136 24 discriminator 1
	movl	myargc(%rip), %eax	# myargc, myargc.134_193
	subl	$1, %eax	#, _194
# d_main.c:1136:     if (p && p < myargc-1)
	.loc 1 1136 11 discriminator 1
	cmpl	%eax, -480(%rbp)	# _194, p
	jge	.L161	#,
# d_main.c:1138: 	singledemo = true;              // quit after one demo
	.loc 1 1138 13
	movl	$1, singledemo(%rip)	#, singledemo
# d_main.c:1139: 	G_DeferedPlayDemo (myargv[p+1]);
	.loc 1 1139 27
	movq	myargv(%rip), %rax	# myargv, myargv.135_195
	movl	-480(%rbp), %edx	# p, tmp448
	movslq	%edx, %rdx	# tmp448, _196
	addq	$1, %rdx	#, _197
	salq	$3, %rdx	#, _198
	addq	%rdx, %rax	# _198, _199
# d_main.c:1139: 	G_DeferedPlayDemo (myargv[p+1]);
	.loc 1 1139 2
	movq	(%rax), %rax	# *_199, _200
	movq	%rax, %rdi	# _200,
	call	G_DeferedPlayDemo@PLT	#
# d_main.c:1140: 	D_DoomLoop ();  // never returns
	.loc 1 1140 2
	call	D_DoomLoop	#
.L161:
# d_main.c:1143:     p = M_CheckParm ("-timedemo");
	.loc 1 1143 9
	leaq	.LC67(%rip), %rax	#, tmp449
	movq	%rax, %rdi	# tmp449,
	call	M_CheckParm@PLT	#
	movl	%eax, -480(%rbp)	# tmp450, p
# d_main.c:1144:     if (p && p < myargc-1)
	.loc 1 1144 8
	cmpl	$0, -480(%rbp)	#, p
	je	.L162	#,
# d_main.c:1144:     if (p && p < myargc-1)
	.loc 1 1144 24 discriminator 1
	movl	myargc(%rip), %eax	# myargc, myargc.136_201
	subl	$1, %eax	#, _202
# d_main.c:1144:     if (p && p < myargc-1)
	.loc 1 1144 11 discriminator 1
	cmpl	%eax, -480(%rbp)	# _202, p
	jge	.L162	#,
# d_main.c:1146: 	G_TimeDemo (myargv[p+1]);
	.loc 1 1146 20
	movq	myargv(%rip), %rax	# myargv, myargv.137_203
	movl	-480(%rbp), %edx	# p, tmp451
	movslq	%edx, %rdx	# tmp451, _204
	addq	$1, %rdx	#, _205
	salq	$3, %rdx	#, _206
	addq	%rdx, %rax	# _206, _207
# d_main.c:1146: 	G_TimeDemo (myargv[p+1]);
	.loc 1 1146 2
	movq	(%rax), %rax	# *_207, _208
	movq	%rax, %rdi	# _208,
	call	G_TimeDemo@PLT	#
# d_main.c:1147: 	D_DoomLoop ();  // never returns
	.loc 1 1147 2
	call	D_DoomLoop	#
.L162:
# d_main.c:1150:     p = M_CheckParm ("-loadgame");
	.loc 1 1150 9
	leaq	.LC97(%rip), %rax	#, tmp452
	movq	%rax, %rdi	# tmp452,
	call	M_CheckParm@PLT	#
	movl	%eax, -480(%rbp)	# tmp453, p
# d_main.c:1151:     if (p && p < myargc-1)
	.loc 1 1151 8
	cmpl	$0, -480(%rbp)	#, p
	je	.L163	#,
# d_main.c:1151:     if (p && p < myargc-1)
	.loc 1 1151 24 discriminator 1
	movl	myargc(%rip), %eax	# myargc, myargc.138_209
	subl	$1, %eax	#, _210
# d_main.c:1151:     if (p && p < myargc-1)
	.loc 1 1151 11 discriminator 1
	cmpl	%eax, -480(%rbp)	# _210, p
	jge	.L163	#,
# d_main.c:1153: 	if (M_CheckParm("-cdrom"))
	.loc 1 1153 6
	leaq	.LC55(%rip), %rax	#, tmp454
	movq	%rax, %rdi	# tmp454,
	call	M_CheckParm@PLT	#
# d_main.c:1153: 	if (M_CheckParm("-cdrom"))
	.loc 1 1153 5 discriminator 1
	testl	%eax, %eax	# _211
	je	.L164	#,
# d_main.c:1154: 	    sprintf(file, "c:\\doomdata\\"SAVEGAMENAME"%c.dsg",myargv[p+1][0]);
	.loc 1 1154 63
	movq	myargv(%rip), %rax	# myargv, myargv.139_212
	movl	-480(%rbp), %edx	# p, tmp455
	movslq	%edx, %rdx	# tmp455, _213
	addq	$1, %rdx	#, _214
	salq	$3, %rdx	#, _215
	addq	%rdx, %rax	# _215, _216
	movq	(%rax), %rax	# *_216, _217
# d_main.c:1154: 	    sprintf(file, "c:\\doomdata\\"SAVEGAMENAME"%c.dsg",myargv[p+1][0]);
	.loc 1 1154 68
	movzbl	(%rax), %eax	# *_217, _218
# d_main.c:1154: 	    sprintf(file, "c:\\doomdata\\"SAVEGAMENAME"%c.dsg",myargv[p+1][0]);
	.loc 1 1154 6
	movsbl	%al, %edx	# _218, _219
	leaq	-272(%rbp), %rax	#, tmp456
	leaq	.LC98(%rip), %rcx	#, tmp457
	movq	%rcx, %rsi	# tmp457,
	movq	%rax, %rdi	# tmp456,
	movl	$0, %eax	#,
	call	sprintf@PLT	#
	jmp	.L165	#
.L164:
# d_main.c:1156: 	    sprintf(file, SAVEGAMENAME"%c.dsg",myargv[p+1][0]);
	.loc 1 1156 47
	movq	myargv(%rip), %rax	# myargv, myargv.140_220
	movl	-480(%rbp), %edx	# p, tmp458
	movslq	%edx, %rdx	# tmp458, _221
	addq	$1, %rdx	#, _222
	salq	$3, %rdx	#, _223
	addq	%rdx, %rax	# _223, _224
	movq	(%rax), %rax	# *_224, _225
# d_main.c:1156: 	    sprintf(file, SAVEGAMENAME"%c.dsg",myargv[p+1][0]);
	.loc 1 1156 52
	movzbl	(%rax), %eax	# *_225, _226
# d_main.c:1156: 	    sprintf(file, SAVEGAMENAME"%c.dsg",myargv[p+1][0]);
	.loc 1 1156 6
	movsbl	%al, %edx	# _226, _227
	leaq	-272(%rbp), %rax	#, tmp459
	leaq	.LC99(%rip), %rcx	#, tmp460
	movq	%rcx, %rsi	# tmp460,
	movq	%rax, %rdi	# tmp459,
	movl	$0, %eax	#,
	call	sprintf@PLT	#
.L165:
# d_main.c:1157: 	G_LoadGame (file);
	.loc 1 1157 2
	leaq	-272(%rbp), %rax	#, tmp461
	movq	%rax, %rdi	# tmp461,
	call	G_LoadGame@PLT	#
.L163:
# d_main.c:1161:     if ( gameaction != ga_loadgame )
	.loc 1 1161 21
	movl	gameaction(%rip), %eax	# gameaction, gameaction.141_228
# d_main.c:1161:     if ( gameaction != ga_loadgame )
	.loc 1 1161 8
	cmpl	$3, %eax	#, gameaction.141_228
	je	.L166	#,
# d_main.c:1163: 	if (autostart || netgame)
	.loc 1 1163 6
	movl	autostart(%rip), %eax	# autostart, autostart.142_229
# d_main.c:1163: 	if (autostart || netgame)
	.loc 1 1163 5
	testl	%eax, %eax	# autostart.142_229
	jne	.L167	#,
# d_main.c:1163: 	if (autostart || netgame)
	.loc 1 1163 16 discriminator 1
	movl	netgame(%rip), %eax	# netgame, netgame.143_230
	testl	%eax, %eax	# netgame.143_230
	je	.L168	#,
.L167:
# d_main.c:1164: 	    G_InitNew (startskill, startepisode, startmap);
	.loc 1 1164 6
	movl	startmap(%rip), %edx	# startmap, startmap.144_231
	movl	startepisode(%rip), %ecx	# startepisode, startepisode.145_232
	movl	startskill(%rip), %eax	# startskill, startskill.146_233
	movl	%ecx, %esi	# startepisode.145_232,
	movl	%eax, %edi	# startskill.146_233,
	call	G_InitNew@PLT	#
	jmp	.L166	#
.L168:
# d_main.c:1166: 	    D_StartTitle ();                // start up intro loop
	.loc 1 1166 6
	call	D_StartTitle	#
.L166:
# d_main.c:1170:     D_DoomLoop ();  // never returns
	.loc 1 1170 5
	call	D_DoomLoop	#
# d_main.c:1171: }
	.loc 1 1171 1
	nop	
	movq	-8(%rbp), %rax	# D.9002, tmp463
	subq	%fs:40, %rax	# MEM[(<address-space-1> long unsigned int *)40B], tmp463
	je	.L169	#,
	call	__stack_chk_fail@PLT	#
.L169:
	leave	
	.cfi_def_cfa 7, 8
	ret	
	.cfi_endproc
.LFE18:
	.size	D_DoomMain, .-D_DoomMain
	.data
	.align 4
	.type	oldgamestate.5, @object
	.size	oldgamestate.5, 4
oldgamestate.5:
	.long	-1
	.local	borderdrawcount.4
	.comm	borderdrawcount.4,4,4
	.local	fullscreen.3
	.comm	fullscreen.3,4,4
	.local	inhelpscreensstate.2
	.comm	inhelpscreensstate.2,4,4
	.local	viewactivestate.1
	.comm	viewactivestate.1,4,4
	.local	menuactivestate.0
	.comm	menuactivestate.0,4,4
	.text
.Letext0:
	.file 2 "/usr/lib/gcc/x86_64-linux-gnu/13/include/stddef.h"
	.file 3 "/usr/include/x86_64-linux-gnu/bits/types.h"
	.file 4 "/usr/include/x86_64-linux-gnu/bits/types/struct_FILE.h"
	.file 5 "/usr/include/x86_64-linux-gnu/bits/types/FILE.h"
	.file 6 "doomdef.h"
	.file 7 "doomtype.h"
	.file 8 "doomdata.h"
	.file 9 "m_fixed.h"
	.file 10 "tables.h"
	.file 11 "d_think.h"
	.file 12 "info.h"
	.file 13 "p_pspr.h"
	.file 14 "p_mobj.h"
	.file 15 "r_defs.h"
	.file 16 "d_player.h"
	.file 17 "d_ticcmd.h"
	.file 18 "/usr/include/stdio.h"
	.file 19 "doomstat.h"
	.file 20 "sounds.h"
	.file 21 "d_event.h"
	.file 22 "f_wipe.h"
	.file 23 "m_argv.h"
	.file 24 "d_main.h"
	.file 25 "g_game.h"
	.file 26 "st_stuff.h"
	.file 27 "hu_stuff.h"
	.file 28 "s_sound.h"
	.file 29 "i_system.h"
	.file 30 "p_setup.h"
	.file 31 "r_main.h"
	.file 32 "m_menu.h"
	.file 33 "w_wad.h"
	.file 34 "z_zone.h"
	.file 35 "m_misc.h"
	.file 36 "v_video.h"
	.file 37 "/usr/include/stdlib.h"
	.file 38 "/usr/include/x86_64-linux-gnu/sys/stat.h"
	.file 39 "/usr/include/string.h"
	.file 40 "/usr/include/unistd.h"
	.file 41 "i_sound.h"
	.file 42 "d_net.h"
	.file 43 "i_video.h"
	.file 44 "r_draw.h"
	.file 45 "f_finale.h"
	.file 46 "wi_stuff.h"
	.file 47 "am_map.h"
	.section	.note.GNU-stack,"",@progbits
	.section	.note.gnu.property,"a"
	.align 8
	.long	1f - 0f
	.long	4f - 1f
	.long	5
0:
	.string	"GNU"
1:
	.align 8
	.long	0xc0000002
	.long	3f - 2f
2:
	.long	0x3
3:
	.align 8
4:
