	.file	"f_finale.c"
# GNU C17 (Ubuntu 13.3.0-6ubuntu2~24.04) version 13.3.0 (x86_64-linux-gnu)
#	compiled by GNU C version 13.3.0, GMP version 6.3.0, MPFR version 4.2.1, MPC version 1.3.1, isl version isl-0.26-GMP

# GGC heuristics: --param ggc-min-expand=100 --param ggc-min-heapsize=131072
# options passed: -mtune=generic -march=x86-64 -g -fasynchronous-unwind-tables -fstack-protector-strong -fstack-clash-protection -fcf-protection
	.text
.Ltext0:
	.file 0 "/home/astrid/Documents/enseignements/DOOM/linuxdoom-1.10" "f_finale.c"
	.section	.rodata
	.align 32
	.type	rcsid, @object
	.size	rcsid, 51
rcsid:
	.string	"$Id: f_finale.c,v 1.5 1997/02/03 21:26:34 b1 Exp $"
	.globl	finalestage
	.bss
	.align 4
	.type	finalestage, @object
	.size	finalestage, 4
finalestage:
	.zero	4
	.globl	finalecount
	.align 4
	.type	finalecount, @object
	.size	finalecount, 4
finalecount:
	.zero	4
	.globl	e1text
	.section	.rodata
	.align 8
.LC0:
	.ascii	"Once you beat the big badasses and\nclean out the moon base "
	.ascii	"you're supposed\nto win, aren't you? Aren't you? Where's\nyo"
	.ascii	"ur fat reward and ticket home? What\nthe hell is this? It's "
	.ascii	"not supp"
	.string	"osed to\nend this way!\n\nIt stinks like rotten meat, but looks\nlike the lost Deimos base.  Looks like\nyou're stuck on The Shores of Hell.\nThe only way out is through.\n\nTo continue the DOOM experience, play\nThe Shores of Hell and its amazing\nsequel, Inferno!\n"
	.section	.data.rel.local,"aw"
	.align 8
	.type	e1text, @object
	.size	e1text, 8
e1text:
	.quad	.LC0
	.globl	e2text
	.section	.rodata
	.align 8
.LC1:
	.ascii	"You've done it! The hideous cyber-\ndemon lord that ruled th"
	.ascii	"e lost Deimos\nmoon base has been slain and you\nare triumph"
	.ascii	"ant! But ... where are\nyou? You clamber to the edge of the\n"
	.ascii	"moon and look down to see the awfu"
	.string	"l\ntruth.\n\nDeimos floats above Hell itself!\nYou've never heard of anyone escaping\nfrom Hell, but you'll make the bastards\nsorry they ever heard of you! Quickly,\nyou rappel down to  the surface of\nHell.\n\nNow, it's on to the final chapter of\nDOOM! -- Inferno."
	.section	.data.rel.local
	.align 8
	.type	e2text, @object
	.size	e2text, 8
e2text:
	.quad	.LC1
	.globl	e3text
	.section	.rodata
	.align 8
.LC2:
	.ascii	"The loathsome spiderdemon that\nmasterminded the invasion of"
	.ascii	" the moon\nbases and caused so much death has had\nits ass k"
	.ascii	"icked for all time.\n\nA hidden doorway opens and you enter."
	.ascii	"\nYou've proven too tough for Hell to\ncontain, and now Hell"
	.ascii	" at"
	.string	" last plays\nfair -- for you emerge from the door\nto see the green fields of Earth!\nHome at last.\n\nYou wonder what's been happening on\nEarth while you were battling evil\nunleashed. It's good that no Hell-\nspawn could have come through that\ndoor with you ..."
	.section	.data.rel.local
	.align 8
	.type	e3text, @object
	.size	e3text, 8
e3text:
	.quad	.LC2
	.globl	e4text
	.section	.rodata
	.align 8
.LC3:
	.ascii	"the spider mastermind must have sent forth\nits legions of h"
	.ascii	"ellspawn before your\nfinal confrontation with that terrible"
	.ascii	"\nbeast from hell.  but you stepped forward\nand brought for"
	.ascii	"th eternal damnation and\nsuffering upon the horde as a true"
	.ascii	" hero\nwould "
	.string	"in the face of something so evil.\n\nbesides, someone was gonna pay for what\nhappened to daisy, your pet rabbit.\n\nbut now, you see spread before you more\npotential pain and gibbitude as a nation\nof demons run amok among our cities.\n\nnext stop, hell on earth!"
	.section	.data.rel.local
	.align 8
	.type	e4text, @object
	.size	e4text, 8
e4text:
	.quad	.LC3
	.globl	c1text
	.section	.rodata
	.align 8
.LC4:
	.ascii	"YOU HAVE ENTERED DEEPLY INTO THE INFESTED\nSTARPORT. BUT SOM"
	.ascii	"ETHING IS WRONG. THE\nMONSTERS HAVE BROUGHT THEIR OWN REALIT"
	.ascii	"Y\nWITH THEM, AND THE STARPORT'S"
	.string	" TECHNOLOGY\nIS BEING SUBVERTED BY THEIR PRESENCE.\n\nAHEAD, YOU SEE AN OUTPOST OF HELL, A\nFORTIFIED ZONE. IF YOU CAN GET PAST IT,\nYOU CAN PENETRATE INTO THE HAUNTED HEART\nOF THE STARBASE AND FIND THE CONTROLLING\nSWITCH WHICH HOLDS EARTH'S POPULATION\nHOSTAGE."
	.section	.data.rel.local
	.align 8
	.type	c1text, @object
	.size	c1text, 8
c1text:
	.quad	.LC4
	.globl	c2text
	.section	.rodata
	.align 8
.LC5:
	.ascii	"YOU HAVE WON! YOUR VICTORY HAS ENABLED\nHUMANKIND TO EVACUAT"
	.ascii	"E EARTH AND ESCAPE\nTHE NIGHTMARE.  NOW YOU ARE THE ONLY\nHU"
	.ascii	"MAN LEFT ON THE FACE OF THE PLANET.\nCANNIBAL MUTATIONS, CAR"
	.ascii	"NIVOROUS ALIENS,\nAND EVIL SPIRITS ARE YOUR ONLY NEIGHBORS.\n"
	.ascii	"YOU SIT BACK AND WAIT FOR DEATH, CONTENT\nTHAT YOU HAVE SAVE"
	.ascii	"D YOUR SPECIES.\n\nBUT THEN, EARTH CONTROL BEAMS DOWN A\nMES"
	.ascii	"SAGE FROM "
	.string	"SPACE: \"SENSORS HAVE LOCATED\nTHE SOURCE OF THE ALIEN INVASION. IF YOU\nGO THERE, YOU MAY BE ABLE TO BLOCK THEIR\nENTRY.  THE ALIEN BASE IS IN THE HEART OF\nYOUR OWN HOME CITY, NOT FAR FROM THE\nSTARPORT.\" SLOWLY AND PAINFULLY YOU GET\nUP AND RETURN TO THE FRAY."
	.section	.data.rel.local
	.align 8
	.type	c2text, @object
	.size	c2text, 8
c2text:
	.quad	.LC5
	.globl	c3text
	.section	.rodata
	.align 8
.LC6:
	.ascii	"YOU ARE AT THE CORRUPT HEART OF THE CITY,\nSURROUNDED BY "
	.string	"THE CORPSES OF YOUR ENEMIES.\nYOU SEE NO WAY TO DESTROY THE CREATURES'\nENTRYWAY ON THIS SIDE, SO YOU CLENCH YOUR\nTEETH AND PLUNGE THROUGH IT.\n\nTHERE MUST BE A WAY TO CLOSE IT ON THE\nOTHER SIDE. WHAT DO YOU CARE IF YOU'VE\nGOT TO GO THROUGH HELL TO GET TO IT?"
	.section	.data.rel.local
	.align 8
	.type	c3text, @object
	.size	c3text, 8
c3text:
	.quad	.LC6
	.globl	c4text
	.section	.rodata
	.align 8
.LC7:
	.ascii	"THE HORRENDOUS VISAGE OF THE BIGGEST\nDEMON YOU'VE EVER SEEN"
	.ascii	" CRUMBLES BEFORE\nYOU, AFTER YOU PUMP YOUR ROCKETS INTO\nHIS"
	.ascii	" EXPOSED BRAIN. THE MONSTER SHRIVELS\nUP AND DIES, ITS THRAS"
	.ascii	"HING LIMBS\nDEVASTATING UNTOLD MILES OF HELL'S\nSURFACE.\n\n"
	.ascii	"YOU'VE"
	.string	" DONE IT. THE INVASION IS OVER.\nEARTH IS SAVED. HELL IS A WRECK. YOU\nWONDER WHERE BAD FOLKS WILL GO WHEN THEY\nDIE, NOW. WIPING THE SWEAT FROM YOUR\nFOREHEAD YOU BEGIN THE LONG TREK BACK\nHOME. REBUILDING EARTH OUGHT TO BE A\nLOT MORE FUN THAN RUINING IT WAS.\n"
	.section	.data.rel.local
	.align 8
	.type	c4text, @object
	.size	c4text, 8
c4text:
	.quad	.LC7
	.globl	c5text
	.section	.rodata
	.align 8
.LC8:
	.string	"CONGRATULATIONS, YOU'VE FOUND THE SECRET\nLEVEL! LOOKS LIKE IT'S BEEN BUILT BY\nHUMANS, RATHER THAN DEMONS. YOU WONDER\nWHO THE INMATES OF THIS CORNER OF HELL\nWILL BE."
	.section	.data.rel.local
	.align 8
	.type	c5text, @object
	.size	c5text, 8
c5text:
	.quad	.LC8
	.globl	c6text
	.section	.rodata
	.align 8
.LC9:
	.string	"CONGRATULATIONS, YOU'VE FOUND THE\nSUPER SECRET LEVEL!  YOU'D BETTER\nBLAZE THROUGH THIS ONE!\n"
	.section	.data.rel.local
	.align 8
	.type	c6text, @object
	.size	c6text, 8
c6text:
	.quad	.LC9
	.globl	p1text
	.section	.rodata
	.align 8
.LC10:
	.ascii	"You gloat over the steaming carcass of the\nGuardian.  With "
	.ascii	"its death, you've wrested\nthe Accelerator from the stinking"
	.ascii	" claws\nof Hell.  You relax and glance around the\nroom.  Da"
	.ascii	"m"
	.string	"n!  There was supposed to be at\nleast one working prototype, but you can't\nsee it. The demons must have taken it.\n\nYou must find the prototype, or all your\nstruggles will have been wasted. Keep\nmoving, keep fighting, keep killing.\nOh yes, keep living, too."
	.section	.data.rel.local
	.align 8
	.type	p1text, @object
	.size	p1text, 8
p1text:
	.quad	.LC10
	.globl	p2text
	.section	.rodata
	.align 8
.LC11:
	.string	"Even the deadly Arch-Vile labyrinth could\nnot stop you, and you've gotten to the\nprototype Accelerator which is soon\nefficiently and permanently deactivated.\n\nYou're good at that kind of thing."
	.section	.data.rel.local
	.align 8
	.type	p2text, @object
	.size	p2text, 8
p2text:
	.quad	.LC11
	.globl	p3text
	.section	.rodata
	.align 8
.LC12:
	.ascii	"You've bashed and battered your way into\nthe heart of the d"
	.ascii	"evil-hive.  T"
	.string	"ime for a\nSearch-and-Destroy mission, aimed at the\nGatekeeper, whose foul offspring is\ncascading to Earth.  Yeah, he's bad. But\nyou know who's worse!\n\nGrinning evilly, you check your gear, and\nget ready to give the bastard a little Hell\nof your own making!"
	.section	.data.rel.local
	.align 8
	.type	p3text, @object
	.size	p3text, 8
p3text:
	.quad	.LC12
	.globl	p4text
	.section	.rodata
	.align 8
.LC13:
	.ascii	"The Gatekeeper's evil face is splattered\nall over the place"
	.ascii	".  As its tattered corpse\ncollapses, an inverted Gate forms"
	.ascii	" and\nsucks down the shards of the last\nprototype Accelerat"
	.ascii	"or, not to mention the\nfew r"
	.string	"emaining demons.  You're done. Hell\nhas gone back to pounding bad dead folks \ninstead of good live ones.  Remember to\ntell your grandkids to put a rocket\nlauncher in your coffin. If you go to Hell\nwhen you die, you'll need it for some\nfinal cleaning-up ..."
	.section	.data.rel.local
	.align 8
	.type	p4text, @object
	.size	p4text, 8
p4text:
	.quad	.LC13
	.globl	p5text
	.section	.rodata
	.align 8
.LC14:
	.string	"You've found the second-hardest level we\ngot. Hope you have a saved game a level or\ntwo previous.  If not, be prepared to die\naplenty. For master marines only."
	.section	.data.rel.local
	.align 8
	.type	p5text, @object
	.size	p5text, 8
p5text:
	.quad	.LC14
	.globl	p6text
	.section	.rodata
	.align 8
.LC15:
	.string	"Betcha wondered just what WAS the hardest\nlevel we had ready for ya?  Now you know.\nNo one gets out alive."
	.section	.data.rel.local
	.align 8
	.type	p6text, @object
	.size	p6text, 8
p6text:
	.quad	.LC15
	.globl	t1text
	.section	.rodata
	.align 8
.LC16:
	.ascii	"You've fought your way out of the infested\nexperimental lab"
	.ascii	"s.   It seems that UAC has\nonce again gulped it down.  With"
	.ascii	" their\nhigh tur"
	.string	"nover, it must be hard for poor\nold UAC to buy corporate health insurance\nnowadays..\n\nAhead lies the military complex, now\nswarming with diseased horrors hot to get\ntheir teeth into you. With luck, the\ncomplex still has some warlike ordnance\nlaying around."
	.section	.data.rel.local
	.align 8
	.type	t1text, @object
	.size	t1text, 8
t1text:
	.quad	.LC16
	.globl	t2text
	.section	.rodata
	.align 8
.LC17:
	.ascii	"You hear the grinding of heavy machinery\nahead.  You s"
	.string	"ure hope they're not stamping\nout new hellspawn, but you're ready to\nream out a whole herd if you have to.\nThey might be planning a blood feast, but\nyou feel about as mean as two thousand\nmaniacs packed into one mad killer.\n\nYou don't plan to go down easy."
	.section	.data.rel.local
	.align 8
	.type	t2text, @object
	.size	t2text, 8
t2text:
	.quad	.LC17
	.globl	t3text
	.section	.rodata
	.align 8
.LC18:
	.ascii	"The vista opening ahead looks real damn\nfamiliar. Sme"
	.string	"lls familiar, too -- like\nfried excrement. You didn't like this\nplace before, and you sure as hell ain't\nplanning to like it now. The more you\nbrood on it, the madder you get.\nHefting your gun, an evil grin trickles\nonto your face. Time to take some names."
	.section	.data.rel.local
	.align 8
	.type	t3text, @object
	.size	t3text, 8
t3text:
	.quad	.LC18
	.globl	t4text
	.section	.rodata
	.align 8
.LC19:
	.ascii	"Suddenly, all is silent, from one horizon\nto the other. The"
	.ascii	" agonizing echo of Hell\nfades away, the nightmare sky turns"
	.ascii	" to\nblue, t"
	.string	"he heaps of monster corpses start \nto evaporate along with the evil stench \nthat filled the air. Jeeze, maybe you've\ndone it. Have you really won?\n\nSomething rumbles in the distance.\nA blue light begins to glow inside the\nruined skull of the demon-spitter."
	.section	.data.rel.local
	.align 8
	.type	t4text, @object
	.size	t4text, 8
t4text:
	.quad	.LC19
	.globl	t5text
	.section	.rodata
	.align 8
.LC20:
	.string	"What now? Looks totally different. Kind\nof like King Tut's condo. Well,\nwhatever's here can't be any worse\nthan usual. Can it?  Or maybe it's best\nto let sleeping gods lie.."
	.section	.data.rel.local
	.align 8
	.type	t5text, @object
	.size	t5text, 8
t5text:
	.quad	.LC20
	.globl	t6text
	.section	.rodata
	.align 8
.LC21:
	.ascii	"Time for a vacation. You've burst the\nbowels of hell and by"
	.ascii	" golly you're ready\nfor a break. You m"
	.string	"utter to yourself,\nMaybe someone else can kick Hell's ass\nnext time around. Ahead lies a quiet town,\nwith peaceful flowing water, quaint\nbuildings, and presumably no Hellspawn.\n\nAs you step off the transport, you hear\nthe stomp of a cyberdemon's iron shoe."
	.section	.data.rel.local
	.align 8
	.type	t6text, @object
	.size	t6text, 8
t6text:
	.quad	.LC21
	.globl	finaletext
	.bss
	.align 8
	.type	finaletext, @object
	.size	finaletext, 8
finaletext:
	.zero	8
	.globl	finaleflat
	.align 8
	.type	finaleflat, @object
	.size	finaleflat, 8
finaleflat:
	.zero	8
	.section	.rodata
.LC22:
	.string	"FLOOR4_8"
.LC23:
	.string	"SFLR6_1"
.LC24:
	.string	"MFLR8_4"
.LC25:
	.string	"MFLR8_3"
.LC26:
	.string	"SLIME16"
.LC27:
	.string	"RROCK14"
.LC28:
	.string	"RROCK07"
.LC29:
	.string	"RROCK17"
.LC30:
	.string	"RROCK13"
.LC31:
	.string	"RROCK19"
.LC32:
	.string	"F_SKY1"
	.text
	.globl	F_StartFinale
	.type	F_StartFinale, @function
F_StartFinale:
.LFB0:
	.file 1 "f_finale.c"
	.loc 1 97 1
	.cfi_startproc
	endbr64	
	pushq	%rbp	#
	.cfi_def_cfa_offset 16
	.cfi_offset 6, -16
	movq	%rsp, %rbp	#,
	.cfi_def_cfa_register 6
# f_finale.c:98:     gameaction = ga_nothing;
	.loc 1 98 16
	movl	$0, gameaction(%rip)	#, gameaction
# f_finale.c:99:     gamestate = GS_FINALE;
	.loc 1 99 15
	movl	$2, gamestate(%rip)	#, gamestate
# f_finale.c:100:     viewactive = false;
	.loc 1 100 16
	movl	$0, viewactive(%rip)	#, viewactive
# f_finale.c:101:     automapactive = false;
	.loc 1 101 19
	movl	$0, automapactive(%rip)	#, automapactive
# f_finale.c:106:     switch ( gamemode )
	.loc 1 106 5
	movl	gamemode(%rip), %eax	# gamemode, gamemode.0_1
	cmpl	$3, %eax	#, gamemode.0_1
	je	.L2	#,
	cmpl	$3, %eax	#, gamemode.0_1
	ja	.L3	#,
	cmpl	$1, %eax	#, gamemode.0_1
	jbe	.L2	#,
	cmpl	$2, %eax	#, gamemode.0_1
	je	.L4	#,
	jmp	.L3	#
.L2:
# f_finale.c:114: 	S_ChangeMusic(mus_victor, true);
	.loc 1 114 2
	movl	$1, %esi	#,
	movl	$31, %edi	#,
	call	S_ChangeMusic@PLT	#
# f_finale.c:116: 	switch (gameepisode)
	.loc 1 116 2
	movl	gameepisode(%rip), %eax	# gameepisode, gameepisode.1_2
	cmpl	$4, %eax	#, gameepisode.1_2
	je	.L5	#,
	cmpl	$4, %eax	#, gameepisode.1_2
	jg	.L21	#,
	cmpl	$3, %eax	#, gameepisode.1_2
	je	.L7	#,
	cmpl	$3, %eax	#, gameepisode.1_2
	jg	.L21	#,
	cmpl	$1, %eax	#, gameepisode.1_2
	je	.L8	#,
	cmpl	$2, %eax	#, gameepisode.1_2
	je	.L9	#,
# f_finale.c:136: 	    break;
	.loc 1 136 6
	jmp	.L21	#
.L8:
# f_finale.c:119: 	    finaleflat = "FLOOR4_8";
	.loc 1 119 17
	leaq	.LC22(%rip), %rax	#, tmp96
	movq	%rax, finaleflat(%rip)	# tmp96, finaleflat
# f_finale.c:120: 	    finaletext = e1text;
	.loc 1 120 17
	movq	e1text(%rip), %rax	# e1text, e1text.2_3
	movq	%rax, finaletext(%rip)	# e1text.2_3, finaletext
# f_finale.c:121: 	    break;
	.loc 1 121 6
	jmp	.L10	#
.L9:
# f_finale.c:123: 	    finaleflat = "SFLR6_1";
	.loc 1 123 17
	leaq	.LC23(%rip), %rax	#, tmp97
	movq	%rax, finaleflat(%rip)	# tmp97, finaleflat
# f_finale.c:124: 	    finaletext = e2text;
	.loc 1 124 17
	movq	e2text(%rip), %rax	# e2text, e2text.3_4
	movq	%rax, finaletext(%rip)	# e2text.3_4, finaletext
# f_finale.c:125: 	    break;
	.loc 1 125 6
	jmp	.L10	#
.L7:
# f_finale.c:127: 	    finaleflat = "MFLR8_4";
	.loc 1 127 17
	leaq	.LC24(%rip), %rax	#, tmp98
	movq	%rax, finaleflat(%rip)	# tmp98, finaleflat
# f_finale.c:128: 	    finaletext = e3text;
	.loc 1 128 17
	movq	e3text(%rip), %rax	# e3text, e3text.4_5
	movq	%rax, finaletext(%rip)	# e3text.4_5, finaletext
# f_finale.c:129: 	    break;
	.loc 1 129 6
	jmp	.L10	#
.L5:
# f_finale.c:131: 	    finaleflat = "MFLR8_3";
	.loc 1 131 17
	leaq	.LC25(%rip), %rax	#, tmp99
	movq	%rax, finaleflat(%rip)	# tmp99, finaleflat
# f_finale.c:132: 	    finaletext = e4text;
	.loc 1 132 17
	movq	e4text(%rip), %rax	# e4text, e4text.5_6
	movq	%rax, finaletext(%rip)	# e4text.5_6, finaletext
# f_finale.c:133: 	    break;
	.loc 1 133 6
	jmp	.L10	#
.L21:
# f_finale.c:136: 	    break;
	.loc 1 136 6
	nop	
.L10:
# f_finale.c:138: 	break;
	.loc 1 138 2
	jmp	.L11	#
.L4:
# f_finale.c:144: 	  S_ChangeMusic(mus_read_m, true);
	.loc 1 144 4
	movl	$1, %esi	#,
	movl	$65, %edi	#,
	call	S_ChangeMusic@PLT	#
# f_finale.c:146: 	  switch (gamemap)
	.loc 1 146 4
	movl	gamemap(%rip), %eax	# gamemap, gamemap.6_7
	subl	$6, %eax	#, tmp100
	cmpl	$25, %eax	#, tmp100
	ja	.L22	#,
	movl	%eax, %eax	# tmp100, tmp101
	leaq	0(,%rax,4), %rdx	#, tmp102
	leaq	.L14(%rip), %rax	#, tmp103
	movl	(%rdx,%rax), %eax	#, tmp104
	cltq
	leaq	.L14(%rip), %rdx	#, tmp107
	addq	%rdx, %rax	# tmp107, tmp106
	notrack jmp	*%rax	# tmp106
	.section	.rodata
	.align 4
	.align 4
.L14:
	.long	.L19-.L14
	.long	.L22-.L14
	.long	.L22-.L14
	.long	.L22-.L14
	.long	.L22-.L14
	.long	.L18-.L14
	.long	.L22-.L14
	.long	.L22-.L14
	.long	.L22-.L14
	.long	.L17-.L14
	.long	.L22-.L14
	.long	.L22-.L14
	.long	.L22-.L14
	.long	.L22-.L14
	.long	.L16-.L14
	.long	.L22-.L14
	.long	.L22-.L14
	.long	.L22-.L14
	.long	.L22-.L14
	.long	.L22-.L14
	.long	.L22-.L14
	.long	.L22-.L14
	.long	.L22-.L14
	.long	.L22-.L14
	.long	.L15-.L14
	.long	.L13-.L14
	.text
.L19:
# f_finale.c:149: 	      finaleflat = "SLIME16";
	.loc 1 149 19
	leaq	.LC26(%rip), %rax	#, tmp108
	movq	%rax, finaleflat(%rip)	# tmp108, finaleflat
# f_finale.c:150: 	      finaletext = c1text;
	.loc 1 150 19
	movq	c1text(%rip), %rax	# c1text, c1text.7_8
	movq	%rax, finaletext(%rip)	# c1text.7_8, finaletext
# f_finale.c:151: 	      break;
	.loc 1 151 8
	jmp	.L20	#
.L18:
# f_finale.c:153: 	      finaleflat = "RROCK14";
	.loc 1 153 19
	leaq	.LC27(%rip), %rax	#, tmp109
	movq	%rax, finaleflat(%rip)	# tmp109, finaleflat
# f_finale.c:154: 	      finaletext = c2text;
	.loc 1 154 19
	movq	c2text(%rip), %rax	# c2text, c2text.8_9
	movq	%rax, finaletext(%rip)	# c2text.8_9, finaletext
# f_finale.c:155: 	      break;
	.loc 1 155 8
	jmp	.L20	#
.L16:
# f_finale.c:157: 	      finaleflat = "RROCK07";
	.loc 1 157 19
	leaq	.LC28(%rip), %rax	#, tmp110
	movq	%rax, finaleflat(%rip)	# tmp110, finaleflat
# f_finale.c:158: 	      finaletext = c3text;
	.loc 1 158 19
	movq	c3text(%rip), %rax	# c3text, c3text.9_10
	movq	%rax, finaletext(%rip)	# c3text.9_10, finaletext
# f_finale.c:159: 	      break;
	.loc 1 159 8
	jmp	.L20	#
.L15:
# f_finale.c:161: 	      finaleflat = "RROCK17";
	.loc 1 161 19
	leaq	.LC29(%rip), %rax	#, tmp111
	movq	%rax, finaleflat(%rip)	# tmp111, finaleflat
# f_finale.c:162: 	      finaletext = c4text;
	.loc 1 162 19
	movq	c4text(%rip), %rax	# c4text, c4text.10_11
	movq	%rax, finaletext(%rip)	# c4text.10_11, finaletext
# f_finale.c:163: 	      break;
	.loc 1 163 8
	jmp	.L20	#
.L17:
# f_finale.c:165: 	      finaleflat = "RROCK13";
	.loc 1 165 19
	leaq	.LC30(%rip), %rax	#, tmp112
	movq	%rax, finaleflat(%rip)	# tmp112, finaleflat
# f_finale.c:166: 	      finaletext = c5text;
	.loc 1 166 19
	movq	c5text(%rip), %rax	# c5text, c5text.11_12
	movq	%rax, finaletext(%rip)	# c5text.11_12, finaletext
# f_finale.c:167: 	      break;
	.loc 1 167 8
	jmp	.L20	#
.L13:
# f_finale.c:169: 	      finaleflat = "RROCK19";
	.loc 1 169 19
	leaq	.LC31(%rip), %rax	#, tmp113
	movq	%rax, finaleflat(%rip)	# tmp113, finaleflat
# f_finale.c:170: 	      finaletext = c6text;
	.loc 1 170 19
	movq	c6text(%rip), %rax	# c6text, c6text.12_13
	movq	%rax, finaletext(%rip)	# c6text.12_13, finaletext
# f_finale.c:171: 	      break;
	.loc 1 171 8
	jmp	.L20	#
.L22:
# f_finale.c:174: 	      break;
	.loc 1 174 8
	nop	
.L20:
# f_finale.c:176: 	  break;
	.loc 1 176 4
	jmp	.L11	#
.L3:
# f_finale.c:182: 	S_ChangeMusic(mus_read_m, true);
	.loc 1 182 2
	movl	$1, %esi	#,
	movl	$65, %edi	#,
	call	S_ChangeMusic@PLT	#
# f_finale.c:183: 	finaleflat = "F_SKY1"; // Not used anywhere else.
	.loc 1 183 13
	leaq	.LC32(%rip), %rax	#, tmp114
	movq	%rax, finaleflat(%rip)	# tmp114, finaleflat
# f_finale.c:184: 	finaletext = c1text;  // FIXME - other text, music?
	.loc 1 184 13
	movq	c1text(%rip), %rax	# c1text, c1text.13_14
	movq	%rax, finaletext(%rip)	# c1text.13_14, finaletext
# f_finale.c:185: 	break;
	.loc 1 185 2
	nop	
.L11:
# f_finale.c:188:     finalestage = 0;
	.loc 1 188 17
	movl	$0, finalestage(%rip)	#, finalestage
# f_finale.c:189:     finalecount = 0;
	.loc 1 189 17
	movl	$0, finalecount(%rip)	#, finalecount
# f_finale.c:191: }
	.loc 1 191 1
	nop	
	popq	%rbp	#
	.cfi_def_cfa 7, 8
	ret	
	.cfi_endproc
.LFE0:
	.size	F_StartFinale, .-F_StartFinale
	.globl	F_Responder
	.type	F_Responder, @function
F_Responder:
.LFB1:
	.loc 1 196 1
	.cfi_startproc
	endbr64	
	pushq	%rbp	#
	.cfi_def_cfa_offset 16
	.cfi_offset 6, -16
	movq	%rsp, %rbp	#,
	.cfi_def_cfa_register 6
	subq	$16, %rsp	#,
	movq	%rdi, -8(%rbp)	# event, event
# f_finale.c:197:     if (finalestage == 2)
	.loc 1 197 21
	movl	finalestage(%rip), %eax	# finalestage, finalestage.14_1
# f_finale.c:197:     if (finalestage == 2)
	.loc 1 197 8
	cmpl	$2, %eax	#, finalestage.14_1
	jne	.L24	#,
# f_finale.c:198: 	return F_CastResponder (event);
	.loc 1 198 9
	movq	-8(%rbp), %rax	# event, tmp85
	movq	%rax, %rdi	# tmp85,
	call	F_CastResponder	#
	jmp	.L25	#
.L24:
# f_finale.c:200:     return false;
	.loc 1 200 12
	movl	$0, %eax	#, _2
.L25:
# f_finale.c:201: }
	.loc 1 201 1
	leave	
	.cfi_def_cfa 7, 8
	ret	
	.cfi_endproc
.LFE1:
	.size	F_Responder, .-F_Responder
	.globl	F_Ticker
	.type	F_Ticker, @function
F_Ticker:
.LFB2:
	.loc 1 208 1
	.cfi_startproc
	endbr64	
	pushq	%rbp	#
	.cfi_def_cfa_offset 16
	.cfi_offset 6, -16
	movq	%rsp, %rbp	#,
	.cfi_def_cfa_register 6
	pushq	%rbx	#
	subq	$24, %rsp	#,
	.cfi_offset 3, -24
# f_finale.c:212:     if ( (gamemode == commercial)
	.loc 1 212 20
	movl	gamemode(%rip), %eax	# gamemode, gamemode.15_1
# f_finale.c:212:     if ( (gamemode == commercial)
	.loc 1 212 8
	cmpl	$2, %eax	#, gamemode.15_1
	jne	.L27	#,
# f_finale.c:213:       && ( finalecount > 50) )
	.loc 1 213 24
	movl	finalecount(%rip), %eax	# finalecount, finalecount.16_2
# f_finale.c:213:       && ( finalecount > 50) )
	.loc 1 213 7
	cmpl	$50, %eax	#, finalecount.16_2
	jle	.L27	#,
# f_finale.c:216:       for (i=0 ; i<MAXPLAYERS ; i++)
	.loc 1 216 13
	movl	$0, -20(%rbp)	#, i
# f_finale.c:216:       for (i=0 ; i<MAXPLAYERS ; i++)
	.loc 1 216 7
	jmp	.L28	#
.L31:
# f_finale.c:217: 	if (players[i].cmd.buttons)
	.loc 1 217 20
	movl	-20(%rbp), %eax	# i, tmp99
	movslq	%eax, %rdx	# tmp99, tmp98
	movq	%rdx, %rax	# tmp98, tmp101
	salq	$2, %rax	#, tmp101
	addq	%rdx, %rax	# tmp98, tmp101
	salq	$6, %rax	#, tmp102
	movq	%rax, %rdx	# tmp101, tmp100
	leaq	19+players(%rip), %rax	#, tmp103
	movzbl	(%rdx,%rax), %eax	# players[i_17].cmd.buttons, _3
# f_finale.c:217: 	if (players[i].cmd.buttons)
	.loc 1 217 5
	testb	%al, %al	# _3
	jne	.L36	#,
# f_finale.c:216:       for (i=0 ; i<MAXPLAYERS ; i++)
	.loc 1 216 34 discriminator 2
	addl	$1, -20(%rbp)	#, i
.L28:
# f_finale.c:216:       for (i=0 ; i<MAXPLAYERS ; i++)
	.loc 1 216 19 discriminator 1
	cmpl	$3, -20(%rbp)	#, i
	jle	.L31	#,
	jmp	.L30	#
.L36:
# f_finale.c:218: 	  break;
	.loc 1 218 4
	nop	
.L30:
# f_finale.c:220:       if (i < MAXPLAYERS)
	.loc 1 220 10
	cmpl	$3, -20(%rbp)	#, i
	jg	.L27	#,
# f_finale.c:222: 	if (gamemap == 30)
	.loc 1 222 14
	movl	gamemap(%rip), %eax	# gamemap, gamemap.17_4
# f_finale.c:222: 	if (gamemap == 30)
	.loc 1 222 5
	cmpl	$30, %eax	#, gamemap.17_4
	jne	.L32	#,
# f_finale.c:223: 	  F_StartCast ();
	.loc 1 223 4
	call	F_StartCast	#
	jmp	.L27	#
.L32:
# f_finale.c:225: 	  gameaction = ga_worlddone;
	.loc 1 225 15
	movl	$8, gameaction(%rip)	#, gameaction
.L27:
# f_finale.c:230:     finalecount++;
	.loc 1 230 16
	movl	finalecount(%rip), %eax	# finalecount, finalecount.18_5
	addl	$1, %eax	#, _6
	movl	%eax, finalecount(%rip)	# _6, finalecount
# f_finale.c:232:     if (finalestage == 2)
	.loc 1 232 21
	movl	finalestage(%rip), %eax	# finalestage, finalestage.19_7
# f_finale.c:232:     if (finalestage == 2)
	.loc 1 232 8
	cmpl	$2, %eax	#, finalestage.19_7
	jne	.L33	#,
# f_finale.c:234: 	F_CastTicker ();
	.loc 1 234 2
	call	F_CastTicker	#
# f_finale.c:235: 	return;
	.loc 1 235 2
	jmp	.L26	#
.L33:
# f_finale.c:238:     if ( gamemode == commercial)
	.loc 1 238 19
	movl	gamemode(%rip), %eax	# gamemode, gamemode.20_8
# f_finale.c:238:     if ( gamemode == commercial)
	.loc 1 238 8
	cmpl	$2, %eax	#, gamemode.20_8
	je	.L37	#,
# f_finale.c:241:     if (!finalestage && finalecount>strlen (finaletext)*TEXTSPEED + TEXTWAIT)
	.loc 1 241 9
	movl	finalestage(%rip), %eax	# finalestage, finalestage.21_9
# f_finale.c:241:     if (!finalestage && finalecount>strlen (finaletext)*TEXTSPEED + TEXTWAIT)
	.loc 1 241 8
	testl	%eax, %eax	# finalestage.21_9
	jne	.L26	#,
# f_finale.c:241:     if (!finalestage && finalecount>strlen (finaletext)*TEXTSPEED + TEXTWAIT)
	.loc 1 241 36 discriminator 1
	movl	finalecount(%rip), %eax	# finalecount, finalecount.22_10
	movslq	%eax, %rbx	# finalecount.22_10, _11
# f_finale.c:241:     if (!finalestage && finalecount>strlen (finaletext)*TEXTSPEED + TEXTWAIT)
	.loc 1 241 37 discriminator 1
	movq	finaletext(%rip), %rax	# finaletext, finaletext.23_12
	movq	%rax, %rdi	# finaletext.23_12,
	call	strlen@PLT	#
	movq	%rax, %rdx	#, _13
# f_finale.c:241:     if (!finalestage && finalecount>strlen (finaletext)*TEXTSPEED + TEXTWAIT)
	.loc 1 241 56 discriminator 1
	movq	%rdx, %rax	# _13, tmp104
	addq	%rax, %rax	# tmp104
	addq	%rdx, %rax	# _13, _14
# f_finale.c:241:     if (!finalestage && finalecount>strlen (finaletext)*TEXTSPEED + TEXTWAIT)
	.loc 1 241 67 discriminator 1
	addq	$250, %rax	#, _15
# f_finale.c:241:     if (!finalestage && finalecount>strlen (finaletext)*TEXTSPEED + TEXTWAIT)
	.loc 1 241 22 discriminator 1
	cmpq	%rbx, %rax	# _11, _15
	jnb	.L26	#,
# f_finale.c:243: 	finalecount = 0;
	.loc 1 243 14
	movl	$0, finalecount(%rip)	#, finalecount
# f_finale.c:244: 	finalestage = 1;
	.loc 1 244 14
	movl	$1, finalestage(%rip)	#, finalestage
# f_finale.c:245: 	wipegamestate = -1;		// force a wipe
	.loc 1 245 16
	movl	$-1, wipegamestate(%rip)	#, wipegamestate
# f_finale.c:246: 	if (gameepisode == 3)
	.loc 1 246 18
	movl	gameepisode(%rip), %eax	# gameepisode, gameepisode.24_16
# f_finale.c:246: 	if (gameepisode == 3)
	.loc 1 246 5
	cmpl	$3, %eax	#, gameepisode.24_16
	jne	.L26	#,
# f_finale.c:247: 	    S_StartMusic (mus_bunny);
	.loc 1 247 6
	movl	$30, %edi	#,
	call	S_StartMusic@PLT	#
	jmp	.L26	#
.L37:
# f_finale.c:239: 	return;
	.loc 1 239 2
	nop	
.L26:
# f_finale.c:249: }
	.loc 1 249 1
	movq	-8(%rbp), %rbx	#,
	leave	
	.cfi_def_cfa 7, 8
	ret	
	.cfi_endproc
.LFE2:
	.size	F_Ticker, .-F_Ticker
	.globl	F_TextWrite
	.type	F_TextWrite, @function
F_TextWrite:
.LFB3:
	.loc 1 262 1
	.cfi_startproc
	endbr64	
	pushq	%rbp	#
	.cfi_def_cfa_offset 16
	.cfi_offset 6, -16
	movq	%rsp, %rbp	#,
	.cfi_def_cfa_register 6
	subq	$64, %rsp	#,
# f_finale.c:274:     src = W_CacheLumpName ( finaleflat , PU_CACHE);
	.loc 1 274 11
	movq	finaleflat(%rip), %rax	# finaleflat, finaleflat.25_1
	movl	$101, %esi	#,
	movq	%rax, %rdi	# finaleflat.25_1,
	call	W_CacheLumpName@PLT	#
	movq	%rax, -8(%rbp)	# tmp96, src
# f_finale.c:275:     dest = screens[0];
	.loc 1 275 10
	movq	screens(%rip), %rax	# screens[0], tmp97
	movq	%rax, -24(%rbp)	# tmp97, dest
# f_finale.c:277:     for (y=0 ; y<SCREENHEIGHT ; y++)
	.loc 1 277 11
	movl	$0, -48(%rbp)	#, y
# f_finale.c:277:     for (y=0 ; y<SCREENHEIGHT ; y++)
	.loc 1 277 5
	jmp	.L39	#
.L42:
# f_finale.c:279: 	for (x=0 ; x<SCREENWIDTH/64 ; x++)
	.loc 1 279 8
	movl	$0, -52(%rbp)	#, x
# f_finale.c:279: 	for (x=0 ; x<SCREENWIDTH/64 ; x++)
	.loc 1 279 2
	jmp	.L40	#
.L41:
# f_finale.c:281: 	    memcpy (dest, src+((y&63)<<6), 64);
	.loc 1 281 31
	movl	-48(%rbp), %eax	# y, tmp98
	sall	$6, %eax	#, _2
	cltq
	andl	$4032, %eax	#, _3
	movq	%rax, %rdx	# _3, _4
# f_finale.c:281: 	    memcpy (dest, src+((y&63)<<6), 64);
	.loc 1 281 23
	movq	-8(%rbp), %rax	# src, tmp99
	leaq	(%rdx,%rax), %rcx	#, _5
# f_finale.c:281: 	    memcpy (dest, src+((y&63)<<6), 64);
	.loc 1 281 6
	movq	-24(%rbp), %rax	# dest, tmp100
	movl	$64, %edx	#,
	movq	%rcx, %rsi	# _5,
	movq	%rax, %rdi	# tmp100,
	call	memcpy@PLT	#
# f_finale.c:282: 	    dest += 64;
	.loc 1 282 11
	addq	$64, -24(%rbp)	#, dest
# f_finale.c:279: 	for (x=0 ; x<SCREENWIDTH/64 ; x++)
	.loc 1 279 33 discriminator 3
	addl	$1, -52(%rbp)	#, x
.L40:
# f_finale.c:279: 	for (x=0 ; x<SCREENWIDTH/64 ; x++)
	.loc 1 279 14 discriminator 1
	cmpl	$4, -52(%rbp)	#, x
	jle	.L41	#,
# f_finale.c:277:     for (y=0 ; y<SCREENHEIGHT ; y++)
	.loc 1 277 34 discriminator 2
	addl	$1, -48(%rbp)	#, y
.L39:
# f_finale.c:277:     for (y=0 ; y<SCREENHEIGHT ; y++)
	.loc 1 277 17 discriminator 1
	cmpl	$199, -48(%rbp)	#, y
	jle	.L42	#,
# f_finale.c:291:     V_MarkRect (0, 0, SCREENWIDTH, SCREENHEIGHT);
	.loc 1 291 5
	movl	$200, %ecx	#,
	movl	$320, %edx	#,
	movl	$0, %esi	#,
	movl	$0, %edi	#,
	call	V_MarkRect@PLT	#
# f_finale.c:294:     cx = 10;
	.loc 1 294 8
	movl	$10, -40(%rbp)	#, cx
# f_finale.c:295:     cy = 10;
	.loc 1 295 8
	movl	$10, -36(%rbp)	#, cy
# f_finale.c:296:     ch = finaletext;
	.loc 1 296 8
	movq	finaletext(%rip), %rax	# finaletext, tmp101
	movq	%rax, -16(%rbp)	# tmp101, ch
# f_finale.c:298:     count = (finalecount - 10)/TEXTSPEED;
	.loc 1 298 26
	movl	finalecount(%rip), %eax	# finalecount, finalecount.26_10
	subl	$10, %eax	#, _11
# f_finale.c:298:     count = (finalecount - 10)/TEXTSPEED;
	.loc 1 298 11
	movslq	%eax, %rdx	# _11, tmp102
	imulq	$1431655766, %rdx, %rdx	#, tmp102, tmp103
	movq	%rdx, %rcx	# tmp103, tmp103
	shrq	$32, %rcx	#, tmp103
	cltd
	movl	%ecx, %eax	# tmp104, tmp106
	subl	%edx, %eax	# tmp105, tmp106
	movl	%eax, -44(%rbp)	# tmp106, count
# f_finale.c:299:     if (count < 0)
	.loc 1 299 8
	cmpl	$0, -44(%rbp)	#, count
	jns	.L44	#,
# f_finale.c:300: 	count = 0;
	.loc 1 300 8
	movl	$0, -44(%rbp)	#, count
# f_finale.c:301:     for ( ; count ; count-- )
	.loc 1 301 5
	jmp	.L44	#
.L52:
# f_finale.c:303: 	c = *ch++;
	.loc 1 303 9
	movq	-16(%rbp), %rax	# ch, ch.27_12
	leaq	1(%rax), %rdx	#, tmp107
	movq	%rdx, -16(%rbp)	# tmp107, ch
# f_finale.c:303: 	c = *ch++;
	.loc 1 303 6
	movzbl	(%rax), %eax	# *ch.27_12, _13
# f_finale.c:303: 	c = *ch++;
	.loc 1 303 4
	movsbl	%al, %eax	# _13, tmp108
	movl	%eax, -32(%rbp)	# tmp108, c
# f_finale.c:304: 	if (!c)
	.loc 1 304 5
	cmpl	$0, -32(%rbp)	#, c
	je	.L53	#,
# f_finale.c:306: 	if (c == '\n')
	.loc 1 306 5
	cmpl	$10, -32(%rbp)	#, c
	jne	.L47	#,
# f_finale.c:308: 	    cx = 10;
	.loc 1 308 9
	movl	$10, -40(%rbp)	#, cx
# f_finale.c:309: 	    cy += 11;
	.loc 1 309 9
	addl	$11, -36(%rbp)	#, cy
# f_finale.c:310: 	    continue;
	.loc 1 310 6
	jmp	.L48	#
.L47:
# f_finale.c:313: 	c = toupper(c) - HU_FONTSTART;
	.loc 1 313 6
	movl	-32(%rbp), %eax	# c, tmp109
	movl	%eax, %edi	# tmp109,
	call	toupper@PLT	#
# f_finale.c:313: 	c = toupper(c) - HU_FONTSTART;
	.loc 1 313 4 discriminator 1
	subl	$33, %eax	#, tmp110
	movl	%eax, -32(%rbp)	# tmp110, c
# f_finale.c:314: 	if (c < 0 || c> HU_FONTSIZE)
	.loc 1 314 5
	cmpl	$0, -32(%rbp)	#, c
	js	.L49	#,
# f_finale.c:314: 	if (c < 0 || c> HU_FONTSIZE)
	.loc 1 314 12 discriminator 2
	cmpl	$63, -32(%rbp)	#, c
	jle	.L50	#,
.L49:
# f_finale.c:316: 	    cx += 4;
	.loc 1 316 9
	addl	$4, -40(%rbp)	#, cx
# f_finale.c:317: 	    continue;
	.loc 1 317 6
	jmp	.L48	#
.L50:
# f_finale.c:320: 	w = SHORT (hu_font[c]->width);
	.loc 1 320 6
	movl	-32(%rbp), %eax	# c, tmp112
	cltq
	leaq	0(,%rax,8), %rdx	#, tmp113
	leaq	hu_font(%rip), %rax	#, tmp114
	movq	(%rdx,%rax), %rax	# hu_font[c_43], _15
	movzwl	(%rax), %eax	# _15->width, _16
# f_finale.c:320: 	w = SHORT (hu_font[c]->width);
	.loc 1 320 4
	cwtl
	movl	%eax, -28(%rbp)	# tmp115, w
# f_finale.c:321: 	if (cx+w > SCREENWIDTH)
	.loc 1 321 8
	movl	-40(%rbp), %edx	# cx, tmp116
	movl	-28(%rbp), %eax	# w, tmp117
	addl	%edx, %eax	# tmp116, _17
# f_finale.c:321: 	if (cx+w > SCREENWIDTH)
	.loc 1 321 5
	cmpl	$320, %eax	#, _17
	jg	.L54	#,
# f_finale.c:323: 	V_DrawPatch(cx, cy, 0, hu_font[c]);
	.loc 1 323 2
	movl	-32(%rbp), %eax	# c, tmp119
	cltq
	leaq	0(,%rax,8), %rdx	#, tmp120
	leaq	hu_font(%rip), %rax	#, tmp121
	movq	(%rdx,%rax), %rdx	# hu_font[c_43], _18
	movl	-36(%rbp), %esi	# cy, tmp122
	movl	-40(%rbp), %eax	# cx, tmp123
	movq	%rdx, %rcx	# _18,
	movl	$0, %edx	#,
	movl	%eax, %edi	# tmp123,
	call	V_DrawPatch@PLT	#
# f_finale.c:324: 	cx+=w;
	.loc 1 324 4
	movl	-28(%rbp), %eax	# w, tmp124
	addl	%eax, -40(%rbp)	# tmp124, cx
.L48:
# f_finale.c:301:     for ( ; count ; count-- )
	.loc 1 301 26
	subl	$1, -44(%rbp)	#, count
.L44:
# f_finale.c:301:     for ( ; count ; count-- )
	.loc 1 301 13 discriminator 1
	cmpl	$0, -44(%rbp)	#, count
	jne	.L52	#,
# f_finale.c:327: }
	.loc 1 327 1
	jmp	.L55	#
.L53:
# f_finale.c:305: 	    break;
	.loc 1 305 6
	nop	
	jmp	.L55	#
.L54:
# f_finale.c:322: 	    break;
	.loc 1 322 6
	nop	
.L55:
# f_finale.c:327: }
	.loc 1 327 1
	nop	
	leave	
	.cfi_def_cfa 7, 8
	ret	
	.cfi_endproc
.LFE3:
	.size	F_TextWrite, .-F_TextWrite
	.globl	castorder
	.section	.rodata
.LC33:
	.string	"ZOMBIEMAN"
.LC34:
	.string	"SHOTGUN GUY"
.LC35:
	.string	"HEAVY WEAPON DUDE"
.LC36:
	.string	"IMP"
.LC37:
	.string	"DEMON"
.LC38:
	.string	"LOST SOUL"
.LC39:
	.string	"CACODEMON"
.LC40:
	.string	"HELL KNIGHT"
.LC41:
	.string	"BARON OF HELL"
.LC42:
	.string	"ARACHNOTRON"
.LC43:
	.string	"PAIN ELEMENTAL"
.LC44:
	.string	"REVENANT"
.LC45:
	.string	"MANCUBUS"
.LC46:
	.string	"ARCH-VILE"
.LC47:
	.string	"THE SPIDER MASTERMIND"
.LC48:
	.string	"THE CYBERDEMON"
.LC49:
	.string	"OUR HERO"
	.section	.data.rel.local
	.align 32
	.type	castorder, @object
	.size	castorder, 288
castorder:
# name:
	.quad	.LC33
# type:
	.long	1
	.zero	4
# name:
	.quad	.LC34
# type:
	.long	2
	.zero	4
# name:
	.quad	.LC35
# type:
	.long	10
	.zero	4
# name:
	.quad	.LC36
# type:
	.long	11
	.zero	4
# name:
	.quad	.LC37
# type:
	.long	12
	.zero	4
# name:
	.quad	.LC38
# type:
	.long	18
	.zero	4
# name:
	.quad	.LC39
# type:
	.long	14
	.zero	4
# name:
	.quad	.LC40
# type:
	.long	17
	.zero	4
# name:
	.quad	.LC41
# type:
	.long	15
	.zero	4
# name:
	.quad	.LC42
# type:
	.long	20
	.zero	4
# name:
	.quad	.LC43
# type:
	.long	22
	.zero	4
# name:
	.quad	.LC44
# type:
	.long	5
	.zero	4
# name:
	.quad	.LC45
# type:
	.long	8
	.zero	4
# name:
	.quad	.LC46
# type:
	.long	3
	.zero	4
# name:
	.quad	.LC47
# type:
	.long	19
	.zero	4
# name:
	.quad	.LC48
# type:
	.long	21
	.zero	4
# name:
	.quad	.LC49
# type:
	.long	0
	.zero	4
# name:
	.quad	0
# type:
	.long	0
	.zero	4
	.globl	castnum
	.bss
	.align 4
	.type	castnum, @object
	.size	castnum, 4
castnum:
	.zero	4
	.globl	casttics
	.align 4
	.type	casttics, @object
	.size	casttics, 4
casttics:
	.zero	4
	.globl	caststate
	.align 8
	.type	caststate, @object
	.size	caststate, 8
caststate:
	.zero	8
	.globl	castdeath
	.align 4
	.type	castdeath, @object
	.size	castdeath, 4
castdeath:
	.zero	4
	.globl	castframes
	.align 4
	.type	castframes, @object
	.size	castframes, 4
castframes:
	.zero	4
	.globl	castonmelee
	.align 4
	.type	castonmelee, @object
	.size	castonmelee, 4
castonmelee:
	.zero	4
	.globl	castattacking
	.align 4
	.type	castattacking, @object
	.size	castattacking, 4
castattacking:
	.zero	4
	.text
	.globl	F_StartCast
	.type	F_StartCast, @function
F_StartCast:
.LFB4:
	.loc 1 378 1
	.cfi_startproc
	endbr64	
	pushq	%rbp	#
	.cfi_def_cfa_offset 16
	.cfi_offset 6, -16
	movq	%rsp, %rbp	#,
	.cfi_def_cfa_register 6
# f_finale.c:379:     wipegamestate = -1;		// force a screen wipe
	.loc 1 379 19
	movl	$-1, wipegamestate(%rip)	#, wipegamestate
# f_finale.c:380:     castnum = 0;
	.loc 1 380 13
	movl	$0, castnum(%rip)	#, castnum
# f_finale.c:381:     caststate = &states[mobjinfo[castorder[castnum].type].seestate];
	.loc 1 381 52
	movl	castnum(%rip), %eax	# castnum, castnum.28_1
	cltq
	salq	$4, %rax	#, tmp89
	movq	%rax, %rdx	# tmp89, tmp90
	leaq	8+castorder(%rip), %rax	#, tmp91
	movl	(%rdx,%rax), %eax	# castorder[castnum.28_1].type, _2
# f_finale.c:381:     caststate = &states[mobjinfo[castorder[castnum].type].seestate];
	.loc 1 381 58
	movl	%eax, %eax	# _2, tmp92
	imulq	$92, %rax, %rax	#, tmp92, tmp93
	leaq	12+mobjinfo(%rip), %rdx	#, tmp94
	movl	(%rax,%rdx), %eax	# mobjinfo[_2].seestate, _3
# f_finale.c:381:     caststate = &states[mobjinfo[castorder[castnum].type].seestate];
	.loc 1 381 17
	movslq	%eax, %rdx	# _3, tmp95
	movq	%rdx, %rax	# tmp95, tmp96
	salq	$3, %rax	#, tmp97
	subq	%rdx, %rax	# tmp95, tmp96
	salq	$3, %rax	#, tmp98
	leaq	states(%rip), %rdx	#, tmp99
	addq	%rdx, %rax	# tmp99, _4
# f_finale.c:381:     caststate = &states[mobjinfo[castorder[castnum].type].seestate];
	.loc 1 381 15
	movq	%rax, caststate(%rip)	# _4, caststate
# f_finale.c:382:     casttics = caststate->tics;
	.loc 1 382 25
	movq	caststate(%rip), %rax	# caststate, caststate.29_5
	movq	16(%rax), %rax	# caststate.29_5->tics, _6
# f_finale.c:382:     casttics = caststate->tics;
	.loc 1 382 14
	movl	%eax, casttics(%rip)	# _7, casttics
# f_finale.c:383:     castdeath = false;
	.loc 1 383 15
	movl	$0, castdeath(%rip)	#, castdeath
# f_finale.c:384:     finalestage = 2;	
	.loc 1 384 17
	movl	$2, finalestage(%rip)	#, finalestage
# f_finale.c:385:     castframes = 0;
	.loc 1 385 16
	movl	$0, castframes(%rip)	#, castframes
# f_finale.c:386:     castonmelee = 0;
	.loc 1 386 17
	movl	$0, castonmelee(%rip)	#, castonmelee
# f_finale.c:387:     castattacking = false;
	.loc 1 387 19
	movl	$0, castattacking(%rip)	#, castattacking
# f_finale.c:388:     S_ChangeMusic(mus_evil, true);
	.loc 1 388 5
	movl	$1, %esi	#,
	movl	$63, %edi	#,
	call	S_ChangeMusic@PLT	#
# f_finale.c:389: }
	.loc 1 389 1
	nop	
	popq	%rbp	#
	.cfi_def_cfa 7, 8
	ret	
	.cfi_endproc
.LFE4:
	.size	F_StartCast, .-F_StartCast
	.globl	F_CastTicker
	.type	F_CastTicker, @function
F_CastTicker:
.LFB5:
	.loc 1 396 1
	.cfi_startproc
	endbr64	
	pushq	%rbp	#
	.cfi_def_cfa_offset 16
	.cfi_offset 6, -16
	movq	%rsp, %rbp	#,
	.cfi_def_cfa_register 6
	subq	$16, %rsp	#,
# f_finale.c:400:     if (--casttics > 0)
	.loc 1 400 9
	movl	casttics(%rip), %eax	# casttics, casttics.30_1
	subl	$1, %eax	#, _2
# f_finale.c:400:     if (--casttics > 0)
	.loc 1 400 8
	movl	%eax, casttics(%rip)	# _2, casttics
# f_finale.c:400:     if (--casttics > 0)
	.loc 1 400 9
	movl	casttics(%rip), %eax	# casttics, casttics.31_3
# f_finale.c:400:     if (--casttics > 0)
	.loc 1 400 8
	testl	%eax, %eax	# casttics.31_3
	jg	.L93	#,
# f_finale.c:403:     if (caststate->tics == -1 || caststate->nextstate == S_NULL)
	.loc 1 403 18
	movq	caststate(%rip), %rax	# caststate, caststate.32_4
	movq	16(%rax), %rax	# caststate.32_4->tics, _5
# f_finale.c:403:     if (caststate->tics == -1 || caststate->nextstate == S_NULL)
	.loc 1 403 8
	cmpq	$-1, %rax	#, _5
	je	.L60	#,
# f_finale.c:403:     if (caststate->tics == -1 || caststate->nextstate == S_NULL)
	.loc 1 403 43 discriminator 1
	movq	caststate(%rip), %rax	# caststate, caststate.33_6
	movl	32(%rax), %eax	# caststate.33_6->nextstate, _7
# f_finale.c:403:     if (caststate->tics == -1 || caststate->nextstate == S_NULL)
	.loc 1 403 31 discriminator 1
	testl	%eax, %eax	# _7
	jne	.L61	#,
.L60:
# f_finale.c:406: 	castnum++;
	.loc 1 406 9
	movl	castnum(%rip), %eax	# castnum, castnum.34_8
	addl	$1, %eax	#, _9
	movl	%eax, castnum(%rip)	# _9, castnum
# f_finale.c:407: 	castdeath = false;
	.loc 1 407 12
	movl	$0, castdeath(%rip)	#, castdeath
# f_finale.c:408: 	if (castorder[castnum].name == NULL)
	.loc 1 408 24
	movl	castnum(%rip), %eax	# castnum, castnum.35_10
	cltq
	salq	$4, %rax	#, tmp146
	movq	%rax, %rdx	# tmp146, tmp147
	leaq	castorder(%rip), %rax	#, tmp148
	movq	(%rdx,%rax), %rax	# castorder[castnum.35_10].name, _11
# f_finale.c:408: 	if (castorder[castnum].name == NULL)
	.loc 1 408 5
	testq	%rax, %rax	# _11
	jne	.L62	#,
# f_finale.c:409: 	    castnum = 0;
	.loc 1 409 14
	movl	$0, castnum(%rip)	#, castnum
.L62:
# f_finale.c:410: 	if (mobjinfo[castorder[castnum].type].seesound)
	.loc 1 410 33
	movl	castnum(%rip), %eax	# castnum, castnum.36_12
	cltq
	salq	$4, %rax	#, tmp149
	movq	%rax, %rdx	# tmp149, tmp150
	leaq	8+castorder(%rip), %rax	#, tmp151
	movl	(%rdx,%rax), %eax	# castorder[castnum.36_12].type, _13
# f_finale.c:410: 	if (mobjinfo[castorder[castnum].type].seesound)
	.loc 1 410 39
	movl	%eax, %eax	# _13, tmp152
	imulq	$92, %rax, %rax	#, tmp152, tmp153
	leaq	16+mobjinfo(%rip), %rdx	#, tmp154
	movl	(%rax,%rdx), %eax	# mobjinfo[_13].seesound, _14
# f_finale.c:410: 	if (mobjinfo[castorder[castnum].type].seesound)
	.loc 1 410 5
	testl	%eax, %eax	# _14
	je	.L63	#,
# f_finale.c:411: 	    S_StartSound (NULL, mobjinfo[castorder[castnum].type].seesound);
	.loc 1 411 53
	movl	castnum(%rip), %eax	# castnum, castnum.37_15
	cltq
	salq	$4, %rax	#, tmp155
	movq	%rax, %rdx	# tmp155, tmp156
	leaq	8+castorder(%rip), %rax	#, tmp157
	movl	(%rdx,%rax), %eax	# castorder[castnum.37_15].type, _16
# f_finale.c:411: 	    S_StartSound (NULL, mobjinfo[castorder[castnum].type].seesound);
	.loc 1 411 6
	movl	%eax, %eax	# _16, tmp158
	imulq	$92, %rax, %rax	#, tmp158, tmp159
	leaq	16+mobjinfo(%rip), %rdx	#, tmp160
	movl	(%rax,%rdx), %eax	# mobjinfo[_16].seesound, _17
	movl	%eax, %esi	# _17,
	movl	$0, %edi	#,
	call	S_StartSound@PLT	#
.L63:
# f_finale.c:412: 	caststate = &states[mobjinfo[castorder[castnum].type].seestate];
	.loc 1 412 49
	movl	castnum(%rip), %eax	# castnum, castnum.38_18
	cltq
	salq	$4, %rax	#, tmp161
	movq	%rax, %rdx	# tmp161, tmp162
	leaq	8+castorder(%rip), %rax	#, tmp163
	movl	(%rdx,%rax), %eax	# castorder[castnum.38_18].type, _19
# f_finale.c:412: 	caststate = &states[mobjinfo[castorder[castnum].type].seestate];
	.loc 1 412 55
	movl	%eax, %eax	# _19, tmp164
	imulq	$92, %rax, %rax	#, tmp164, tmp165
	leaq	12+mobjinfo(%rip), %rdx	#, tmp166
	movl	(%rax,%rdx), %eax	# mobjinfo[_19].seestate, _20
# f_finale.c:412: 	caststate = &states[mobjinfo[castorder[castnum].type].seestate];
	.loc 1 412 14
	movslq	%eax, %rdx	# _20, tmp167
	movq	%rdx, %rax	# tmp167, tmp168
	salq	$3, %rax	#, tmp169
	subq	%rdx, %rax	# tmp167, tmp168
	salq	$3, %rax	#, tmp170
	leaq	states(%rip), %rdx	#, tmp171
	addq	%rdx, %rax	# tmp171, _21
# f_finale.c:412: 	caststate = &states[mobjinfo[castorder[castnum].type].seestate];
	.loc 1 412 12
	movq	%rax, caststate(%rip)	# _21, caststate
# f_finale.c:413: 	castframes = 0;
	.loc 1 413 13
	movl	$0, castframes(%rip)	#, castframes
	jmp	.L64	#
.L61:
# f_finale.c:418: 	if (caststate == &states[S_PLAY_ATK1])
	.loc 1 418 16
	movq	caststate(%rip), %rdx	# caststate, caststate.39_22
# f_finale.c:418: 	if (caststate == &states[S_PLAY_ATK1])
	.loc 1 418 5
	leaq	8624+states(%rip), %rax	#, tmp172
	cmpq	%rax, %rdx	# tmp172, caststate.39_22
	je	.L94	#,
# f_finale.c:420: 	st = caststate->nextstate;
	.loc 1 420 16
	movq	caststate(%rip), %rax	# caststate, caststate.40_23
	movl	32(%rax), %eax	# caststate.40_23->nextstate, _24
# f_finale.c:420: 	st = caststate->nextstate;
	.loc 1 420 5
	movl	%eax, -4(%rbp)	# _24, st
# f_finale.c:421: 	caststate = &states[st];
	.loc 1 421 14
	movl	-4(%rbp), %eax	# st, tmp174
	movslq	%eax, %rdx	# tmp174, tmp173
	movq	%rdx, %rax	# tmp173, tmp175
	salq	$3, %rax	#, tmp176
	subq	%rdx, %rax	# tmp173, tmp175
	salq	$3, %rax	#, tmp177
	leaq	states(%rip), %rdx	#, tmp178
	addq	%rdx, %rax	# tmp178, _25
# f_finale.c:421: 	caststate = &states[st];
	.loc 1 421 12
	movq	%rax, caststate(%rip)	# _25, caststate
# f_finale.c:422: 	castframes++;
	.loc 1 422 12
	movl	castframes(%rip), %eax	# castframes, castframes.41_26
	addl	$1, %eax	#, _27
	movl	%eax, castframes(%rip)	# _27, castframes
# f_finale.c:425: 	switch (st)
	.loc 1 425 2
	cmpl	$710, -4(%rbp)	#, st
	je	.L67	#,
	cmpl	$710, -4(%rbp)	#, st
	jg	.L68	#,
	cmpl	$689, -4(%rbp)	#, st
	je	.L69	#,
	cmpl	$689, -4(%rbp)	#, st
	jg	.L68	#,
	cmpl	$687, -4(%rbp)	#, st
	je	.L69	#,
	cmpl	$687, -4(%rbp)	#, st
	jg	.L68	#,
	cmpl	$685, -4(%rbp)	#, st
	je	.L69	#,
	cmpl	$685, -4(%rbp)	#, st
	jg	.L68	#,
	cmpl	$648, -4(%rbp)	#, st
	je	.L70	#,
	cmpl	$648, -4(%rbp)	#, st
	jg	.L68	#,
	cmpl	$617, -4(%rbp)	#, st
	jg	.L68	#,
	cmpl	$616, -4(%rbp)	#, st
	jge	.L71	#,
	cmpl	$590, -4(%rbp)	#, st
	je	.L72	#,
	cmpl	$590, -4(%rbp)	#, st
	jg	.L68	#,
	cmpl	$567, -4(%rbp)	#, st
	je	.L73	#,
	cmpl	$567, -4(%rbp)	#, st
	jg	.L68	#,
	cmpl	$538, -4(%rbp)	#, st
	je	.L73	#,
	cmpl	$538, -4(%rbp)	#, st
	jg	.L68	#,
	cmpl	$505, -4(%rbp)	#, st
	je	.L73	#,
	cmpl	$505, -4(%rbp)	#, st
	jg	.L68	#,
	cmpl	$486, -4(%rbp)	#, st
	je	.L74	#,
	cmpl	$486, -4(%rbp)	#, st
	jg	.L68	#,
	cmpl	$454, -4(%rbp)	#, st
	je	.L75	#,
	cmpl	$454, -4(%rbp)	#, st
	jg	.L68	#,
	cmpl	$419, -4(%rbp)	#, st
	jg	.L68	#,
	cmpl	$417, -4(%rbp)	#, st
	jge	.L76	#,
	cmpl	$383, -4(%rbp)	#, st
	jg	.L68	#,
	cmpl	$336, -4(%rbp)	#, st
	jge	.L77	#,
	cmpl	$256, -4(%rbp)	#, st
	je	.L78	#,
	cmpl	$256, -4(%rbp)	#, st
	jg	.L68	#,
	cmpl	$218, -4(%rbp)	#, st
	je	.L79	#,
	cmpl	$218, -4(%rbp)	#, st
	jg	.L68	#,
	cmpl	$154, -4(%rbp)	#, st
	je	.L80	#,
	cmpl	$185, -4(%rbp)	#, st
	je	.L81	#,
	jmp	.L68	#
.L77:
	movl	-4(%rbp), %eax	# st, tmp180
	subl	$336, %eax	#, tmp179
	cmpl	$47, %eax	#, tmp179
	ja	.L68	#,
	movl	%eax, %eax	# tmp179, tmp181
	leaq	0(,%rax,4), %rdx	#, tmp182
	leaq	.L83(%rip), %rax	#, tmp183
	movl	(%rdx,%rax), %eax	#, tmp184
	cltq
	leaq	.L83(%rip), %rdx	#, tmp187
	addq	%rdx, %rax	# tmp187, tmp186
	notrack jmp	*%rax	# tmp186
	.section	.rodata
	.align 4
	.align 4
.L83:
	.long	.L86-.L83
	.long	.L68-.L83
	.long	.L85-.L83
	.long	.L68-.L83
	.long	.L84-.L83
	.long	.L68-.L83
	.long	.L68-.L83
	.long	.L68-.L83
	.long	.L68-.L83
	.long	.L68-.L83
	.long	.L68-.L83
	.long	.L68-.L83
	.long	.L68-.L83
	.long	.L68-.L83
	.long	.L68-.L83
	.long	.L68-.L83
	.long	.L68-.L83
	.long	.L68-.L83
	.long	.L68-.L83
	.long	.L68-.L83
	.long	.L68-.L83
	.long	.L68-.L83
	.long	.L68-.L83
	.long	.L68-.L83
	.long	.L68-.L83
	.long	.L68-.L83
	.long	.L68-.L83
	.long	.L68-.L83
	.long	.L68-.L83
	.long	.L68-.L83
	.long	.L68-.L83
	.long	.L68-.L83
	.long	.L68-.L83
	.long	.L68-.L83
	.long	.L68-.L83
	.long	.L68-.L83
	.long	.L68-.L83
	.long	.L68-.L83
	.long	.L68-.L83
	.long	.L68-.L83
	.long	.L68-.L83
	.long	.L82-.L83
	.long	.L68-.L83
	.long	.L68-.L83
	.long	.L82-.L83
	.long	.L68-.L83
	.long	.L68-.L83
	.long	.L82-.L83
	.text
.L80:
# f_finale.c:427: 	  case S_PLAY_ATK1:	sfx = sfx_dshtgn; break;
	.loc 1 427 26
	movl	$4, -8(%rbp)	#, sfx
# f_finale.c:427: 	  case S_PLAY_ATK1:	sfx = sfx_dshtgn; break;
	.loc 1 427 40
	jmp	.L87	#
.L81:
# f_finale.c:428: 	  case S_POSS_ATK2:	sfx = sfx_pistol; break;
	.loc 1 428 26
	movl	$1, -8(%rbp)	#, sfx
# f_finale.c:428: 	  case S_POSS_ATK2:	sfx = sfx_pistol; break;
	.loc 1 428 40
	jmp	.L87	#
.L79:
# f_finale.c:429: 	  case S_SPOS_ATK2:	sfx = sfx_shotgn; break;
	.loc 1 429 26
	movl	$2, -8(%rbp)	#, sfx
# f_finale.c:429: 	  case S_SPOS_ATK2:	sfx = sfx_shotgn; break;
	.loc 1 429 40
	jmp	.L87	#
.L78:
# f_finale.c:430: 	  case S_VILE_ATK2:	sfx = sfx_vilatk; break;
	.loc 1 430 26
	movl	$54, -8(%rbp)	#, sfx
# f_finale.c:430: 	  case S_VILE_ATK2:	sfx = sfx_vilatk; break;
	.loc 1 430 40
	jmp	.L87	#
.L86:
# f_finale.c:431: 	  case S_SKEL_FIST2:	sfx = sfx_skeswg; break;
	.loc 1 431 27
	movl	$56, -8(%rbp)	#, sfx
# f_finale.c:431: 	  case S_SKEL_FIST2:	sfx = sfx_skeswg; break;
	.loc 1 431 41
	jmp	.L87	#
.L85:
# f_finale.c:432: 	  case S_SKEL_FIST4:	sfx = sfx_skepch; break;
	.loc 1 432 27
	movl	$53, -8(%rbp)	#, sfx
# f_finale.c:432: 	  case S_SKEL_FIST4:	sfx = sfx_skepch; break;
	.loc 1 432 41
	jmp	.L87	#
.L84:
# f_finale.c:433: 	  case S_SKEL_MISS2:	sfx = sfx_skeatk; break;
	.loc 1 433 27
	movl	$107, -8(%rbp)	#, sfx
# f_finale.c:433: 	  case S_SKEL_MISS2:	sfx = sfx_skeatk; break;
	.loc 1 433 41
	jmp	.L87	#
.L82:
# f_finale.c:436: 	  case S_FATT_ATK2:	sfx = sfx_firsht; break;
	.loc 1 436 26
	movl	$16, -8(%rbp)	#, sfx
# f_finale.c:436: 	  case S_FATT_ATK2:	sfx = sfx_firsht; break;
	.loc 1 436 40
	jmp	.L87	#
.L76:
# f_finale.c:439: 	  case S_CPOS_ATK4:	sfx = sfx_shotgn; break;
	.loc 1 439 26
	movl	$2, -8(%rbp)	#, sfx
# f_finale.c:439: 	  case S_CPOS_ATK4:	sfx = sfx_shotgn; break;
	.loc 1 439 40
	jmp	.L87	#
.L75:
# f_finale.c:440: 	  case S_TROO_ATK3:	sfx = sfx_claw; break;
	.loc 1 440 26
	movl	$55, -8(%rbp)	#, sfx
# f_finale.c:440: 	  case S_TROO_ATK3:	sfx = sfx_claw; break;
	.loc 1 440 38
	jmp	.L87	#
.L74:
# f_finale.c:441: 	  case S_SARG_ATK2:	sfx = sfx_sgtatk; break;
	.loc 1 441 26
	movl	$52, -8(%rbp)	#, sfx
# f_finale.c:441: 	  case S_SARG_ATK2:	sfx = sfx_sgtatk; break;
	.loc 1 441 40
	jmp	.L87	#
.L73:
# f_finale.c:444: 	  case S_HEAD_ATK2:	sfx = sfx_firsht; break;
	.loc 1 444 26
	movl	$16, -8(%rbp)	#, sfx
# f_finale.c:444: 	  case S_HEAD_ATK2:	sfx = sfx_firsht; break;
	.loc 1 444 40
	jmp	.L87	#
.L72:
# f_finale.c:445: 	  case S_SKULL_ATK2:	sfx = sfx_sklatk; break;
	.loc 1 445 27
	movl	$51, -8(%rbp)	#, sfx
# f_finale.c:445: 	  case S_SKULL_ATK2:	sfx = sfx_sklatk; break;
	.loc 1 445 41
	jmp	.L87	#
.L71:
# f_finale.c:447: 	  case S_SPID_ATK3:	sfx = sfx_shotgn; break;
	.loc 1 447 26
	movl	$2, -8(%rbp)	#, sfx
# f_finale.c:447: 	  case S_SPID_ATK3:	sfx = sfx_shotgn; break;
	.loc 1 447 40
	jmp	.L87	#
.L70:
# f_finale.c:448: 	  case S_BSPI_ATK2:	sfx = sfx_plasma; break;
	.loc 1 448 26
	movl	$8, -8(%rbp)	#, sfx
# f_finale.c:448: 	  case S_BSPI_ATK2:	sfx = sfx_plasma; break;
	.loc 1 448 40
	jmp	.L87	#
.L69:
# f_finale.c:451: 	  case S_CYBER_ATK6:	sfx = sfx_rlaunc; break;
	.loc 1 451 27
	movl	$14, -8(%rbp)	#, sfx
# f_finale.c:451: 	  case S_CYBER_ATK6:	sfx = sfx_rlaunc; break;
	.loc 1 451 41
	jmp	.L87	#
.L67:
# f_finale.c:452: 	  case S_PAIN_ATK3:	sfx = sfx_sklatk; break;
	.loc 1 452 26
	movl	$51, -8(%rbp)	#, sfx
# f_finale.c:452: 	  case S_PAIN_ATK3:	sfx = sfx_sklatk; break;
	.loc 1 452 40
	jmp	.L87	#
.L68:
# f_finale.c:453: 	  default: sfx = 0; break;
	.loc 1 453 17
	movl	$0, -8(%rbp)	#, sfx
# f_finale.c:453: 	  default: sfx = 0; break;
	.loc 1 453 22
	nop	
.L87:
# f_finale.c:456: 	if (sfx)
	.loc 1 456 5
	cmpl	$0, -8(%rbp)	#, sfx
	je	.L64	#,
# f_finale.c:457: 	    S_StartSound (NULL, sfx);
	.loc 1 457 6
	movl	-8(%rbp), %eax	# sfx, tmp188
	movl	%eax, %esi	# tmp188,
	movl	$0, %edi	#,
	call	S_StartSound@PLT	#
.L64:
# f_finale.c:460:     if (castframes == 12)
	.loc 1 460 20
	movl	castframes(%rip), %eax	# castframes, castframes.42_28
# f_finale.c:460:     if (castframes == 12)
	.loc 1 460 8
	cmpl	$12, %eax	#, castframes.42_28
	jne	.L88	#,
# f_finale.c:463: 	castattacking = true;
	.loc 1 463 16
	movl	$1, castattacking(%rip)	#, castattacking
# f_finale.c:464: 	if (castonmelee)
	.loc 1 464 6
	movl	castonmelee(%rip), %eax	# castonmelee, castonmelee.43_29
# f_finale.c:464: 	if (castonmelee)
	.loc 1 464 5
	testl	%eax, %eax	# castonmelee.43_29
	je	.L89	#,
# f_finale.c:465: 	    caststate=&states[mobjinfo[castorder[castnum].type].meleestate];
	.loc 1 465 51
	movl	castnum(%rip), %eax	# castnum, castnum.44_30
	cltq
	salq	$4, %rax	#, tmp189
	movq	%rax, %rdx	# tmp189, tmp190
	leaq	8+castorder(%rip), %rax	#, tmp191
	movl	(%rdx,%rax), %eax	# castorder[castnum.44_30].type, _31
# f_finale.c:465: 	    caststate=&states[mobjinfo[castorder[castnum].type].meleestate];
	.loc 1 465 57
	movl	%eax, %eax	# _31, tmp192
	imulq	$92, %rax, %rax	#, tmp192, tmp193
	leaq	40+mobjinfo(%rip), %rdx	#, tmp194
	movl	(%rax,%rdx), %eax	# mobjinfo[_31].meleestate, _32
# f_finale.c:465: 	    caststate=&states[mobjinfo[castorder[castnum].type].meleestate];
	.loc 1 465 16
	movslq	%eax, %rdx	# _32, tmp195
	movq	%rdx, %rax	# tmp195, tmp196
	salq	$3, %rax	#, tmp197
	subq	%rdx, %rax	# tmp195, tmp196
	salq	$3, %rax	#, tmp198
	leaq	states(%rip), %rdx	#, tmp199
	addq	%rdx, %rax	# tmp199, _33
# f_finale.c:465: 	    caststate=&states[mobjinfo[castorder[castnum].type].meleestate];
	.loc 1 465 15
	movq	%rax, caststate(%rip)	# _33, caststate
	jmp	.L90	#
.L89:
# f_finale.c:467: 	    caststate=&states[mobjinfo[castorder[castnum].type].missilestate];
	.loc 1 467 51
	movl	castnum(%rip), %eax	# castnum, castnum.45_34
	cltq
	salq	$4, %rax	#, tmp200
	movq	%rax, %rdx	# tmp200, tmp201
	leaq	8+castorder(%rip), %rax	#, tmp202
	movl	(%rdx,%rax), %eax	# castorder[castnum.45_34].type, _35
# f_finale.c:467: 	    caststate=&states[mobjinfo[castorder[castnum].type].missilestate];
	.loc 1 467 57
	movl	%eax, %eax	# _35, tmp203
	imulq	$92, %rax, %rax	#, tmp203, tmp204
	leaq	44+mobjinfo(%rip), %rdx	#, tmp205
	movl	(%rax,%rdx), %eax	# mobjinfo[_35].missilestate, _36
# f_finale.c:467: 	    caststate=&states[mobjinfo[castorder[castnum].type].missilestate];
	.loc 1 467 16
	movslq	%eax, %rdx	# _36, tmp206
	movq	%rdx, %rax	# tmp206, tmp207
	salq	$3, %rax	#, tmp208
	subq	%rdx, %rax	# tmp206, tmp207
	salq	$3, %rax	#, tmp209
	leaq	states(%rip), %rdx	#, tmp210
	addq	%rdx, %rax	# tmp210, _37
# f_finale.c:467: 	    caststate=&states[mobjinfo[castorder[castnum].type].missilestate];
	.loc 1 467 15
	movq	%rax, caststate(%rip)	# _37, caststate
.L90:
# f_finale.c:468: 	castonmelee ^= 1;
	.loc 1 468 14
	movl	castonmelee(%rip), %eax	# castonmelee, castonmelee.46_38
	xorl	$1, %eax	#, _39
	movl	%eax, castonmelee(%rip)	# _39, castonmelee
# f_finale.c:469: 	if (caststate == &states[S_NULL])
	.loc 1 469 16
	movq	caststate(%rip), %rdx	# caststate, caststate.47_40
# f_finale.c:469: 	if (caststate == &states[S_NULL])
	.loc 1 469 5
	leaq	states(%rip), %rax	#, tmp211
	cmpq	%rax, %rdx	# tmp211, caststate.47_40
	jne	.L88	#,
# f_finale.c:471: 	    if (castonmelee)
	.loc 1 471 10
	movl	castonmelee(%rip), %eax	# castonmelee, castonmelee.48_41
# f_finale.c:471: 	    if (castonmelee)
	.loc 1 471 9
	testl	%eax, %eax	# castonmelee.48_41
	je	.L91	#,
# f_finale.c:473: 		    &states[mobjinfo[castorder[castnum].type].meleestate];
	.loc 1 473 42
	movl	castnum(%rip), %eax	# castnum, castnum.49_42
	cltq
	salq	$4, %rax	#, tmp212
	movq	%rax, %rdx	# tmp212, tmp213
	leaq	8+castorder(%rip), %rax	#, tmp214
	movl	(%rdx,%rax), %eax	# castorder[castnum.49_42].type, _43
# f_finale.c:473: 		    &states[mobjinfo[castorder[castnum].type].meleestate];
	.loc 1 473 48
	movl	%eax, %eax	# _43, tmp215
	imulq	$92, %rax, %rax	#, tmp215, tmp216
	leaq	40+mobjinfo(%rip), %rdx	#, tmp217
	movl	(%rax,%rdx), %eax	# mobjinfo[_43].meleestate, _44
# f_finale.c:473: 		    &states[mobjinfo[castorder[castnum].type].meleestate];
	.loc 1 473 7
	movslq	%eax, %rdx	# _44, tmp218
	movq	%rdx, %rax	# tmp218, tmp219
	salq	$3, %rax	#, tmp220
	subq	%rdx, %rax	# tmp218, tmp219
	salq	$3, %rax	#, tmp221
	leaq	states(%rip), %rdx	#, tmp222
	addq	%rdx, %rax	# tmp222, _45
# f_finale.c:472: 		caststate=
	.loc 1 472 12
	movq	%rax, caststate(%rip)	# _45, caststate
	jmp	.L88	#
.L91:
# f_finale.c:476: 		    &states[mobjinfo[castorder[castnum].type].missilestate];
	.loc 1 476 42
	movl	castnum(%rip), %eax	# castnum, castnum.50_46
	cltq
	salq	$4, %rax	#, tmp223
	movq	%rax, %rdx	# tmp223, tmp224
	leaq	8+castorder(%rip), %rax	#, tmp225
	movl	(%rdx,%rax), %eax	# castorder[castnum.50_46].type, _47
# f_finale.c:476: 		    &states[mobjinfo[castorder[castnum].type].missilestate];
	.loc 1 476 48
	movl	%eax, %eax	# _47, tmp226
	imulq	$92, %rax, %rax	#, tmp226, tmp227
	leaq	44+mobjinfo(%rip), %rdx	#, tmp228
	movl	(%rax,%rdx), %eax	# mobjinfo[_47].missilestate, _48
# f_finale.c:476: 		    &states[mobjinfo[castorder[castnum].type].missilestate];
	.loc 1 476 7
	movslq	%eax, %rdx	# _48, tmp229
	movq	%rdx, %rax	# tmp229, tmp230
	salq	$3, %rax	#, tmp231
	subq	%rdx, %rax	# tmp229, tmp230
	salq	$3, %rax	#, tmp232
	leaq	states(%rip), %rdx	#, tmp233
	addq	%rdx, %rax	# tmp233, _49
# f_finale.c:475: 		caststate=
	.loc 1 475 12
	movq	%rax, caststate(%rip)	# _49, caststate
.L88:
# f_finale.c:480:     if (castattacking)
	.loc 1 480 9
	movl	castattacking(%rip), %eax	# castattacking, castattacking.51_50
# f_finale.c:480:     if (castattacking)
	.loc 1 480 8
	testl	%eax, %eax	# castattacking.51_50
	je	.L92	#,
# f_finale.c:482: 	if (castframes == 24
	.loc 1 482 17
	movl	castframes(%rip), %eax	# castframes, castframes.52_51
# f_finale.c:482: 	if (castframes == 24
	.loc 1 482 5
	cmpl	$24, %eax	#, castframes.52_51
	je	.L95	#,
# f_finale.c:483: 	    ||	caststate == &states[mobjinfo[castorder[castnum].type].seestate] )
	.loc 1 483 57
	movl	castnum(%rip), %eax	# castnum, castnum.53_52
	cltq
	salq	$4, %rax	#, tmp234
	movq	%rax, %rdx	# tmp234, tmp235
	leaq	8+castorder(%rip), %rax	#, tmp236
	movl	(%rdx,%rax), %eax	# castorder[castnum.53_52].type, _53
# f_finale.c:483: 	    ||	caststate == &states[mobjinfo[castorder[castnum].type].seestate] )
	.loc 1 483 63
	movl	%eax, %eax	# _53, tmp237
	imulq	$92, %rax, %rax	#, tmp237, tmp238
	leaq	12+mobjinfo(%rip), %rdx	#, tmp239
	movl	(%rax,%rdx), %eax	# mobjinfo[_53].seestate, _54
# f_finale.c:483: 	    ||	caststate == &states[mobjinfo[castorder[castnum].type].seestate] )
	.loc 1 483 22
	movslq	%eax, %rdx	# _54, tmp240
	movq	%rdx, %rax	# tmp240, tmp241
	salq	$3, %rax	#, tmp242
	subq	%rdx, %rax	# tmp240, tmp241
	salq	$3, %rax	#, tmp243
	leaq	states(%rip), %rdx	#, tmp244
	addq	%rax, %rdx	# tmp241, _55
# f_finale.c:483: 	    ||	caststate == &states[mobjinfo[castorder[castnum].type].seestate] )
	.loc 1 483 19
	movq	caststate(%rip), %rax	# caststate, caststate.54_56
# f_finale.c:483: 	    ||	caststate == &states[mobjinfo[castorder[castnum].type].seestate] )
	.loc 1 483 6
	cmpq	%rax, %rdx	# caststate.54_56, _55
	jne	.L92	#,
# f_finale.c:485: 	  stopattack:
	.loc 1 485 4
	jmp	.L95	#
.L94:
# f_finale.c:419: 	    goto stopattack;	// Oh, gross hack!
	.loc 1 419 6
	nop	
	jmp	.L66	#
.L95:
# f_finale.c:485: 	  stopattack:
	.loc 1 485 4
	nop	
.L66:
# f_finale.c:486: 	    castattacking = false;
	.loc 1 486 20
	movl	$0, castattacking(%rip)	#, castattacking
# f_finale.c:487: 	    castframes = 0;
	.loc 1 487 17
	movl	$0, castframes(%rip)	#, castframes
# f_finale.c:488: 	    caststate = &states[mobjinfo[castorder[castnum].type].seestate];
	.loc 1 488 53
	movl	castnum(%rip), %eax	# castnum, castnum.55_57
	cltq
	salq	$4, %rax	#, tmp245
	movq	%rax, %rdx	# tmp245, tmp246
	leaq	8+castorder(%rip), %rax	#, tmp247
	movl	(%rdx,%rax), %eax	# castorder[castnum.55_57].type, _58
# f_finale.c:488: 	    caststate = &states[mobjinfo[castorder[castnum].type].seestate];
	.loc 1 488 59
	movl	%eax, %eax	# _58, tmp248
	imulq	$92, %rax, %rax	#, tmp248, tmp249
	leaq	12+mobjinfo(%rip), %rdx	#, tmp250
	movl	(%rax,%rdx), %eax	# mobjinfo[_58].seestate, _59
# f_finale.c:488: 	    caststate = &states[mobjinfo[castorder[castnum].type].seestate];
	.loc 1 488 18
	movslq	%eax, %rdx	# _59, tmp251
	movq	%rdx, %rax	# tmp251, tmp252
	salq	$3, %rax	#, tmp253
	subq	%rdx, %rax	# tmp251, tmp252
	salq	$3, %rax	#, tmp254
	leaq	states(%rip), %rdx	#, tmp255
	addq	%rdx, %rax	# tmp255, _60
# f_finale.c:488: 	    caststate = &states[mobjinfo[castorder[castnum].type].seestate];
	.loc 1 488 16
	movq	%rax, caststate(%rip)	# _60, caststate
.L92:
# f_finale.c:492:     casttics = caststate->tics;
	.loc 1 492 25
	movq	caststate(%rip), %rax	# caststate, caststate.56_61
	movq	16(%rax), %rax	# caststate.56_61->tics, _62
# f_finale.c:492:     casttics = caststate->tics;
	.loc 1 492 14
	movl	%eax, casttics(%rip)	# _63, casttics
# f_finale.c:493:     if (casttics == -1)
	.loc 1 493 18
	movl	casttics(%rip), %eax	# casttics, casttics.57_64
# f_finale.c:493:     if (casttics == -1)
	.loc 1 493 8
	cmpl	$-1, %eax	#, casttics.57_64
	jne	.L57	#,
# f_finale.c:494: 	casttics = 15;
	.loc 1 494 11
	movl	$15, casttics(%rip)	#, casttics
	jmp	.L57	#
.L93:
# f_finale.c:401: 	return;			// not time to change state yet
	.loc 1 401 2
	nop	
.L57:
# f_finale.c:495: }
	.loc 1 495 1
	leave	
	.cfi_def_cfa 7, 8
	ret	
	.cfi_endproc
.LFE5:
	.size	F_CastTicker, .-F_CastTicker
	.globl	F_CastResponder
	.type	F_CastResponder, @function
F_CastResponder:
.LFB6:
	.loc 1 503 1
	.cfi_startproc
	endbr64	
	pushq	%rbp	#
	.cfi_def_cfa_offset 16
	.cfi_offset 6, -16
	movq	%rsp, %rbp	#,
	.cfi_def_cfa_register 6
	subq	$16, %rsp	#,
	movq	%rdi, -8(%rbp)	# ev, ev
# f_finale.c:504:     if (ev->type != ev_keydown)
	.loc 1 504 11
	movq	-8(%rbp), %rax	# ev, tmp99
	movl	(%rax), %eax	# ev_20(D)->type, _1
# f_finale.c:504:     if (ev->type != ev_keydown)
	.loc 1 504 8
	testl	%eax, %eax	# _1
	je	.L97	#,
# f_finale.c:505: 	return false;
	.loc 1 505 9
	movl	$0, %eax	#, _16
	jmp	.L98	#
.L97:
# f_finale.c:507:     if (castdeath)
	.loc 1 507 9
	movl	castdeath(%rip), %eax	# castdeath, castdeath.58_2
# f_finale.c:507:     if (castdeath)
	.loc 1 507 8
	testl	%eax, %eax	# castdeath.58_2
	je	.L99	#,
# f_finale.c:508: 	return true;			// already in dying frames
	.loc 1 508 9
	movl	$1, %eax	#, _16
	jmp	.L98	#
.L99:
# f_finale.c:511:     castdeath = true;
	.loc 1 511 15
	movl	$1, castdeath(%rip)	#, castdeath
# f_finale.c:512:     caststate = &states[mobjinfo[castorder[castnum].type].deathstate];
	.loc 1 512 52
	movl	castnum(%rip), %eax	# castnum, castnum.59_3
	cltq
	salq	$4, %rax	#, tmp100
	movq	%rax, %rdx	# tmp100, tmp101
	leaq	8+castorder(%rip), %rax	#, tmp102
	movl	(%rdx,%rax), %eax	# castorder[castnum.59_3].type, _4
# f_finale.c:512:     caststate = &states[mobjinfo[castorder[castnum].type].deathstate];
	.loc 1 512 58
	movl	%eax, %eax	# _4, tmp103
	imulq	$92, %rax, %rax	#, tmp103, tmp104
	leaq	48+mobjinfo(%rip), %rdx	#, tmp105
	movl	(%rax,%rdx), %eax	# mobjinfo[_4].deathstate, _5
# f_finale.c:512:     caststate = &states[mobjinfo[castorder[castnum].type].deathstate];
	.loc 1 512 17
	movslq	%eax, %rdx	# _5, tmp106
	movq	%rdx, %rax	# tmp106, tmp107
	salq	$3, %rax	#, tmp108
	subq	%rdx, %rax	# tmp106, tmp107
	salq	$3, %rax	#, tmp109
	leaq	states(%rip), %rdx	#, tmp110
	addq	%rdx, %rax	# tmp110, _6
# f_finale.c:512:     caststate = &states[mobjinfo[castorder[castnum].type].deathstate];
	.loc 1 512 15
	movq	%rax, caststate(%rip)	# _6, caststate
# f_finale.c:513:     casttics = caststate->tics;
	.loc 1 513 25
	movq	caststate(%rip), %rax	# caststate, caststate.60_7
	movq	16(%rax), %rax	# caststate.60_7->tics, _8
# f_finale.c:513:     casttics = caststate->tics;
	.loc 1 513 14
	movl	%eax, casttics(%rip)	# _9, casttics
# f_finale.c:514:     castframes = 0;
	.loc 1 514 16
	movl	$0, castframes(%rip)	#, castframes
# f_finale.c:515:     castattacking = false;
	.loc 1 515 19
	movl	$0, castattacking(%rip)	#, castattacking
# f_finale.c:516:     if (mobjinfo[castorder[castnum].type].deathsound)
	.loc 1 516 36
	movl	castnum(%rip), %eax	# castnum, castnum.61_10
	cltq
	salq	$4, %rax	#, tmp111
	movq	%rax, %rdx	# tmp111, tmp112
	leaq	8+castorder(%rip), %rax	#, tmp113
	movl	(%rdx,%rax), %eax	# castorder[castnum.61_10].type, _11
# f_finale.c:516:     if (mobjinfo[castorder[castnum].type].deathsound)
	.loc 1 516 42
	movl	%eax, %eax	# _11, tmp114
	imulq	$92, %rax, %rax	#, tmp114, tmp115
	leaq	56+mobjinfo(%rip), %rdx	#, tmp116
	movl	(%rax,%rdx), %eax	# mobjinfo[_11].deathsound, _12
# f_finale.c:516:     if (mobjinfo[castorder[castnum].type].deathsound)
	.loc 1 516 8
	testl	%eax, %eax	# _12
	je	.L100	#,
# f_finale.c:517: 	S_StartSound (NULL, mobjinfo[castorder[castnum].type].deathsound);
	.loc 1 517 49
	movl	castnum(%rip), %eax	# castnum, castnum.62_13
	cltq
	salq	$4, %rax	#, tmp117
	movq	%rax, %rdx	# tmp117, tmp118
	leaq	8+castorder(%rip), %rax	#, tmp119
	movl	(%rdx,%rax), %eax	# castorder[castnum.62_13].type, _14
# f_finale.c:517: 	S_StartSound (NULL, mobjinfo[castorder[castnum].type].deathsound);
	.loc 1 517 2
	movl	%eax, %eax	# _14, tmp120
	imulq	$92, %rax, %rax	#, tmp120, tmp121
	leaq	56+mobjinfo(%rip), %rdx	#, tmp122
	movl	(%rax,%rdx), %eax	# mobjinfo[_14].deathsound, _15
	movl	%eax, %esi	# _15,
	movl	$0, %edi	#,
	call	S_StartSound@PLT	#
.L100:
# f_finale.c:519:     return true;
	.loc 1 519 12
	movl	$1, %eax	#, _16
.L98:
# f_finale.c:520: }
	.loc 1 520 1
	leave	
	.cfi_def_cfa 7, 8
	ret	
	.cfi_endproc
.LFE6:
	.size	F_CastResponder, .-F_CastResponder
	.globl	F_CastPrint
	.type	F_CastPrint, @function
F_CastPrint:
.LFB7:
	.loc 1 524 1
	.cfi_startproc
	endbr64	
	pushq	%rbp	#
	.cfi_def_cfa_offset 16
	.cfi_offset 6, -16
	movq	%rsp, %rbp	#,
	.cfi_def_cfa_register 6
	subq	$48, %rsp	#,
	movq	%rdi, -40(%rbp)	# text, text
# f_finale.c:532:     ch = text;
	.loc 1 532 8
	movq	-40(%rbp), %rax	# text, tmp94
	movq	%rax, -8(%rbp)	# tmp94, ch
# f_finale.c:533:     width = 0;
	.loc 1 533 11
	movl	$0, -20(%rbp)	#, width
# f_finale.c:535:     while (ch)
	.loc 1 535 11
	jmp	.L102	#
.L108:
# f_finale.c:537: 	c = *ch++;
	.loc 1 537 9
	movq	-8(%rbp), %rax	# ch, ch.63_1
	leaq	1(%rax), %rdx	#, tmp95
	movq	%rdx, -8(%rbp)	# tmp95, ch
# f_finale.c:537: 	c = *ch++;
	.loc 1 537 6
	movzbl	(%rax), %eax	# *ch.63_1, _2
# f_finale.c:537: 	c = *ch++;
	.loc 1 537 4
	movsbl	%al, %eax	# _2, tmp96
	movl	%eax, -16(%rbp)	# tmp96, c
# f_finale.c:538: 	if (!c)
	.loc 1 538 5
	cmpl	$0, -16(%rbp)	#, c
	je	.L116	#,
# f_finale.c:540: 	c = toupper(c) - HU_FONTSTART;
	.loc 1 540 6
	movl	-16(%rbp), %eax	# c, tmp97
	movl	%eax, %edi	# tmp97,
	call	toupper@PLT	#
# f_finale.c:540: 	c = toupper(c) - HU_FONTSTART;
	.loc 1 540 4 discriminator 1
	subl	$33, %eax	#, tmp98
	movl	%eax, -16(%rbp)	# tmp98, c
# f_finale.c:541: 	if (c < 0 || c> HU_FONTSIZE)
	.loc 1 541 5
	cmpl	$0, -16(%rbp)	#, c
	js	.L105	#,
# f_finale.c:541: 	if (c < 0 || c> HU_FONTSIZE)
	.loc 1 541 12 discriminator 2
	cmpl	$63, -16(%rbp)	#, c
	jle	.L106	#,
.L105:
# f_finale.c:543: 	    width += 4;
	.loc 1 543 12
	addl	$4, -20(%rbp)	#, width
# f_finale.c:544: 	    continue;
	.loc 1 544 6
	jmp	.L102	#
.L106:
# f_finale.c:547: 	w = SHORT (hu_font[c]->width);
	.loc 1 547 6
	movl	-16(%rbp), %eax	# c, tmp100
	cltq
	leaq	0(,%rax,8), %rdx	#, tmp101
	leaq	hu_font(%rip), %rax	#, tmp102
	movq	(%rdx,%rax), %rax	# hu_font[c_24], _4
	movzwl	(%rax), %eax	# _4->width, _5
# f_finale.c:547: 	w = SHORT (hu_font[c]->width);
	.loc 1 547 4
	cwtl
	movl	%eax, -12(%rbp)	# tmp103, w
# f_finale.c:548: 	width += w;
	.loc 1 548 8
	movl	-12(%rbp), %eax	# w, tmp104
	addl	%eax, -20(%rbp)	# tmp104, width
.L102:
# f_finale.c:535:     while (ch)
	.loc 1 535 12
	cmpq	$0, -8(%rbp)	#, ch
	jne	.L108	#,
	jmp	.L104	#
.L116:
# f_finale.c:539: 	    break;
	.loc 1 539 6
	nop	
.L104:
# f_finale.c:552:     cx = 160-width/2;
	.loc 1 552 19
	movl	-20(%rbp), %eax	# width, tmp105
	movl	%eax, %edx	# tmp105, tmp106
	shrl	$31, %edx	#, tmp106
	addl	%edx, %eax	# tmp106, tmp107
	sarl	%eax	# tmp108
	negl	%eax	# tmp108
# f_finale.c:552:     cx = 160-width/2;
	.loc 1 552 8
	addl	$160, %eax	#, tmp109
	movl	%eax, -24(%rbp)	# tmp109, cx
# f_finale.c:553:     ch = text;
	.loc 1 553 8
	movq	-40(%rbp), %rax	# text, tmp110
	movq	%rax, -8(%rbp)	# tmp110, ch
# f_finale.c:554:     while (ch)
	.loc 1 554 11
	jmp	.L109	#
.L115:
# f_finale.c:556: 	c = *ch++;
	.loc 1 556 9
	movq	-8(%rbp), %rax	# ch, ch.64_7
	leaq	1(%rax), %rdx	#, tmp111
	movq	%rdx, -8(%rbp)	# tmp111, ch
# f_finale.c:556: 	c = *ch++;
	.loc 1 556 6
	movzbl	(%rax), %eax	# *ch.64_7, _8
# f_finale.c:556: 	c = *ch++;
	.loc 1 556 4
	movsbl	%al, %eax	# _8, tmp112
	movl	%eax, -16(%rbp)	# tmp112, c
# f_finale.c:557: 	if (!c)
	.loc 1 557 5
	cmpl	$0, -16(%rbp)	#, c
	je	.L117	#,
# f_finale.c:559: 	c = toupper(c) - HU_FONTSTART;
	.loc 1 559 6
	movl	-16(%rbp), %eax	# c, tmp113
	movl	%eax, %edi	# tmp113,
	call	toupper@PLT	#
# f_finale.c:559: 	c = toupper(c) - HU_FONTSTART;
	.loc 1 559 4 discriminator 1
	subl	$33, %eax	#, tmp114
	movl	%eax, -16(%rbp)	# tmp114, c
# f_finale.c:560: 	if (c < 0 || c> HU_FONTSIZE)
	.loc 1 560 5
	cmpl	$0, -16(%rbp)	#, c
	js	.L112	#,
# f_finale.c:560: 	if (c < 0 || c> HU_FONTSIZE)
	.loc 1 560 12 discriminator 2
	cmpl	$63, -16(%rbp)	#, c
	jle	.L113	#,
.L112:
# f_finale.c:562: 	    cx += 4;
	.loc 1 562 9
	addl	$4, -24(%rbp)	#, cx
# f_finale.c:563: 	    continue;
	.loc 1 563 6
	jmp	.L109	#
.L113:
# f_finale.c:566: 	w = SHORT (hu_font[c]->width);
	.loc 1 566 6
	movl	-16(%rbp), %eax	# c, tmp116
	cltq
	leaq	0(,%rax,8), %rdx	#, tmp117
	leaq	hu_font(%rip), %rax	#, tmp118
	movq	(%rdx,%rax), %rax	# hu_font[c_32], _10
	movzwl	(%rax), %eax	# _10->width, _11
# f_finale.c:566: 	w = SHORT (hu_font[c]->width);
	.loc 1 566 4
	cwtl
	movl	%eax, -12(%rbp)	# tmp119, w
# f_finale.c:567: 	V_DrawPatch(cx, 180, 0, hu_font[c]);
	.loc 1 567 2
	movl	-16(%rbp), %eax	# c, tmp121
	cltq
	leaq	0(,%rax,8), %rdx	#, tmp122
	leaq	hu_font(%rip), %rax	#, tmp123
	movq	(%rdx,%rax), %rdx	# hu_font[c_32], _12
	movl	-24(%rbp), %eax	# cx, tmp124
	movq	%rdx, %rcx	# _12,
	movl	$0, %edx	#,
	movl	$180, %esi	#,
	movl	%eax, %edi	# tmp124,
	call	V_DrawPatch@PLT	#
# f_finale.c:568: 	cx+=w;
	.loc 1 568 4
	movl	-12(%rbp), %eax	# w, tmp125
	addl	%eax, -24(%rbp)	# tmp125, cx
.L109:
# f_finale.c:554:     while (ch)
	.loc 1 554 12
	cmpq	$0, -8(%rbp)	#, ch
	jne	.L115	#,
# f_finale.c:571: }
	.loc 1 571 1
	jmp	.L118	#
.L117:
# f_finale.c:558: 	    break;
	.loc 1 558 6
	nop	
.L118:
# f_finale.c:571: }
	.loc 1 571 1
	nop	
	leave	
	.cfi_def_cfa 7, 8
	ret	
	.cfi_endproc
.LFE7:
	.size	F_CastPrint, .-F_CastPrint
	.section	.rodata
.LC50:
	.string	"BOSSBACK"
	.text
	.globl	F_CastDrawer
	.type	F_CastDrawer, @function
F_CastDrawer:
.LFB8:
	.loc 1 580 1
	.cfi_startproc
	endbr64	
	pushq	%rbp	#
	.cfi_def_cfa_offset 16
	.cfi_offset 6, -16
	movq	%rsp, %rbp	#,
	.cfi_def_cfa_register 6
	subq	$32, %rsp	#,
# f_finale.c:588:     V_DrawPatch (0,0,0, W_CacheLumpName ("BOSSBACK", PU_CACHE));
	.loc 1 588 25
	movl	$101, %esi	#,
	leaq	.LC50(%rip), %rax	#, tmp100
	movq	%rax, %rdi	# tmp100,
	call	W_CacheLumpName@PLT	#
# f_finale.c:588:     V_DrawPatch (0,0,0, W_CacheLumpName ("BOSSBACK", PU_CACHE));
	.loc 1 588 5 discriminator 1
	movq	%rax, %rcx	# _1,
	movl	$0, %edx	#,
	movl	$0, %esi	#,
	movl	$0, %edi	#,
	call	V_DrawPatch@PLT	#
# f_finale.c:590:     F_CastPrint (castorder[castnum].name);
	.loc 1 590 5
	movl	castnum(%rip), %eax	# castnum, castnum.65_2
	cltq
	salq	$4, %rax	#, tmp101
	movq	%rax, %rdx	# tmp101, tmp102
	leaq	castorder(%rip), %rax	#, tmp103
	movq	(%rdx,%rax), %rax	# castorder[castnum.65_2].name, _3
	movq	%rax, %rdi	# _3,
	call	F_CastPrint	#
# f_finale.c:593:     sprdef = &sprites[caststate->sprite];
	.loc 1 593 14
	movq	sprites(%rip), %rdx	# sprites, sprites.66_4
# f_finale.c:593:     sprdef = &sprites[caststate->sprite];
	.loc 1 593 32
	movq	caststate(%rip), %rax	# caststate, caststate.67_5
	movl	(%rax), %eax	# caststate.67_5->sprite, _6
	movl	%eax, %eax	# _6, _7
# f_finale.c:593:     sprdef = &sprites[caststate->sprite];
	.loc 1 593 22
	salq	$4, %rax	#, _8
# f_finale.c:593:     sprdef = &sprites[caststate->sprite];
	.loc 1 593 12
	addq	%rdx, %rax	# sprites.66_4, tmp104
	movq	%rax, -24(%rbp)	# tmp104, sprdef
# f_finale.c:594:     sprframe = &sprdef->spriteframes[ caststate->frame & FF_FRAMEMASK];
	.loc 1 594 23
	movq	-24(%rbp), %rax	# sprdef, tmp105
	movq	8(%rax), %rcx	# sprdef_24->spriteframes, _9
# f_finale.c:594:     sprframe = &sprdef->spriteframes[ caststate->frame & FF_FRAMEMASK];
	.loc 1 594 48
	movq	caststate(%rip), %rax	# caststate, caststate.68_10
	movq	8(%rax), %rax	# caststate.68_10->frame, _11
# f_finale.c:594:     sprframe = &sprdef->spriteframes[ caststate->frame & FF_FRAMEMASK];
	.loc 1 594 56
	andl	$32767, %eax	#, _12
	movq	%rax, %rdx	# _12, _13
# f_finale.c:594:     sprframe = &sprdef->spriteframes[ caststate->frame & FF_FRAMEMASK];
	.loc 1 594 37
	movq	%rdx, %rax	# _13, tmp106
	salq	$3, %rax	#, tmp107
	subq	%rdx, %rax	# _13, tmp106
	salq	$2, %rax	#, tmp108
# f_finale.c:594:     sprframe = &sprdef->spriteframes[ caststate->frame & FF_FRAMEMASK];
	.loc 1 594 14
	addq	%rcx, %rax	# _9, tmp109
	movq	%rax, -16(%rbp)	# tmp109, sprframe
# f_finale.c:595:     lump = sprframe->lump[0];
	.loc 1 595 26
	movq	-16(%rbp), %rax	# sprframe, tmp110
	movzwl	4(%rax), %eax	# sprframe_25->lump[0], _15
# f_finale.c:595:     lump = sprframe->lump[0];
	.loc 1 595 10
	cwtl
	movl	%eax, -32(%rbp)	# tmp111, lump
# f_finale.c:596:     flip = (boolean)sprframe->flip[0];
	.loc 1 596 35
	movq	-16(%rbp), %rax	# sprframe, tmp112
	movzbl	20(%rax), %eax	# sprframe_25->flip[0], _16
# f_finale.c:596:     flip = (boolean)sprframe->flip[0];
	.loc 1 596 10
	movzbl	%al, %eax	# _16, tmp113
	movl	%eax, -28(%rbp)	# tmp113, flip
# f_finale.c:598:     patch = W_CacheLumpNum (lump+firstspritelump, PU_CACHE);
	.loc 1 598 13
	movl	firstspritelump(%rip), %edx	# firstspritelump, firstspritelump.69_17
	movl	-32(%rbp), %eax	# lump, tmp114
	addl	%edx, %eax	# firstspritelump.69_17, _18
	movl	$101, %esi	#,
	movl	%eax, %edi	# _18,
	call	W_CacheLumpNum@PLT	#
	movq	%rax, -8(%rbp)	# tmp115, patch
# f_finale.c:599:     if (flip)
	.loc 1 599 8
	cmpl	$0, -28(%rbp)	#, flip
	je	.L120	#,
# f_finale.c:600: 	V_DrawPatchFlipped (160,170,0,patch);
	.loc 1 600 2
	movq	-8(%rbp), %rax	# patch, tmp116
	movq	%rax, %rcx	# tmp116,
	movl	$0, %edx	#,
	movl	$170, %esi	#,
	movl	$160, %edi	#,
	call	V_DrawPatchFlipped@PLT	#
# f_finale.c:603: }
	.loc 1 603 1
	jmp	.L122	#
.L120:
# f_finale.c:602: 	V_DrawPatch (160,170,0,patch);
	.loc 1 602 2
	movq	-8(%rbp), %rax	# patch, tmp117
	movq	%rax, %rcx	# tmp117,
	movl	$0, %edx	#,
	movl	$170, %esi	#,
	movl	$160, %edi	#,
	call	V_DrawPatch@PLT	#
.L122:
# f_finale.c:603: }
	.loc 1 603 1
	nop	
	leave	
	.cfi_def_cfa 7, 8
	ret	
	.cfi_endproc
.LFE8:
	.size	F_CastDrawer, .-F_CastDrawer
	.globl	F_DrawPatchCol
	.type	F_DrawPatchCol, @function
F_DrawPatchCol:
.LFB9:
	.loc 1 614 1
	.cfi_startproc
	endbr64	
	pushq	%rbp	#
	.cfi_def_cfa_offset 16
	.cfi_offset 6, -16
	movq	%rsp, %rbp	#,
	.cfi_def_cfa_register 6
	movl	%edi, -52(%rbp)	# x, x
	movq	%rsi, -64(%rbp)	# patch, patch
	movl	%edx, -56(%rbp)	# col, col
# f_finale.c:621:     column = (column_t *)((byte *)patch + LONG(patch->columnofs[col]));
	.loc 1 621 43
	movq	-64(%rbp), %rax	# patch, tmp98
	movl	-56(%rbp), %edx	# col, tmp100
	movslq	%edx, %rdx	# tmp100, tmp99
	movl	8(%rax,%rdx,4), %eax	# patch_24(D)->columnofs[col_25(D)], _1
	movslq	%eax, %rdx	# _1, _2
# f_finale.c:621:     column = (column_t *)((byte *)patch + LONG(patch->columnofs[col]));
	.loc 1 621 12
	movq	-64(%rbp), %rax	# patch, tmp104
	addq	%rdx, %rax	# _2, tmp103
	movq	%rax, -32(%rbp)	# tmp103, column
# f_finale.c:622:     desttop = screens[0]+x;
	.loc 1 622 22
	movq	screens(%rip), %rdx	# screens[0], _3
# f_finale.c:622:     desttop = screens[0]+x;
	.loc 1 622 25
	movl	-52(%rbp), %eax	# x, tmp105
	cltq
# f_finale.c:622:     desttop = screens[0]+x;
	.loc 1 622 13
	addq	%rdx, %rax	# _3, tmp106
	movq	%rax, -8(%rbp)	# tmp106, desttop
# f_finale.c:625:     while (column->topdelta != 0xff )
	.loc 1 625 11
	jmp	.L124	#
.L127:
# f_finale.c:627: 	source = (byte *)column + 3;
	.loc 1 627 9
	movq	-32(%rbp), %rax	# column, tmp110
	addq	$3, %rax	#, tmp109
	movq	%rax, -24(%rbp)	# tmp109, source
# f_finale.c:628: 	dest = desttop + column->topdelta*SCREENWIDTH;
	.loc 1 628 25
	movq	-32(%rbp), %rax	# column, tmp111
	movzbl	(%rax), %eax	# column_17->topdelta, _5
	movzbl	%al, %edx	# _5, _6
# f_finale.c:628: 	dest = desttop + column->topdelta*SCREENWIDTH;
	.loc 1 628 35
	movl	%edx, %eax	# _6, tmp112
	sall	$2, %eax	#, tmp112
	addl	%edx, %eax	# _6, tmp112
	sall	$6, %eax	#, tmp113
	movslq	%eax, %rdx	# _7, _8
# f_finale.c:628: 	dest = desttop + column->topdelta*SCREENWIDTH;
	.loc 1 628 7
	movq	-8(%rbp), %rax	# desttop, tmp117
	addq	%rdx, %rax	# _8, tmp116
	movq	%rax, -16(%rbp)	# tmp116, dest
# f_finale.c:629: 	count = column->length;
	.loc 1 629 16
	movq	-32(%rbp), %rax	# column, tmp118
	movzbl	1(%rax), %eax	# column_17->length, _9
# f_finale.c:629: 	count = column->length;
	.loc 1 629 8
	movzbl	%al, %eax	# _9, tmp119
	movl	%eax, -36(%rbp)	# tmp119, count
# f_finale.c:631: 	while (count--)
	.loc 1 631 8
	jmp	.L125	#
.L126:
# f_finale.c:633: 	    *dest = *source++;
	.loc 1 633 21
	movq	-24(%rbp), %rax	# source, source.70_10
	leaq	1(%rax), %rdx	#, tmp120
	movq	%rdx, -24(%rbp)	# tmp120, source
# f_finale.c:633: 	    *dest = *source++;
	.loc 1 633 14
	movzbl	(%rax), %edx	# *source.70_10, _11
# f_finale.c:633: 	    *dest = *source++;
	.loc 1 633 12
	movq	-16(%rbp), %rax	# dest, tmp121
	movb	%dl, (%rax)	# _11, *dest_19
# f_finale.c:634: 	    dest += SCREENWIDTH;
	.loc 1 634 11
	addq	$320, -16(%rbp)	#, dest
.L125:
# f_finale.c:631: 	while (count--)
	.loc 1 631 14
	movl	-36(%rbp), %eax	# count, count.71_12
	leal	-1(%rax), %edx	#, tmp122
	movl	%edx, -36(%rbp)	# tmp122, count
# f_finale.c:631: 	while (count--)
	.loc 1 631 9
	testl	%eax, %eax	# count.71_12
	jne	.L126	#,
# f_finale.c:636: 	column = (column_t *)(  (byte *)column + column->length + 4 );
	.loc 1 636 49
	movq	-32(%rbp), %rax	# column, tmp123
	movzbl	1(%rax), %eax	# column_17->length, _13
	movzbl	%al, %eax	# _13, _14
# f_finale.c:636: 	column = (column_t *)(  (byte *)column + column->length + 4 );
	.loc 1 636 58
	addq	$4, %rax	#, _15
# f_finale.c:636: 	column = (column_t *)(  (byte *)column + column->length + 4 );
	.loc 1 636 9
	addq	%rax, -32(%rbp)	# _15, column
.L124:
# f_finale.c:625:     while (column->topdelta != 0xff )
	.loc 1 625 18
	movq	-32(%rbp), %rax	# column, tmp124
	movzbl	(%rax), %eax	# column_17->topdelta, _16
# f_finale.c:625:     while (column->topdelta != 0xff )
	.loc 1 625 29
	cmpb	$-1, %al	#, _16
	jne	.L127	#,
# f_finale.c:638: }
	.loc 1 638 1
	nop	
	nop	
	popq	%rbp	#
	.cfi_def_cfa 7, 8
	ret	
	.cfi_endproc
.LFE9:
	.size	F_DrawPatchCol, .-F_DrawPatchCol
	.section	.rodata
.LC51:
	.string	"PFUB2"
.LC52:
	.string	"PFUB1"
.LC53:
	.string	"END0"
.LC54:
	.string	"END%i"
	.text
	.globl	F_BunnyScroll
	.type	F_BunnyScroll, @function
F_BunnyScroll:
.LFB10:
	.loc 1 645 1
	.cfi_startproc
	endbr64	
	pushq	%rbp	#
	.cfi_def_cfa_offset 16
	.cfi_offset 6, -16
	movq	%rsp, %rbp	#,
	.cfi_def_cfa_register 6
	subq	$64, %rsp	#,
# f_finale.c:645: {
	.loc 1 645 1
	movq	%fs:40, %rax	# MEM[(<address-space-1> long unsigned int *)40B], tmp126
	movq	%rax, -8(%rbp)	# tmp126, D.7329
	xorl	%eax, %eax	# tmp126
# f_finale.c:654:     p1 = W_CacheLumpName ("PFUB2", PU_LEVEL);
	.loc 1 654 10
	movl	$50, %esi	#,
	leaq	.LC51(%rip), %rax	#, tmp96
	movq	%rax, %rdi	# tmp96,
	call	W_CacheLumpName@PLT	#
	movq	%rax, -40(%rbp)	# tmp97, p1
# f_finale.c:655:     p2 = W_CacheLumpName ("PFUB1", PU_LEVEL);
	.loc 1 655 10
	movl	$50, %esi	#,
	leaq	.LC52(%rip), %rax	#, tmp98
	movq	%rax, %rdi	# tmp98,
	call	W_CacheLumpName@PLT	#
	movq	%rax, -32(%rbp)	# tmp99, p2
# f_finale.c:657:     V_MarkRect (0, 0, SCREENWIDTH, SCREENHEIGHT);
	.loc 1 657 5
	movl	$200, %ecx	#,
	movl	$320, %edx	#,
	movl	$0, %esi	#,
	movl	$0, %edi	#,
	call	V_MarkRect@PLT	#
# f_finale.c:659:     scrolled = 320 - (finalecount-230)/2;
	.loc 1 659 34
	movl	finalecount(%rip), %eax	# finalecount, finalecount.72_1
	subl	$230, %eax	#, _2
# f_finale.c:659:     scrolled = 320 - (finalecount-230)/2;
	.loc 1 659 39
	movl	%eax, %edx	# _2, tmp100
	shrl	$31, %edx	#, tmp100
	addl	%edx, %eax	# tmp100, tmp101
	sarl	%eax	# tmp102
	negl	%eax	# tmp102
# f_finale.c:659:     scrolled = 320 - (finalecount-230)/2;
	.loc 1 659 14
	addl	$320, %eax	#, tmp103
	movl	%eax, -52(%rbp)	# tmp103, scrolled
# f_finale.c:660:     if (scrolled > 320)
	.loc 1 660 8
	cmpl	$320, -52(%rbp)	#, scrolled
	jle	.L129	#,
# f_finale.c:661: 	scrolled = 320;
	.loc 1 661 11
	movl	$320, -52(%rbp)	#, scrolled
.L129:
# f_finale.c:662:     if (scrolled < 0)
	.loc 1 662 8
	cmpl	$0, -52(%rbp)	#, scrolled
	jns	.L130	#,
# f_finale.c:663: 	scrolled = 0;
	.loc 1 663 11
	movl	$0, -52(%rbp)	#, scrolled
.L130:
# f_finale.c:665:     for ( x=0 ; x<SCREENWIDTH ; x++)
	.loc 1 665 12
	movl	$0, -48(%rbp)	#, x
# f_finale.c:665:     for ( x=0 ; x<SCREENWIDTH ; x++)
	.loc 1 665 5
	jmp	.L131	#
.L134:
# f_finale.c:667: 	if (x+scrolled < 320)
	.loc 1 667 7
	movl	-48(%rbp), %edx	# x, tmp104
	movl	-52(%rbp), %eax	# scrolled, tmp105
	addl	%edx, %eax	# tmp104, _4
# f_finale.c:667: 	if (x+scrolled < 320)
	.loc 1 667 5
	cmpl	$319, %eax	#, _4
	jg	.L132	#,
# f_finale.c:668: 	    F_DrawPatchCol (x, p1, x+scrolled);
	.loc 1 668 6
	movl	-48(%rbp), %edx	# x, tmp106
	movl	-52(%rbp), %eax	# scrolled, tmp107
	addl	%eax, %edx	# tmp107, _5
	movq	-40(%rbp), %rcx	# p1, tmp108
	movl	-48(%rbp), %eax	# x, tmp109
	movq	%rcx, %rsi	# tmp108,
	movl	%eax, %edi	# tmp109,
	call	F_DrawPatchCol	#
	jmp	.L133	#
.L132:
# f_finale.c:670: 	    F_DrawPatchCol (x, p2, x+scrolled - 320);		
	.loc 1 670 30
	movl	-48(%rbp), %edx	# x, tmp110
	movl	-52(%rbp), %eax	# scrolled, tmp111
	addl	%edx, %eax	# tmp110, _6
# f_finale.c:670: 	    F_DrawPatchCol (x, p2, x+scrolled - 320);		
	.loc 1 670 6
	leal	-320(%rax), %edx	#, _7
	movq	-32(%rbp), %rcx	# p2, tmp112
	movl	-48(%rbp), %eax	# x, tmp113
	movq	%rcx, %rsi	# tmp112,
	movl	%eax, %edi	# tmp113,
	call	F_DrawPatchCol	#
.L133:
# f_finale.c:665:     for ( x=0 ; x<SCREENWIDTH ; x++)
	.loc 1 665 34 discriminator 2
	addl	$1, -48(%rbp)	#, x
.L131:
# f_finale.c:665:     for ( x=0 ; x<SCREENWIDTH ; x++)
	.loc 1 665 18 discriminator 1
	cmpl	$319, -48(%rbp)	#, x
	jle	.L134	#,
# f_finale.c:673:     if (finalecount < 1130)
	.loc 1 673 21
	movl	finalecount(%rip), %eax	# finalecount, finalecount.73_8
# f_finale.c:673:     if (finalecount < 1130)
	.loc 1 673 8
	cmpl	$1129, %eax	#, finalecount.73_8
	jle	.L142	#,
# f_finale.c:675:     if (finalecount < 1180)
	.loc 1 675 21
	movl	finalecount(%rip), %eax	# finalecount, finalecount.74_9
# f_finale.c:675:     if (finalecount < 1180)
	.loc 1 675 8
	cmpl	$1179, %eax	#, finalecount.74_9
	jg	.L137	#,
# f_finale.c:678: 		     (SCREENHEIGHT-8*8)/2,0, W_CacheLumpName ("END0",PU_CACHE));
	.loc 1 678 32
	movl	$101, %esi	#,
	leaq	.LC53(%rip), %rax	#, tmp114
	movq	%rax, %rdi	# tmp114,
	call	W_CacheLumpName@PLT	#
# f_finale.c:677: 	V_DrawPatch ((SCREENWIDTH-13*8)/2,
	.loc 1 677 2
	movq	%rax, %rcx	# _10,
	movl	$0, %edx	#,
	movl	$68, %esi	#,
	movl	$108, %edi	#,
	call	V_DrawPatch@PLT	#
# f_finale.c:679: 	laststage = 0;
	.loc 1 679 12
	movl	$0, laststage.0(%rip)	#, laststage
# f_finale.c:680: 	return;
	.loc 1 680 2
	jmp	.L128	#
.L137:
# f_finale.c:683:     stage = (finalecount-1180) / 5;
	.loc 1 683 25
	movl	finalecount(%rip), %eax	# finalecount, finalecount.75_11
	subl	$1180, %eax	#, _12
# f_finale.c:683:     stage = (finalecount-1180) / 5;
	.loc 1 683 11
	movslq	%eax, %rdx	# _12, tmp115
	imulq	$1717986919, %rdx, %rdx	#, tmp115, tmp116
	shrq	$32, %rdx	#, tmp117
	movl	%edx, %ecx	# tmp117, tmp118
	sarl	%ecx	# tmp118
	cltd
	movl	%ecx, %eax	# tmp118, tmp118
	subl	%edx, %eax	# tmp119, tmp118
	movl	%eax, -44(%rbp)	# tmp120, stage
# f_finale.c:684:     if (stage > 6)
	.loc 1 684 8
	cmpl	$6, -44(%rbp)	#, stage
	jle	.L138	#,
# f_finale.c:685: 	stage = 6;
	.loc 1 685 8
	movl	$6, -44(%rbp)	#, stage
.L138:
# f_finale.c:686:     if (stage > laststage)
	.loc 1 686 15
	movl	laststage.0(%rip), %eax	# laststage, laststage.76_13
# f_finale.c:686:     if (stage > laststage)
	.loc 1 686 8
	cmpl	%eax, -44(%rbp)	# laststage.76_13, stage
	jle	.L139	#,
# f_finale.c:688: 	S_StartSound (NULL, sfx_pistol);
	.loc 1 688 2
	movl	$1, %esi	#,
	movl	$0, %edi	#,
	call	S_StartSound@PLT	#
# f_finale.c:689: 	laststage = stage;
	.loc 1 689 12
	movl	-44(%rbp), %eax	# stage, tmp121
	movl	%eax, laststage.0(%rip)	# tmp121, laststage
.L139:
# f_finale.c:692:     sprintf (name,"END%i",stage);
	.loc 1 692 5
	movl	-44(%rbp), %edx	# stage, tmp122
	leaq	-18(%rbp), %rax	#, tmp123
	leaq	.LC54(%rip), %rcx	#, tmp124
	movq	%rcx, %rsi	# tmp124,
	movq	%rax, %rdi	# tmp123,
	movl	$0, %eax	#,
	call	sprintf@PLT	#
# f_finale.c:693:     V_DrawPatch ((SCREENWIDTH-13*8)/2, (SCREENHEIGHT-8*8)/2,0, W_CacheLumpName (name,PU_CACHE));
	.loc 1 693 64
	leaq	-18(%rbp), %rax	#, tmp125
	movl	$101, %esi	#,
	movq	%rax, %rdi	# tmp125,
	call	W_CacheLumpName@PLT	#
# f_finale.c:693:     V_DrawPatch ((SCREENWIDTH-13*8)/2, (SCREENHEIGHT-8*8)/2,0, W_CacheLumpName (name,PU_CACHE));
	.loc 1 693 5 discriminator 1
	movq	%rax, %rcx	# _14,
	movl	$0, %edx	#,
	movl	$68, %esi	#,
	movl	$108, %edi	#,
	call	V_DrawPatch@PLT	#
	jmp	.L128	#
.L142:
# f_finale.c:674: 	return;
	.loc 1 674 2
	nop	
.L128:
# f_finale.c:694: }
	.loc 1 694 1
	movq	-8(%rbp), %rax	# D.7329, tmp127
	subq	%fs:40, %rax	# MEM[(<address-space-1> long unsigned int *)40B], tmp127
	je	.L141	#,
	call	__stack_chk_fail@PLT	#
.L141:
	leave	
	.cfi_def_cfa 7, 8
	ret	
	.cfi_endproc
.LFE10:
	.size	F_BunnyScroll, .-F_BunnyScroll
	.section	.rodata
.LC55:
	.string	"CREDIT"
.LC56:
	.string	"HELP2"
.LC57:
	.string	"VICTORY2"
.LC58:
	.string	"ENDPIC"
	.text
	.globl	F_Drawer
	.type	F_Drawer, @function
F_Drawer:
.LFB11:
	.loc 1 701 1
	.cfi_startproc
	endbr64	
	pushq	%rbp	#
	.cfi_def_cfa_offset 16
	.cfi_offset 6, -16
	movq	%rsp, %rbp	#,
	.cfi_def_cfa_register 6
# f_finale.c:702:     if (finalestage == 2)
	.loc 1 702 21
	movl	finalestage(%rip), %eax	# finalestage, finalestage.77_1
# f_finale.c:702:     if (finalestage == 2)
	.loc 1 702 8
	cmpl	$2, %eax	#, finalestage.77_1
	jne	.L144	#,
# f_finale.c:704: 	F_CastDrawer ();
	.loc 1 704 2
	call	F_CastDrawer	#
# f_finale.c:705: 	return;
	.loc 1 705 2
	jmp	.L143	#
.L144:
# f_finale.c:708:     if (!finalestage)
	.loc 1 708 9
	movl	finalestage(%rip), %eax	# finalestage, finalestage.78_2
# f_finale.c:708:     if (!finalestage)
	.loc 1 708 8
	testl	%eax, %eax	# finalestage.78_2
	jne	.L146	#,
# f_finale.c:709: 	F_TextWrite ();
	.loc 1 709 2
	call	F_TextWrite	#
	jmp	.L143	#
.L146:
# f_finale.c:712: 	switch (gameepisode)
	.loc 1 712 2
	movl	gameepisode(%rip), %eax	# gameepisode, gameepisode.79_3
	cmpl	$4, %eax	#, gameepisode.79_3
	je	.L147	#,
	cmpl	$4, %eax	#, gameepisode.79_3
	jg	.L143	#,
	cmpl	$3, %eax	#, gameepisode.79_3
	je	.L148	#,
	cmpl	$3, %eax	#, gameepisode.79_3
	jg	.L143	#,
	cmpl	$1, %eax	#, gameepisode.79_3
	je	.L149	#,
	cmpl	$2, %eax	#, gameepisode.79_3
	je	.L150	#,
	jmp	.L143	#
.L149:
# f_finale.c:715: 	    if ( gamemode == retail )
	.loc 1 715 20
	movl	gamemode(%rip), %eax	# gamemode, gamemode.80_4
# f_finale.c:715: 	    if ( gamemode == retail )
	.loc 1 715 9
	cmpl	$3, %eax	#, gamemode.80_4
	jne	.L151	#,
# f_finale.c:717: 			 W_CacheLumpName("CREDIT",PU_CACHE));
	.loc 1 717 5
	movl	$101, %esi	#,
	leaq	.LC55(%rip), %rax	#, tmp90
	movq	%rax, %rdi	# tmp90,
	call	W_CacheLumpName@PLT	#
# f_finale.c:716: 	      V_DrawPatch (0,0,0,
	.loc 1 716 8
	movq	%rax, %rcx	# _5,
	movl	$0, %edx	#,
	movl	$0, %esi	#,
	movl	$0, %edi	#,
	call	V_DrawPatch@PLT	#
# f_finale.c:721: 	    break;
	.loc 1 721 6
	jmp	.L143	#
.L151:
# f_finale.c:720: 			 W_CacheLumpName("HELP2",PU_CACHE));
	.loc 1 720 5
	movl	$101, %esi	#,
	leaq	.LC56(%rip), %rax	#, tmp91
	movq	%rax, %rdi	# tmp91,
	call	W_CacheLumpName@PLT	#
# f_finale.c:719: 	      V_DrawPatch (0,0,0,
	.loc 1 719 8
	movq	%rax, %rcx	# _6,
	movl	$0, %edx	#,
	movl	$0, %esi	#,
	movl	$0, %edi	#,
	call	V_DrawPatch@PLT	#
# f_finale.c:721: 	    break;
	.loc 1 721 6
	jmp	.L143	#
.L150:
# f_finale.c:724: 			W_CacheLumpName("VICTORY2",PU_CACHE));
	.loc 1 724 4
	movl	$101, %esi	#,
	leaq	.LC57(%rip), %rax	#, tmp92
	movq	%rax, %rdi	# tmp92,
	call	W_CacheLumpName@PLT	#
# f_finale.c:723: 	    V_DrawPatch(0,0,0,
	.loc 1 723 6
	movq	%rax, %rcx	# _7,
	movl	$0, %edx	#,
	movl	$0, %esi	#,
	movl	$0, %edi	#,
	call	V_DrawPatch@PLT	#
# f_finale.c:725: 	    break;
	.loc 1 725 6
	jmp	.L143	#
.L148:
# f_finale.c:727: 	    F_BunnyScroll ();
	.loc 1 727 6
	call	F_BunnyScroll	#
# f_finale.c:728: 	    break;
	.loc 1 728 6
	jmp	.L143	#
.L147:
# f_finale.c:731: 			 W_CacheLumpName("ENDPIC",PU_CACHE));
	.loc 1 731 5
	movl	$101, %esi	#,
	leaq	.LC58(%rip), %rax	#, tmp93
	movq	%rax, %rdi	# tmp93,
	call	W_CacheLumpName@PLT	#
# f_finale.c:730: 	    V_DrawPatch (0,0,0,
	.loc 1 730 6
	movq	%rax, %rcx	# _8,
	movl	$0, %edx	#,
	movl	$0, %esi	#,
	movl	$0, %edi	#,
	call	V_DrawPatch@PLT	#
# f_finale.c:732: 	    break;
	.loc 1 732 6
	nop	
.L143:
# f_finale.c:736: }
	.loc 1 736 1
	popq	%rbp	#
	.cfi_def_cfa 7, 8
	ret	
	.cfi_endproc
.LFE11:
	.size	F_Drawer, .-F_Drawer
	.local	laststage.0
	.comm	laststage.0,4,4
.Letext0:
	.file 2 "doomtype.h"
	.file 3 "d_ticcmd.h"
	.file 4 "d_event.h"
	.file 5 "/usr/lib/gcc/x86_64-linux-gnu/13/include/stddef.h"
	.file 6 "doomdef.h"
	.file 7 "m_fixed.h"
	.file 8 "d_think.h"
	.file 9 "tables.h"
	.file 10 "doomdata.h"
	.file 11 "info.h"
	.file 12 "p_mobj.h"
	.file 13 "r_defs.h"
	.file 14 "d_player.h"
	.file 15 "p_pspr.h"
	.file 16 "r_state.h"
	.file 17 "v_video.h"
	.file 18 "sounds.h"
	.file 19 "doomstat.h"
	.file 20 "/usr/include/stdio.h"
	.file 21 "w_wad.h"
	.file 22 "s_sound.h"
	.file 23 "/usr/include/ctype.h"
	.file 24 "/usr/include/string.h"
	.section	.note.GNU-stack,"",@progbits
	.section	.note.gnu.property,"a"
	.align 8
	.long	1f - 0f
	.long	4f - 1f
	.long	5
0:
	.string	"GNU"
1:
	.align 8
	.long	0xc0000002
	.long	3f - 2f
2:
	.long	0x3
3:
	.align 8
4:
