	.file	"i_net.c"
# GNU C17 (Ubuntu 13.3.0-6ubuntu2~24.04) version 13.3.0 (x86_64-linux-gnu)
#	compiled by GNU C version 13.3.0, GMP version 6.3.0, MPFR version 4.2.1, MPC version 1.3.1, isl version isl-0.26-GMP

# GGC heuristics: --param ggc-min-expand=100 --param ggc-min-heapsize=131072
# options passed: -mtune=generic -march=x86-64 -g -fasynchronous-unwind-tables -fstack-protector-strong -fstack-clash-protection -fcf-protection
	.text
.Ltext0:
	.file 0 "/home/astrid/Documents/enseignements/DOOM/linuxdoom-1.10" "i_net.c"
	.section	.rodata
	.align 32
	.type	rcsid, @object
	.size	rcsid, 49
rcsid:
	.string	"$Id: m_bbox.c,v 1.1 1997/02/03 22:45:10 b1 Exp $"
	.globl	DOOMPORT
	.data
	.align 4
	.type	DOOMPORT, @object
	.size	DOOMPORT, 4
DOOMPORT:
	.long	5029
	.globl	sendsocket
	.bss
	.align 4
	.type	sendsocket, @object
	.size	sendsocket, 4
sendsocket:
	.zero	4
	.globl	insocket
	.align 4
	.type	insocket, @object
	.size	insocket, 4
insocket:
	.zero	4
	.globl	sendaddress
	.align 32
	.type	sendaddress, @object
	.size	sendaddress, 128
sendaddress:
	.zero	128
	.globl	netget
	.align 8
	.type	netget, @object
	.size	netget, 8
netget:
	.zero	8
	.globl	netsend
	.align 8
	.type	netsend, @object
	.size	netsend, 8
netsend:
	.zero	8
	.section	.rodata
.LC0:
	.string	"can't create socket: %s"
	.text
	.globl	UDPsocket
	.type	UDPsocket, @function
UDPsocket:
.LFB6:
	.file 1 "i_net.c"
	.loc 1 91 1
	.cfi_startproc
	endbr64	
	pushq	%rbp	#
	.cfi_def_cfa_offset 16
	.cfi_offset 6, -16
	movq	%rsp, %rbp	#,
	.cfi_def_cfa_register 6
	subq	$16, %rsp	#,
# i_net.c:95:     s = socket (PF_INET, SOCK_DGRAM, IPPROTO_UDP);
	.loc 1 95 9
	movl	$17, %edx	#,
	movl	$2, %esi	#,
	movl	$2, %edi	#,
	call	socket@PLT	#
	movl	%eax, -4(%rbp)	# tmp87, s
# i_net.c:96:     if (s<0)
	.loc 1 96 8
	cmpl	$0, -4(%rbp)	#, s
	jns	.L2	#,
# i_net.c:97: 	I_Error ("can't create socket: %s",strerror(errno));
	.loc 1 97 46
	call	__errno_location@PLT	#
# i_net.c:97: 	I_Error ("can't create socket: %s",strerror(errno));
	.loc 1 97 2 discriminator 1
	movl	(%rax), %eax	# *_1, _2
	movl	%eax, %edi	# _2,
	call	strerror@PLT	#
# i_net.c:97: 	I_Error ("can't create socket: %s",strerror(errno));
	.loc 1 97 2 is_stmt 0 discriminator 2
	movq	%rax, %rsi	# _3,
	leaq	.LC0(%rip), %rax	#, tmp88
	movq	%rax, %rdi	# tmp88,
	movl	$0, %eax	#,
	call	I_Error@PLT	#
.L2:
# i_net.c:99:     return s;
	.loc 1 99 12 is_stmt 1
	movl	-4(%rbp), %eax	# s, _10
# i_net.c:100: }
	.loc 1 100 1
	leave	
	.cfi_def_cfa 7, 8
	ret	
	.cfi_endproc
.LFE6:
	.size	UDPsocket, .-UDPsocket
	.section	.rodata
.LC1:
	.string	"BindToPort: bind: %s"
	.text
	.globl	BindToLocalPort
	.type	BindToLocalPort, @function
BindToLocalPort:
.LFB7:
	.loc 1 109 1
	.cfi_startproc
	endbr64	
	pushq	%rbp	#
	.cfi_def_cfa_offset 16
	.cfi_offset 6, -16
	movq	%rsp, %rbp	#,
	.cfi_def_cfa_register 6
	subq	$64, %rsp	#,
	movl	%edi, -52(%rbp)	# s, s
	movl	%esi, -56(%rbp)	# port, port
# i_net.c:109: {
	.loc 1 109 1
	movq	%fs:40, %rax	# MEM[(<address-space-1> long unsigned int *)40B], tmp92
	movq	%rax, -8(%rbp)	# tmp92, D.8238
	xorl	%eax, %eax	# tmp92
# i_net.c:113:     memset (&address, 0, sizeof(address));
	.loc 1 113 5
	leaq	-32(%rbp), %rax	#, tmp86
	movl	$16, %edx	#,
	movl	$0, %esi	#,
	movq	%rax, %rdi	# tmp86,
	call	memset@PLT	#
# i_net.c:114:     address.sin_family = AF_INET;
	.loc 1 114 24
	movw	$2, -32(%rbp)	#, address.sin_family
# i_net.c:115:     address.sin_addr.s_addr = INADDR_ANY;
	.loc 1 115 29
	movl	$0, -28(%rbp)	#, address.sin_addr.s_addr
# i_net.c:116:     address.sin_port = port;
	.loc 1 116 22
	movl	-56(%rbp), %eax	# port, tmp87
	movw	%ax, -30(%rbp)	# _1, address.sin_port
# i_net.c:118:     v = bind (s, (void *)&address, sizeof(address));
	.loc 1 118 9
	leaq	-32(%rbp), %rcx	#, tmp88
	movl	-52(%rbp), %eax	# s, tmp89
	movl	$16, %edx	#,
	movq	%rcx, %rsi	# tmp88,
	movl	%eax, %edi	# tmp89,
	call	bind@PLT	#
	movl	%eax, -36(%rbp)	# tmp90, v
# i_net.c:119:     if (v == -1)
	.loc 1 119 8
	cmpl	$-1, -36(%rbp)	#, v
	jne	.L7	#,
# i_net.c:120: 	I_Error ("BindToPort: bind: %s", strerror(errno));
	.loc 1 120 44
	call	__errno_location@PLT	#
# i_net.c:120: 	I_Error ("BindToPort: bind: %s", strerror(errno));
	.loc 1 120 2 discriminator 1
	movl	(%rax), %eax	# *_2, _3
	movl	%eax, %edi	# _3,
	call	strerror@PLT	#
# i_net.c:120: 	I_Error ("BindToPort: bind: %s", strerror(errno));
	.loc 1 120 2 is_stmt 0 discriminator 2
	movq	%rax, %rsi	# _4,
	leaq	.LC1(%rip), %rax	#, tmp91
	movq	%rax, %rdi	# tmp91,
	movl	$0, %eax	#,
	call	I_Error@PLT	#
.L7:
# i_net.c:121: }
	.loc 1 121 1 is_stmt 1
	nop	
	movq	-8(%rbp), %rax	# D.8238, tmp93
	subq	%fs:40, %rax	# MEM[(<address-space-1> long unsigned int *)40B], tmp93
	je	.L6	#,
	call	__stack_chk_fail@PLT	#
.L6:
	leave	
	.cfi_def_cfa 7, 8
	ret	
	.cfi_endproc
.LFE7:
	.size	BindToLocalPort, .-BindToLocalPort
	.globl	PacketSend
	.type	PacketSend, @function
PacketSend:
.LFB8:
	.loc 1 128 1
	.cfi_startproc
	endbr64	
	pushq	%rbp	#
	.cfi_def_cfa_offset 16
	.cfi_offset 6, -16
	movq	%rsp, %rbp	#,
	.cfi_def_cfa_register 6
	addq	$-128, %rsp	#,
# i_net.c:128: {
	.loc 1 128 1
	movq	%fs:40, %rax	# MEM[(<address-space-1> long unsigned int *)40B], tmp179
	movq	%rax, -8(%rbp)	# tmp179, D.8241
	xorl	%eax, %eax	# tmp179
# i_net.c:133:     sw.checksum = htonl(netbuffer->checksum);
	.loc 1 133 19
	movq	netbuffer(%rip), %rax	# netbuffer, netbuffer.0_1
	movl	(%rax), %eax	# netbuffer.0_1->checksum, _2
	sall	$24, %eax	#, _2
	movl	%eax, %edx	# _2, _3
	movq	netbuffer(%rip), %rax	# netbuffer, netbuffer.1_4
	movl	(%rax), %eax	# netbuffer.1_4->checksum, _5
	sall	$8, %eax	#, _6
	andl	$16711680, %eax	#, _7
	orl	%eax, %edx	# _7, _8
	movq	netbuffer(%rip), %rax	# netbuffer, netbuffer.2_9
	movl	(%rax), %eax	# netbuffer.2_9->checksum, _10
	movl	%eax, %eax	# _10, _11
	shrq	$8, %rax	#, _12
	andl	$65280, %eax	#, _14
	orl	%eax, %edx	# _14, _15
	movq	netbuffer(%rip), %rax	# netbuffer, netbuffer.3_16
	movl	(%rax), %eax	# netbuffer.3_16->checksum, _17
	shrl	$24, %eax	#, _18
	orl	%edx, %eax	# _15, _19
# i_net.c:133:     sw.checksum = htonl(netbuffer->checksum);
	.loc 1 133 17
	movl	%eax, -112(%rbp)	# _19, sw.checksum
# i_net.c:134:     sw.player = netbuffer->player;
	.loc 1 134 26
	movq	netbuffer(%rip), %rax	# netbuffer, netbuffer.4_20
	movzbl	6(%rax), %eax	# netbuffer.4_20->player, _21
# i_net.c:134:     sw.player = netbuffer->player;
	.loc 1 134 15
	movb	%al, -106(%rbp)	# _21, sw.player
# i_net.c:135:     sw.retransmitfrom = netbuffer->retransmitfrom;
	.loc 1 135 34
	movq	netbuffer(%rip), %rax	# netbuffer, netbuffer.5_22
	movzbl	4(%rax), %eax	# netbuffer.5_22->retransmitfrom, _23
# i_net.c:135:     sw.retransmitfrom = netbuffer->retransmitfrom;
	.loc 1 135 23
	movb	%al, -108(%rbp)	# _23, sw.retransmitfrom
# i_net.c:136:     sw.starttic = netbuffer->starttic;
	.loc 1 136 28
	movq	netbuffer(%rip), %rax	# netbuffer, netbuffer.6_24
	movzbl	5(%rax), %eax	# netbuffer.6_24->starttic, _25
# i_net.c:136:     sw.starttic = netbuffer->starttic;
	.loc 1 136 17
	movb	%al, -107(%rbp)	# _25, sw.starttic
# i_net.c:137:     sw.numtics = netbuffer->numtics;
	.loc 1 137 27
	movq	netbuffer(%rip), %rax	# netbuffer, netbuffer.7_26
	movzbl	7(%rax), %eax	# netbuffer.7_26->numtics, _27
# i_net.c:137:     sw.numtics = netbuffer->numtics;
	.loc 1 137 16
	movb	%al, -105(%rbp)	# _27, sw.numtics
# i_net.c:138:     for (c=0 ; c< netbuffer->numtics ; c++)
	.loc 1 138 11
	movl	$0, -116(%rbp)	#, c
# i_net.c:138:     for (c=0 ; c< netbuffer->numtics ; c++)
	.loc 1 138 5
	jmp	.L9	#
.L10:
# i_net.c:140: 	sw.cmds[c].forwardmove = netbuffer->cmds[c].forwardmove;
	.loc 1 140 36
	movq	netbuffer(%rip), %rax	# netbuffer, netbuffer.8_28
# i_net.c:140: 	sw.cmds[c].forwardmove = netbuffer->cmds[c].forwardmove;
	.loc 1 140 45
	movl	-116(%rbp), %edx	# c, tmp148
	movslq	%edx, %rdx	# tmp148, tmp147
	movzbl	8(%rax,%rdx,8), %edx	# netbuffer.8_28->cmds[c_66].forwardmove, _29
# i_net.c:140: 	sw.cmds[c].forwardmove = netbuffer->cmds[c].forwardmove;
	.loc 1 140 25
	movl	-116(%rbp), %eax	# c, tmp150
	cltq
	movb	%dl, -104(%rbp,%rax,8)	# _29, sw.cmds[c_66].forwardmove
# i_net.c:141: 	sw.cmds[c].sidemove = netbuffer->cmds[c].sidemove;
	.loc 1 141 33
	movq	netbuffer(%rip), %rax	# netbuffer, netbuffer.9_30
# i_net.c:141: 	sw.cmds[c].sidemove = netbuffer->cmds[c].sidemove;
	.loc 1 141 42
	movl	-116(%rbp), %edx	# c, tmp152
	movslq	%edx, %rdx	# tmp152, tmp151
	movzbl	9(%rax,%rdx,8), %edx	# netbuffer.9_30->cmds[c_66].sidemove, _31
# i_net.c:141: 	sw.cmds[c].sidemove = netbuffer->cmds[c].sidemove;
	.loc 1 141 22
	movl	-116(%rbp), %eax	# c, tmp154
	cltq
	movb	%dl, -103(%rbp,%rax,8)	# _31, sw.cmds[c_66].sidemove
# i_net.c:142: 	sw.cmds[c].angleturn = htons(netbuffer->cmds[c].angleturn);
	.loc 1 142 25
	movq	netbuffer(%rip), %rax	# netbuffer, netbuffer.10_32
	movl	-116(%rbp), %edx	# c, tmp156
	movslq	%edx, %rdx	# tmp156, tmp155
	movzwl	10(%rax,%rdx,8), %eax	# netbuffer.10_32->cmds[c_66].angleturn, _33
	sall	$8, %eax	#, _33
	movl	%eax, %ecx	# _33, _34
	movq	netbuffer(%rip), %rax	# netbuffer, netbuffer.11_35
	movl	-116(%rbp), %edx	# c, tmp158
	movslq	%edx, %rdx	# tmp158, tmp157
	movzwl	10(%rax,%rdx,8), %eax	# netbuffer.11_35->cmds[c_66].angleturn, _36
	shrw	$8, %ax	#, _38
	orl	%eax, %ecx	# _39, _34
	movl	%ecx, %edx	# _34, _40
# i_net.c:142: 	sw.cmds[c].angleturn = htons(netbuffer->cmds[c].angleturn);
	.loc 1 142 23
	movl	-116(%rbp), %eax	# c, tmp160
	cltq
	movw	%dx, -102(%rbp,%rax,8)	# _40, sw.cmds[c_66].angleturn
# i_net.c:143: 	sw.cmds[c].consistancy = htons(netbuffer->cmds[c].consistancy);
	.loc 1 143 27
	movq	netbuffer(%rip), %rax	# netbuffer, netbuffer.12_41
	movl	-116(%rbp), %edx	# c, tmp162
	movslq	%edx, %rdx	# tmp162, tmp161
	movzwl	12(%rax,%rdx,8), %eax	# netbuffer.12_41->cmds[c_66].consistancy, _42
	sall	$8, %eax	#, _42
	movl	%eax, %ecx	# _42, _43
	movq	netbuffer(%rip), %rax	# netbuffer, netbuffer.13_44
	movl	-116(%rbp), %edx	# c, tmp164
	movslq	%edx, %rdx	# tmp164, tmp163
	movzwl	12(%rax,%rdx,8), %eax	# netbuffer.13_44->cmds[c_66].consistancy, _45
	shrw	$8, %ax	#, _47
	orl	%eax, %ecx	# _48, _43
	movl	%ecx, %edx	# _43, _49
# i_net.c:143: 	sw.cmds[c].consistancy = htons(netbuffer->cmds[c].consistancy);
	.loc 1 143 25
	movl	-116(%rbp), %eax	# c, tmp166
	cltq
	movw	%dx, -100(%rbp,%rax,8)	# _49, sw.cmds[c_66].consistancy
# i_net.c:144: 	sw.cmds[c].chatchar = netbuffer->cmds[c].chatchar;
	.loc 1 144 33
	movq	netbuffer(%rip), %rax	# netbuffer, netbuffer.14_50
# i_net.c:144: 	sw.cmds[c].chatchar = netbuffer->cmds[c].chatchar;
	.loc 1 144 42
	movl	-116(%rbp), %edx	# c, tmp168
	movslq	%edx, %rdx	# tmp168, tmp167
	movzbl	14(%rax,%rdx,8), %edx	# netbuffer.14_50->cmds[c_66].chatchar, _51
# i_net.c:144: 	sw.cmds[c].chatchar = netbuffer->cmds[c].chatchar;
	.loc 1 144 22
	movl	-116(%rbp), %eax	# c, tmp170
	cltq
	movb	%dl, -98(%rbp,%rax,8)	# _51, sw.cmds[c_66].chatchar
# i_net.c:145: 	sw.cmds[c].buttons = netbuffer->cmds[c].buttons;
	.loc 1 145 32
	movq	netbuffer(%rip), %rax	# netbuffer, netbuffer.15_52
# i_net.c:145: 	sw.cmds[c].buttons = netbuffer->cmds[c].buttons;
	.loc 1 145 41
	movl	-116(%rbp), %edx	# c, tmp172
	movslq	%edx, %rdx	# tmp172, tmp171
	movzbl	15(%rax,%rdx,8), %edx	# netbuffer.15_52->cmds[c_66].buttons, _53
# i_net.c:145: 	sw.cmds[c].buttons = netbuffer->cmds[c].buttons;
	.loc 1 145 21
	movl	-116(%rbp), %eax	# c, tmp174
	cltq
	movb	%dl, -97(%rbp,%rax,8)	# _53, sw.cmds[c_66].buttons
# i_net.c:138:     for (c=0 ; c< netbuffer->numtics ; c++)
	.loc 1 138 41 discriminator 3
	addl	$1, -116(%rbp)	#, c
.L9:
# i_net.c:138:     for (c=0 ; c< netbuffer->numtics ; c++)
	.loc 1 138 28 discriminator 1
	movq	netbuffer(%rip), %rax	# netbuffer, netbuffer.16_54
	movzbl	7(%rax), %eax	# netbuffer.16_54->numtics, _55
	movzbl	%al, %eax	# _55, _56
# i_net.c:138:     for (c=0 ; c< netbuffer->numtics ; c++)
	.loc 1 138 17 discriminator 1
	cmpl	%eax, -116(%rbp)	# _56, c
	jl	.L10	#,
# i_net.c:150: 		,0,(void *)&sendaddress[doomcom->remotenode]
	.loc 1 150 34
	movq	doomcom(%rip), %rax	# doomcom, doomcom.17_57
	movzwl	12(%rax), %eax	# doomcom.17_57->remotenode, _58
	cwtl
# i_net.c:150: 		,0,(void *)&sendaddress[doomcom->remotenode]
	.loc 1 150 14
	cltq
	salq	$4, %rax	#, tmp175
	movq	%rax, %rdx	# tmp175, tmp176
	leaq	sendaddress(%rip), %rax	#, tmp177
	leaq	(%rdx,%rax), %rcx	#, _60
# i_net.c:149:     c = sendto (sendsocket , &sw, doomcom->datalength
	.loc 1 149 42
	movq	doomcom(%rip), %rax	# doomcom, doomcom.18_61
	movzwl	14(%rax), %eax	# doomcom.18_61->datalength, _62
# i_net.c:149:     c = sendto (sendsocket , &sw, doomcom->datalength
	.loc 1 149 9
	movswq	%ax, %rdx	# _62, _63
	movl	sendsocket(%rip), %eax	# sendsocket, sendsocket.19_64
	leaq	-112(%rbp), %rsi	#, tmp178
	movl	$16, %r9d	#,
	movq	%rcx, %r8	# _60,
	movl	$0, %ecx	#,
	movl	%eax, %edi	# sendsocket.19_64,
	call	sendto@PLT	#
# i_net.c:149:     c = sendto (sendsocket , &sw, doomcom->datalength
	.loc 1 149 7 discriminator 1
	movl	%eax, -116(%rbp)	# _65, c
# i_net.c:155: }
	.loc 1 155 1
	nop	
	movq	-8(%rbp), %rax	# D.8241, tmp180
	subq	%fs:40, %rax	# MEM[(<address-space-1> long unsigned int *)40B], tmp180
	je	.L11	#,
	call	__stack_chk_fail@PLT	#
.L11:
	leave	
	.cfi_def_cfa 7, 8
	ret	
	.cfi_endproc
.LFE8:
	.size	PacketSend, .-PacketSend
	.section	.rodata
.LC2:
	.string	"GetPacket: %s"
.LC3:
	.string	"len=%d:p=[0x%x 0x%x] \n"
	.text
	.globl	PacketGet
	.type	PacketGet, @function
PacketGet:
.LFB9:
	.loc 1 162 1
	.cfi_startproc
	endbr64	
	pushq	%rbp	#
	.cfi_def_cfa_offset 16
	.cfi_offset 6, -16
	movq	%rsp, %rbp	#,
	.cfi_def_cfa_register 6
	subq	$144, %rsp	#,
# i_net.c:162: {
	.loc 1 162 1
	movq	%fs:40, %rax	# MEM[(<address-space-1> long unsigned int *)40B], tmp199
	movq	%rax, -8(%rbp)	# tmp199, D.8242
	xorl	%eax, %eax	# tmp199
# i_net.c:169:     fromlen = sizeof(fromaddress);
	.loc 1 169 13
	movl	$16, -140(%rbp)	#, fromlen
# i_net.c:170:     c = recvfrom (insocket, &sw, sizeof(sw), 0
	.loc 1 170 9
	movl	insocket(%rip), %eax	# insocket, insocket.20_1
	leaq	-140(%rbp), %rcx	#, tmp159
	leaq	-128(%rbp), %rdx	#, tmp160
	leaq	-112(%rbp), %rsi	#, tmp161
	movq	%rcx, %r9	# tmp159,
	movq	%rdx, %r8	# tmp160,
	movl	$0, %ecx	#,
	movl	$104, %edx	#,
	movl	%eax, %edi	# insocket.20_1,
	call	recvfrom@PLT	#
# i_net.c:170:     c = recvfrom (insocket, &sw, sizeof(sw), 0
	.loc 1 170 7 discriminator 1
	movl	%eax, -132(%rbp)	# _2, c
# i_net.c:172:     if (c == -1 )
	.loc 1 172 8
	cmpl	$-1, -132(%rbp)	#, c
	jne	.L13	#,
# i_net.c:174: 	if (errno != EWOULDBLOCK)
	.loc 1 174 6
	call	__errno_location@PLT	#
# i_net.c:174: 	if (errno != EWOULDBLOCK)
	.loc 1 174 6 is_stmt 0 discriminator 1
	movl	(%rax), %eax	# *_3, _4
# i_net.c:174: 	if (errno != EWOULDBLOCK)
	.loc 1 174 5 is_stmt 1 discriminator 1
	cmpl	$11, %eax	#, _4
	je	.L14	#,
# i_net.c:175: 	    I_Error ("GetPacket: %s",strerror(errno));
	.loc 1 175 40
	call	__errno_location@PLT	#
# i_net.c:175: 	    I_Error ("GetPacket: %s",strerror(errno));
	.loc 1 175 6 discriminator 1
	movl	(%rax), %eax	# *_5, _6
	movl	%eax, %edi	# _6,
	call	strerror@PLT	#
# i_net.c:175: 	    I_Error ("GetPacket: %s",strerror(errno));
	.loc 1 175 6 is_stmt 0 discriminator 2
	movq	%rax, %rsi	# _7,
	leaq	.LC2(%rip), %rax	#, tmp162
	movq	%rax, %rdi	# tmp162,
	movl	$0, %eax	#,
	call	I_Error@PLT	#
.L14:
# i_net.c:176: 	doomcom->remotenode = -1;		// no packet
	.loc 1 176 9 is_stmt 1
	movq	doomcom(%rip), %rax	# doomcom, doomcom.21_8
# i_net.c:176: 	doomcom->remotenode = -1;		// no packet
	.loc 1 176 22
	movw	$-1, 12(%rax)	#, doomcom.21_8->remotenode
# i_net.c:177: 	return;
	.loc 1 177 2
	jmp	.L12	#
.L13:
.LBB2:
# i_net.c:182: 	if (first)
	.loc 1 182 6
	movl	first.0(%rip), %eax	# first, first.22_9
# i_net.c:182: 	if (first)
	.loc 1 182 5
	testl	%eax, %eax	# first.22_9
	je	.L16	#,
# i_net.c:183: 	    printf("len=%d:p=[0x%x 0x%x] \n", c, *(int*)&sw, *((int*)&sw+1));
	.loc 1 183 66
	leaq	-112(%rbp), %rax	#, _10
	addq	$4, %rax	#, _10
# i_net.c:183: 	    printf("len=%d:p=[0x%x 0x%x] \n", c, *(int*)&sw, *((int*)&sw+1));
	.loc 1 183 6
	movl	(%rax), %ecx	# *_10, _11
# i_net.c:183: 	    printf("len=%d:p=[0x%x 0x%x] \n", c, *(int*)&sw, *((int*)&sw+1));
	.loc 1 183 50
	leaq	-112(%rbp), %rax	#, sw.23_12
# i_net.c:183: 	    printf("len=%d:p=[0x%x 0x%x] \n", c, *(int*)&sw, *((int*)&sw+1));
	.loc 1 183 6
	movl	(%rax), %edx	# MEM[(int *)sw.23_12], _13
	movl	-132(%rbp), %eax	# c, tmp163
	movl	%eax, %esi	# tmp163,
	leaq	.LC3(%rip), %rax	#, tmp164
	movq	%rax, %rdi	# tmp164,
	movl	$0, %eax	#,
	call	printf@PLT	#
.L16:
# i_net.c:184: 	first = 0;
	.loc 1 184 8
	movl	$0, first.0(%rip)	#, first
.LBE2:
# i_net.c:188:     for (i=0 ; i<doomcom->numnodes ; i++)
	.loc 1 188 11
	movl	$0, -136(%rbp)	#, i
# i_net.c:188:     for (i=0 ; i<doomcom->numnodes ; i++)
	.loc 1 188 5
	jmp	.L17	#
.L20:
# i_net.c:189: 	if ( fromaddress.sin_addr.s_addr == sendaddress[i].sin_addr.s_addr )
	.loc 1 189 27
	movl	-124(%rbp), %edx	# fromaddress.sin_addr.s_addr, _14
# i_net.c:189: 	if ( fromaddress.sin_addr.s_addr == sendaddress[i].sin_addr.s_addr )
	.loc 1 189 61
	movl	-136(%rbp), %eax	# i, tmp166
	cltq
	salq	$4, %rax	#, tmp165
	movq	%rax, %rcx	# tmp165, tmp167
	leaq	4+sendaddress(%rip), %rax	#, tmp168
	movl	(%rcx,%rax), %eax	# sendaddress[i_78].sin_addr.s_addr, _15
# i_net.c:189: 	if ( fromaddress.sin_addr.s_addr == sendaddress[i].sin_addr.s_addr )
	.loc 1 189 5
	cmpl	%eax, %edx	# _15, _14
	je	.L26	#,
# i_net.c:188:     for (i=0 ; i<doomcom->numnodes ; i++)
	.loc 1 188 39 discriminator 2
	addl	$1, -136(%rbp)	#, i
.L17:
# i_net.c:188:     for (i=0 ; i<doomcom->numnodes ; i++)
	.loc 1 188 25 discriminator 1
	movq	doomcom(%rip), %rax	# doomcom, doomcom.24_16
	movzwl	16(%rax), %eax	# doomcom.24_16->numnodes, _17
	cwtl
# i_net.c:188:     for (i=0 ; i<doomcom->numnodes ; i++)
	.loc 1 188 17 discriminator 1
	cmpl	%eax, -136(%rbp)	# _18, i
	jl	.L20	#,
	jmp	.L19	#
.L26:
# i_net.c:190: 	    break;
	.loc 1 190 6
	nop	
.L19:
# i_net.c:192:     if (i == doomcom->numnodes)
	.loc 1 192 21
	movq	doomcom(%rip), %rax	# doomcom, doomcom.25_19
	movzwl	16(%rax), %eax	# doomcom.25_19->numnodes, _20
	cwtl
# i_net.c:192:     if (i == doomcom->numnodes)
	.loc 1 192 8
	cmpl	%eax, -136(%rbp)	# _21, i
	jne	.L21	#,
# i_net.c:195: 	doomcom->remotenode = -1;		// no packet
	.loc 1 195 9
	movq	doomcom(%rip), %rax	# doomcom, doomcom.26_22
# i_net.c:195: 	doomcom->remotenode = -1;		// no packet
	.loc 1 195 22
	movw	$-1, 12(%rax)	#, doomcom.26_22->remotenode
# i_net.c:196: 	return;
	.loc 1 196 2
	jmp	.L12	#
.L21:
# i_net.c:199:     doomcom->remotenode = i;			// good packet from a game player
	.loc 1 199 12
	movq	doomcom(%rip), %rax	# doomcom, doomcom.27_23
# i_net.c:199:     doomcom->remotenode = i;			// good packet from a game player
	.loc 1 199 25
	movl	-136(%rbp), %edx	# i, tmp169
	movw	%dx, 12(%rax)	# _24, doomcom.27_23->remotenode
# i_net.c:200:     doomcom->datalength = c;
	.loc 1 200 12
	movq	doomcom(%rip), %rax	# doomcom, doomcom.28_25
# i_net.c:200:     doomcom->datalength = c;
	.loc 1 200 25
	movl	-132(%rbp), %edx	# c, tmp170
	movw	%dx, 14(%rax)	# _26, doomcom.28_25->datalength
# i_net.c:203:     netbuffer->checksum = ntohl(sw.checksum);
	.loc 1 203 27
	movl	-112(%rbp), %eax	# sw.checksum, _27
	sall	$24, %eax	#, _27
	movl	%eax, %edx	# _27, _28
	movl	-112(%rbp), %eax	# sw.checksum, _29
	sall	$8, %eax	#, _30
	andl	$16711680, %eax	#, _31
	orl	%eax, %edx	# _31, _32
	movl	-112(%rbp), %eax	# sw.checksum, _33
	movl	%eax, %eax	# _33, _34
	shrq	$8, %rax	#, _35
	andl	$65280, %eax	#, _37
	movl	%edx, %ecx	# _32, _32
	orl	%eax, %ecx	# _37, _32
	movl	-112(%rbp), %eax	# sw.checksum, _39
	shrl	$24, %eax	#, _39
	movl	%eax, %edx	# _39, _40
# i_net.c:203:     netbuffer->checksum = ntohl(sw.checksum);
	.loc 1 203 14
	movq	netbuffer(%rip), %rax	# netbuffer, netbuffer.29_41
# i_net.c:203:     netbuffer->checksum = ntohl(sw.checksum);
	.loc 1 203 27
	orl	%ecx, %edx	# _38, _42
# i_net.c:203:     netbuffer->checksum = ntohl(sw.checksum);
	.loc 1 203 25
	movl	%edx, (%rax)	# _42, netbuffer.29_41->checksum
# i_net.c:204:     netbuffer->player = sw.player;
	.loc 1 204 14
	movq	netbuffer(%rip), %rax	# netbuffer, netbuffer.30_43
# i_net.c:204:     netbuffer->player = sw.player;
	.loc 1 204 27
	movzbl	-106(%rbp), %edx	# sw.player, _44
# i_net.c:204:     netbuffer->player = sw.player;
	.loc 1 204 23
	movb	%dl, 6(%rax)	# _44, netbuffer.30_43->player
# i_net.c:205:     netbuffer->retransmitfrom = sw.retransmitfrom;
	.loc 1 205 14
	movq	netbuffer(%rip), %rax	# netbuffer, netbuffer.31_45
# i_net.c:205:     netbuffer->retransmitfrom = sw.retransmitfrom;
	.loc 1 205 35
	movzbl	-108(%rbp), %edx	# sw.retransmitfrom, _46
# i_net.c:205:     netbuffer->retransmitfrom = sw.retransmitfrom;
	.loc 1 205 31
	movb	%dl, 4(%rax)	# _46, netbuffer.31_45->retransmitfrom
# i_net.c:206:     netbuffer->starttic = sw.starttic;
	.loc 1 206 14
	movq	netbuffer(%rip), %rax	# netbuffer, netbuffer.32_47
# i_net.c:206:     netbuffer->starttic = sw.starttic;
	.loc 1 206 29
	movzbl	-107(%rbp), %edx	# sw.starttic, _48
# i_net.c:206:     netbuffer->starttic = sw.starttic;
	.loc 1 206 25
	movb	%dl, 5(%rax)	# _48, netbuffer.32_47->starttic
# i_net.c:207:     netbuffer->numtics = sw.numtics;
	.loc 1 207 14
	movq	netbuffer(%rip), %rax	# netbuffer, netbuffer.33_49
# i_net.c:207:     netbuffer->numtics = sw.numtics;
	.loc 1 207 28
	movzbl	-105(%rbp), %edx	# sw.numtics, _50
# i_net.c:207:     netbuffer->numtics = sw.numtics;
	.loc 1 207 24
	movb	%dl, 7(%rax)	# _50, netbuffer.33_49->numtics
# i_net.c:209:     for (c=0 ; c< netbuffer->numtics ; c++)
	.loc 1 209 11
	movl	$0, -132(%rbp)	#, c
# i_net.c:209:     for (c=0 ; c< netbuffer->numtics ; c++)
	.loc 1 209 5
	jmp	.L22	#
.L23:
# i_net.c:211: 	netbuffer->cmds[c].forwardmove = sw.cmds[c].forwardmove;
	.loc 1 211 11
	movq	netbuffer(%rip), %rax	# netbuffer, netbuffer.34_51
# i_net.c:211: 	netbuffer->cmds[c].forwardmove = sw.cmds[c].forwardmove;
	.loc 1 211 45
	movl	-132(%rbp), %edx	# c, tmp172
	movslq	%edx, %rdx	# tmp172, tmp171
	movzbl	-104(%rbp,%rdx,8), %ecx	# sw.cmds[c_79].forwardmove, _52
# i_net.c:211: 	netbuffer->cmds[c].forwardmove = sw.cmds[c].forwardmove;
	.loc 1 211 33
	movl	-132(%rbp), %edx	# c, tmp174
	movslq	%edx, %rdx	# tmp174, tmp173
	movb	%cl, 8(%rax,%rdx,8)	# _52, netbuffer.34_51->cmds[c_79].forwardmove
# i_net.c:212: 	netbuffer->cmds[c].sidemove = sw.cmds[c].sidemove;
	.loc 1 212 11
	movq	netbuffer(%rip), %rax	# netbuffer, netbuffer.35_53
# i_net.c:212: 	netbuffer->cmds[c].sidemove = sw.cmds[c].sidemove;
	.loc 1 212 42
	movl	-132(%rbp), %edx	# c, tmp176
	movslq	%edx, %rdx	# tmp176, tmp175
	movzbl	-103(%rbp,%rdx,8), %ecx	# sw.cmds[c_79].sidemove, _54
# i_net.c:212: 	netbuffer->cmds[c].sidemove = sw.cmds[c].sidemove;
	.loc 1 212 30
	movl	-132(%rbp), %edx	# c, tmp178
	movslq	%edx, %rdx	# tmp178, tmp177
	movb	%cl, 9(%rax,%rdx,8)	# _54, netbuffer.35_53->cmds[c_79].sidemove
# i_net.c:213: 	netbuffer->cmds[c].angleturn = ntohs(sw.cmds[c].angleturn);
	.loc 1 213 33
	movl	-132(%rbp), %eax	# c, tmp180
	cltq
	movzwl	-102(%rbp,%rax,8), %eax	# sw.cmds[c_79].angleturn, _55
	sall	$8, %eax	#, _55
	movl	%eax, %edx	# _55, _56
	movl	-132(%rbp), %eax	# c, tmp182
	cltq
	movzwl	-102(%rbp,%rax,8), %eax	# sw.cmds[c_79].angleturn, _57
	shrw	$8, %ax	#, _59
	movl	%eax, %ecx	# _59, _60
# i_net.c:213: 	netbuffer->cmds[c].angleturn = ntohs(sw.cmds[c].angleturn);
	.loc 1 213 11
	movq	netbuffer(%rip), %rax	# netbuffer, netbuffer.36_61
# i_net.c:213: 	netbuffer->cmds[c].angleturn = ntohs(sw.cmds[c].angleturn);
	.loc 1 213 33
	orl	%edx, %ecx	# _56, _62
# i_net.c:213: 	netbuffer->cmds[c].angleturn = ntohs(sw.cmds[c].angleturn);
	.loc 1 213 31
	movl	-132(%rbp), %edx	# c, tmp184
	movslq	%edx, %rdx	# tmp184, tmp183
	movw	%cx, 10(%rax,%rdx,8)	# _62, netbuffer.36_61->cmds[c_79].angleturn
# i_net.c:214: 	netbuffer->cmds[c].consistancy = ntohs(sw.cmds[c].consistancy);
	.loc 1 214 35
	movl	-132(%rbp), %eax	# c, tmp186
	cltq
	movzwl	-100(%rbp,%rax,8), %eax	# sw.cmds[c_79].consistancy, _63
	sall	$8, %eax	#, _63
	movl	%eax, %edx	# _63, _64
	movl	-132(%rbp), %eax	# c, tmp188
	cltq
	movzwl	-100(%rbp,%rax,8), %eax	# sw.cmds[c_79].consistancy, _65
	shrw	$8, %ax	#, _67
	movl	%eax, %ecx	# _67, _68
# i_net.c:214: 	netbuffer->cmds[c].consistancy = ntohs(sw.cmds[c].consistancy);
	.loc 1 214 11
	movq	netbuffer(%rip), %rax	# netbuffer, netbuffer.37_69
# i_net.c:214: 	netbuffer->cmds[c].consistancy = ntohs(sw.cmds[c].consistancy);
	.loc 1 214 35
	orl	%edx, %ecx	# _64, _70
# i_net.c:214: 	netbuffer->cmds[c].consistancy = ntohs(sw.cmds[c].consistancy);
	.loc 1 214 33
	movl	-132(%rbp), %edx	# c, tmp190
	movslq	%edx, %rdx	# tmp190, tmp189
	movw	%cx, 12(%rax,%rdx,8)	# _70, netbuffer.37_69->cmds[c_79].consistancy
# i_net.c:215: 	netbuffer->cmds[c].chatchar = sw.cmds[c].chatchar;
	.loc 1 215 11
	movq	netbuffer(%rip), %rax	# netbuffer, netbuffer.38_71
# i_net.c:215: 	netbuffer->cmds[c].chatchar = sw.cmds[c].chatchar;
	.loc 1 215 42
	movl	-132(%rbp), %edx	# c, tmp192
	movslq	%edx, %rdx	# tmp192, tmp191
	movzbl	-98(%rbp,%rdx,8), %ecx	# sw.cmds[c_79].chatchar, _72
# i_net.c:215: 	netbuffer->cmds[c].chatchar = sw.cmds[c].chatchar;
	.loc 1 215 30
	movl	-132(%rbp), %edx	# c, tmp194
	movslq	%edx, %rdx	# tmp194, tmp193
	movb	%cl, 14(%rax,%rdx,8)	# _72, netbuffer.38_71->cmds[c_79].chatchar
# i_net.c:216: 	netbuffer->cmds[c].buttons = sw.cmds[c].buttons;
	.loc 1 216 11
	movq	netbuffer(%rip), %rax	# netbuffer, netbuffer.39_73
# i_net.c:216: 	netbuffer->cmds[c].buttons = sw.cmds[c].buttons;
	.loc 1 216 41
	movl	-132(%rbp), %edx	# c, tmp196
	movslq	%edx, %rdx	# tmp196, tmp195
	movzbl	-97(%rbp,%rdx,8), %ecx	# sw.cmds[c_79].buttons, _74
# i_net.c:216: 	netbuffer->cmds[c].buttons = sw.cmds[c].buttons;
	.loc 1 216 29
	movl	-132(%rbp), %edx	# c, tmp198
	movslq	%edx, %rdx	# tmp198, tmp197
	movb	%cl, 15(%rax,%rdx,8)	# _74, netbuffer.39_73->cmds[c_79].buttons
# i_net.c:209:     for (c=0 ; c< netbuffer->numtics ; c++)
	.loc 1 209 41 discriminator 3
	addl	$1, -132(%rbp)	#, c
.L22:
# i_net.c:209:     for (c=0 ; c< netbuffer->numtics ; c++)
	.loc 1 209 28 discriminator 1
	movq	netbuffer(%rip), %rax	# netbuffer, netbuffer.40_75
	movzbl	7(%rax), %eax	# netbuffer.40_75->numtics, _76
	movzbl	%al, %eax	# _76, _77
# i_net.c:209:     for (c=0 ; c< netbuffer->numtics ; c++)
	.loc 1 209 17 discriminator 1
	cmpl	%eax, -132(%rbp)	# _77, c
	jl	.L23	#,
.L12:
# i_net.c:218: }
	.loc 1 218 1
	movq	-8(%rbp), %rax	# D.8242, tmp200
	subq	%fs:40, %rax	# MEM[(<address-space-1> long unsigned int *)40B], tmp200
	je	.L25	#,
	call	__stack_chk_fail@PLT	#
.L25:
	leave	
	.cfi_def_cfa 7, 8
	ret	
	.cfi_endproc
.LFE9:
	.size	PacketGet, .-PacketGet
	.section	.rodata
	.align 8
.LC4:
	.string	"GetLocalAddress : gethostname: errno %d"
	.align 8
.LC5:
	.string	"GetLocalAddress : gethostbyname: couldn't get local host"
	.text
	.globl	GetLocalAddress
	.type	GetLocalAddress, @function
GetLocalAddress:
.LFB10:
	.loc 1 223 1
	.cfi_startproc
	endbr64	
	pushq	%rbp	#
	.cfi_def_cfa_offset 16
	.cfi_offset 6, -16
	movq	%rsp, %rbp	#,
	.cfi_def_cfa_register 6
	subq	$1056, %rsp	#,
# i_net.c:223: {
	.loc 1 223 1
	movq	%fs:40, %rax	# MEM[(<address-space-1> long unsigned int *)40B], tmp96
	movq	%rax, -8(%rbp)	# tmp96, D.8245
	xorl	%eax, %eax	# tmp96
# i_net.c:229:     v = gethostname (hostname, sizeof(hostname));
	.loc 1 229 9
	leaq	-1040(%rbp), %rax	#, tmp88
	movl	$1024, %esi	#,
	movq	%rax, %rdi	# tmp88,
	call	gethostname@PLT	#
	movl	%eax, -1052(%rbp)	# tmp89, v
# i_net.c:230:     if (v == -1)
	.loc 1 230 8
	cmpl	$-1, -1052(%rbp)	#, v
	jne	.L28	#,
# i_net.c:231: 	I_Error ("GetLocalAddress : gethostname: errno %d",errno);
	.loc 1 231 53
	call	__errno_location@PLT	#
# i_net.c:231: 	I_Error ("GetLocalAddress : gethostname: errno %d",errno);
	.loc 1 231 2 discriminator 1
	movl	(%rax), %eax	# *_1, _2
	movl	%eax, %esi	# _2,
	leaq	.LC4(%rip), %rax	#, tmp90
	movq	%rax, %rdi	# tmp90,
	movl	$0, %eax	#,
	call	I_Error@PLT	#
.L28:
# i_net.c:233:     hostentry = gethostbyname (hostname);
	.loc 1 233 17
	leaq	-1040(%rbp), %rax	#, tmp91
	movq	%rax, %rdi	# tmp91,
	call	gethostbyname@PLT	#
	movq	%rax, -1048(%rbp)	# tmp92, hostentry
# i_net.c:234:     if (!hostentry)
	.loc 1 234 8
	cmpq	$0, -1048(%rbp)	#, hostentry
	jne	.L29	#,
# i_net.c:235: 	I_Error ("GetLocalAddress : gethostbyname: couldn't get local host");
	.loc 1 235 2
	leaq	.LC5(%rip), %rax	#, tmp93
	movq	%rax, %rdi	# tmp93,
	movl	$0, %eax	#,
	call	I_Error@PLT	#
.L29:
# i_net.c:237:     return *(int *)hostentry->h_addr_list[0];
	.loc 1 237 29
	movq	-1048(%rbp), %rax	# hostentry, tmp94
	movq	24(%rax), %rax	# hostentry_12->h_addr_list, _3
# i_net.c:237:     return *(int *)hostentry->h_addr_list[0];
	.loc 1 237 13
	movq	(%rax), %rax	# *_3, _4
# i_net.c:237:     return *(int *)hostentry->h_addr_list[0];
	.loc 1 237 12
	movl	(%rax), %eax	# MEM[(int *)_4], _14
# i_net.c:238: }
	.loc 1 238 1
	movq	-8(%rbp), %rdx	# D.8245, tmp97
	subq	%fs:40, %rdx	# MEM[(<address-space-1> long unsigned int *)40B], tmp97
	je	.L31	#,
	call	__stack_chk_fail@PLT	#
.L31:
	leave	
	.cfi_def_cfa 7, 8
	ret	
	.cfi_endproc
.LFE10:
	.size	GetLocalAddress, .-GetLocalAddress
	.section	.rodata
.LC6:
	.string	"-dup"
.LC7:
	.string	"-extratic"
.LC8:
	.string	"-port"
.LC9:
	.string	"using alternate port %i\n"
.LC10:
	.string	"-net"
	.align 8
.LC11:
	.string	"gethostbyname: couldn't find %s"
	.text
	.globl	I_InitNetwork
	.type	I_InitNetwork, @function
I_InitNetwork:
.LFB11:
	.loc 1 245 1
	.cfi_startproc
	endbr64	
	pushq	%rbp	#
	.cfi_def_cfa_offset 16
	.cfi_offset 6, -16
	movq	%rsp, %rbp	#,
	.cfi_def_cfa_register 6
	pushq	%rbx	#
	subq	$40, %rsp	#,
	.cfi_offset 3, -24
# i_net.c:245: {
	.loc 1 245 1
	movq	%fs:40, %rax	# MEM[(<address-space-1> long unsigned int *)40B], tmp248
	movq	%rax, -24(%rbp)	# tmp248, D.8248
	xorl	%eax, %eax	# tmp248
# i_net.c:246:     boolean		trueval = true;
	.loc 1 246 14
	movl	$1, -44(%rbp)	#, trueval
# i_net.c:251:     doomcom = malloc (sizeof (*doomcom) );
	.loc 1 251 15
	movl	$144, %edi	#,
	call	malloc@PLT	#
# i_net.c:251:     doomcom = malloc (sizeof (*doomcom) );
	.loc 1 251 13 discriminator 1
	movq	%rax, doomcom(%rip)	# _1, doomcom
# i_net.c:252:     memset (doomcom, 0, sizeof(*doomcom) );
	.loc 1 252 5
	movq	doomcom(%rip), %rax	# doomcom, doomcom.41_2
	movl	$144, %edx	#,
	movl	$0, %esi	#,
	movq	%rax, %rdi	# doomcom.41_2,
	call	memset@PLT	#
# i_net.c:255:     i = M_CheckParm ("-dup");
	.loc 1 255 9
	leaq	.LC6(%rip), %rax	#, tmp214
	movq	%rax, %rdi	# tmp214,
	call	M_CheckParm@PLT	#
	movl	%eax, -40(%rbp)	# tmp215, i
# i_net.c:256:     if (i && i< myargc-1)
	.loc 1 256 8
	cmpl	$0, -40(%rbp)	#, i
	je	.L33	#,
# i_net.c:256:     if (i && i< myargc-1)
	.loc 1 256 23 discriminator 1
	movl	myargc(%rip), %eax	# myargc, myargc.42_3
	subl	$1, %eax	#, _4
# i_net.c:256:     if (i && i< myargc-1)
	.loc 1 256 11 discriminator 1
	cmpl	%eax, -40(%rbp)	# _4, i
	jge	.L33	#,
# i_net.c:258: 	doomcom->ticdup = myargv[i+1][0]-'0';
	.loc 1 258 26
	movq	myargv(%rip), %rax	# myargv, myargv.43_5
	movl	-40(%rbp), %edx	# i, tmp216
	movslq	%edx, %rdx	# tmp216, _6
	addq	$1, %rdx	#, _7
	salq	$3, %rdx	#, _8
	addq	%rdx, %rax	# _8, _9
	movq	(%rax), %rax	# *_9, _10
# i_net.c:258: 	doomcom->ticdup = myargv[i+1][0]-'0';
	.loc 1 258 31
	movzbl	(%rax), %eax	# *_10, _11
	cbtw
# i_net.c:258: 	doomcom->ticdup = myargv[i+1][0]-'0';
	.loc 1 258 34
	leal	-48(%rax), %edx	#, _13
# i_net.c:258: 	doomcom->ticdup = myargv[i+1][0]-'0';
	.loc 1 258 9
	movq	doomcom(%rip), %rax	# doomcom, doomcom.44_14
# i_net.c:258: 	doomcom->ticdup = myargv[i+1][0]-'0';
	.loc 1 258 18
	movw	%dx, 18(%rax)	# _15, doomcom.44_14->ticdup
# i_net.c:259: 	if (doomcom->ticdup < 1)
	.loc 1 259 13
	movq	doomcom(%rip), %rax	# doomcom, doomcom.45_16
	movzwl	18(%rax), %eax	# doomcom.45_16->ticdup, _17
# i_net.c:259: 	if (doomcom->ticdup < 1)
	.loc 1 259 5
	testw	%ax, %ax	# _17
	jg	.L34	#,
# i_net.c:260: 	    doomcom->ticdup = 1;
	.loc 1 260 13
	movq	doomcom(%rip), %rax	# doomcom, doomcom.46_18
# i_net.c:260: 	    doomcom->ticdup = 1;
	.loc 1 260 22
	movw	$1, 18(%rax)	#, doomcom.46_18->ticdup
.L34:
# i_net.c:261: 	if (doomcom->ticdup > 9)
	.loc 1 261 13
	movq	doomcom(%rip), %rax	# doomcom, doomcom.47_19
	movzwl	18(%rax), %eax	# doomcom.47_19->ticdup, _20
# i_net.c:261: 	if (doomcom->ticdup > 9)
	.loc 1 261 5
	cmpw	$9, %ax	#, _20
	jle	.L36	#,
# i_net.c:262: 	    doomcom->ticdup = 9;
	.loc 1 262 13
	movq	doomcom(%rip), %rax	# doomcom, doomcom.48_21
# i_net.c:262: 	    doomcom->ticdup = 9;
	.loc 1 262 22
	movw	$9, 18(%rax)	#, doomcom.48_21->ticdup
# i_net.c:261: 	if (doomcom->ticdup > 9)
	.loc 1 261 5
	jmp	.L36	#
.L33:
# i_net.c:265: 	doomcom-> ticdup = 1;
	.loc 1 265 9
	movq	doomcom(%rip), %rax	# doomcom, doomcom.49_22
# i_net.c:265: 	doomcom-> ticdup = 1;
	.loc 1 265 19
	movw	$1, 18(%rax)	#, doomcom.49_22->ticdup
.L36:
# i_net.c:267:     if (M_CheckParm ("-extratic"))
	.loc 1 267 9
	leaq	.LC7(%rip), %rax	#, tmp217
	movq	%rax, %rdi	# tmp217,
	call	M_CheckParm@PLT	#
# i_net.c:267:     if (M_CheckParm ("-extratic"))
	.loc 1 267 8 discriminator 1
	testl	%eax, %eax	# _23
	je	.L37	#,
# i_net.c:268: 	doomcom-> extratics = 1;
	.loc 1 268 9
	movq	doomcom(%rip), %rax	# doomcom, doomcom.50_24
# i_net.c:268: 	doomcom-> extratics = 1;
	.loc 1 268 22
	movw	$1, 20(%rax)	#, doomcom.50_24->extratics
	jmp	.L38	#
.L37:
# i_net.c:270: 	doomcom-> extratics = 0;
	.loc 1 270 9
	movq	doomcom(%rip), %rax	# doomcom, doomcom.51_25
# i_net.c:270: 	doomcom-> extratics = 0;
	.loc 1 270 22
	movw	$0, 20(%rax)	#, doomcom.51_25->extratics
.L38:
# i_net.c:272:     p = M_CheckParm ("-port");
	.loc 1 272 9
	leaq	.LC8(%rip), %rax	#, tmp218
	movq	%rax, %rdi	# tmp218,
	call	M_CheckParm@PLT	#
	movl	%eax, -36(%rbp)	# tmp219, p
# i_net.c:273:     if (p && p<myargc-1)
	.loc 1 273 8
	cmpl	$0, -36(%rbp)	#, p
	je	.L39	#,
# i_net.c:273:     if (p && p<myargc-1)
	.loc 1 273 22 discriminator 1
	movl	myargc(%rip), %eax	# myargc, myargc.52_26
	subl	$1, %eax	#, _27
# i_net.c:273:     if (p && p<myargc-1)
	.loc 1 273 11 discriminator 1
	cmpl	%eax, -36(%rbp)	# _27, p
	jge	.L39	#,
# i_net.c:275: 	DOOMPORT = atoi (myargv[p+1]);
	.loc 1 275 25
	movq	myargv(%rip), %rax	# myargv, myargv.53_28
	movl	-36(%rbp), %edx	# p, tmp220
	movslq	%edx, %rdx	# tmp220, _29
	addq	$1, %rdx	#, _30
	salq	$3, %rdx	#, _31
	addq	%rdx, %rax	# _31, _32
# i_net.c:275: 	DOOMPORT = atoi (myargv[p+1]);
	.loc 1 275 13
	movq	(%rax), %rax	# *_32, _33
	movq	%rax, %rdi	# _33,
	call	atoi@PLT	#
# i_net.c:275: 	DOOMPORT = atoi (myargv[p+1]);
	.loc 1 275 11 discriminator 1
	movl	%eax, DOOMPORT(%rip)	# _34, DOOMPORT
# i_net.c:276: 	printf ("using alternate port %i\n",DOOMPORT);
	.loc 1 276 2
	movl	DOOMPORT(%rip), %eax	# DOOMPORT, DOOMPORT.54_35
	movl	%eax, %esi	# DOOMPORT.54_35,
	leaq	.LC9(%rip), %rax	#, tmp221
	movq	%rax, %rdi	# tmp221,
	movl	$0, %eax	#,
	call	printf@PLT	#
.L39:
# i_net.c:281:     i = M_CheckParm ("-net");
	.loc 1 281 9
	leaq	.LC10(%rip), %rax	#, tmp222
	movq	%rax, %rdi	# tmp222,
	call	M_CheckParm@PLT	#
	movl	%eax, -40(%rbp)	# tmp223, i
# i_net.c:282:     if (!i)
	.loc 1 282 8
	cmpl	$0, -40(%rbp)	#, i
	jne	.L40	#,
# i_net.c:285: 	netgame = false;
	.loc 1 285 10
	movl	$0, netgame(%rip)	#, netgame
# i_net.c:286: 	doomcom->id = DOOMCOM_ID;
	.loc 1 286 9
	movq	doomcom(%rip), %rax	# doomcom, doomcom.55_36
# i_net.c:286: 	doomcom->id = DOOMCOM_ID;
	.loc 1 286 14
	movq	$305419896, (%rax)	#, doomcom.55_36->id
# i_net.c:287: 	doomcom->numplayers = doomcom->numnodes = 1;
	.loc 1 287 31
	movq	doomcom(%rip), %rax	# doomcom, doomcom.56_37
# i_net.c:287: 	doomcom->numplayers = doomcom->numnodes = 1;
	.loc 1 287 42
	movw	$1, 16(%rax)	#, doomcom.56_37->numnodes
# i_net.c:287: 	doomcom->numplayers = doomcom->numnodes = 1;
	.loc 1 287 9
	movq	doomcom(%rip), %rdx	# doomcom, doomcom.57_38
# i_net.c:287: 	doomcom->numplayers = doomcom->numnodes = 1;
	.loc 1 287 31
	movzwl	16(%rax), %eax	# doomcom.56_37->numnodes, _39
# i_net.c:287: 	doomcom->numplayers = doomcom->numnodes = 1;
	.loc 1 287 22
	movw	%ax, 34(%rdx)	# _39, doomcom.57_38->numplayers
# i_net.c:288: 	doomcom->deathmatch = false;
	.loc 1 288 9
	movq	doomcom(%rip), %rax	# doomcom, doomcom.58_40
# i_net.c:288: 	doomcom->deathmatch = false;
	.loc 1 288 22
	movw	$0, 22(%rax)	#, doomcom.58_40->deathmatch
# i_net.c:289: 	doomcom->consoleplayer = 0;
	.loc 1 289 9
	movq	doomcom(%rip), %rax	# doomcom, doomcom.59_41
# i_net.c:289: 	doomcom->consoleplayer = 0;
	.loc 1 289 25
	movw	$0, 32(%rax)	#, doomcom.59_41->consoleplayer
	jmp	.L32	#
.L40:
# i_net.c:293:     netsend = PacketSend;
	.loc 1 293 13
	leaq	PacketSend(%rip), %rax	#, tmp224
	movq	%rax, netsend(%rip)	# tmp224, netsend
# i_net.c:294:     netget = PacketGet;
	.loc 1 294 12
	leaq	PacketGet(%rip), %rax	#, tmp225
	movq	%rax, netget(%rip)	# tmp225, netget
# i_net.c:295:     netgame = true;
	.loc 1 295 13
	movl	$1, netgame(%rip)	#, netgame
# i_net.c:298:     doomcom->consoleplayer = myargv[i+1][0]-'1';
	.loc 1 298 36
	movq	myargv(%rip), %rax	# myargv, myargv.60_42
	movl	-40(%rbp), %edx	# i, tmp226
	movslq	%edx, %rdx	# tmp226, _43
	addq	$1, %rdx	#, _44
	salq	$3, %rdx	#, _45
	addq	%rdx, %rax	# _45, _46
	movq	(%rax), %rax	# *_46, _47
# i_net.c:298:     doomcom->consoleplayer = myargv[i+1][0]-'1';
	.loc 1 298 41
	movzbl	(%rax), %eax	# *_47, _48
	cbtw
# i_net.c:298:     doomcom->consoleplayer = myargv[i+1][0]-'1';
	.loc 1 298 44
	leal	-49(%rax), %edx	#, _50
# i_net.c:298:     doomcom->consoleplayer = myargv[i+1][0]-'1';
	.loc 1 298 12
	movq	doomcom(%rip), %rax	# doomcom, doomcom.61_51
# i_net.c:298:     doomcom->consoleplayer = myargv[i+1][0]-'1';
	.loc 1 298 28
	movw	%dx, 32(%rax)	# _52, doomcom.61_51->consoleplayer
# i_net.c:300:     doomcom->numnodes = 1;	// this node for sure
	.loc 1 300 12
	movq	doomcom(%rip), %rax	# doomcom, doomcom.62_53
# i_net.c:300:     doomcom->numnodes = 1;	// this node for sure
	.loc 1 300 23
	movw	$1, 16(%rax)	#, doomcom.62_53->numnodes
# i_net.c:302:     i++;
	.loc 1 302 6
	addl	$1, -40(%rbp)	#, i
# i_net.c:303:     while (++i < myargc && myargv[i][0] != '-')
	.loc 1 303 11
	jmp	.L42	#
.L47:
# i_net.c:305: 	sendaddress[doomcom->numnodes].sin_family = AF_INET;
	.loc 1 305 21
	movq	doomcom(%rip), %rax	# doomcom, doomcom.63_54
	movzwl	16(%rax), %eax	# doomcom.63_54->numnodes, _55
	cwtl
# i_net.c:305: 	sendaddress[doomcom->numnodes].sin_family = AF_INET;
	.loc 1 305 44
	cltq
	salq	$4, %rax	#, tmp227
	movq	%rax, %rdx	# tmp227, tmp228
	leaq	sendaddress(%rip), %rax	#, tmp229
	movw	$2, (%rdx,%rax)	#, sendaddress[_56].sin_family
# i_net.c:306: 	sendaddress[doomcom->numnodes].sin_port = htons(DOOMPORT);
	.loc 1 306 44
	movl	DOOMPORT(%rip), %eax	# DOOMPORT, DOOMPORT.64_57
	sall	$8, %eax	#, _58
	movl	%eax, %edx	# _58, _59
	movl	DOOMPORT(%rip), %eax	# DOOMPORT, DOOMPORT.65_60
	shrw	$8, %ax	#, _62
	orl	%eax, %edx	# _63, _64
# i_net.c:306: 	sendaddress[doomcom->numnodes].sin_port = htons(DOOMPORT);
	.loc 1 306 21
	movq	doomcom(%rip), %rax	# doomcom, doomcom.66_65
	movzwl	16(%rax), %eax	# doomcom.66_65->numnodes, _66
	cwtl
# i_net.c:306: 	sendaddress[doomcom->numnodes].sin_port = htons(DOOMPORT);
	.loc 1 306 44
	movl	%edx, %ecx	# _64, _68
# i_net.c:306: 	sendaddress[doomcom->numnodes].sin_port = htons(DOOMPORT);
	.loc 1 306 42
	cltq
	salq	$4, %rax	#, tmp230
	movq	%rax, %rdx	# tmp230, tmp231
	leaq	2+sendaddress(%rip), %rax	#, tmp232
	movw	%cx, (%rdx,%rax)	# _68, sendaddress[_67].sin_port
# i_net.c:307: 	if (myargv[i][0] == '.')
	.loc 1 307 12
	movq	myargv(%rip), %rax	# myargv, myargv.67_69
	movl	-40(%rbp), %edx	# i, tmp233
	movslq	%edx, %rdx	# tmp233, _70
	salq	$3, %rdx	#, _71
	addq	%rdx, %rax	# _71, _72
	movq	(%rax), %rax	# *_72, _73
# i_net.c:307: 	if (myargv[i][0] == '.')
	.loc 1 307 15
	movzbl	(%rax), %eax	# *_73, _74
# i_net.c:307: 	if (myargv[i][0] == '.')
	.loc 1 307 5
	cmpb	$46, %al	#, _74
	jne	.L43	#,
# i_net.c:310: 		= inet_addr (myargv[i]+1);
	.loc 1 310 22
	movq	myargv(%rip), %rax	# myargv, myargv.68_75
	movl	-40(%rbp), %edx	# i, tmp234
	movslq	%edx, %rdx	# tmp234, _76
	salq	$3, %rdx	#, _77
	addq	%rdx, %rax	# _77, _78
	movq	(%rax), %rax	# *_78, _79
# i_net.c:310: 		= inet_addr (myargv[i]+1);
	.loc 1 310 25
	addq	$1, %rax	#, _80
# i_net.c:309: 	    sendaddress[doomcom->numnodes].sin_addr.s_addr 
	.loc 1 309 25
	movq	doomcom(%rip), %rdx	# doomcom, doomcom.69_81
	movzwl	16(%rdx), %edx	# doomcom.69_81->numnodes, _82
	movswl	%dx, %ebx	# _82, _83
# i_net.c:310: 		= inet_addr (myargv[i]+1);
	.loc 1 310 5
	movq	%rax, %rdi	# _80,
	call	inet_addr@PLT	#
# i_net.c:310: 		= inet_addr (myargv[i]+1);
	.loc 1 310 3 discriminator 1
	movslq	%ebx, %rdx	# _83, tmp235
	movq	%rdx, %rcx	# tmp235, tmp235
	salq	$4, %rcx	#, tmp235
	leaq	4+sendaddress(%rip), %rdx	#, tmp237
	movl	%eax, (%rcx,%rdx)	# _84, sendaddress[_83].sin_addr.s_addr
	jmp	.L44	#
.L43:
# i_net.c:314: 	    hostentry = gethostbyname (myargv[i]);
	.loc 1 314 39
	movq	myargv(%rip), %rax	# myargv, myargv.70_85
	movl	-40(%rbp), %edx	# i, tmp238
	movslq	%edx, %rdx	# tmp238, _86
	salq	$3, %rdx	#, _87
	addq	%rdx, %rax	# _87, _88
# i_net.c:314: 	    hostentry = gethostbyname (myargv[i]);
	.loc 1 314 18
	movq	(%rax), %rax	# *_88, _89
	movq	%rax, %rdi	# _89,
	call	gethostbyname@PLT	#
	movq	%rax, -32(%rbp)	# tmp239, hostentry
# i_net.c:315: 	    if (!hostentry)
	.loc 1 315 9
	cmpq	$0, -32(%rbp)	#, hostentry
	jne	.L45	#,
# i_net.c:316: 		I_Error ("gethostbyname: couldn't find %s", myargv[i]);
	.loc 1 316 53
	movq	myargv(%rip), %rax	# myargv, myargv.71_90
	movl	-40(%rbp), %edx	# i, tmp240
	movslq	%edx, %rdx	# tmp240, _91
	salq	$3, %rdx	#, _92
	addq	%rdx, %rax	# _92, _93
# i_net.c:316: 		I_Error ("gethostbyname: couldn't find %s", myargv[i]);
	.loc 1 316 3
	movq	(%rax), %rax	# *_93, _94
	movq	%rax, %rsi	# _94,
	leaq	.LC11(%rip), %rax	#, tmp241
	movq	%rax, %rdi	# tmp241,
	movl	$0, %eax	#,
	call	I_Error@PLT	#
.L45:
# i_net.c:318: 		= *(int *)hostentry->h_addr_list[0];
	.loc 1 318 22
	movq	-32(%rbp), %rax	# hostentry, tmp242
	movq	24(%rax), %rax	# hostentry_173->h_addr_list, _95
# i_net.c:318: 		= *(int *)hostentry->h_addr_list[0];
	.loc 1 318 6
	movq	(%rax), %rax	# *_95, _96
# i_net.c:318: 		= *(int *)hostentry->h_addr_list[0];
	.loc 1 318 5
	movl	(%rax), %edx	# MEM[(int *)_96], _97
# i_net.c:317: 	    sendaddress[doomcom->numnodes].sin_addr.s_addr 
	.loc 1 317 25
	movq	doomcom(%rip), %rax	# doomcom, doomcom.72_98
	movzwl	16(%rax), %eax	# doomcom.72_98->numnodes, _99
	cwtl
# i_net.c:318: 		= *(int *)hostentry->h_addr_list[0];
	.loc 1 318 5
	movl	%edx, %ecx	# _97, _101
# i_net.c:318: 		= *(int *)hostentry->h_addr_list[0];
	.loc 1 318 3
	cltq
	salq	$4, %rax	#, tmp243
	movq	%rax, %rdx	# tmp243, tmp244
	leaq	4+sendaddress(%rip), %rax	#, tmp245
	movl	%ecx, (%rdx,%rax)	# _101, sendaddress[_100].sin_addr.s_addr
.L44:
# i_net.c:320: 	doomcom->numnodes++;
	.loc 1 320 9
	movq	doomcom(%rip), %rax	# doomcom, doomcom.73_102
	movzwl	16(%rax), %edx	# doomcom.73_102->numnodes, _103
# i_net.c:320: 	doomcom->numnodes++;
	.loc 1 320 19
	addl	$1, %edx	#, _106
	movw	%dx, 16(%rax)	# _107, doomcom.73_102->numnodes
.L42:
# i_net.c:303:     while (++i < myargc && myargv[i][0] != '-')
	.loc 1 303 25
	addl	$1, -40(%rbp)	#, i
# i_net.c:303:     while (++i < myargc && myargv[i][0] != '-')
	.loc 1 303 16
	movl	myargc(%rip), %eax	# myargc, myargc.74_108
# i_net.c:303:     while (++i < myargc && myargv[i][0] != '-')
	.loc 1 303 25
	cmpl	%eax, -40(%rbp)	# myargc.74_108, i
	jge	.L46	#,
# i_net.c:303:     while (++i < myargc && myargv[i][0] != '-')
	.loc 1 303 34 discriminator 1
	movq	myargv(%rip), %rax	# myargv, myargv.75_109
	movl	-40(%rbp), %edx	# i, tmp246
	movslq	%edx, %rdx	# tmp246, _110
	salq	$3, %rdx	#, _111
	addq	%rdx, %rax	# _111, _112
	movq	(%rax), %rax	# *_112, _113
# i_net.c:303:     while (++i < myargc && myargv[i][0] != '-')
	.loc 1 303 37 discriminator 1
	movzbl	(%rax), %eax	# *_113, _114
# i_net.c:303:     while (++i < myargc && myargv[i][0] != '-')
	.loc 1 303 25 discriminator 1
	cmpb	$45, %al	#, _114
	jne	.L47	#,
.L46:
# i_net.c:323:     doomcom->id = DOOMCOM_ID;
	.loc 1 323 12
	movq	doomcom(%rip), %rax	# doomcom, doomcom.76_115
# i_net.c:323:     doomcom->id = DOOMCOM_ID;
	.loc 1 323 17
	movq	$305419896, (%rax)	#, doomcom.76_115->id
# i_net.c:324:     doomcom->numplayers = doomcom->numnodes;
	.loc 1 324 34
	movq	doomcom(%rip), %rdx	# doomcom, doomcom.77_116
# i_net.c:324:     doomcom->numplayers = doomcom->numnodes;
	.loc 1 324 12
	movq	doomcom(%rip), %rax	# doomcom, doomcom.78_117
# i_net.c:324:     doomcom->numplayers = doomcom->numnodes;
	.loc 1 324 34
	movzwl	16(%rdx), %edx	# doomcom.77_116->numnodes, _118
# i_net.c:324:     doomcom->numplayers = doomcom->numnodes;
	.loc 1 324 25
	movw	%dx, 34(%rax)	# _118, doomcom.78_117->numplayers
# i_net.c:327:     insocket = UDPsocket ();
	.loc 1 327 16
	call	UDPsocket	#
# i_net.c:327:     insocket = UDPsocket ();
	.loc 1 327 14 discriminator 1
	movl	%eax, insocket(%rip)	# _119, insocket
# i_net.c:328:     BindToLocalPort (insocket,htons(DOOMPORT));
	.loc 1 328 31
	movl	DOOMPORT(%rip), %eax	# DOOMPORT, DOOMPORT.79_120
	sall	$8, %eax	#, _121
	movl	%eax, %edx	# _121, _122
	movl	DOOMPORT(%rip), %eax	# DOOMPORT, DOOMPORT.80_123
	shrw	$8, %ax	#, _125
	orl	%edx, %eax	# _122, _127
# i_net.c:328:     BindToLocalPort (insocket,htons(DOOMPORT));
	.loc 1 328 5
	movzwl	%ax, %edx	# _128, _129
	movl	insocket(%rip), %eax	# insocket, insocket.81_130
	movl	%edx, %esi	# _129,
	movl	%eax, %edi	# insocket.81_130,
	call	BindToLocalPort	#
# i_net.c:329:     ioctl (insocket, FIONBIO, &trueval);
	.loc 1 329 5
	movl	insocket(%rip), %eax	# insocket, insocket.82_131
	leaq	-44(%rbp), %rdx	#, tmp247
	movl	$21537, %esi	#,
	movl	%eax, %edi	# insocket.82_131,
	movl	$0, %eax	#,
	call	ioctl@PLT	#
# i_net.c:331:     sendsocket = UDPsocket ();
	.loc 1 331 18
	call	UDPsocket	#
# i_net.c:331:     sendsocket = UDPsocket ();
	.loc 1 331 16 discriminator 1
	movl	%eax, sendsocket(%rip)	# _132, sendsocket
.L32:
# i_net.c:332: }
	.loc 1 332 1
	movq	-24(%rbp), %rax	# D.8248, tmp249
	subq	%fs:40, %rax	# MEM[(<address-space-1> long unsigned int *)40B], tmp249
	je	.L48	#,
	call	__stack_chk_fail@PLT	#
.L48:
	movq	-8(%rbp), %rbx	#,
	leave	
	.cfi_def_cfa 7, 8
	ret	
	.cfi_endproc
.LFE11:
	.size	I_InitNetwork, .-I_InitNetwork
	.section	.rodata
.LC12:
	.string	"Bad net cmd: %i\n"
	.text
	.globl	I_NetCmd
	.type	I_NetCmd, @function
I_NetCmd:
.LFB12:
	.loc 1 336 1
	.cfi_startproc
	endbr64	
	pushq	%rbp	#
	.cfi_def_cfa_offset 16
	.cfi_offset 6, -16
	movq	%rsp, %rbp	#,
	.cfi_def_cfa_register 6
# i_net.c:337:     if (doomcom->command == CMD_SEND)
	.loc 1 337 16
	movq	doomcom(%rip), %rax	# doomcom, doomcom.83_1
	movzwl	10(%rax), %eax	# doomcom.83_1->command, _2
# i_net.c:337:     if (doomcom->command == CMD_SEND)
	.loc 1 337 8
	cmpw	$1, %ax	#, _2
	jne	.L50	#,
# i_net.c:339: 	netsend ();
	.loc 1 339 2
	movq	netsend(%rip), %rax	# netsend, netsend.84_3
	call	*%rax	# netsend.84_3
.LVL0:
# i_net.c:347: }
	.loc 1 347 1
	jmp	.L53	#
.L50:
# i_net.c:341:     else if (doomcom->command == CMD_GET)
	.loc 1 341 21
	movq	doomcom(%rip), %rax	# doomcom, doomcom.85_4
	movzwl	10(%rax), %eax	# doomcom.85_4->command, _5
# i_net.c:341:     else if (doomcom->command == CMD_GET)
	.loc 1 341 13
	cmpw	$2, %ax	#, _5
	jne	.L52	#,
# i_net.c:343: 	netget ();
	.loc 1 343 2
	movq	netget(%rip), %rax	# netget, netget.86_6
	call	*%rax	# netget.86_6
.LVL1:
# i_net.c:347: }
	.loc 1 347 1
	jmp	.L53	#
.L52:
# i_net.c:346: 	I_Error ("Bad net cmd: %i\n",doomcom->command);
	.loc 1 346 38
	movq	doomcom(%rip), %rax	# doomcom, doomcom.87_7
	movzwl	10(%rax), %eax	# doomcom.87_7->command, _8
# i_net.c:346: 	I_Error ("Bad net cmd: %i\n",doomcom->command);
	.loc 1 346 2
	cwtl
	movl	%eax, %esi	# _9,
	leaq	.LC12(%rip), %rax	#, tmp91
	movq	%rax, %rdi	# tmp91,
	movl	$0, %eax	#,
	call	I_Error@PLT	#
.L53:
# i_net.c:347: }
	.loc 1 347 1
	nop	
	popq	%rbp	#
	.cfi_def_cfa 7, 8
	ret	
	.cfi_endproc
.LFE12:
	.size	I_NetCmd, .-I_NetCmd
	.data
	.align 4
	.type	first.0, @object
	.size	first.0, 4
first.0:
	.long	1
	.text
.Letext0:
	.file 2 "/usr/lib/gcc/x86_64-linux-gnu/13/include/stddef.h"
	.file 3 "/usr/include/x86_64-linux-gnu/bits/types.h"
	.file 4 "/usr/include/x86_64-linux-gnu/sys/types.h"
	.file 5 "/usr/include/x86_64-linux-gnu/bits/socket.h"
	.file 6 "/usr/include/x86_64-linux-gnu/bits/sockaddr.h"
	.file 7 "/usr/include/x86_64-linux-gnu/bits/stdint-uintn.h"
	.file 8 "/usr/include/netinet/in.h"
	.file 9 "/usr/include/netdb.h"
	.file 10 "doomtype.h"
	.file 11 "d_ticcmd.h"
	.file 12 "doomdef.h"
	.file 13 "info.h"
	.file 14 "p_pspr.h"
	.file 15 "d_net.h"
	.file 16 "m_argv.h"
	.file 17 "doomstat.h"
	.file 18 "/usr/include/x86_64-linux-gnu/sys/ioctl.h"
	.file 19 "/usr/include/arpa/inet.h"
	.file 20 "/usr/include/stdlib.h"
	.file 21 "/usr/include/unistd.h"
	.file 22 "/usr/include/stdio.h"
	.file 23 "/usr/include/x86_64-linux-gnu/sys/socket.h"
	.file 24 "/usr/include/string.h"
	.file 25 "/usr/include/x86_64-linux-gnu/bits/socket_type.h"
	.file 26 "i_system.h"
	.file 27 "/usr/include/errno.h"
	.section	.note.GNU-stack,"",@progbits
	.section	.note.gnu.property,"a"
	.align 8
	.long	1f - 0f
	.long	4f - 1f
	.long	5
0:
	.string	"GNU"
1:
	.align 8
	.long	0xc0000002
	.long	3f - 2f
2:
	.long	0x3
3:
	.align 8
4:
