	.file	"p_doors.c"
# GNU C17 (Ubuntu 13.3.0-6ubuntu2~24.04) version 13.3.0 (x86_64-linux-gnu)
#	compiled by GNU C version 13.3.0, GMP version 6.3.0, MPFR version 4.2.1, MPC version 1.3.1, isl version isl-0.26-GMP

# GGC heuristics: --param ggc-min-expand=100 --param ggc-min-heapsize=131072
# options passed: -mtune=generic -march=x86-64 -g -fasynchronous-unwind-tables -fstack-protector-strong -fstack-clash-protection -fcf-protection
	.text
.Ltext0:
	.file 0 "/home/astrid/Documents/enseignements/DOOM/linuxdoom-1.10" "p_doors.c"
	.section	.rodata
	.align 32
	.type	rcsid, @object
	.size	rcsid, 50
rcsid:
	.string	"$Id: p_doors.c,v 1.4 1997/02/03 16:47:53 b1 Exp $"
	.text
	.globl	T_VerticalDoor
	.type	T_VerticalDoor, @function
T_VerticalDoor:
.LFB0:
	.file 1 "p_doors.c"
	.loc 1 64 1
	.cfi_startproc
	endbr64	
	pushq	%rbp	#
	.cfi_def_cfa_offset 16
	.cfi_offset 6, -16
	movq	%rsp, %rbp	#,
	.cfi_def_cfa_register 6
	subq	$32, %rsp	#,
	movq	%rdi, -24(%rbp)	# door, door
# p_doors.c:67:     switch(door->direction)
	.loc 1 67 16
	movq	-24(%rbp), %rax	# door, tmp128
	movl	48(%rax), %eax	# door_48(D)->direction, _1
# p_doors.c:67:     switch(door->direction)
	.loc 1 67 5
	cmpl	$2, %eax	#, _1
	je	.L2	#,
	cmpl	$2, %eax	#, _1
	jg	.L26	#,
	cmpl	$1, %eax	#, _1
	je	.L4	#,
	cmpl	$1, %eax	#, _1
	jg	.L26	#,
	cmpl	$-1, %eax	#, _1
	je	.L5	#,
	testl	%eax, %eax	# _1
	jne	.L26	#,
# p_doors.c:71: 	if (!--door->topcountdown)
	.loc 1 71 13
	movq	-24(%rbp), %rax	# door, tmp129
	movl	56(%rax), %eax	# door_48(D)->topcountdown, _2
# p_doors.c:71: 	if (!--door->topcountdown)
	.loc 1 71 7
	leal	-1(%rax), %edx	#, _3
# p_doors.c:71: 	if (!--door->topcountdown)
	.loc 1 71 5
	movq	-24(%rbp), %rax	# door, tmp130
	movl	%edx, 56(%rax)	# _3, door_48(D)->topcountdown
# p_doors.c:71: 	if (!--door->topcountdown)
	.loc 1 71 13
	movq	-24(%rbp), %rax	# door, tmp131
	movl	56(%rax), %eax	# door_48(D)->topcountdown, _4
# p_doors.c:71: 	if (!--door->topcountdown)
	.loc 1 71 5
	testl	%eax, %eax	# _4
	jne	.L27	#,
# p_doors.c:73: 	    switch(door->type)
	.loc 1 73 17
	movq	-24(%rbp), %rax	# door, tmp132
	movl	24(%rax), %eax	# door_48(D)->type, _5
# p_doors.c:73: 	    switch(door->type)
	.loc 1 73 6
	cmpl	$5, %eax	#, _5
	je	.L7	#,
	cmpl	$5, %eax	#, _5
	ja	.L28	#,
	testl	%eax, %eax	# _5
	je	.L9	#,
	cmpl	$1, %eax	#, _5
	je	.L10	#,
# p_doors.c:94: 		break;
	.loc 1 94 3
	jmp	.L28	#
.L7:
# p_doors.c:76: 		door->direction = -1; // time to go back down
	.loc 1 76 19
	movq	-24(%rbp), %rax	# door, tmp133
	movl	$-1, 48(%rax)	#, door_48(D)->direction
# p_doors.c:77: 		S_StartSound((mobj_t *)&door->sector->soundorg,
	.loc 1 77 31
	movq	-24(%rbp), %rax	# door, tmp134
	movq	32(%rax), %rax	# door_48(D)->sector, _6
# p_doors.c:77: 		S_StartSound((mobj_t *)&door->sector->soundorg,
	.loc 1 77 26
	addq	$48, %rax	#, _7
# p_doors.c:77: 		S_StartSound((mobj_t *)&door->sector->soundorg,
	.loc 1 77 3
	movl	$89, %esi	#,
	movq	%rax, %rdi	# _7,
	call	S_StartSound@PLT	#
# p_doors.c:79: 		break;
	.loc 1 79 3
	jmp	.L6	#
.L9:
# p_doors.c:82: 		door->direction = -1; // time to go back down
	.loc 1 82 19
	movq	-24(%rbp), %rax	# door, tmp135
	movl	$-1, 48(%rax)	#, door_48(D)->direction
# p_doors.c:83: 		S_StartSound((mobj_t *)&door->sector->soundorg,
	.loc 1 83 31
	movq	-24(%rbp), %rax	# door, tmp136
	movq	32(%rax), %rax	# door_48(D)->sector, _8
# p_doors.c:83: 		S_StartSound((mobj_t *)&door->sector->soundorg,
	.loc 1 83 26
	addq	$48, %rax	#, _9
# p_doors.c:83: 		S_StartSound((mobj_t *)&door->sector->soundorg,
	.loc 1 83 3
	movl	$21, %esi	#,
	movq	%rax, %rdi	# _9,
	call	S_StartSound@PLT	#
# p_doors.c:85: 		break;
	.loc 1 85 3
	jmp	.L6	#
.L10:
# p_doors.c:88: 		door->direction = 1;
	.loc 1 88 19
	movq	-24(%rbp), %rax	# door, tmp137
	movl	$1, 48(%rax)	#, door_48(D)->direction
# p_doors.c:89: 		S_StartSound((mobj_t *)&door->sector->soundorg,
	.loc 1 89 31
	movq	-24(%rbp), %rax	# door, tmp138
	movq	32(%rax), %rax	# door_48(D)->sector, _10
# p_doors.c:89: 		S_StartSound((mobj_t *)&door->sector->soundorg,
	.loc 1 89 26
	addq	$48, %rax	#, _11
# p_doors.c:89: 		S_StartSound((mobj_t *)&door->sector->soundorg,
	.loc 1 89 3
	movl	$20, %esi	#,
	movq	%rax, %rdi	# _11,
	call	S_StartSound@PLT	#
# p_doors.c:91: 		break;
	.loc 1 91 3
	jmp	.L6	#
.L28:
# p_doors.c:94: 		break;
	.loc 1 94 3
	nop	
.L6:
# p_doors.c:97: 	break;
	.loc 1 97 2
	jmp	.L27	#
.L2:
# p_doors.c:101: 	if (!--door->topcountdown)
	.loc 1 101 13
	movq	-24(%rbp), %rax	# door, tmp139
	movl	56(%rax), %eax	# door_48(D)->topcountdown, _12
# p_doors.c:101: 	if (!--door->topcountdown)
	.loc 1 101 7
	leal	-1(%rax), %edx	#, _13
# p_doors.c:101: 	if (!--door->topcountdown)
	.loc 1 101 5
	movq	-24(%rbp), %rax	# door, tmp140
	movl	%edx, 56(%rax)	# _13, door_48(D)->topcountdown
# p_doors.c:101: 	if (!--door->topcountdown)
	.loc 1 101 13
	movq	-24(%rbp), %rax	# door, tmp141
	movl	56(%rax), %eax	# door_48(D)->topcountdown, _14
# p_doors.c:101: 	if (!--door->topcountdown)
	.loc 1 101 5
	testl	%eax, %eax	# _14
	jne	.L29	#,
# p_doors.c:103: 	    switch(door->type)
	.loc 1 103 17
	movq	-24(%rbp), %rax	# door, tmp142
	movl	24(%rax), %eax	# door_48(D)->type, _15
# p_doors.c:103: 	    switch(door->type)
	.loc 1 103 6
	cmpl	$4, %eax	#, _15
	jne	.L30	#,
# p_doors.c:106: 		door->direction = 1;
	.loc 1 106 19
	movq	-24(%rbp), %rax	# door, tmp143
	movl	$1, 48(%rax)	#, door_48(D)->direction
# p_doors.c:107: 		door->type = normal;
	.loc 1 107 14
	movq	-24(%rbp), %rax	# door, tmp144
	movl	$0, 24(%rax)	#, door_48(D)->type
# p_doors.c:108: 		S_StartSound((mobj_t *)&door->sector->soundorg,
	.loc 1 108 31
	movq	-24(%rbp), %rax	# door, tmp145
	movq	32(%rax), %rax	# door_48(D)->sector, _16
# p_doors.c:108: 		S_StartSound((mobj_t *)&door->sector->soundorg,
	.loc 1 108 26
	addq	$48, %rax	#, _17
# p_doors.c:108: 		S_StartSound((mobj_t *)&door->sector->soundorg,
	.loc 1 108 3
	movl	$20, %esi	#,
	movq	%rax, %rdi	# _17,
	call	S_StartSound@PLT	#
# p_doors.c:110: 		break;
	.loc 1 110 3
	jmp	.L11	#
.L30:
# p_doors.c:113: 		break;
	.loc 1 113 3
	nop	
.L11:
# p_doors.c:116: 	break;
	.loc 1 116 2
	jmp	.L29	#
.L5:
# p_doors.c:120: 	res = T_MovePlane(door->sector,
	.loc 1 120 8
	movq	-24(%rbp), %rax	# door, tmp146
	movl	48(%rax), %ecx	# door_48(D)->direction, _18
# p_doors.c:122: 			  door->sector->floorheight,
	.loc 1 122 10
	movq	-24(%rbp), %rax	# door, tmp147
	movq	32(%rax), %rax	# door_48(D)->sector, _19
# p_doors.c:120: 	res = T_MovePlane(door->sector,
	.loc 1 120 8
	movl	(%rax), %edx	# _19->floorheight, _20
	movq	-24(%rbp), %rax	# door, tmp148
	movl	44(%rax), %esi	# door_48(D)->speed, _21
	movq	-24(%rbp), %rax	# door, tmp149
	movq	32(%rax), %rax	# door_48(D)->sector, _22
	movl	%ecx, %r9d	# _18,
	movl	$1, %r8d	#,
	movl	$0, %ecx	#,
	movq	%rax, %rdi	# _22,
	call	T_MovePlane@PLT	#
	movl	%eax, -4(%rbp)	# tmp150, res
# p_doors.c:124: 	if (res == pastdest)
	.loc 1 124 5
	cmpl	$2, -4(%rbp)	#, res
	jne	.L13	#,
# p_doors.c:126: 	    switch(door->type)
	.loc 1 126 17
	movq	-24(%rbp), %rax	# door, tmp151
	movl	24(%rax), %eax	# door_48(D)->type, _23
# p_doors.c:126: 	    switch(door->type)
	.loc 1 126 6
	cmpl	$7, %eax	#, _23
	ja	.L31	#,
	movl	%eax, %eax	# _23, tmp152
	leaq	0(,%rax,4), %rdx	#, tmp153
	leaq	.L16(%rip), %rax	#, tmp154
	movl	(%rdx,%rax), %eax	#, tmp155
	cltq
	leaq	.L16(%rip), %rdx	#, tmp158
	addq	%rdx, %rax	# tmp158, tmp157
	notrack jmp	*%rax	# tmp157
	.section	.rodata
	.align 4
	.align 4
.L16:
	.long	.L17-.L16
	.long	.L18-.L16
	.long	.L17-.L16
	.long	.L31-.L16
	.long	.L31-.L16
	.long	.L15-.L16
	.long	.L31-.L16
	.long	.L15-.L16
	.text
.L15:
# p_doors.c:130: 		door->sector->specialdata = NULL;
	.loc 1 130 7
	movq	-24(%rbp), %rax	# door, tmp159
	movq	32(%rax), %rax	# door_48(D)->sector, _24
# p_doors.c:130: 		door->sector->specialdata = NULL;
	.loc 1 130 29
	movq	$0, 104(%rax)	#, _24->specialdata
# p_doors.c:131: 		P_RemoveThinker (&door->thinker);  // unlink and free
	.loc 1 131 3
	movq	-24(%rbp), %rax	# door, _25
	movq	%rax, %rdi	# _25,
	call	P_RemoveThinker@PLT	#
# p_doors.c:132: 		S_StartSound((mobj_t *)&door->sector->soundorg,
	.loc 1 132 31
	movq	-24(%rbp), %rax	# door, tmp160
	movq	32(%rax), %rax	# door_48(D)->sector, _26
# p_doors.c:132: 		S_StartSound((mobj_t *)&door->sector->soundorg,
	.loc 1 132 26
	addq	$48, %rax	#, _27
# p_doors.c:132: 		S_StartSound((mobj_t *)&door->sector->soundorg,
	.loc 1 132 3
	movl	$89, %esi	#,
	movq	%rax, %rdi	# _27,
	call	S_StartSound@PLT	#
# p_doors.c:134: 		break;
	.loc 1 134 3
	jmp	.L20	#
.L17:
# p_doors.c:138: 		door->sector->specialdata = NULL;
	.loc 1 138 7
	movq	-24(%rbp), %rax	# door, tmp161
	movq	32(%rax), %rax	# door_48(D)->sector, _28
# p_doors.c:138: 		door->sector->specialdata = NULL;
	.loc 1 138 29
	movq	$0, 104(%rax)	#, _28->specialdata
# p_doors.c:139: 		P_RemoveThinker (&door->thinker);  // unlink and free
	.loc 1 139 3
	movq	-24(%rbp), %rax	# door, _29
	movq	%rax, %rdi	# _29,
	call	P_RemoveThinker@PLT	#
# p_doors.c:140: 		break;
	.loc 1 140 3
	jmp	.L20	#
.L18:
# p_doors.c:143: 		door->direction = 0;
	.loc 1 143 19
	movq	-24(%rbp), %rax	# door, tmp162
	movl	$0, 48(%rax)	#, door_48(D)->direction
# p_doors.c:144: 		door->topcountdown = 35*30;
	.loc 1 144 22
	movq	-24(%rbp), %rax	# door, tmp163
	movl	$1050, 56(%rax)	#, door_48(D)->topcountdown
# p_doors.c:145: 		break;
	.loc 1 145 3
	jmp	.L20	#
.L13:
# p_doors.c:151: 	else if (res == crushed)
	.loc 1 151 10
	cmpl	$1, -4(%rbp)	#, res
	jne	.L32	#,
# p_doors.c:153: 	    switch(door->type)
	.loc 1 153 17
	movq	-24(%rbp), %rax	# door, tmp164
	movl	24(%rax), %eax	# door_48(D)->type, _30
# p_doors.c:153: 	    switch(door->type)
	.loc 1 153 6
	cmpl	$2, %eax	#, _30
	je	.L33	#,
	cmpl	$7, %eax	#, _30
	je	.L33	#,
# p_doors.c:160: 		door->direction = 1;
	.loc 1 160 19
	movq	-24(%rbp), %rax	# door, tmp165
	movl	$1, 48(%rax)	#, door_48(D)->direction
# p_doors.c:161: 		S_StartSound((mobj_t *)&door->sector->soundorg,
	.loc 1 161 31
	movq	-24(%rbp), %rax	# door, tmp166
	movq	32(%rax), %rax	# door_48(D)->sector, _31
# p_doors.c:161: 		S_StartSound((mobj_t *)&door->sector->soundorg,
	.loc 1 161 26
	addq	$48, %rax	#, _32
# p_doors.c:161: 		S_StartSound((mobj_t *)&door->sector->soundorg,
	.loc 1 161 3
	movl	$20, %esi	#,
	movq	%rax, %rdi	# _32,
	call	S_StartSound@PLT	#
# p_doors.c:163: 		break;
	.loc 1 163 3
	jmp	.L20	#
.L31:
# p_doors.c:148: 		break;
	.loc 1 148 3
	nop	
	jmp	.L32	#
.L33:
# p_doors.c:157: 		break;
	.loc 1 157 3
	nop	
.L20:
# p_doors.c:166: 	break;
	.loc 1 166 2
	jmp	.L32	#
.L4:
# p_doors.c:170: 	res = T_MovePlane(door->sector,
	.loc 1 170 8
	movq	-24(%rbp), %rax	# door, tmp167
	movl	48(%rax), %ecx	# door_48(D)->direction, _33
	movq	-24(%rbp), %rax	# door, tmp168
	movl	40(%rax), %edx	# door_48(D)->topheight, _34
	movq	-24(%rbp), %rax	# door, tmp169
	movl	44(%rax), %esi	# door_48(D)->speed, _35
	movq	-24(%rbp), %rax	# door, tmp170
	movq	32(%rax), %rax	# door_48(D)->sector, _36
	movl	%ecx, %r9d	# _33,
	movl	$1, %r8d	#,
	movl	$0, %ecx	#,
	movq	%rax, %rdi	# _36,
	call	T_MovePlane@PLT	#
	movl	%eax, -4(%rbp)	# tmp171, res
# p_doors.c:175: 	if (res == pastdest)
	.loc 1 175 5
	cmpl	$2, -4(%rbp)	#, res
	jne	.L34	#,
# p_doors.c:177: 	    switch(door->type)
	.loc 1 177 17
	movq	-24(%rbp), %rax	# door, tmp172
	movl	24(%rax), %eax	# door_48(D)->type, _37
	cmpl	$6, %eax	#, _37
	seta	%dl	#, _77
# p_doors.c:177: 	    switch(door->type)
	.loc 1 177 6
	testb	%dl, %dl	# _77
	jne	.L35	#,
	movl	$1, %edx	#, tmp173
	movl	%eax, %ecx	# _37, tmp180
	salq	%cl, %rdx	# tmp180, tmp173
	movq	%rdx, %rax	# tmp173, _78
	movq	%rax, %rdx	# _78, _79
	andl	$74, %edx	#, _79
	testq	%rdx, %rdx	# _79
	setne	%dl	#, _80
	testb	%dl, %dl	# _80
	jne	.L25	#,
	andl	$33, %eax	#, _81
	testq	%rax, %rax	# _81
	setne	%al	#, _82
	testb	%al, %al	# _82
	je	.L35	#,
# p_doors.c:181: 		door->direction = 0; // wait at top
	.loc 1 181 19
	movq	-24(%rbp), %rax	# door, tmp174
	movl	$0, 48(%rax)	#, door_48(D)->direction
# p_doors.c:182: 		door->topcountdown = door->topwait;
	.loc 1 182 28
	movq	-24(%rbp), %rax	# door, tmp175
	movl	52(%rax), %edx	# door_48(D)->topwait, _38
# p_doors.c:182: 		door->topcountdown = door->topwait;
	.loc 1 182 22
	movq	-24(%rbp), %rax	# door, tmp176
	movl	%edx, 56(%rax)	# _38, door_48(D)->topcountdown
# p_doors.c:183: 		break;
	.loc 1 183 3
	jmp	.L23	#
.L25:
# p_doors.c:188: 		door->sector->specialdata = NULL;
	.loc 1 188 7
	movq	-24(%rbp), %rax	# door, tmp177
	movq	32(%rax), %rax	# door_48(D)->sector, _39
# p_doors.c:188: 		door->sector->specialdata = NULL;
	.loc 1 188 29
	movq	$0, 104(%rax)	#, _39->specialdata
# p_doors.c:189: 		P_RemoveThinker (&door->thinker);  // unlink and free
	.loc 1 189 3
	movq	-24(%rbp), %rax	# door, _40
	movq	%rax, %rdi	# _40,
	call	P_RemoveThinker@PLT	#
# p_doors.c:190: 		break;
	.loc 1 190 3
	jmp	.L23	#
.L35:
# p_doors.c:193: 		break;
	.loc 1 193 3
	nop	
.L23:
# p_doors.c:196: 	break;
	.loc 1 196 2
	jmp	.L34	#
.L27:
# p_doors.c:97: 	break;
	.loc 1 97 2
	nop	
	jmp	.L26	#
.L29:
# p_doors.c:116: 	break;
	.loc 1 116 2
	nop	
	jmp	.L26	#
.L32:
# p_doors.c:166: 	break;
	.loc 1 166 2
	nop	
	jmp	.L26	#
.L34:
# p_doors.c:196: 	break;
	.loc 1 196 2
	nop	
.L26:
# p_doors.c:198: }
	.loc 1 198 1
	nop	
	leave	
	.cfi_def_cfa 7, 8
	ret	
	.cfi_endproc
.LFE0:
	.size	T_VerticalDoor, .-T_VerticalDoor
	.section	.rodata
	.align 8
.LC0:
	.string	"You need a blue key to activate this object"
	.align 8
.LC1:
	.string	"You need a red key to activate this object"
	.align 8
.LC2:
	.string	"You need a yellow key to activate this object"
	.text
	.globl	EV_DoLockedDoor
	.type	EV_DoLockedDoor, @function
EV_DoLockedDoor:
.LFB1:
	.loc 1 211 1
	.cfi_startproc
	endbr64	
	pushq	%rbp	#
	.cfi_def_cfa_offset 16
	.cfi_offset 6, -16
	movq	%rsp, %rbp	#,
	.cfi_def_cfa_register 6
	subq	$48, %rsp	#,
	movq	%rdi, -24(%rbp)	# line, line
	movl	%esi, -28(%rbp)	# type, type
	movq	%rdx, -40(%rbp)	# thing, thing
# p_doors.c:214:     p = thing->player;
	.loc 1 214 7
	movq	-40(%rbp), %rax	# thing, tmp92
	movq	192(%rax), %rax	# thing_12(D)->player, tmp93
	movq	%rax, -8(%rbp)	# tmp93, p
# p_doors.c:216:     if (!p)
	.loc 1 216 8
	cmpq	$0, -8(%rbp)	#, p
	jne	.L37	#,
# p_doors.c:217: 	return 0;
	.loc 1 217 9
	movl	$0, %eax	#, _9
	jmp	.L38	#
.L37:
# p_doors.c:219:     switch(line->special)
	.loc 1 219 16
	movq	-24(%rbp), %rax	# line, tmp94
	movzwl	26(%rax), %eax	# line_14(D)->special, _1
	cwtl
# p_doors.c:219:     switch(line->special)
	.loc 1 219 5
	cmpl	$137, %eax	#, _2
	jg	.L39	#,
	cmpl	$136, %eax	#, _2
	jge	.L40	#,
	cmpl	$135, %eax	#, _2
	jg	.L39	#,
	cmpl	$134, %eax	#, _2
	jge	.L41	#,
	cmpl	$99, %eax	#, _2
	je	.L42	#,
	cmpl	$133, %eax	#, _2
	jne	.L39	#,
.L42:
# p_doors.c:223: 	if ( !p )
	.loc 1 223 5
	cmpq	$0, -8(%rbp)	#, p
	jne	.L43	#,
# p_doors.c:224: 	    return 0;
	.loc 1 224 13
	movl	$0, %eax	#, _9
	jmp	.L38	#
.L43:
# p_doors.c:225: 	if (!p->cards[it_bluecard] && !p->cards[it_blueskull])
	.loc 1 225 15
	movq	-8(%rbp), %rax	# p, tmp95
	movl	72(%rax), %eax	# p_13->cards[0], _3
# p_doors.c:225: 	if (!p->cards[it_bluecard] && !p->cards[it_blueskull])
	.loc 1 225 5
	testl	%eax, %eax	# _3
	jne	.L49	#,
# p_doors.c:225: 	if (!p->cards[it_bluecard] && !p->cards[it_blueskull])
	.loc 1 225 41 discriminator 1
	movq	-8(%rbp), %rax	# p, tmp96
	movl	84(%rax), %eax	# p_13->cards[3], _4
# p_doors.c:225: 	if (!p->cards[it_bluecard] && !p->cards[it_blueskull])
	.loc 1 225 29 discriminator 1
	testl	%eax, %eax	# _4
	jne	.L49	#,
# p_doors.c:227: 	    p->message = PD_BLUEO;
	.loc 1 227 17
	movq	-8(%rbp), %rax	# p, tmp97
	leaq	.LC0(%rip), %rdx	#, tmp98
	movq	%rdx, 224(%rax)	# tmp98, p_13->message
# p_doors.c:228: 	    S_StartSound(NULL,sfx_oof);
	.loc 1 228 6
	movl	$34, %esi	#,
	movl	$0, %edi	#,
	call	S_StartSound@PLT	#
# p_doors.c:229: 	    return 0;
	.loc 1 229 13
	movl	$0, %eax	#, _9
	jmp	.L38	#
.L41:
# p_doors.c:235: 	if ( !p )
	.loc 1 235 5
	cmpq	$0, -8(%rbp)	#, p
	jne	.L45	#,
# p_doors.c:236: 	    return 0;
	.loc 1 236 13
	movl	$0, %eax	#, _9
	jmp	.L38	#
.L45:
# p_doors.c:237: 	if (!p->cards[it_redcard] && !p->cards[it_redskull])
	.loc 1 237 15
	movq	-8(%rbp), %rax	# p, tmp99
	movl	80(%rax), %eax	# p_13->cards[2], _5
# p_doors.c:237: 	if (!p->cards[it_redcard] && !p->cards[it_redskull])
	.loc 1 237 5
	testl	%eax, %eax	# _5
	jne	.L50	#,
# p_doors.c:237: 	if (!p->cards[it_redcard] && !p->cards[it_redskull])
	.loc 1 237 40 discriminator 1
	movq	-8(%rbp), %rax	# p, tmp100
	movl	92(%rax), %eax	# p_13->cards[5], _6
# p_doors.c:237: 	if (!p->cards[it_redcard] && !p->cards[it_redskull])
	.loc 1 237 28 discriminator 1
	testl	%eax, %eax	# _6
	jne	.L50	#,
# p_doors.c:239: 	    p->message = PD_REDO;
	.loc 1 239 17
	movq	-8(%rbp), %rax	# p, tmp101
	leaq	.LC1(%rip), %rdx	#, tmp102
	movq	%rdx, 224(%rax)	# tmp102, p_13->message
# p_doors.c:240: 	    S_StartSound(NULL,sfx_oof);
	.loc 1 240 6
	movl	$34, %esi	#,
	movl	$0, %edi	#,
	call	S_StartSound@PLT	#
# p_doors.c:241: 	    return 0;
	.loc 1 241 13
	movl	$0, %eax	#, _9
	jmp	.L38	#
.L40:
# p_doors.c:247: 	if ( !p )
	.loc 1 247 5
	cmpq	$0, -8(%rbp)	#, p
	jne	.L47	#,
# p_doors.c:248: 	    return 0;
	.loc 1 248 13
	movl	$0, %eax	#, _9
	jmp	.L38	#
.L47:
# p_doors.c:249: 	if (!p->cards[it_yellowcard] &&
	.loc 1 249 15
	movq	-8(%rbp), %rax	# p, tmp103
	movl	76(%rax), %eax	# p_13->cards[1], _7
# p_doors.c:249: 	if (!p->cards[it_yellowcard] &&
	.loc 1 249 5
	testl	%eax, %eax	# _7
	jne	.L51	#,
# p_doors.c:250: 	    !p->cards[it_yellowskull])
	.loc 1 250 15
	movq	-8(%rbp), %rax	# p, tmp104
	movl	88(%rax), %eax	# p_13->cards[4], _8
# p_doors.c:249: 	if (!p->cards[it_yellowcard] &&
	.loc 1 249 31 discriminator 1
	testl	%eax, %eax	# _8
	jne	.L51	#,
# p_doors.c:252: 	    p->message = PD_YELLOWO;
	.loc 1 252 17
	movq	-8(%rbp), %rax	# p, tmp105
	leaq	.LC2(%rip), %rdx	#, tmp106
	movq	%rdx, 224(%rax)	# tmp106, p_13->message
# p_doors.c:253: 	    S_StartSound(NULL,sfx_oof);
	.loc 1 253 6
	movl	$34, %esi	#,
	movl	$0, %edi	#,
	call	S_StartSound@PLT	#
# p_doors.c:254: 	    return 0;
	.loc 1 254 13
	movl	$0, %eax	#, _9
	jmp	.L38	#
.L49:
# p_doors.c:231: 	break;
	.loc 1 231 2
	nop	
	jmp	.L39	#
.L50:
# p_doors.c:243: 	break;
	.loc 1 243 2
	nop	
	jmp	.L39	#
.L51:
# p_doors.c:256: 	break;	
	.loc 1 256 2
	nop	
.L39:
# p_doors.c:259:     return EV_DoDoor(line,type);
	.loc 1 259 12
	movl	-28(%rbp), %edx	# type, tmp107
	movq	-24(%rbp), %rax	# line, tmp108
	movl	%edx, %esi	# tmp107,
	movq	%rax, %rdi	# tmp108,
	call	EV_DoDoor	#
.L38:
# p_doors.c:260: }
	.loc 1 260 1
	leave	
	.cfi_def_cfa 7, 8
	ret	
	.cfi_endproc
.LFE1:
	.size	EV_DoLockedDoor, .-EV_DoLockedDoor
	.globl	EV_DoDoor
	.type	EV_DoDoor, @function
EV_DoDoor:
.LFB2:
	.loc 1 267 1
	.cfi_startproc
	endbr64	
	pushq	%rbp	#
	.cfi_def_cfa_offset 16
	.cfi_offset 6, -16
	movq	%rsp, %rbp	#,
	.cfi_def_cfa_register 6
	subq	$48, %rsp	#,
	movq	%rdi, -40(%rbp)	# line, line
	movl	%esi, -44(%rbp)	# type, type
# p_doors.c:272:     secnum = -1;
	.loc 1 272 12
	movl	$-1, -24(%rbp)	#, secnum
# p_doors.c:273:     rtn = 0;
	.loc 1 273 9
	movl	$0, -20(%rbp)	#, rtn
# p_doors.c:275:     while ((secnum = P_FindSectorFromLineTag(line,secnum)) >= 0)
	.loc 1 275 11
	jmp	.L53	#
.L65:
# p_doors.c:277: 	sec = &sectors[secnum];
	.loc 1 277 8
	movq	sectors(%rip), %rax	# sectors, sectors.0_1
# p_doors.c:277: 	sec = &sectors[secnum];
	.loc 1 277 16
	movl	-24(%rbp), %edx	# secnum, tmp116
	movslq	%edx, %rdx	# tmp116, _2
	salq	$7, %rdx	#, _3
# p_doors.c:277: 	sec = &sectors[secnum];
	.loc 1 277 6
	addq	%rdx, %rax	# _3, tmp117
	movq	%rax, -16(%rbp)	# tmp117, sec
# p_doors.c:278: 	if (sec->specialdata)
	.loc 1 278 9
	movq	-16(%rbp), %rax	# sec, tmp118
	movq	104(%rax), %rax	# sec_45->specialdata, _4
# p_doors.c:278: 	if (sec->specialdata)
	.loc 1 278 5
	testq	%rax, %rax	# _4
	jne	.L67	#,
# p_doors.c:283: 	rtn = 1;
	.loc 1 283 6
	movl	$1, -20(%rbp)	#, rtn
# p_doors.c:284: 	door = Z_Malloc (sizeof(*door), PU_LEVSPEC, 0);
	.loc 1 284 9
	movl	$0, %edx	#,
	movl	$51, %esi	#,
	movl	$64, %edi	#,
	call	Z_Malloc@PLT	#
	movq	%rax, -8(%rbp)	# tmp119, door
# p_doors.c:285: 	P_AddThinker (&door->thinker);
	.loc 1 285 2
	movq	-8(%rbp), %rax	# door, _5
	movq	%rax, %rdi	# _5,
	call	P_AddThinker@PLT	#
# p_doors.c:286: 	sec->specialdata = door;
	.loc 1 286 19
	movq	-16(%rbp), %rax	# sec, tmp120
	movq	-8(%rbp), %rdx	# door, tmp121
	movq	%rdx, 104(%rax)	# tmp121, sec_45->specialdata
# p_doors.c:288: 	door->thinker.function.acp1 = (actionf_p1) T_VerticalDoor;
	.loc 1 288 30
	movq	-8(%rbp), %rax	# door, tmp122
	leaq	T_VerticalDoor(%rip), %rdx	#, tmp123
	movq	%rdx, 16(%rax)	# tmp123, door_48->thinker.function.acp1
# p_doors.c:289: 	door->sector = sec;
	.loc 1 289 15
	movq	-8(%rbp), %rax	# door, tmp124
	movq	-16(%rbp), %rdx	# sec, tmp125
	movq	%rdx, 32(%rax)	# tmp125, door_48->sector
# p_doors.c:290: 	door->type = type;
	.loc 1 290 13
	movq	-8(%rbp), %rax	# door, tmp126
	movl	-44(%rbp), %edx	# type, tmp127
	movl	%edx, 24(%rax)	# tmp127, door_48->type
# p_doors.c:291: 	door->topwait = VDOORWAIT;
	.loc 1 291 16
	movq	-8(%rbp), %rax	# door, tmp128
	movl	$150, 52(%rax)	#, door_48->topwait
# p_doors.c:292: 	door->speed = VDOORSPEED;
	.loc 1 292 14
	movq	-8(%rbp), %rax	# door, tmp129
	movl	$131072, 44(%rax)	#, door_48->speed
# p_doors.c:294: 	switch(type)
	.loc 1 294 2
	cmpl	$7, -44(%rbp)	#, type
	ja	.L68	#,
	movl	-44(%rbp), %eax	# type, tmp130
	leaq	0(,%rax,4), %rdx	#, tmp131
	leaq	.L58(%rip), %rax	#, tmp132
	movl	(%rdx,%rax), %eax	#, tmp133
	cltq
	leaq	.L58(%rip), %rdx	#, tmp136
	addq	%rdx, %rax	# tmp136, tmp135
	notrack jmp	*%rax	# tmp135
	.section	.rodata
	.align 4
	.align 4
.L58:
	.long	.L60-.L58
	.long	.L62-.L58
	.long	.L61-.L58
	.long	.L60-.L58
	.long	.L68-.L58
	.long	.L59-.L58
	.long	.L59-.L58
	.long	.L57-.L58
	.text
.L57:
# p_doors.c:297: 	    door->topheight = P_FindLowestCeilingSurrounding(sec);
	.loc 1 297 24
	movq	-16(%rbp), %rax	# sec, tmp137
	movq	%rax, %rdi	# tmp137,
	call	P_FindLowestCeilingSurrounding@PLT	#
# p_doors.c:297: 	    door->topheight = P_FindLowestCeilingSurrounding(sec);
	.loc 1 297 22 discriminator 1
	movq	-8(%rbp), %rdx	# door, tmp138
	movl	%eax, 40(%rdx)	# _6, door_48->topheight
# p_doors.c:298: 	    door->topheight -= 4*FRACUNIT;
	.loc 1 298 10
	movq	-8(%rbp), %rax	# door, tmp139
	movl	40(%rax), %eax	# door_48->topheight, _7
# p_doors.c:298: 	    door->topheight -= 4*FRACUNIT;
	.loc 1 298 22
	leal	-262144(%rax), %edx	#, _8
	movq	-8(%rbp), %rax	# door, tmp140
	movl	%edx, 40(%rax)	# _8, door_48->topheight
# p_doors.c:299: 	    door->direction = -1;
	.loc 1 299 22
	movq	-8(%rbp), %rax	# door, tmp141
	movl	$-1, 48(%rax)	#, door_48->direction
# p_doors.c:300: 	    door->speed = VDOORSPEED * 4;
	.loc 1 300 18
	movq	-8(%rbp), %rax	# door, tmp142
	movl	$524288, 44(%rax)	#, door_48->speed
# p_doors.c:301: 	    S_StartSound((mobj_t *)&door->sector->soundorg,
	.loc 1 301 34
	movq	-8(%rbp), %rax	# door, tmp143
	movq	32(%rax), %rax	# door_48->sector, _9
# p_doors.c:301: 	    S_StartSound((mobj_t *)&door->sector->soundorg,
	.loc 1 301 29
	addq	$48, %rax	#, _10
# p_doors.c:301: 	    S_StartSound((mobj_t *)&door->sector->soundorg,
	.loc 1 301 6
	movl	$89, %esi	#,
	movq	%rax, %rdi	# _10,
	call	S_StartSound@PLT	#
# p_doors.c:303: 	    break;
	.loc 1 303 6
	jmp	.L53	#
.L61:
# p_doors.c:306: 	    door->topheight = P_FindLowestCeilingSurrounding(sec);
	.loc 1 306 24
	movq	-16(%rbp), %rax	# sec, tmp144
	movq	%rax, %rdi	# tmp144,
	call	P_FindLowestCeilingSurrounding@PLT	#
# p_doors.c:306: 	    door->topheight = P_FindLowestCeilingSurrounding(sec);
	.loc 1 306 22 discriminator 1
	movq	-8(%rbp), %rdx	# door, tmp145
	movl	%eax, 40(%rdx)	# _11, door_48->topheight
# p_doors.c:307: 	    door->topheight -= 4*FRACUNIT;
	.loc 1 307 10
	movq	-8(%rbp), %rax	# door, tmp146
	movl	40(%rax), %eax	# door_48->topheight, _12
# p_doors.c:307: 	    door->topheight -= 4*FRACUNIT;
	.loc 1 307 22
	leal	-262144(%rax), %edx	#, _13
	movq	-8(%rbp), %rax	# door, tmp147
	movl	%edx, 40(%rax)	# _13, door_48->topheight
# p_doors.c:308: 	    door->direction = -1;
	.loc 1 308 22
	movq	-8(%rbp), %rax	# door, tmp148
	movl	$-1, 48(%rax)	#, door_48->direction
# p_doors.c:309: 	    S_StartSound((mobj_t *)&door->sector->soundorg,
	.loc 1 309 34
	movq	-8(%rbp), %rax	# door, tmp149
	movq	32(%rax), %rax	# door_48->sector, _14
# p_doors.c:309: 	    S_StartSound((mobj_t *)&door->sector->soundorg,
	.loc 1 309 29
	addq	$48, %rax	#, _15
# p_doors.c:309: 	    S_StartSound((mobj_t *)&door->sector->soundorg,
	.loc 1 309 6
	movl	$21, %esi	#,
	movq	%rax, %rdi	# _15,
	call	S_StartSound@PLT	#
# p_doors.c:311: 	    break;
	.loc 1 311 6
	jmp	.L53	#
.L62:
# p_doors.c:314: 	    door->topheight = sec->ceilingheight;
	.loc 1 314 27
	movq	-16(%rbp), %rax	# sec, tmp150
	movl	4(%rax), %edx	# sec_45->ceilingheight, _16
# p_doors.c:314: 	    door->topheight = sec->ceilingheight;
	.loc 1 314 22
	movq	-8(%rbp), %rax	# door, tmp151
	movl	%edx, 40(%rax)	# _16, door_48->topheight
# p_doors.c:315: 	    door->direction = -1;
	.loc 1 315 22
	movq	-8(%rbp), %rax	# door, tmp152
	movl	$-1, 48(%rax)	#, door_48->direction
# p_doors.c:316: 	    S_StartSound((mobj_t *)&door->sector->soundorg,
	.loc 1 316 34
	movq	-8(%rbp), %rax	# door, tmp153
	movq	32(%rax), %rax	# door_48->sector, _17
# p_doors.c:316: 	    S_StartSound((mobj_t *)&door->sector->soundorg,
	.loc 1 316 29
	addq	$48, %rax	#, _18
# p_doors.c:316: 	    S_StartSound((mobj_t *)&door->sector->soundorg,
	.loc 1 316 6
	movl	$21, %esi	#,
	movq	%rax, %rdi	# _18,
	call	S_StartSound@PLT	#
# p_doors.c:318: 	    break;
	.loc 1 318 6
	jmp	.L53	#
.L59:
# p_doors.c:322: 	    door->direction = 1;
	.loc 1 322 22
	movq	-8(%rbp), %rax	# door, tmp154
	movl	$1, 48(%rax)	#, door_48->direction
# p_doors.c:323: 	    door->topheight = P_FindLowestCeilingSurrounding(sec);
	.loc 1 323 24
	movq	-16(%rbp), %rax	# sec, tmp155
	movq	%rax, %rdi	# tmp155,
	call	P_FindLowestCeilingSurrounding@PLT	#
# p_doors.c:323: 	    door->topheight = P_FindLowestCeilingSurrounding(sec);
	.loc 1 323 22 discriminator 1
	movq	-8(%rbp), %rdx	# door, tmp156
	movl	%eax, 40(%rdx)	# _19, door_48->topheight
# p_doors.c:324: 	    door->topheight -= 4*FRACUNIT;
	.loc 1 324 10
	movq	-8(%rbp), %rax	# door, tmp157
	movl	40(%rax), %eax	# door_48->topheight, _20
# p_doors.c:324: 	    door->topheight -= 4*FRACUNIT;
	.loc 1 324 22
	leal	-262144(%rax), %edx	#, _21
	movq	-8(%rbp), %rax	# door, tmp158
	movl	%edx, 40(%rax)	# _21, door_48->topheight
# p_doors.c:325: 	    door->speed = VDOORSPEED * 4;
	.loc 1 325 18
	movq	-8(%rbp), %rax	# door, tmp159
	movl	$524288, 44(%rax)	#, door_48->speed
# p_doors.c:326: 	    if (door->topheight != sec->ceilingheight)
	.loc 1 326 14
	movq	-8(%rbp), %rax	# door, tmp160
	movl	40(%rax), %edx	# door_48->topheight, _22
# p_doors.c:326: 	    if (door->topheight != sec->ceilingheight)
	.loc 1 326 32
	movq	-16(%rbp), %rax	# sec, tmp161
	movl	4(%rax), %eax	# sec_45->ceilingheight, _23
# p_doors.c:326: 	    if (door->topheight != sec->ceilingheight)
	.loc 1 326 9
	cmpl	%eax, %edx	# _23, _22
	je	.L69	#,
# p_doors.c:327: 		S_StartSound((mobj_t *)&door->sector->soundorg,
	.loc 1 327 31
	movq	-8(%rbp), %rax	# door, tmp162
	movq	32(%rax), %rax	# door_48->sector, _24
# p_doors.c:327: 		S_StartSound((mobj_t *)&door->sector->soundorg,
	.loc 1 327 26
	addq	$48, %rax	#, _25
# p_doors.c:327: 		S_StartSound((mobj_t *)&door->sector->soundorg,
	.loc 1 327 3
	movl	$88, %esi	#,
	movq	%rax, %rdi	# _25,
	call	S_StartSound@PLT	#
# p_doors.c:329: 	    break;
	.loc 1 329 6
	jmp	.L69	#
.L60:
# p_doors.c:333: 	    door->direction = 1;
	.loc 1 333 22
	movq	-8(%rbp), %rax	# door, tmp163
	movl	$1, 48(%rax)	#, door_48->direction
# p_doors.c:334: 	    door->topheight = P_FindLowestCeilingSurrounding(sec);
	.loc 1 334 24
	movq	-16(%rbp), %rax	# sec, tmp164
	movq	%rax, %rdi	# tmp164,
	call	P_FindLowestCeilingSurrounding@PLT	#
# p_doors.c:334: 	    door->topheight = P_FindLowestCeilingSurrounding(sec);
	.loc 1 334 22 discriminator 1
	movq	-8(%rbp), %rdx	# door, tmp165
	movl	%eax, 40(%rdx)	# _26, door_48->topheight
# p_doors.c:335: 	    door->topheight -= 4*FRACUNIT;
	.loc 1 335 10
	movq	-8(%rbp), %rax	# door, tmp166
	movl	40(%rax), %eax	# door_48->topheight, _27
# p_doors.c:335: 	    door->topheight -= 4*FRACUNIT;
	.loc 1 335 22
	leal	-262144(%rax), %edx	#, _28
	movq	-8(%rbp), %rax	# door, tmp167
	movl	%edx, 40(%rax)	# _28, door_48->topheight
# p_doors.c:336: 	    if (door->topheight != sec->ceilingheight)
	.loc 1 336 14
	movq	-8(%rbp), %rax	# door, tmp168
	movl	40(%rax), %edx	# door_48->topheight, _29
# p_doors.c:336: 	    if (door->topheight != sec->ceilingheight)
	.loc 1 336 32
	movq	-16(%rbp), %rax	# sec, tmp169
	movl	4(%rax), %eax	# sec_45->ceilingheight, _30
# p_doors.c:336: 	    if (door->topheight != sec->ceilingheight)
	.loc 1 336 9
	cmpl	%eax, %edx	# _30, _29
	je	.L70	#,
# p_doors.c:337: 		S_StartSound((mobj_t *)&door->sector->soundorg,
	.loc 1 337 31
	movq	-8(%rbp), %rax	# door, tmp170
	movq	32(%rax), %rax	# door_48->sector, _31
# p_doors.c:337: 		S_StartSound((mobj_t *)&door->sector->soundorg,
	.loc 1 337 26
	addq	$48, %rax	#, _32
# p_doors.c:337: 		S_StartSound((mobj_t *)&door->sector->soundorg,
	.loc 1 337 3
	movl	$20, %esi	#,
	movq	%rax, %rdi	# _32,
	call	S_StartSound@PLT	#
# p_doors.c:339: 	    break;
	.loc 1 339 6
	jmp	.L70	#
.L67:
# p_doors.c:279: 	    continue;
	.loc 1 279 6
	nop	
	jmp	.L53	#
.L68:
# p_doors.c:342: 	    break;
	.loc 1 342 6
	nop	
	jmp	.L53	#
.L69:
# p_doors.c:329: 	    break;
	.loc 1 329 6
	nop	
	jmp	.L53	#
.L70:
# p_doors.c:339: 	    break;
	.loc 1 339 6
	nop	
.L53:
# p_doors.c:275:     while ((secnum = P_FindSectorFromLineTag(line,secnum)) >= 0)
	.loc 1 275 22
	movl	-24(%rbp), %edx	# secnum, tmp171
	movq	-40(%rbp), %rax	# line, tmp172
	movl	%edx, %esi	# tmp171,
	movq	%rax, %rdi	# tmp172,
	call	P_FindSectorFromLineTag@PLT	#
	movl	%eax, -24(%rbp)	# tmp173, secnum
# p_doors.c:275:     while ((secnum = P_FindSectorFromLineTag(line,secnum)) >= 0)
	.loc 1 275 60 discriminator 1
	cmpl	$0, -24(%rbp)	#, secnum
	jns	.L65	#,
# p_doors.c:346:     return rtn;
	.loc 1 346 12
	movl	-20(%rbp), %eax	# rtn, _44
# p_doors.c:347: }
	.loc 1 347 1
	leave	
	.cfi_def_cfa 7, 8
	ret	
	.cfi_endproc
.LFE2:
	.size	EV_DoDoor, .-EV_DoDoor
	.section	.rodata
	.align 8
.LC3:
	.string	"You need a blue key to open this door"
	.align 8
.LC4:
	.string	"You need a yellow key to open this door"
	.align 8
.LC5:
	.string	"You need a red key to open this door"
	.text
	.globl	EV_VerticalDoor
	.type	EV_VerticalDoor, @function
EV_VerticalDoor:
.LFB3:
	.loc 1 357 1
	.cfi_startproc
	endbr64	
	pushq	%rbp	#
	.cfi_def_cfa_offset 16
	.cfi_offset 6, -16
	movq	%rsp, %rbp	#,
	.cfi_def_cfa_register 6
	subq	$48, %rsp	#,
	movq	%rdi, -40(%rbp)	# line, line
	movq	%rsi, -48(%rbp)	# thing, thing
# p_doors.c:364:     side = 0;	// only front sides can be used
	.loc 1 364 10
	movl	$0, -32(%rbp)	#, side
# p_doors.c:367:     player = thing->player;
	.loc 1 367 12
	movq	-48(%rbp), %rax	# thing, tmp128
	movq	192(%rax), %rax	# thing_40(D)->player, tmp129
	movq	%rax, -24(%rbp)	# tmp129, player
# p_doors.c:369:     switch(line->special)
	.loc 1 369 16
	movq	-40(%rbp), %rax	# line, tmp130
	movzwl	26(%rax), %eax	# line_42(D)->special, _1
	cwtl
	cmpl	$34, %eax	#, _77
	seta	%dl	#, _78
# p_doors.c:369:     switch(line->special)
	.loc 1 369 5
	testb	%dl, %dl	# _78
	jne	.L72	#,
	movl	$1, %edx	#, tmp131
	movl	%eax, %ecx	# _77, tmp193
	salq	%cl, %rdx	# tmp193, tmp131
	movq	%rdx, %rax	# tmp131, _79
	movabsq	$8858370048, %rdx	#, tmp132
	andq	%rax, %rdx	# _79, _80
	testq	%rdx, %rdx	# _80
	setne	%dl	#, _81
	testb	%dl, %dl	# _81
	jne	.L73	#,
	movabsq	$17314086912, %rdx	#, tmp133
	andq	%rax, %rdx	# _79, _82
	testq	%rdx, %rdx	# _82
	setne	%dl	#, _83
	testb	%dl, %dl	# _83
	jne	.L74	#,
	movabsq	$4362076160, %rdx	#, tmp134
	andq	%rdx, %rax	# tmp134, _84
	testq	%rax, %rax	# _84
	setne	%al	#, _85
	testb	%al, %al	# _85
	je	.L72	#,
# p_doors.c:373: 	if ( !player )
	.loc 1 373 5
	cmpq	$0, -24(%rbp)	#, player
	je	.L96	#,
# p_doors.c:376: 	if (!player->cards[it_bluecard] && !player->cards[it_blueskull])
	.loc 1 376 20
	movq	-24(%rbp), %rax	# player, tmp135
	movl	72(%rax), %eax	# player_41->cards[0], _3
# p_doors.c:376: 	if (!player->cards[it_bluecard] && !player->cards[it_blueskull])
	.loc 1 376 5
	testl	%eax, %eax	# _3
	jne	.L97	#,
# p_doors.c:376: 	if (!player->cards[it_bluecard] && !player->cards[it_blueskull])
	.loc 1 376 51 discriminator 1
	movq	-24(%rbp), %rax	# player, tmp136
	movl	84(%rax), %eax	# player_41->cards[3], _4
# p_doors.c:376: 	if (!player->cards[it_bluecard] && !player->cards[it_blueskull])
	.loc 1 376 34 discriminator 1
	testl	%eax, %eax	# _4
	jne	.L97	#,
# p_doors.c:378: 	    player->message = PD_BLUEK;
	.loc 1 378 22
	movq	-24(%rbp), %rax	# player, tmp137
	leaq	.LC3(%rip), %rdx	#, tmp138
	movq	%rdx, 224(%rax)	# tmp138, player_41->message
# p_doors.c:379: 	    S_StartSound(NULL,sfx_oof);
	.loc 1 379 6
	movl	$34, %esi	#,
	movl	$0, %edi	#,
	call	S_StartSound@PLT	#
# p_doors.c:380: 	    return;
	.loc 1 380 6
	jmp	.L71	#
.L74:
# p_doors.c:386: 	if ( !player )
	.loc 1 386 5
	cmpq	$0, -24(%rbp)	#, player
	je	.L98	#,
# p_doors.c:389: 	if (!player->cards[it_yellowcard] &&
	.loc 1 389 20
	movq	-24(%rbp), %rax	# player, tmp139
	movl	76(%rax), %eax	# player_41->cards[1], _5
# p_doors.c:389: 	if (!player->cards[it_yellowcard] &&
	.loc 1 389 5
	testl	%eax, %eax	# _5
	jne	.L99	#,
# p_doors.c:390: 	    !player->cards[it_yellowskull])
	.loc 1 390 20
	movq	-24(%rbp), %rax	# player, tmp140
	movl	88(%rax), %eax	# player_41->cards[4], _6
# p_doors.c:389: 	if (!player->cards[it_yellowcard] &&
	.loc 1 389 36 discriminator 1
	testl	%eax, %eax	# _6
	jne	.L99	#,
# p_doors.c:392: 	    player->message = PD_YELLOWK;
	.loc 1 392 22
	movq	-24(%rbp), %rax	# player, tmp141
	leaq	.LC4(%rip), %rdx	#, tmp142
	movq	%rdx, 224(%rax)	# tmp142, player_41->message
# p_doors.c:393: 	    S_StartSound(NULL,sfx_oof);
	.loc 1 393 6
	movl	$34, %esi	#,
	movl	$0, %edi	#,
	call	S_StartSound@PLT	#
# p_doors.c:394: 	    return;
	.loc 1 394 6
	jmp	.L71	#
.L73:
# p_doors.c:400: 	if ( !player )
	.loc 1 400 5
	cmpq	$0, -24(%rbp)	#, player
	je	.L100	#,
# p_doors.c:403: 	if (!player->cards[it_redcard] && !player->cards[it_redskull])
	.loc 1 403 20
	movq	-24(%rbp), %rax	# player, tmp143
	movl	80(%rax), %eax	# player_41->cards[2], _7
# p_doors.c:403: 	if (!player->cards[it_redcard] && !player->cards[it_redskull])
	.loc 1 403 5
	testl	%eax, %eax	# _7
	jne	.L101	#,
# p_doors.c:403: 	if (!player->cards[it_redcard] && !player->cards[it_redskull])
	.loc 1 403 50 discriminator 1
	movq	-24(%rbp), %rax	# player, tmp144
	movl	92(%rax), %eax	# player_41->cards[5], _8
# p_doors.c:403: 	if (!player->cards[it_redcard] && !player->cards[it_redskull])
	.loc 1 403 33 discriminator 1
	testl	%eax, %eax	# _8
	jne	.L101	#,
# p_doors.c:405: 	    player->message = PD_REDK;
	.loc 1 405 22
	movq	-24(%rbp), %rax	# player, tmp145
	leaq	.LC5(%rip), %rdx	#, tmp146
	movq	%rdx, 224(%rax)	# tmp146, player_41->message
# p_doors.c:406: 	    S_StartSound(NULL,sfx_oof);
	.loc 1 406 6
	movl	$34, %esi	#,
	movl	$0, %edi	#,
	call	S_StartSound@PLT	#
# p_doors.c:407: 	    return;
	.loc 1 407 6
	jmp	.L71	#
.L97:
# p_doors.c:382: 	break;
	.loc 1 382 2
	nop	
	jmp	.L72	#
.L99:
# p_doors.c:396: 	break;
	.loc 1 396 2
	nop	
	jmp	.L72	#
.L101:
# p_doors.c:409: 	break;
	.loc 1 409 2
	nop	
.L72:
# p_doors.c:413:     sec = sides[ line->sidenum[side^1]] .sector;
	.loc 1 413 16
	movq	sides(%rip), %rcx	# sides, sides.1_9
# p_doors.c:413:     sec = sides[ line->sidenum[side^1]] .sector;
	.loc 1 413 36
	movl	-32(%rbp), %eax	# side, tmp147
	xorl	$1, %eax	#, tmp147
	movl	%eax, %edx	# tmp147, _10
# p_doors.c:413:     sec = sides[ line->sidenum[side^1]] .sector;
	.loc 1 413 31
	movq	-40(%rbp), %rax	# line, tmp148
	movslq	%edx, %rdx	# _10, tmp149
	addq	$8, %rdx	#, tmp150
	movzwl	14(%rax,%rdx,2), %eax	# line_42(D)->sidenum[_10], _11
	movswq	%ax, %rdx	# _11, _12
# p_doors.c:413:     sec = sides[ line->sidenum[side^1]] .sector;
	.loc 1 413 16
	movq	%rdx, %rax	# _12, tmp151
	addq	%rax, %rax	# tmp151
	addq	%rdx, %rax	# _12, tmp151
	salq	$3, %rax	#, tmp152
	addq	%rcx, %rax	# sides.1_9, _14
# p_doors.c:413:     sec = sides[ line->sidenum[side^1]] .sector;
	.loc 1 413 9
	movq	16(%rax), %rax	# _14->sector, tmp153
	movq	%rax, -16(%rbp)	# tmp153, sec
# p_doors.c:414:     secnum = sec-sectors;
	.loc 1 414 17
	movq	sectors(%rip), %rax	# sectors, sectors.2_15
	movq	-16(%rbp), %rdx	# sec, tmp154
	subq	%rax, %rdx	# sectors.2_15, _16
	movq	%rdx, %rax	# _16, _16
	sarq	$7, %rax	#, _16
# p_doors.c:414:     secnum = sec-sectors;
	.loc 1 414 12
	movl	%eax, -28(%rbp)	# _17, secnum
# p_doors.c:416:     if (sec->specialdata)
	.loc 1 416 12
	movq	-16(%rbp), %rax	# sec, tmp156
	movq	104(%rax), %rax	# sec_49->specialdata, _18
# p_doors.c:416:     if (sec->specialdata)
	.loc 1 416 8
	testq	%rax, %rax	# _18
	je	.L82	#,
# p_doors.c:418: 	door = sec->specialdata;
	.loc 1 418 7
	movq	-16(%rbp), %rax	# sec, tmp157
	movq	104(%rax), %rax	# sec_49->specialdata, tmp158
	movq	%rax, -8(%rbp)	# tmp158, door
# p_doors.c:419: 	switch(line->special)
	.loc 1 419 13
	movq	-40(%rbp), %rax	# line, tmp159
	movzwl	26(%rax), %eax	# line_42(D)->special, _19
	cwtl
# p_doors.c:419: 	switch(line->special)
	.loc 1 419 2
	cmpl	$117, %eax	#, _20
	je	.L83	#,
	cmpl	$117, %eax	#, _20
	jg	.L82	#,
	cmpl	$1, %eax	#, _20
	je	.L83	#,
	testl	%eax, %eax	# _20
	jle	.L82	#,
	subl	$26, %eax	#, _87
	cmpl	$2, %eax	#, _87
	ja	.L82	#,
.L83:
# p_doors.c:426: 	    if (door->direction == -1)
	.loc 1 426 14
	movq	-8(%rbp), %rax	# door, tmp160
	movl	48(%rax), %eax	# door_51->direction, _21
# p_doors.c:426: 	    if (door->direction == -1)
	.loc 1 426 9
	cmpl	$-1, %eax	#, _21
	jne	.L84	#,
# p_doors.c:427: 		door->direction = 1;	// go back up
	.loc 1 427 19
	movq	-8(%rbp), %rax	# door, tmp161
	movl	$1, 48(%rax)	#, door_51->direction
# p_doors.c:435: 	    return;
	.loc 1 435 6
	jmp	.L71	#
.L84:
# p_doors.c:430: 		if (!thing->player)
	.loc 1 430 13
	movq	-48(%rbp), %rax	# thing, tmp162
	movq	192(%rax), %rax	# thing_40(D)->player, _22
# p_doors.c:430: 		if (!thing->player)
	.loc 1 430 6
	testq	%rax, %rax	# _22
	je	.L102	#,
# p_doors.c:433: 		door->direction = -1;	// start going down immediately
	.loc 1 433 19
	movq	-8(%rbp), %rax	# door, tmp163
	movl	$-1, 48(%rax)	#, door_51->direction
# p_doors.c:435: 	    return;
	.loc 1 435 6
	jmp	.L71	#
.L82:
# p_doors.c:440:     switch(line->special)
	.loc 1 440 16
	movq	-40(%rbp), %rax	# line, tmp164
	movzwl	26(%rax), %eax	# line_42(D)->special, _23
	cwtl
# p_doors.c:440:     switch(line->special)
	.loc 1 440 5
	cmpl	$118, %eax	#, _24
	jg	.L87	#,
	cmpl	$117, %eax	#, _24
	jge	.L88	#,
	cmpl	$1, %eax	#, _24
	je	.L89	#,
	cmpl	$31, %eax	#, _24
	je	.L89	#,
	jmp	.L87	#
.L88:
# p_doors.c:444: 	S_StartSound((mobj_t *)&sec->soundorg,sfx_bdopn);
	.loc 1 444 25
	movq	-16(%rbp), %rax	# sec, tmp165
	addq	$48, %rax	#, _25
# p_doors.c:444: 	S_StartSound((mobj_t *)&sec->soundorg,sfx_bdopn);
	.loc 1 444 2
	movl	$88, %esi	#,
	movq	%rax, %rdi	# _25,
	call	S_StartSound@PLT	#
# p_doors.c:445: 	break;
	.loc 1 445 2
	jmp	.L90	#
.L89:
# p_doors.c:449: 	S_StartSound((mobj_t *)&sec->soundorg,sfx_doropn);
	.loc 1 449 25
	movq	-16(%rbp), %rax	# sec, tmp166
	addq	$48, %rax	#, _26
# p_doors.c:449: 	S_StartSound((mobj_t *)&sec->soundorg,sfx_doropn);
	.loc 1 449 2
	movl	$20, %esi	#,
	movq	%rax, %rdi	# _26,
	call	S_StartSound@PLT	#
# p_doors.c:450: 	break;
	.loc 1 450 2
	jmp	.L90	#
.L87:
# p_doors.c:453: 	S_StartSound((mobj_t *)&sec->soundorg,sfx_doropn);
	.loc 1 453 25
	movq	-16(%rbp), %rax	# sec, tmp167
	addq	$48, %rax	#, _27
# p_doors.c:453: 	S_StartSound((mobj_t *)&sec->soundorg,sfx_doropn);
	.loc 1 453 2
	movl	$20, %esi	#,
	movq	%rax, %rdi	# _27,
	call	S_StartSound@PLT	#
# p_doors.c:454: 	break;
	.loc 1 454 2
	nop	
.L90:
# p_doors.c:459:     door = Z_Malloc (sizeof(*door), PU_LEVSPEC, 0);
	.loc 1 459 12
	movl	$0, %edx	#,
	movl	$51, %esi	#,
	movl	$64, %edi	#,
	call	Z_Malloc@PLT	#
	movq	%rax, -8(%rbp)	# tmp168, door
# p_doors.c:460:     P_AddThinker (&door->thinker);
	.loc 1 460 5
	movq	-8(%rbp), %rax	# door, _28
	movq	%rax, %rdi	# _28,
	call	P_AddThinker@PLT	#
# p_doors.c:461:     sec->specialdata = door;
	.loc 1 461 22
	movq	-16(%rbp), %rax	# sec, tmp169
	movq	-8(%rbp), %rdx	# door, tmp170
	movq	%rdx, 104(%rax)	# tmp170, sec_49->specialdata
# p_doors.c:462:     door->thinker.function.acp1 = (actionf_p1) T_VerticalDoor;
	.loc 1 462 33
	movq	-8(%rbp), %rax	# door, tmp171
	leaq	T_VerticalDoor(%rip), %rdx	#, tmp172
	movq	%rdx, 16(%rax)	# tmp172, door_58->thinker.function.acp1
# p_doors.c:463:     door->sector = sec;
	.loc 1 463 18
	movq	-8(%rbp), %rax	# door, tmp173
	movq	-16(%rbp), %rdx	# sec, tmp174
	movq	%rdx, 32(%rax)	# tmp174, door_58->sector
# p_doors.c:464:     door->direction = 1;
	.loc 1 464 21
	movq	-8(%rbp), %rax	# door, tmp175
	movl	$1, 48(%rax)	#, door_58->direction
# p_doors.c:465:     door->speed = VDOORSPEED;
	.loc 1 465 17
	movq	-8(%rbp), %rax	# door, tmp176
	movl	$131072, 44(%rax)	#, door_58->speed
# p_doors.c:466:     door->topwait = VDOORWAIT;
	.loc 1 466 19
	movq	-8(%rbp), %rax	# door, tmp177
	movl	$150, 52(%rax)	#, door_58->topwait
# p_doors.c:468:     switch(line->special)
	.loc 1 468 16
	movq	-40(%rbp), %rax	# line, tmp178
	movzwl	26(%rax), %eax	# line_42(D)->special, _29
	cwtl
# p_doors.c:468:     switch(line->special)
	.loc 1 468 5
	cmpl	$118, %eax	#, _30
	je	.L91	#,
	cmpl	$118, %eax	#, _30
	jg	.L92	#,
	cmpl	$117, %eax	#, _30
	je	.L93	#,
	cmpl	$117, %eax	#, _30
	jg	.L92	#,
	cmpl	$34, %eax	#, _30
	jg	.L92	#,
	cmpl	$31, %eax	#, _30
	jge	.L94	#,
	cmpl	$1, %eax	#, _30
	je	.L95	#,
	testl	%eax, %eax	# _30
	jle	.L92	#,
	subl	$26, %eax	#, _89
	cmpl	$2, %eax	#, _89
	ja	.L92	#,
.L95:
# p_doors.c:474: 	door->type = normal;
	.loc 1 474 13
	movq	-8(%rbp), %rax	# door, tmp179
	movl	$0, 24(%rax)	#, door_58->type
# p_doors.c:475: 	break;
	.loc 1 475 2
	jmp	.L92	#
.L94:
# p_doors.c:481: 	door->type = open;
	.loc 1 481 13
	movq	-8(%rbp), %rax	# door, tmp180
	movl	$3, 24(%rax)	#, door_58->type
# p_doors.c:482: 	line->special = 0;
	.loc 1 482 16
	movq	-40(%rbp), %rax	# line, tmp181
	movw	$0, 26(%rax)	#, line_42(D)->special
# p_doors.c:483: 	break;
	.loc 1 483 2
	jmp	.L92	#
.L93:
# p_doors.c:486: 	door->type = blazeRaise;
	.loc 1 486 13
	movq	-8(%rbp), %rax	# door, tmp182
	movl	$5, 24(%rax)	#, door_58->type
# p_doors.c:487: 	door->speed = VDOORSPEED*4;
	.loc 1 487 14
	movq	-8(%rbp), %rax	# door, tmp183
	movl	$524288, 44(%rax)	#, door_58->speed
# p_doors.c:488: 	break;
	.loc 1 488 2
	jmp	.L92	#
.L91:
# p_doors.c:490: 	door->type = blazeOpen;
	.loc 1 490 13
	movq	-8(%rbp), %rax	# door, tmp184
	movl	$6, 24(%rax)	#, door_58->type
# p_doors.c:491: 	line->special = 0;
	.loc 1 491 16
	movq	-40(%rbp), %rax	# line, tmp185
	movw	$0, 26(%rax)	#, line_42(D)->special
# p_doors.c:492: 	door->speed = VDOORSPEED*4;
	.loc 1 492 14
	movq	-8(%rbp), %rax	# door, tmp186
	movl	$524288, 44(%rax)	#, door_58->speed
# p_doors.c:493: 	break;
	.loc 1 493 2
	nop	
.L92:
# p_doors.c:497:     door->topheight = P_FindLowestCeilingSurrounding(sec);
	.loc 1 497 23
	movq	-16(%rbp), %rax	# sec, tmp187
	movq	%rax, %rdi	# tmp187,
	call	P_FindLowestCeilingSurrounding@PLT	#
# p_doors.c:497:     door->topheight = P_FindLowestCeilingSurrounding(sec);
	.loc 1 497 21 discriminator 1
	movq	-8(%rbp), %rdx	# door, tmp188
	movl	%eax, 40(%rdx)	# _31, door_58->topheight
# p_doors.c:498:     door->topheight -= 4*FRACUNIT;
	.loc 1 498 9
	movq	-8(%rbp), %rax	# door, tmp189
	movl	40(%rax), %eax	# door_58->topheight, _32
# p_doors.c:498:     door->topheight -= 4*FRACUNIT;
	.loc 1 498 21
	leal	-262144(%rax), %edx	#, _33
	movq	-8(%rbp), %rax	# door, tmp190
	movl	%edx, 40(%rax)	# _33, door_58->topheight
	jmp	.L71	#
.L96:
# p_doors.c:374: 	    return;
	.loc 1 374 6
	nop	
	jmp	.L71	#
.L98:
# p_doors.c:387: 	    return;
	.loc 1 387 6
	nop	
	jmp	.L71	#
.L100:
# p_doors.c:401: 	    return;
	.loc 1 401 6
	nop	
	jmp	.L71	#
.L102:
# p_doors.c:431: 		    return;		// JDC: bad guys never close doors
	.loc 1 431 7
	nop	
.L71:
# p_doors.c:499: }
	.loc 1 499 1
	leave	
	.cfi_def_cfa 7, 8
	ret	
	.cfi_endproc
.LFE3:
	.size	EV_VerticalDoor, .-EV_VerticalDoor
	.globl	P_SpawnDoorCloseIn30
	.type	P_SpawnDoorCloseIn30, @function
P_SpawnDoorCloseIn30:
.LFB4:
	.loc 1 506 1
	.cfi_startproc
	endbr64	
	pushq	%rbp	#
	.cfi_def_cfa_offset 16
	.cfi_offset 6, -16
	movq	%rsp, %rbp	#,
	.cfi_def_cfa_register 6
	subq	$32, %rsp	#,
	movq	%rdi, -24(%rbp)	# sec, sec
# p_doors.c:509:     door = Z_Malloc ( sizeof(*door), PU_LEVSPEC, 0);
	.loc 1 509 12
	movl	$0, %edx	#,
	movl	$51, %esi	#,
	movl	$64, %edi	#,
	call	Z_Malloc@PLT	#
	movq	%rax, -8(%rbp)	# tmp83, door
# p_doors.c:511:     P_AddThinker (&door->thinker);
	.loc 1 511 5
	movq	-8(%rbp), %rax	# door, _1
	movq	%rax, %rdi	# _1,
	call	P_AddThinker@PLT	#
# p_doors.c:513:     sec->specialdata = door;
	.loc 1 513 22
	movq	-24(%rbp), %rax	# sec, tmp84
	movq	-8(%rbp), %rdx	# door, tmp85
	movq	%rdx, 104(%rax)	# tmp85, sec_6(D)->specialdata
# p_doors.c:514:     sec->special = 0;
	.loc 1 514 18
	movq	-24(%rbp), %rax	# sec, tmp86
	movw	$0, 14(%rax)	#, sec_6(D)->special
# p_doors.c:516:     door->thinker.function.acp1 = (actionf_p1)T_VerticalDoor;
	.loc 1 516 33
	movq	-8(%rbp), %rax	# door, tmp87
	leaq	T_VerticalDoor(%rip), %rdx	#, tmp88
	movq	%rdx, 16(%rax)	# tmp88, door_4->thinker.function.acp1
# p_doors.c:517:     door->sector = sec;
	.loc 1 517 18
	movq	-8(%rbp), %rax	# door, tmp89
	movq	-24(%rbp), %rdx	# sec, tmp90
	movq	%rdx, 32(%rax)	# tmp90, door_4->sector
# p_doors.c:518:     door->direction = 0;
	.loc 1 518 21
	movq	-8(%rbp), %rax	# door, tmp91
	movl	$0, 48(%rax)	#, door_4->direction
# p_doors.c:519:     door->type = normal;
	.loc 1 519 16
	movq	-8(%rbp), %rax	# door, tmp92
	movl	$0, 24(%rax)	#, door_4->type
# p_doors.c:520:     door->speed = VDOORSPEED;
	.loc 1 520 17
	movq	-8(%rbp), %rax	# door, tmp93
	movl	$131072, 44(%rax)	#, door_4->speed
# p_doors.c:521:     door->topcountdown = 30 * 35;
	.loc 1 521 24
	movq	-8(%rbp), %rax	# door, tmp94
	movl	$1050, 56(%rax)	#, door_4->topcountdown
# p_doors.c:522: }
	.loc 1 522 1
	nop	
	leave	
	.cfi_def_cfa 7, 8
	ret	
	.cfi_endproc
.LFE4:
	.size	P_SpawnDoorCloseIn30, .-P_SpawnDoorCloseIn30
	.globl	P_SpawnDoorRaiseIn5Mins
	.type	P_SpawnDoorRaiseIn5Mins, @function
P_SpawnDoorRaiseIn5Mins:
.LFB5:
	.loc 1 531 1
	.cfi_startproc
	endbr64	
	pushq	%rbp	#
	.cfi_def_cfa_offset 16
	.cfi_offset 6, -16
	movq	%rsp, %rbp	#,
	.cfi_def_cfa_register 6
	subq	$32, %rsp	#,
	movq	%rdi, -24(%rbp)	# sec, sec
	movl	%esi, -28(%rbp)	# secnum, secnum
# p_doors.c:534:     door = Z_Malloc ( sizeof(*door), PU_LEVSPEC, 0);
	.loc 1 534 12
	movl	$0, %edx	#,
	movl	$51, %esi	#,
	movl	$64, %edi	#,
	call	Z_Malloc@PLT	#
	movq	%rax, -8(%rbp)	# tmp86, door
# p_doors.c:536:     P_AddThinker (&door->thinker);
	.loc 1 536 5
	movq	-8(%rbp), %rax	# door, _1
	movq	%rax, %rdi	# _1,
	call	P_AddThinker@PLT	#
# p_doors.c:538:     sec->specialdata = door;
	.loc 1 538 22
	movq	-24(%rbp), %rax	# sec, tmp87
	movq	-8(%rbp), %rdx	# door, tmp88
	movq	%rdx, 104(%rax)	# tmp88, sec_9(D)->specialdata
# p_doors.c:539:     sec->special = 0;
	.loc 1 539 18
	movq	-24(%rbp), %rax	# sec, tmp89
	movw	$0, 14(%rax)	#, sec_9(D)->special
# p_doors.c:541:     door->thinker.function.acp1 = (actionf_p1)T_VerticalDoor;
	.loc 1 541 33
	movq	-8(%rbp), %rax	# door, tmp90
	leaq	T_VerticalDoor(%rip), %rdx	#, tmp91
	movq	%rdx, 16(%rax)	# tmp91, door_7->thinker.function.acp1
# p_doors.c:542:     door->sector = sec;
	.loc 1 542 18
	movq	-8(%rbp), %rax	# door, tmp92
	movq	-24(%rbp), %rdx	# sec, tmp93
	movq	%rdx, 32(%rax)	# tmp93, door_7->sector
# p_doors.c:543:     door->direction = 2;
	.loc 1 543 21
	movq	-8(%rbp), %rax	# door, tmp94
	movl	$2, 48(%rax)	#, door_7->direction
# p_doors.c:544:     door->type = raiseIn5Mins;
	.loc 1 544 16
	movq	-8(%rbp), %rax	# door, tmp95
	movl	$4, 24(%rax)	#, door_7->type
# p_doors.c:545:     door->speed = VDOORSPEED;
	.loc 1 545 17
	movq	-8(%rbp), %rax	# door, tmp96
	movl	$131072, 44(%rax)	#, door_7->speed
# p_doors.c:546:     door->topheight = P_FindLowestCeilingSurrounding(sec);
	.loc 1 546 23
	movq	-24(%rbp), %rax	# sec, tmp97
	movq	%rax, %rdi	# tmp97,
	call	P_FindLowestCeilingSurrounding@PLT	#
# p_doors.c:546:     door->topheight = P_FindLowestCeilingSurrounding(sec);
	.loc 1 546 21 discriminator 1
	movq	-8(%rbp), %rdx	# door, tmp98
	movl	%eax, 40(%rdx)	# _2, door_7->topheight
# p_doors.c:547:     door->topheight -= 4*FRACUNIT;
	.loc 1 547 9
	movq	-8(%rbp), %rax	# door, tmp99
	movl	40(%rax), %eax	# door_7->topheight, _3
# p_doors.c:547:     door->topheight -= 4*FRACUNIT;
	.loc 1 547 21
	leal	-262144(%rax), %edx	#, _4
	movq	-8(%rbp), %rax	# door, tmp100
	movl	%edx, 40(%rax)	# _4, door_7->topheight
# p_doors.c:548:     door->topwait = VDOORWAIT;
	.loc 1 548 19
	movq	-8(%rbp), %rax	# door, tmp101
	movl	$150, 52(%rax)	#, door_7->topwait
# p_doors.c:549:     door->topcountdown = 5 * 60 * 35;
	.loc 1 549 24
	movq	-8(%rbp), %rax	# door, tmp102
	movl	$10500, 56(%rax)	#, door_7->topcountdown
# p_doors.c:550: }
	.loc 1 550 1
	nop	
	leave	
	.cfi_def_cfa 7, 8
	ret	
	.cfi_endproc
.LFE5:
	.size	P_SpawnDoorRaiseIn5Mins, .-P_SpawnDoorRaiseIn5Mins
.Letext0:
	.file 2 "doomdef.h"
	.file 3 "m_fixed.h"
	.file 4 "tables.h"
	.file 5 "d_think.h"
	.file 6 "doomtype.h"
	.file 7 "doomdata.h"
	.file 8 "info.h"
	.file 9 "p_mobj.h"
	.file 10 "r_defs.h"
	.file 11 "d_player.h"
	.file 12 "p_pspr.h"
	.file 13 "d_ticcmd.h"
	.file 14 "r_state.h"
	.file 15 "p_spec.h"
	.file 16 "sounds.h"
	.file 17 "z_zone.h"
	.file 18 "p_local.h"
	.file 19 "s_sound.h"
	.section	.note.GNU-stack,"",@progbits
	.section	.note.gnu.property,"a"
	.align 8
	.long	1f - 0f
	.long	4f - 1f
	.long	5
0:
	.string	"GNU"
1:
	.align 8
	.long	0xc0000002
	.long	3f - 2f
2:
	.long	0x3
3:
	.align 8
4:
