	.file	"p_inter.c"
# GNU C17 (Ubuntu 13.3.0-6ubuntu2~24.04) version 13.3.0 (x86_64-linux-gnu)
#	compiled by GNU C version 13.3.0, GMP version 6.3.0, MPFR version 4.2.1, MPC version 1.3.1, isl version isl-0.26-GMP

# GGC heuristics: --param ggc-min-expand=100 --param ggc-min-heapsize=131072
# options passed: -mtune=generic -march=x86-64 -g -fasynchronous-unwind-tables -fstack-protector-strong -fstack-clash-protection -fcf-protection
	.text
.Ltext0:
	.file 0 "/home/astrid/Documents/enseignements/DOOM/linuxdoom-1.10" "p_inter.c"
	.section	.rodata
	.align 32
	.type	rcsid, @object
	.size	rcsid, 50
rcsid:
	.string	"$Id: p_inter.c,v 1.4 1997/02/03 22:45:11 b1 Exp $"
	.globl	maxammo
	.data
	.align 16
	.type	maxammo, @object
	.size	maxammo, 16
maxammo:
	.long	200
	.long	50
	.long	300
	.long	50
	.globl	clipammo
	.align 16
	.type	clipammo, @object
	.size	clipammo, 16
clipammo:
	.long	10
	.long	4
	.long	20
	.long	1
	.section	.rodata
.LC0:
	.string	"P_GiveAmmo: bad type %i"
	.text
	.globl	P_GiveAmmo
	.type	P_GiveAmmo, @function
P_GiveAmmo:
.LFB0:
	.file 1 "p_inter.c"
	.loc 1 78 1
	.cfi_startproc
	endbr64	
	pushq	%rbp	#
	.cfi_def_cfa_offset 16
	.cfi_offset 6, -16
	movq	%rsp, %rbp	#,
	.cfi_def_cfa_register 6
	subq	$32, %rsp	#,
	movq	%rdi, -24(%rbp)	# player, player
	movl	%esi, -28(%rbp)	# ammo, ammo
	movl	%edx, -32(%rbp)	# num, num
# p_inter.c:81:     if (ammo == am_noammo)
	.loc 1 81 8
	cmpl	$5, -28(%rbp)	#, ammo
	jne	.L2	#,
# p_inter.c:82: 	return false;
	.loc 1 82 9
	movl	$0, %eax	#, _24
	jmp	.L3	#
.L2:
# p_inter.c:84:     if (ammo < 0 || ammo > NUMAMMO)
	.loc 1 84 8
	cmpl	$4, -28(%rbp)	#, ammo
	jbe	.L4	#,
# p_inter.c:85: 	I_Error ("P_GiveAmmo: bad type %i", ammo);
	.loc 1 85 2
	movl	-28(%rbp), %eax	# ammo, tmp105
	movl	%eax, %esi	# tmp105,
	leaq	.LC0(%rip), %rax	#, tmp106
	movq	%rax, %rdi	# tmp106,
	movl	$0, %eax	#,
	call	I_Error@PLT	#
.L4:
# p_inter.c:87:     if ( player->ammo[ammo] == player->maxammo[ammo]  )
	.loc 1 87 22
	movq	-24(%rbp), %rax	# player, tmp107
	movl	-28(%rbp), %edx	# ammo, tmp108
	addq	$40, %rdx	#, tmp109
	movl	(%rax,%rdx,4), %edx	# player_36(D)->ammo[ammo_33(D)], _1
# p_inter.c:87:     if ( player->ammo[ammo] == player->maxammo[ammo]  )
	.loc 1 87 47
	movq	-24(%rbp), %rax	# player, tmp110
	movl	-28(%rbp), %ecx	# ammo, tmp111
	addq	$44, %rcx	#, tmp112
	movl	(%rax,%rcx,4), %eax	# player_36(D)->maxammo[ammo_33(D)], _2
# p_inter.c:87:     if ( player->ammo[ammo] == player->maxammo[ammo]  )
	.loc 1 87 8
	cmpl	%eax, %edx	# _2, _1
	jne	.L5	#,
# p_inter.c:88: 	return false;
	.loc 1 88 9
	movl	$0, %eax	#, _24
	jmp	.L3	#
.L5:
# p_inter.c:90:     if (num)
	.loc 1 90 8
	cmpl	$0, -32(%rbp)	#, num
	je	.L6	#,
# p_inter.c:91: 	num *= clipammo[ammo];
	.loc 1 91 17
	movl	-28(%rbp), %eax	# ammo, tmp113
	leaq	0(,%rax,4), %rdx	#, tmp114
	leaq	clipammo(%rip), %rax	#, tmp115
	movl	(%rdx,%rax), %eax	# clipammo[ammo_33(D)], _3
# p_inter.c:91: 	num *= clipammo[ammo];
	.loc 1 91 6
	movl	-32(%rbp), %edx	# num, tmp117
	imull	%edx, %eax	# tmp117, tmp116
	movl	%eax, -32(%rbp)	# tmp116, num
	jmp	.L7	#
.L6:
# p_inter.c:93: 	num = clipammo[ammo]/2;
	.loc 1 93 16
	movl	-28(%rbp), %eax	# ammo, tmp118
	leaq	0(,%rax,4), %rdx	#, tmp119
	leaq	clipammo(%rip), %rax	#, tmp120
	movl	(%rdx,%rax), %eax	# clipammo[ammo_33(D)], _4
# p_inter.c:93: 	num = clipammo[ammo]/2;
	.loc 1 93 6
	movl	%eax, %edx	# _4, tmp121
	shrl	$31, %edx	#, tmp121
	addl	%edx, %eax	# tmp121, tmp122
	sarl	%eax	# tmp123
	movl	%eax, -32(%rbp)	# tmp123, num
.L7:
# p_inter.c:95:     if (gameskill == sk_baby
	.loc 1 95 19
	movl	gameskill(%rip), %eax	# gameskill, gameskill.0_5
# p_inter.c:95:     if (gameskill == sk_baby
	.loc 1 95 8
	testl	%eax, %eax	# gameskill.0_5
	je	.L8	#,
# p_inter.c:96: 	|| gameskill == sk_nightmare)
	.loc 1 96 15
	movl	gameskill(%rip), %eax	# gameskill, gameskill.1_6
# p_inter.c:96: 	|| gameskill == sk_nightmare)
	.loc 1 96 2
	cmpl	$4, %eax	#, gameskill.1_6
	jne	.L9	#,
.L8:
# p_inter.c:100: 	num <<= 1;
	.loc 1 100 6
	sall	-32(%rbp)	# num
.L9:
# p_inter.c:104:     oldammo = player->ammo[ammo];
	.loc 1 104 13
	movq	-24(%rbp), %rax	# player, tmp124
	movl	-28(%rbp), %edx	# ammo, tmp125
	addq	$40, %rdx	#, tmp126
	movl	(%rax,%rdx,4), %eax	# player_36(D)->ammo[ammo_33(D)], tmp127
	movl	%eax, -4(%rbp)	# tmp127, oldammo
# p_inter.c:105:     player->ammo[ammo] += num;
	.loc 1 105 17
	movq	-24(%rbp), %rax	# player, tmp128
	movl	-28(%rbp), %edx	# ammo, tmp129
	addq	$40, %rdx	#, tmp130
	movl	(%rax,%rdx,4), %edx	# player_36(D)->ammo[ammo_33(D)], _7
# p_inter.c:105:     player->ammo[ammo] += num;
	.loc 1 105 24
	movl	-32(%rbp), %eax	# num, tmp131
	leal	(%rdx,%rax), %ecx	#, _8
	movq	-24(%rbp), %rax	# player, tmp132
	movl	-28(%rbp), %edx	# ammo, tmp133
	addq	$40, %rdx	#, tmp134
	movl	%ecx, (%rax,%rdx,4)	# _8, player_36(D)->ammo[ammo_33(D)]
# p_inter.c:107:     if (player->ammo[ammo] > player->maxammo[ammo])
	.loc 1 107 21
	movq	-24(%rbp), %rax	# player, tmp135
	movl	-28(%rbp), %edx	# ammo, tmp136
	addq	$40, %rdx	#, tmp137
	movl	(%rax,%rdx,4), %edx	# player_36(D)->ammo[ammo_33(D)], _9
# p_inter.c:107:     if (player->ammo[ammo] > player->maxammo[ammo])
	.loc 1 107 45
	movq	-24(%rbp), %rax	# player, tmp138
	movl	-28(%rbp), %ecx	# ammo, tmp139
	addq	$44, %rcx	#, tmp140
	movl	(%rax,%rcx,4), %eax	# player_36(D)->maxammo[ammo_33(D)], _10
# p_inter.c:107:     if (player->ammo[ammo] > player->maxammo[ammo])
	.loc 1 107 8
	cmpl	%eax, %edx	# _10, _9
	jle	.L10	#,
# p_inter.c:108: 	player->ammo[ammo] = player->maxammo[ammo];
	.loc 1 108 38
	movq	-24(%rbp), %rax	# player, tmp141
	movl	-28(%rbp), %edx	# ammo, tmp142
	addq	$44, %rdx	#, tmp143
	movl	(%rax,%rdx,4), %edx	# player_36(D)->maxammo[ammo_33(D)], _11
# p_inter.c:108: 	player->ammo[ammo] = player->maxammo[ammo];
	.loc 1 108 21
	movq	-24(%rbp), %rax	# player, tmp144
	movl	-28(%rbp), %ecx	# ammo, tmp145
	addq	$40, %rcx	#, tmp146
	movl	%edx, (%rax,%rcx,4)	# _11, player_36(D)->ammo[ammo_33(D)]
.L10:
# p_inter.c:113:     if (oldammo)
	.loc 1 113 8
	cmpl	$0, -4(%rbp)	#, oldammo
	je	.L11	#,
# p_inter.c:114: 	return true;	
	.loc 1 114 9
	movl	$1, %eax	#, _24
	jmp	.L3	#
.L11:
# p_inter.c:119:     switch (ammo)
	.loc 1 119 5
	cmpl	$3, -28(%rbp)	#, ammo
	je	.L12	#,
	cmpl	$3, -28(%rbp)	#, ammo
	ja	.L24	#,
	cmpl	$2, -28(%rbp)	#, ammo
	je	.L14	#,
	cmpl	$2, -28(%rbp)	#, ammo
	ja	.L24	#,
	cmpl	$0, -28(%rbp)	#, ammo
	je	.L15	#,
	cmpl	$1, -28(%rbp)	#, ammo
	je	.L16	#,
# p_inter.c:156: 	break;
	.loc 1 156 2
	jmp	.L24	#
.L15:
# p_inter.c:122: 	if (player->readyweapon == wp_fist)
	.loc 1 122 12
	movq	-24(%rbp), %rax	# player, tmp147
	movl	116(%rax), %eax	# player_36(D)->readyweapon, _12
# p_inter.c:122: 	if (player->readyweapon == wp_fist)
	.loc 1 122 5
	testl	%eax, %eax	# _12
	jne	.L25	#,
# p_inter.c:124: 	    if (player->weaponowned[wp_chaingun])
	.loc 1 124 29
	movq	-24(%rbp), %rax	# player, tmp148
	movl	136(%rax), %eax	# player_36(D)->weaponowned[3], _13
# p_inter.c:124: 	    if (player->weaponowned[wp_chaingun])
	.loc 1 124 9
	testl	%eax, %eax	# _13
	je	.L18	#,
# p_inter.c:125: 		player->pendingweapon = wp_chaingun;
	.loc 1 125 25
	movq	-24(%rbp), %rax	# player, tmp149
	movl	$3, 120(%rax)	#, player_36(D)->pendingweapon
# p_inter.c:129: 	break;
	.loc 1 129 2
	jmp	.L25	#
.L18:
# p_inter.c:127: 		player->pendingweapon = wp_pistol;
	.loc 1 127 25
	movq	-24(%rbp), %rax	# player, tmp150
	movl	$1, 120(%rax)	#, player_36(D)->pendingweapon
# p_inter.c:129: 	break;
	.loc 1 129 2
	jmp	.L25	#
.L16:
# p_inter.c:132: 	if (player->readyweapon == wp_fist
	.loc 1 132 12
	movq	-24(%rbp), %rax	# player, tmp151
	movl	116(%rax), %eax	# player_36(D)->readyweapon, _14
# p_inter.c:132: 	if (player->readyweapon == wp_fist
	.loc 1 132 5
	testl	%eax, %eax	# _14
	je	.L20	#,
# p_inter.c:133: 	    || player->readyweapon == wp_pistol)
	.loc 1 133 15
	movq	-24(%rbp), %rax	# player, tmp152
	movl	116(%rax), %eax	# player_36(D)->readyweapon, _15
# p_inter.c:133: 	    || player->readyweapon == wp_pistol)
	.loc 1 133 6
	cmpl	$1, %eax	#, _15
	jne	.L26	#,
.L20:
# p_inter.c:135: 	    if (player->weaponowned[wp_shotgun])
	.loc 1 135 29
	movq	-24(%rbp), %rax	# player, tmp153
	movl	132(%rax), %eax	# player_36(D)->weaponowned[2], _16
# p_inter.c:135: 	    if (player->weaponowned[wp_shotgun])
	.loc 1 135 9
	testl	%eax, %eax	# _16
	je	.L26	#,
# p_inter.c:136: 		player->pendingweapon = wp_shotgun;
	.loc 1 136 25
	movq	-24(%rbp), %rax	# player, tmp154
	movl	$2, 120(%rax)	#, player_36(D)->pendingweapon
# p_inter.c:138: 	break;
	.loc 1 138 2
	jmp	.L26	#
.L14:
# p_inter.c:141: 	if (player->readyweapon == wp_fist
	.loc 1 141 12
	movq	-24(%rbp), %rax	# player, tmp155
	movl	116(%rax), %eax	# player_36(D)->readyweapon, _17
# p_inter.c:141: 	if (player->readyweapon == wp_fist
	.loc 1 141 5
	testl	%eax, %eax	# _17
	je	.L22	#,
# p_inter.c:142: 	    || player->readyweapon == wp_pistol)
	.loc 1 142 15
	movq	-24(%rbp), %rax	# player, tmp156
	movl	116(%rax), %eax	# player_36(D)->readyweapon, _18
# p_inter.c:142: 	    || player->readyweapon == wp_pistol)
	.loc 1 142 6
	cmpl	$1, %eax	#, _18
	jne	.L27	#,
.L22:
# p_inter.c:144: 	    if (player->weaponowned[wp_plasma])
	.loc 1 144 29
	movq	-24(%rbp), %rax	# player, tmp157
	movl	144(%rax), %eax	# player_36(D)->weaponowned[5], _19
# p_inter.c:144: 	    if (player->weaponowned[wp_plasma])
	.loc 1 144 9
	testl	%eax, %eax	# _19
	je	.L27	#,
# p_inter.c:145: 		player->pendingweapon = wp_plasma;
	.loc 1 145 25
	movq	-24(%rbp), %rax	# player, tmp158
	movl	$5, 120(%rax)	#, player_36(D)->pendingweapon
# p_inter.c:147: 	break;
	.loc 1 147 2
	jmp	.L27	#
.L12:
# p_inter.c:150: 	if (player->readyweapon == wp_fist)
	.loc 1 150 12
	movq	-24(%rbp), %rax	# player, tmp159
	movl	116(%rax), %eax	# player_36(D)->readyweapon, _20
# p_inter.c:150: 	if (player->readyweapon == wp_fist)
	.loc 1 150 5
	testl	%eax, %eax	# _20
	jne	.L24	#,
# p_inter.c:152: 	    if (player->weaponowned[wp_missile])
	.loc 1 152 29
	movq	-24(%rbp), %rax	# player, tmp160
	movl	140(%rax), %eax	# player_36(D)->weaponowned[4], _21
# p_inter.c:152: 	    if (player->weaponowned[wp_missile])
	.loc 1 152 9
	testl	%eax, %eax	# _21
	je	.L24	#,
# p_inter.c:153: 		player->pendingweapon = wp_missile;
	.loc 1 153 25
	movq	-24(%rbp), %rax	# player, tmp161
	movl	$4, 120(%rax)	#, player_36(D)->pendingweapon
.L24:
# p_inter.c:156: 	break;
	.loc 1 156 2
	nop	
	jmp	.L19	#
.L25:
# p_inter.c:129: 	break;
	.loc 1 129 2
	nop	
	jmp	.L19	#
.L26:
# p_inter.c:138: 	break;
	.loc 1 138 2
	nop	
	jmp	.L19	#
.L27:
# p_inter.c:147: 	break;
	.loc 1 147 2
	nop	
.L19:
# p_inter.c:159:     return true;
	.loc 1 159 12
	movl	$1, %eax	#, _24
.L3:
# p_inter.c:160: }
	.loc 1 160 1
	leave	
	.cfi_def_cfa 7, 8
	ret	
	.cfi_endproc
.LFE0:
	.size	P_GiveAmmo, .-P_GiveAmmo
	.globl	P_GiveWeapon
	.type	P_GiveWeapon, @function
P_GiveWeapon:
.LFB1:
	.loc 1 172 1
	.cfi_startproc
	endbr64	
	pushq	%rbp	#
	.cfi_def_cfa_offset 16
	.cfi_offset 6, -16
	movq	%rsp, %rbp	#,
	.cfi_def_cfa_register 6
	subq	$32, %rsp	#,
	movq	%rdi, -24(%rbp)	# player, player
	movl	%esi, -28(%rbp)	# weapon, weapon
	movl	%edx, -32(%rbp)	# dropped, dropped
# p_inter.c:176:     if (netgame
	.loc 1 176 9
	movl	netgame(%rip), %eax	# netgame, netgame.2_1
# p_inter.c:176:     if (netgame
	.loc 1 176 8
	testl	%eax, %eax	# netgame.2_1
	je	.L29	#,
# p_inter.c:177: 	&& (deathmatch!=2)
	.loc 1 177 16
	movl	deathmatch(%rip), %eax	# deathmatch, deathmatch.3_2
# p_inter.c:177: 	&& (deathmatch!=2)
	.loc 1 177 2
	cmpl	$2, %eax	#, deathmatch.3_2
	je	.L29	#,
# p_inter.c:178: 	 && !dropped )
	.loc 1 178 3
	cmpl	$0, -32(%rbp)	#, dropped
	jne	.L29	#,
# p_inter.c:181: 	if (player->weaponowned[weapon])
	.loc 1 181 25
	movq	-24(%rbp), %rax	# player, tmp99
	movl	-28(%rbp), %edx	# weapon, tmp100
	addq	$28, %rdx	#, tmp101
	movl	12(%rax,%rdx,4), %eax	# player_26(D)->weaponowned[weapon_27(D)], _3
# p_inter.c:181: 	if (player->weaponowned[weapon])
	.loc 1 181 5
	testl	%eax, %eax	# _3
	je	.L30	#,
# p_inter.c:182: 	    return false;
	.loc 1 182 13
	movl	$0, %eax	#, _17
	jmp	.L31	#
.L30:
# p_inter.c:184: 	player->bonuscount += BONUSADD;
	.loc 1 184 8
	movq	-24(%rbp), %rax	# player, tmp102
	movl	236(%rax), %eax	# player_26(D)->bonuscount, _4
# p_inter.c:184: 	player->bonuscount += BONUSADD;
	.loc 1 184 21
	leal	6(%rax), %edx	#, _5
	movq	-24(%rbp), %rax	# player, tmp103
	movl	%edx, 236(%rax)	# _5, player_26(D)->bonuscount
# p_inter.c:185: 	player->weaponowned[weapon] = true;
	.loc 1 185 30
	movq	-24(%rbp), %rax	# player, tmp104
	movl	-28(%rbp), %edx	# weapon, tmp105
	addq	$28, %rdx	#, tmp106
	movl	$1, 12(%rax,%rdx,4)	#, player_26(D)->weaponowned[weapon_27(D)]
# p_inter.c:187: 	if (deathmatch)
	.loc 1 187 6
	movl	deathmatch(%rip), %eax	# deathmatch, deathmatch.4_6
# p_inter.c:187: 	if (deathmatch)
	.loc 1 187 5
	testl	%eax, %eax	# deathmatch.4_6
	je	.L32	#,
# p_inter.c:188: 	    P_GiveAmmo (player, weaponinfo[weapon].ammo, 5);
	.loc 1 188 6
	movl	-28(%rbp), %edx	# weapon, tmp107
	movq	%rdx, %rax	# tmp107, tmp109
	addq	%rax, %rax	# tmp109
	addq	%rdx, %rax	# tmp107, tmp109
	salq	$3, %rax	#, tmp110
	movq	%rax, %rdx	# tmp109, tmp108
	leaq	weaponinfo(%rip), %rax	#, tmp111
	movl	(%rdx,%rax), %ecx	# weaponinfo[weapon_27(D)].ammo, _7
	movq	-24(%rbp), %rax	# player, tmp112
	movl	$5, %edx	#,
	movl	%ecx, %esi	# _7,
	movq	%rax, %rdi	# tmp112,
	call	P_GiveAmmo	#
	jmp	.L33	#
.L32:
# p_inter.c:190: 	    P_GiveAmmo (player, weaponinfo[weapon].ammo, 2);
	.loc 1 190 6
	movl	-28(%rbp), %edx	# weapon, tmp113
	movq	%rdx, %rax	# tmp113, tmp115
	addq	%rax, %rax	# tmp115
	addq	%rdx, %rax	# tmp113, tmp115
	salq	$3, %rax	#, tmp116
	movq	%rax, %rdx	# tmp115, tmp114
	leaq	weaponinfo(%rip), %rax	#, tmp117
	movl	(%rdx,%rax), %ecx	# weaponinfo[weapon_27(D)].ammo, _8
	movq	-24(%rbp), %rax	# player, tmp118
	movl	$2, %edx	#,
	movl	%ecx, %esi	# _8,
	movq	%rax, %rdi	# tmp118,
	call	P_GiveAmmo	#
.L33:
# p_inter.c:191: 	player->pendingweapon = weapon;
	.loc 1 191 24
	movq	-24(%rbp), %rax	# player, tmp119
	movl	-28(%rbp), %edx	# weapon, tmp120
	movl	%edx, 120(%rax)	# tmp120, player_26(D)->pendingweapon
# p_inter.c:193: 	if (player == &players[consoleplayer])
	.loc 1 193 24
	movl	consoleplayer(%rip), %eax	# consoleplayer, consoleplayer.5_9
# p_inter.c:193: 	if (player == &players[consoleplayer])
	.loc 1 193 16
	movslq	%eax, %rdx	# consoleplayer.5_9, tmp121
	movq	%rdx, %rax	# tmp121, tmp122
	salq	$2, %rax	#, tmp122
	addq	%rdx, %rax	# tmp121, tmp122
	salq	$6, %rax	#, tmp123
	leaq	players(%rip), %rdx	#, tmp124
	addq	%rdx, %rax	# tmp124, _10
# p_inter.c:193: 	if (player == &players[consoleplayer])
	.loc 1 193 5
	cmpq	%rax, -24(%rbp)	# _10, player
	jne	.L34	#,
# p_inter.c:194: 	    S_StartSound (NULL, sfx_wpnup);
	.loc 1 194 6
	movl	$33, %esi	#,
	movl	$0, %edi	#,
	call	S_StartSound@PLT	#
.L34:
# p_inter.c:195: 	return false;
	.loc 1 195 9
	movl	$0, %eax	#, _17
	jmp	.L31	#
.L29:
# p_inter.c:198:     if (weaponinfo[weapon].ammo != am_noammo)
	.loc 1 198 27
	movl	-28(%rbp), %edx	# weapon, tmp125
	movq	%rdx, %rax	# tmp125, tmp127
	addq	%rax, %rax	# tmp127
	addq	%rdx, %rax	# tmp125, tmp127
	salq	$3, %rax	#, tmp128
	movq	%rax, %rdx	# tmp127, tmp126
	leaq	weaponinfo(%rip), %rax	#, tmp129
	movl	(%rdx,%rax), %eax	# weaponinfo[weapon_27(D)].ammo, _11
# p_inter.c:198:     if (weaponinfo[weapon].ammo != am_noammo)
	.loc 1 198 8
	cmpl	$5, %eax	#, _11
	je	.L35	#,
# p_inter.c:202: 	if (dropped)
	.loc 1 202 5
	cmpl	$0, -32(%rbp)	#, dropped
	je	.L36	#,
# p_inter.c:203: 	    gaveammo = P_GiveAmmo (player, weaponinfo[weapon].ammo, 1);
	.loc 1 203 17
	movl	-28(%rbp), %edx	# weapon, tmp130
	movq	%rdx, %rax	# tmp130, tmp132
	addq	%rax, %rax	# tmp132
	addq	%rdx, %rax	# tmp130, tmp132
	salq	$3, %rax	#, tmp133
	movq	%rax, %rdx	# tmp132, tmp131
	leaq	weaponinfo(%rip), %rax	#, tmp134
	movl	(%rdx,%rax), %ecx	# weaponinfo[weapon_27(D)].ammo, _12
	movq	-24(%rbp), %rax	# player, tmp135
	movl	$1, %edx	#,
	movl	%ecx, %esi	# _12,
	movq	%rax, %rdi	# tmp135,
	call	P_GiveAmmo	#
	movl	%eax, -8(%rbp)	# tmp136, gaveammo
	jmp	.L37	#
.L36:
# p_inter.c:205: 	    gaveammo = P_GiveAmmo (player, weaponinfo[weapon].ammo, 2);
	.loc 1 205 17
	movl	-28(%rbp), %edx	# weapon, tmp137
	movq	%rdx, %rax	# tmp137, tmp139
	addq	%rax, %rax	# tmp139
	addq	%rdx, %rax	# tmp137, tmp139
	salq	$3, %rax	#, tmp140
	movq	%rax, %rdx	# tmp139, tmp138
	leaq	weaponinfo(%rip), %rax	#, tmp141
	movl	(%rdx,%rax), %ecx	# weaponinfo[weapon_27(D)].ammo, _13
	movq	-24(%rbp), %rax	# player, tmp142
	movl	$2, %edx	#,
	movl	%ecx, %esi	# _13,
	movq	%rax, %rdi	# tmp142,
	call	P_GiveAmmo	#
	movl	%eax, -8(%rbp)	# tmp143, gaveammo
	jmp	.L37	#
.L35:
# p_inter.c:208: 	gaveammo = false;
	.loc 1 208 11
	movl	$0, -8(%rbp)	#, gaveammo
.L37:
# p_inter.c:210:     if (player->weaponowned[weapon])
	.loc 1 210 28
	movq	-24(%rbp), %rax	# player, tmp144
	movl	-28(%rbp), %edx	# weapon, tmp145
	addq	$28, %rdx	#, tmp146
	movl	12(%rax,%rdx,4), %eax	# player_26(D)->weaponowned[weapon_27(D)], _14
# p_inter.c:210:     if (player->weaponowned[weapon])
	.loc 1 210 8
	testl	%eax, %eax	# _14
	je	.L38	#,
# p_inter.c:211: 	gaveweapon = false;
	.loc 1 211 13
	movl	$0, -4(%rbp)	#, gaveweapon
	jmp	.L39	#
.L38:
# p_inter.c:214: 	gaveweapon = true;
	.loc 1 214 13
	movl	$1, -4(%rbp)	#, gaveweapon
# p_inter.c:215: 	player->weaponowned[weapon] = true;
	.loc 1 215 30
	movq	-24(%rbp), %rax	# player, tmp147
	movl	-28(%rbp), %edx	# weapon, tmp148
	addq	$28, %rdx	#, tmp149
	movl	$1, 12(%rax,%rdx,4)	#, player_26(D)->weaponowned[weapon_27(D)]
# p_inter.c:216: 	player->pendingweapon = weapon;
	.loc 1 216 24
	movq	-24(%rbp), %rax	# player, tmp150
	movl	-28(%rbp), %edx	# weapon, tmp151
	movl	%edx, 120(%rax)	# tmp151, player_26(D)->pendingweapon
.L39:
# p_inter.c:219:     return (gaveweapon || gaveammo);
	.loc 1 219 24
	cmpl	$0, -4(%rbp)	#, gaveweapon
	jne	.L40	#,
# p_inter.c:219:     return (gaveweapon || gaveammo);
	.loc 1 219 24 is_stmt 0 discriminator 2
	cmpl	$0, -8(%rbp)	#, gaveammo
	je	.L41	#,
.L40:
# p_inter.c:219:     return (gaveweapon || gaveammo);
	.loc 1 219 24 discriminator 3
	movl	$1, %eax	#, iftmp.6_18
# p_inter.c:219:     return (gaveweapon || gaveammo);
	.loc 1 219 24
	jmp	.L31	#
.L41:
# p_inter.c:219:     return (gaveweapon || gaveammo);
	.loc 1 219 24 discriminator 4
	movl	$0, %eax	#, iftmp.6_18
.L31:
# p_inter.c:220: }
	.loc 1 220 1 is_stmt 1
	leave	
	.cfi_def_cfa 7, 8
	ret	
	.cfi_endproc
.LFE1:
	.size	P_GiveWeapon, .-P_GiveWeapon
	.globl	P_GiveBody
	.type	P_GiveBody, @function
P_GiveBody:
.LFB2:
	.loc 1 232 1
	.cfi_startproc
	endbr64	
	pushq	%rbp	#
	.cfi_def_cfa_offset 16
	.cfi_offset 6, -16
	movq	%rsp, %rbp	#,
	.cfi_def_cfa_register 6
	movq	%rdi, -8(%rbp)	# player, player
	movl	%esi, -12(%rbp)	# num, num
# p_inter.c:233:     if (player->health >= MAXHEALTH)
	.loc 1 233 15
	movq	-8(%rbp), %rax	# player, tmp90
	movl	36(%rax), %eax	# player_11(D)->health, _1
# p_inter.c:233:     if (player->health >= MAXHEALTH)
	.loc 1 233 8
	cmpl	$99, %eax	#, _1
	jle	.L44	#,
# p_inter.c:234: 	return false;
	.loc 1 234 9
	movl	$0, %eax	#, _7
	jmp	.L45	#
.L44:
# p_inter.c:236:     player->health += num;
	.loc 1 236 11
	movq	-8(%rbp), %rax	# player, tmp91
	movl	36(%rax), %edx	# player_11(D)->health, _2
# p_inter.c:236:     player->health += num;
	.loc 1 236 20
	movl	-12(%rbp), %eax	# num, tmp92
	addl	%eax, %edx	# tmp92, _3
	movq	-8(%rbp), %rax	# player, tmp93
	movl	%edx, 36(%rax)	# _3, player_11(D)->health
# p_inter.c:237:     if (player->health > MAXHEALTH)
	.loc 1 237 15
	movq	-8(%rbp), %rax	# player, tmp94
	movl	36(%rax), %eax	# player_11(D)->health, _4
# p_inter.c:237:     if (player->health > MAXHEALTH)
	.loc 1 237 8
	cmpl	$100, %eax	#, _4
	jle	.L46	#,
# p_inter.c:238: 	player->health = MAXHEALTH;
	.loc 1 238 17
	movq	-8(%rbp), %rax	# player, tmp95
	movl	$100, 36(%rax)	#, player_11(D)->health
.L46:
# p_inter.c:239:     player->mo->health = player->health;
	.loc 1 239 11
	movq	-8(%rbp), %rax	# player, tmp96
	movq	(%rax), %rax	# player_11(D)->mo, _5
# p_inter.c:239:     player->mo->health = player->health;
	.loc 1 239 32
	movq	-8(%rbp), %rdx	# player, tmp97
	movl	36(%rdx), %edx	# player_11(D)->health, _6
# p_inter.c:239:     player->mo->health = player->health;
	.loc 1 239 24
	movl	%edx, 164(%rax)	# _6, _5->health
# p_inter.c:241:     return true;
	.loc 1 241 12
	movl	$1, %eax	#, _7
.L45:
# p_inter.c:242: }
	.loc 1 242 1
	popq	%rbp	#
	.cfi_def_cfa 7, 8
	ret	
	.cfi_endproc
.LFE2:
	.size	P_GiveBody, .-P_GiveBody
	.globl	P_GiveArmor
	.type	P_GiveArmor, @function
P_GiveArmor:
.LFB3:
	.loc 1 255 1
	.cfi_startproc
	endbr64	
	pushq	%rbp	#
	.cfi_def_cfa_offset 16
	.cfi_offset 6, -16
	movq	%rsp, %rbp	#,
	.cfi_def_cfa_register 6
	movq	%rdi, -24(%rbp)	# player, player
	movl	%esi, -28(%rbp)	# armortype, armortype
# p_inter.c:258:     hits = armortype*100;
	.loc 1 258 10
	movl	-28(%rbp), %eax	# armortype, tmp86
	imull	$100, %eax, %eax	#, tmp86, tmp85
	movl	%eax, -4(%rbp)	# tmp85, hits
# p_inter.c:259:     if (player->armorpoints >= hits)
	.loc 1 259 15
	movq	-24(%rbp), %rax	# player, tmp87
	movl	40(%rax), %eax	# player_7(D)->armorpoints, _1
# p_inter.c:259:     if (player->armorpoints >= hits)
	.loc 1 259 8
	cmpl	%eax, -4(%rbp)	# _1, hits
	jg	.L48	#,
# p_inter.c:260: 	return false;	// don't pick up
	.loc 1 260 9
	movl	$0, %eax	#, _2
	jmp	.L49	#
.L48:
# p_inter.c:262:     player->armortype = armortype;
	.loc 1 262 23
	movq	-24(%rbp), %rax	# player, tmp88
	movl	-28(%rbp), %edx	# armortype, tmp89
	movl	%edx, 44(%rax)	# tmp89, player_7(D)->armortype
# p_inter.c:263:     player->armorpoints = hits;
	.loc 1 263 25
	movq	-24(%rbp), %rax	# player, tmp90
	movl	-4(%rbp), %edx	# hits, tmp91
	movl	%edx, 40(%rax)	# tmp91, player_7(D)->armorpoints
# p_inter.c:265:     return true;
	.loc 1 265 12
	movl	$1, %eax	#, _2
.L49:
# p_inter.c:266: }
	.loc 1 266 1
	popq	%rbp	#
	.cfi_def_cfa 7, 8
	ret	
	.cfi_endproc
.LFE3:
	.size	P_GiveArmor, .-P_GiveArmor
	.globl	P_GiveCard
	.type	P_GiveCard, @function
P_GiveCard:
.LFB4:
	.loc 1 277 1
	.cfi_startproc
	endbr64	
	pushq	%rbp	#
	.cfi_def_cfa_offset 16
	.cfi_offset 6, -16
	movq	%rsp, %rbp	#,
	.cfi_def_cfa_register 6
	movq	%rdi, -8(%rbp)	# player, player
	movl	%esi, -12(%rbp)	# card, card
# p_inter.c:278:     if (player->cards[card])
	.loc 1 278 22
	movq	-8(%rbp), %rax	# player, tmp83
	movl	-12(%rbp), %edx	# card, tmp84
	addq	$16, %rdx	#, tmp85
	movl	8(%rax,%rdx,4), %eax	# player_4(D)->cards[card_5(D)], _1
# p_inter.c:278:     if (player->cards[card])
	.loc 1 278 8
	testl	%eax, %eax	# _1
	jne	.L53	#,
# p_inter.c:281:     player->bonuscount = BONUSADD;
	.loc 1 281 24
	movq	-8(%rbp), %rax	# player, tmp86
	movl	$6, 236(%rax)	#, player_4(D)->bonuscount
# p_inter.c:282:     player->cards[card] = 1;
	.loc 1 282 25
	movq	-8(%rbp), %rax	# player, tmp87
	movl	-12(%rbp), %edx	# card, tmp88
	addq	$16, %rdx	#, tmp89
	movl	$1, 8(%rax,%rdx,4)	#, player_4(D)->cards[card_5(D)]
	jmp	.L50	#
.L53:
# p_inter.c:279: 	return;
	.loc 1 279 2
	nop	
.L50:
# p_inter.c:283: }
	.loc 1 283 1
	popq	%rbp	#
	.cfi_def_cfa 7, 8
	ret	
	.cfi_endproc
.LFE4:
	.size	P_GiveCard, .-P_GiveCard
	.globl	P_GivePower
	.type	P_GivePower, @function
P_GivePower:
.LFB5:
	.loc 1 293 1
	.cfi_startproc
	endbr64	
	pushq	%rbp	#
	.cfi_def_cfa_offset 16
	.cfi_offset 6, -16
	movq	%rsp, %rbp	#,
	.cfi_def_cfa_register 6
	subq	$16, %rsp	#,
	movq	%rdi, -8(%rbp)	# player, player
	movl	%esi, -12(%rbp)	# power, power
# p_inter.c:294:     if (power == pw_invulnerability)
	.loc 1 294 8
	cmpl	$0, -12(%rbp)	#, power
	jne	.L55	#,
# p_inter.c:296: 	player->powers[power] = INVULNTICS;
	.loc 1 296 24
	movq	-8(%rbp), %rax	# player, tmp89
	movl	-12(%rbp), %edx	# power, tmp91
	movslq	%edx, %rdx	# tmp91, tmp90
	addq	$12, %rdx	#, tmp92
	movl	$1050, (%rax,%rdx,4)	#, player_10(D)->powers[power_8(D)]
# p_inter.c:297: 	return true;
	.loc 1 297 9
	movl	$1, %eax	#, _6
	jmp	.L56	#
.L55:
# p_inter.c:300:     if (power == pw_invisibility)
	.loc 1 300 8
	cmpl	$2, -12(%rbp)	#, power
	jne	.L57	#,
# p_inter.c:302: 	player->powers[power] = INVISTICS;
	.loc 1 302 24
	movq	-8(%rbp), %rax	# player, tmp93
	movl	-12(%rbp), %edx	# power, tmp95
	movslq	%edx, %rdx	# tmp95, tmp94
	addq	$12, %rdx	#, tmp96
	movl	$2100, (%rax,%rdx,4)	#, player_10(D)->powers[power_8(D)]
# p_inter.c:303: 	player->mo->flags |= MF_SHADOW;
	.loc 1 303 8
	movq	-8(%rbp), %rax	# player, tmp97
	movq	(%rax), %rax	# player_10(D)->mo, _1
# p_inter.c:303: 	player->mo->flags |= MF_SHADOW;
	.loc 1 303 12
	movl	160(%rax), %edx	# _1->flags, _2
# p_inter.c:303: 	player->mo->flags |= MF_SHADOW;
	.loc 1 303 8
	movq	-8(%rbp), %rax	# player, tmp98
	movq	(%rax), %rax	# player_10(D)->mo, _3
# p_inter.c:303: 	player->mo->flags |= MF_SHADOW;
	.loc 1 303 20
	orl	$262144, %edx	#, _4
	movl	%edx, 160(%rax)	# _4, _3->flags
# p_inter.c:304: 	return true;
	.loc 1 304 9
	movl	$1, %eax	#, _6
	jmp	.L56	#
.L57:
# p_inter.c:307:     if (power == pw_infrared)
	.loc 1 307 8
	cmpl	$5, -12(%rbp)	#, power
	jne	.L58	#,
# p_inter.c:309: 	player->powers[power] = INFRATICS;
	.loc 1 309 24
	movq	-8(%rbp), %rax	# player, tmp99
	movl	-12(%rbp), %edx	# power, tmp101
	movslq	%edx, %rdx	# tmp101, tmp100
	addq	$12, %rdx	#, tmp102
	movl	$4200, (%rax,%rdx,4)	#, player_10(D)->powers[power_8(D)]
# p_inter.c:310: 	return true;
	.loc 1 310 9
	movl	$1, %eax	#, _6
	jmp	.L56	#
.L58:
# p_inter.c:313:     if (power == pw_ironfeet)
	.loc 1 313 8
	cmpl	$3, -12(%rbp)	#, power
	jne	.L59	#,
# p_inter.c:315: 	player->powers[power] = IRONTICS;
	.loc 1 315 24
	movq	-8(%rbp), %rax	# player, tmp103
	movl	-12(%rbp), %edx	# power, tmp105
	movslq	%edx, %rdx	# tmp105, tmp104
	addq	$12, %rdx	#, tmp106
	movl	$2100, (%rax,%rdx,4)	#, player_10(D)->powers[power_8(D)]
# p_inter.c:316: 	return true;
	.loc 1 316 9
	movl	$1, %eax	#, _6
	jmp	.L56	#
.L59:
# p_inter.c:319:     if (power == pw_strength)
	.loc 1 319 8
	cmpl	$1, -12(%rbp)	#, power
	jne	.L60	#,
# p_inter.c:321: 	P_GiveBody (player, 100);
	.loc 1 321 2
	movq	-8(%rbp), %rax	# player, tmp107
	movl	$100, %esi	#,
	movq	%rax, %rdi	# tmp107,
	call	P_GiveBody	#
# p_inter.c:322: 	player->powers[power] = 1;
	.loc 1 322 24
	movq	-8(%rbp), %rax	# player, tmp108
	movl	-12(%rbp), %edx	# power, tmp110
	movslq	%edx, %rdx	# tmp110, tmp109
	addq	$12, %rdx	#, tmp111
	movl	$1, (%rax,%rdx,4)	#, player_10(D)->powers[power_8(D)]
# p_inter.c:323: 	return true;
	.loc 1 323 9
	movl	$1, %eax	#, _6
	jmp	.L56	#
.L60:
# p_inter.c:326:     if (player->powers[power])
	.loc 1 326 23
	movq	-8(%rbp), %rax	# player, tmp112
	movl	-12(%rbp), %edx	# power, tmp114
	movslq	%edx, %rdx	# tmp114, tmp113
	addq	$12, %rdx	#, tmp115
	movl	(%rax,%rdx,4), %eax	# player_10(D)->powers[power_8(D)], _5
# p_inter.c:326:     if (player->powers[power])
	.loc 1 326 8
	testl	%eax, %eax	# _5
	je	.L61	#,
# p_inter.c:327: 	return false;	// already got it
	.loc 1 327 9
	movl	$0, %eax	#, _6
	jmp	.L56	#
.L61:
# p_inter.c:329:     player->powers[power] = 1;
	.loc 1 329 27
	movq	-8(%rbp), %rax	# player, tmp116
	movl	-12(%rbp), %edx	# power, tmp118
	movslq	%edx, %rdx	# tmp118, tmp117
	addq	$12, %rdx	#, tmp119
	movl	$1, (%rax,%rdx,4)	#, player_10(D)->powers[power_8(D)]
# p_inter.c:330:     return true;
	.loc 1 330 12
	movl	$1, %eax	#, _6
.L56:
# p_inter.c:331: }
	.loc 1 331 1
	leave	
	.cfi_def_cfa 7, 8
	ret	
	.cfi_endproc
.LFE5:
	.size	P_GivePower, .-P_GivePower
	.section	.rodata
.LC1:
	.string	"Picked up the armor."
.LC2:
	.string	"Picked up the MegaArmor!"
.LC3:
	.string	"Picked up a health bonus."
.LC4:
	.string	"Picked up an armor bonus."
.LC5:
	.string	"Supercharge!"
.LC6:
	.string	"MegaSphere!"
.LC7:
	.string	"Picked up a blue keycard."
.LC8:
	.string	"Picked up a yellow keycard."
.LC9:
	.string	"Picked up a red keycard."
.LC10:
	.string	"Picked up a blue skull key."
.LC11:
	.string	"Picked up a yellow skull key."
.LC12:
	.string	"Picked up a red skull key."
.LC13:
	.string	"Picked up a stimpack."
	.align 8
.LC14:
	.string	"Picked up a medikit that you REALLY need!"
.LC15:
	.string	"Picked up a medikit."
.LC16:
	.string	"Invulnerability!"
.LC17:
	.string	"Berserk!"
.LC18:
	.string	"Partial Invisibility"
.LC19:
	.string	"Radiation Shielding Suit"
.LC20:
	.string	"Computer Area Map"
.LC21:
	.string	"Light Amplification Visor"
.LC22:
	.string	"Picked up a clip."
.LC23:
	.string	"Picked up a box of bullets."
.LC24:
	.string	"Picked up a rocket."
.LC25:
	.string	"Picked up a box of rockets."
.LC26:
	.string	"Picked up an energy cell."
	.align 8
.LC27:
	.string	"Picked up an energy cell pack."
.LC28:
	.string	"Picked up 4 shotgun shells."
	.align 8
.LC29:
	.string	"Picked up a box of shotgun shells."
	.align 8
.LC30:
	.string	"Picked up a backpack full of ammo!"
	.align 8
.LC31:
	.string	"You got the BFG9000!  Oh, yes."
.LC32:
	.string	"You got the chaingun!"
.LC33:
	.string	"A chainsaw!  Find some meat!"
.LC34:
	.string	"You got the rocket launcher!"
.LC35:
	.string	"You got the plasma gun!"
.LC36:
	.string	"You got the shotgun!"
.LC37:
	.string	"You got the super shotgun!"
	.align 8
.LC38:
	.string	"P_SpecialThing: Unknown gettable thing"
	.text
	.globl	P_TouchSpecialThing
	.type	P_TouchSpecialThing, @function
P_TouchSpecialThing:
.LFB6:
	.loc 1 342 1
	.cfi_startproc
	endbr64	
	pushq	%rbp	#
	.cfi_def_cfa_offset 16
	.cfi_offset 6, -16
	movq	%rsp, %rbp	#,
	.cfi_def_cfa_register 6
	subq	$48, %rsp	#,
	movq	%rdi, -40(%rbp)	# special, special
	movq	%rsi, -48(%rbp)	# toucher, toucher
# p_inter.c:348:     delta = special->z - toucher->z;
	.loc 1 348 20
	movq	-40(%rbp), %rax	# special, tmp167
	movl	32(%rax), %edx	# special_109(D)->z, _1
# p_inter.c:348:     delta = special->z - toucher->z;
	.loc 1 348 33
	movq	-48(%rbp), %rax	# toucher, tmp168
	movl	32(%rax), %eax	# toucher_110(D)->z, _2
# p_inter.c:348:     delta = special->z - toucher->z;
	.loc 1 348 11
	subl	%eax, %edx	# _2, tmp169
	movl	%edx, -12(%rbp)	# tmp169, delta
# p_inter.c:350:     if (delta > toucher->height
	.loc 1 350 24
	movq	-48(%rbp), %rax	# toucher, tmp170
	movl	108(%rax), %eax	# toucher_110(D)->height, _3
# p_inter.c:350:     if (delta > toucher->height
	.loc 1 350 8
	cmpl	%eax, -12(%rbp)	# _3, delta
	jg	.L158	#,
# p_inter.c:351: 	|| delta < -8*FRACUNIT)
	.loc 1 351 2
	cmpl	$-524288, -12(%rbp)	#, delta
	jl	.L158	#,
# p_inter.c:358:     sound = sfx_itemup;	
	.loc 1 358 11
	movl	$32, -16(%rbp)	#, sound
# p_inter.c:359:     player = toucher->player;
	.loc 1 359 12
	movq	-48(%rbp), %rax	# toucher, tmp171
	movq	192(%rax), %rax	# toucher_110(D)->player, tmp172
	movq	%rax, -8(%rbp)	# tmp172, player
# p_inter.c:363:     if (toucher->health <= 0)
	.loc 1 363 16
	movq	-48(%rbp), %rax	# toucher, tmp173
	movl	164(%rax), %eax	# toucher_110(D)->health, _4
# p_inter.c:363:     if (toucher->health <= 0)
	.loc 1 363 8
	testl	%eax, %eax	# _4
	jle	.L159	#,
# p_inter.c:367:     switch (special->sprite)
	.loc 1 367 20
	movq	-40(%rbp), %rax	# special, tmp174
	movl	60(%rax), %eax	# special_109(D)->sprite, _5
# p_inter.c:367:     switch (special->sprite)
	.loc 1 367 5
	subl	$55, %eax	#, tmp175
	cmpl	$38, %eax	#, tmp175
	ja	.L67	#,
	movl	%eax, %eax	# tmp175, tmp176
	leaq	0(,%rax,4), %rdx	#, tmp177
	leaq	.L69(%rip), %rax	#, tmp178
	movl	(%rdx,%rax), %eax	#, tmp179
	cltq
	leaq	.L69(%rip), %rdx	#, tmp182
	addq	%rdx, %rax	# tmp182, tmp181
	notrack jmp	*%rax	# tmp181
	.section	.rodata
	.align 4
	.align 4
.L69:
	.long	.L104-.L69
	.long	.L103-.L69
	.long	.L67-.L69
	.long	.L67-.L69
	.long	.L67-.L69
	.long	.L102-.L69
	.long	.L101-.L69
	.long	.L100-.L69
	.long	.L99-.L69
	.long	.L98-.L69
	.long	.L97-.L69
	.long	.L96-.L69
	.long	.L95-.L69
	.long	.L94-.L69
	.long	.L93-.L69
	.long	.L92-.L69
	.long	.L91-.L69
	.long	.L90-.L69
	.long	.L89-.L69
	.long	.L88-.L69
	.long	.L87-.L69
	.long	.L86-.L69
	.long	.L85-.L69
	.long	.L84-.L69
	.long	.L83-.L69
	.long	.L82-.L69
	.long	.L81-.L69
	.long	.L80-.L69
	.long	.L79-.L69
	.long	.L78-.L69
	.long	.L77-.L69
	.long	.L76-.L69
	.long	.L75-.L69
	.long	.L74-.L69
	.long	.L73-.L69
	.long	.L72-.L69
	.long	.L71-.L69
	.long	.L70-.L69
	.long	.L68-.L69
	.text
.L104:
# p_inter.c:371: 	if (!P_GiveArmor (player, 1))
	.loc 1 371 7
	movq	-8(%rbp), %rax	# player, tmp183
	movl	$1, %esi	#,
	movq	%rax, %rdi	# tmp183,
	call	P_GiveArmor	#
# p_inter.c:371: 	if (!P_GiveArmor (player, 1))
	.loc 1 371 5 discriminator 1
	testl	%eax, %eax	# _6
	je	.L160	#,
# p_inter.c:373: 	player->message = GOTARMOR;
	.loc 1 373 18
	movq	-8(%rbp), %rax	# player, tmp184
	leaq	.LC1(%rip), %rdx	#, tmp185
	movq	%rdx, 224(%rax)	# tmp185, player_113->message
# p_inter.c:374: 	break;
	.loc 1 374 2
	jmp	.L106	#
.L103:
# p_inter.c:377: 	if (!P_GiveArmor (player, 2))
	.loc 1 377 7
	movq	-8(%rbp), %rax	# player, tmp186
	movl	$2, %esi	#,
	movq	%rax, %rdi	# tmp186,
	call	P_GiveArmor	#
# p_inter.c:377: 	if (!P_GiveArmor (player, 2))
	.loc 1 377 5 discriminator 1
	testl	%eax, %eax	# _7
	je	.L161	#,
# p_inter.c:379: 	player->message = GOTMEGA;
	.loc 1 379 18
	movq	-8(%rbp), %rax	# player, tmp187
	leaq	.LC2(%rip), %rdx	#, tmp188
	movq	%rdx, 224(%rax)	# tmp188, player_113->message
# p_inter.c:380: 	break;
	.loc 1 380 2
	jmp	.L106	#
.L102:
# p_inter.c:384: 	player->health++;		// can go over 100%
	.loc 1 384 8
	movq	-8(%rbp), %rax	# player, tmp189
	movl	36(%rax), %eax	# player_113->health, _8
# p_inter.c:384: 	player->health++;		// can go over 100%
	.loc 1 384 16
	leal	1(%rax), %edx	#, _9
	movq	-8(%rbp), %rax	# player, tmp190
	movl	%edx, 36(%rax)	# _9, player_113->health
# p_inter.c:385: 	if (player->health > 200)
	.loc 1 385 12
	movq	-8(%rbp), %rax	# player, tmp191
	movl	36(%rax), %eax	# player_113->health, _10
# p_inter.c:385: 	if (player->health > 200)
	.loc 1 385 5
	cmpl	$200, %eax	#, _10
	jle	.L108	#,
# p_inter.c:386: 	    player->health = 200;
	.loc 1 386 21
	movq	-8(%rbp), %rax	# player, tmp192
	movl	$200, 36(%rax)	#, player_113->health
.L108:
# p_inter.c:387: 	player->mo->health = player->health;
	.loc 1 387 8
	movq	-8(%rbp), %rax	# player, tmp193
	movq	(%rax), %rax	# player_113->mo, _11
# p_inter.c:387: 	player->mo->health = player->health;
	.loc 1 387 29
	movq	-8(%rbp), %rdx	# player, tmp194
	movl	36(%rdx), %edx	# player_113->health, _12
# p_inter.c:387: 	player->mo->health = player->health;
	.loc 1 387 21
	movl	%edx, 164(%rax)	# _12, _11->health
# p_inter.c:388: 	player->message = GOTHTHBONUS;
	.loc 1 388 18
	movq	-8(%rbp), %rax	# player, tmp195
	leaq	.LC3(%rip), %rdx	#, tmp196
	movq	%rdx, 224(%rax)	# tmp196, player_113->message
# p_inter.c:389: 	break;
	.loc 1 389 2
	jmp	.L106	#
.L101:
# p_inter.c:392: 	player->armorpoints++;		// can go over 100%
	.loc 1 392 8
	movq	-8(%rbp), %rax	# player, tmp197
	movl	40(%rax), %eax	# player_113->armorpoints, _13
# p_inter.c:392: 	player->armorpoints++;		// can go over 100%
	.loc 1 392 21
	leal	1(%rax), %edx	#, _14
	movq	-8(%rbp), %rax	# player, tmp198
	movl	%edx, 40(%rax)	# _14, player_113->armorpoints
# p_inter.c:393: 	if (player->armorpoints > 200)
	.loc 1 393 12
	movq	-8(%rbp), %rax	# player, tmp199
	movl	40(%rax), %eax	# player_113->armorpoints, _15
# p_inter.c:393: 	if (player->armorpoints > 200)
	.loc 1 393 5
	cmpl	$200, %eax	#, _15
	jle	.L109	#,
# p_inter.c:394: 	    player->armorpoints = 200;
	.loc 1 394 26
	movq	-8(%rbp), %rax	# player, tmp200
	movl	$200, 40(%rax)	#, player_113->armorpoints
.L109:
# p_inter.c:395: 	if (!player->armortype)
	.loc 1 395 13
	movq	-8(%rbp), %rax	# player, tmp201
	movl	44(%rax), %eax	# player_113->armortype, _16
# p_inter.c:395: 	if (!player->armortype)
	.loc 1 395 5
	testl	%eax, %eax	# _16
	jne	.L110	#,
# p_inter.c:396: 	    player->armortype = 1;
	.loc 1 396 24
	movq	-8(%rbp), %rax	# player, tmp202
	movl	$1, 44(%rax)	#, player_113->armortype
.L110:
# p_inter.c:397: 	player->message = GOTARMBONUS;
	.loc 1 397 18
	movq	-8(%rbp), %rax	# player, tmp203
	leaq	.LC4(%rip), %rdx	#, tmp204
	movq	%rdx, 224(%rax)	# tmp204, player_113->message
# p_inter.c:398: 	break;
	.loc 1 398 2
	jmp	.L106	#
.L92:
# p_inter.c:401: 	player->health += 100;
	.loc 1 401 8
	movq	-8(%rbp), %rax	# player, tmp205
	movl	36(%rax), %eax	# player_113->health, _17
# p_inter.c:401: 	player->health += 100;
	.loc 1 401 17
	leal	100(%rax), %edx	#, _18
	movq	-8(%rbp), %rax	# player, tmp206
	movl	%edx, 36(%rax)	# _18, player_113->health
# p_inter.c:402: 	if (player->health > 200)
	.loc 1 402 12
	movq	-8(%rbp), %rax	# player, tmp207
	movl	36(%rax), %eax	# player_113->health, _19
# p_inter.c:402: 	if (player->health > 200)
	.loc 1 402 5
	cmpl	$200, %eax	#, _19
	jle	.L111	#,
# p_inter.c:403: 	    player->health = 200;
	.loc 1 403 21
	movq	-8(%rbp), %rax	# player, tmp208
	movl	$200, 36(%rax)	#, player_113->health
.L111:
# p_inter.c:404: 	player->mo->health = player->health;
	.loc 1 404 8
	movq	-8(%rbp), %rax	# player, tmp209
	movq	(%rax), %rax	# player_113->mo, _20
# p_inter.c:404: 	player->mo->health = player->health;
	.loc 1 404 29
	movq	-8(%rbp), %rdx	# player, tmp210
	movl	36(%rdx), %edx	# player_113->health, _21
# p_inter.c:404: 	player->mo->health = player->health;
	.loc 1 404 21
	movl	%edx, 164(%rax)	# _21, _20->health
# p_inter.c:405: 	player->message = GOTSUPER;
	.loc 1 405 18
	movq	-8(%rbp), %rax	# player, tmp211
	leaq	.LC5(%rip), %rdx	#, tmp212
	movq	%rdx, 224(%rax)	# tmp212, player_113->message
# p_inter.c:406: 	sound = sfx_getpow;
	.loc 1 406 8
	movl	$93, -16(%rbp)	#, sound
# p_inter.c:407: 	break;
	.loc 1 407 2
	jmp	.L106	#
.L88:
# p_inter.c:410: 	if (gamemode != commercial)
	.loc 1 410 15
	movl	gamemode(%rip), %eax	# gamemode, gamemode.7_22
# p_inter.c:410: 	if (gamemode != commercial)
	.loc 1 410 5
	cmpl	$2, %eax	#, gamemode.7_22
	jne	.L162	#,
# p_inter.c:412: 	player->health = 200;
	.loc 1 412 17
	movq	-8(%rbp), %rax	# player, tmp213
	movl	$200, 36(%rax)	#, player_113->health
# p_inter.c:413: 	player->mo->health = player->health;
	.loc 1 413 8
	movq	-8(%rbp), %rax	# player, tmp214
	movq	(%rax), %rax	# player_113->mo, _23
# p_inter.c:413: 	player->mo->health = player->health;
	.loc 1 413 29
	movq	-8(%rbp), %rdx	# player, tmp215
	movl	36(%rdx), %edx	# player_113->health, _24
# p_inter.c:413: 	player->mo->health = player->health;
	.loc 1 413 21
	movl	%edx, 164(%rax)	# _24, _23->health
# p_inter.c:414: 	P_GiveArmor (player,2);
	.loc 1 414 2
	movq	-8(%rbp), %rax	# player, tmp216
	movl	$2, %esi	#,
	movq	%rax, %rdi	# tmp216,
	call	P_GiveArmor	#
# p_inter.c:415: 	player->message = GOTMSPHERE;
	.loc 1 415 18
	movq	-8(%rbp), %rax	# player, tmp217
	leaq	.LC6(%rip), %rdx	#, tmp218
	movq	%rdx, 224(%rax)	# tmp218, player_113->message
# p_inter.c:416: 	sound = sfx_getpow;
	.loc 1 416 8
	movl	$93, -16(%rbp)	#, sound
# p_inter.c:417: 	break;
	.loc 1 417 2
	jmp	.L106	#
.L100:
# p_inter.c:422: 	if (!player->cards[it_bluecard])
	.loc 1 422 20
	movq	-8(%rbp), %rax	# player, tmp219
	movl	72(%rax), %eax	# player_113->cards[0], _25
# p_inter.c:422: 	if (!player->cards[it_bluecard])
	.loc 1 422 5
	testl	%eax, %eax	# _25
	jne	.L113	#,
# p_inter.c:423: 	    player->message = GOTBLUECARD;
	.loc 1 423 22
	movq	-8(%rbp), %rax	# player, tmp220
	leaq	.LC7(%rip), %rdx	#, tmp221
	movq	%rdx, 224(%rax)	# tmp221, player_113->message
.L113:
# p_inter.c:424: 	P_GiveCard (player, it_bluecard);
	.loc 1 424 2
	movq	-8(%rbp), %rax	# player, tmp222
	movl	$0, %esi	#,
	movq	%rax, %rdi	# tmp222,
	call	P_GiveCard	#
# p_inter.c:425: 	if (!netgame)
	.loc 1 425 6
	movl	netgame(%rip), %eax	# netgame, netgame.8_26
# p_inter.c:425: 	if (!netgame)
	.loc 1 425 5
	testl	%eax, %eax	# netgame.8_26
	jne	.L163	#,
# p_inter.c:426: 	    break;
	.loc 1 426 6
	jmp	.L106	#
.L98:
# p_inter.c:430: 	if (!player->cards[it_yellowcard])
	.loc 1 430 20
	movq	-8(%rbp), %rax	# player, tmp223
	movl	76(%rax), %eax	# player_113->cards[1], _27
# p_inter.c:430: 	if (!player->cards[it_yellowcard])
	.loc 1 430 5
	testl	%eax, %eax	# _27
	jne	.L115	#,
# p_inter.c:431: 	    player->message = GOTYELWCARD;
	.loc 1 431 22
	movq	-8(%rbp), %rax	# player, tmp224
	leaq	.LC8(%rip), %rdx	#, tmp225
	movq	%rdx, 224(%rax)	# tmp225, player_113->message
.L115:
# p_inter.c:432: 	P_GiveCard (player, it_yellowcard);
	.loc 1 432 2
	movq	-8(%rbp), %rax	# player, tmp226
	movl	$1, %esi	#,
	movq	%rax, %rdi	# tmp226,
	call	P_GiveCard	#
# p_inter.c:433: 	if (!netgame)
	.loc 1 433 6
	movl	netgame(%rip), %eax	# netgame, netgame.9_28
# p_inter.c:433: 	if (!netgame)
	.loc 1 433 5
	testl	%eax, %eax	# netgame.9_28
	jne	.L164	#,
# p_inter.c:434: 	    break;
	.loc 1 434 6
	jmp	.L106	#
.L99:
# p_inter.c:438: 	if (!player->cards[it_redcard])
	.loc 1 438 20
	movq	-8(%rbp), %rax	# player, tmp227
	movl	80(%rax), %eax	# player_113->cards[2], _29
# p_inter.c:438: 	if (!player->cards[it_redcard])
	.loc 1 438 5
	testl	%eax, %eax	# _29
	jne	.L117	#,
# p_inter.c:439: 	    player->message = GOTREDCARD;
	.loc 1 439 22
	movq	-8(%rbp), %rax	# player, tmp228
	leaq	.LC9(%rip), %rdx	#, tmp229
	movq	%rdx, 224(%rax)	# tmp229, player_113->message
.L117:
# p_inter.c:440: 	P_GiveCard (player, it_redcard);
	.loc 1 440 2
	movq	-8(%rbp), %rax	# player, tmp230
	movl	$2, %esi	#,
	movq	%rax, %rdi	# tmp230,
	call	P_GiveCard	#
# p_inter.c:441: 	if (!netgame)
	.loc 1 441 6
	movl	netgame(%rip), %eax	# netgame, netgame.10_30
# p_inter.c:441: 	if (!netgame)
	.loc 1 441 5
	testl	%eax, %eax	# netgame.10_30
	jne	.L165	#,
# p_inter.c:442: 	    break;
	.loc 1 442 6
	jmp	.L106	#
.L97:
# p_inter.c:446: 	if (!player->cards[it_blueskull])
	.loc 1 446 20
	movq	-8(%rbp), %rax	# player, tmp231
	movl	84(%rax), %eax	# player_113->cards[3], _31
# p_inter.c:446: 	if (!player->cards[it_blueskull])
	.loc 1 446 5
	testl	%eax, %eax	# _31
	jne	.L119	#,
# p_inter.c:447: 	    player->message = GOTBLUESKUL;
	.loc 1 447 22
	movq	-8(%rbp), %rax	# player, tmp232
	leaq	.LC10(%rip), %rdx	#, tmp233
	movq	%rdx, 224(%rax)	# tmp233, player_113->message
.L119:
# p_inter.c:448: 	P_GiveCard (player, it_blueskull);
	.loc 1 448 2
	movq	-8(%rbp), %rax	# player, tmp234
	movl	$3, %esi	#,
	movq	%rax, %rdi	# tmp234,
	call	P_GiveCard	#
# p_inter.c:449: 	if (!netgame)
	.loc 1 449 6
	movl	netgame(%rip), %eax	# netgame, netgame.11_32
# p_inter.c:449: 	if (!netgame)
	.loc 1 449 5
	testl	%eax, %eax	# netgame.11_32
	jne	.L166	#,
# p_inter.c:450: 	    break;
	.loc 1 450 6
	jmp	.L106	#
.L95:
# p_inter.c:454: 	if (!player->cards[it_yellowskull])
	.loc 1 454 20
	movq	-8(%rbp), %rax	# player, tmp235
	movl	88(%rax), %eax	# player_113->cards[4], _33
# p_inter.c:454: 	if (!player->cards[it_yellowskull])
	.loc 1 454 5
	testl	%eax, %eax	# _33
	jne	.L121	#,
# p_inter.c:455: 	    player->message = GOTYELWSKUL;
	.loc 1 455 22
	movq	-8(%rbp), %rax	# player, tmp236
	leaq	.LC11(%rip), %rdx	#, tmp237
	movq	%rdx, 224(%rax)	# tmp237, player_113->message
.L121:
# p_inter.c:456: 	P_GiveCard (player, it_yellowskull);
	.loc 1 456 2
	movq	-8(%rbp), %rax	# player, tmp238
	movl	$4, %esi	#,
	movq	%rax, %rdi	# tmp238,
	call	P_GiveCard	#
# p_inter.c:457: 	if (!netgame)
	.loc 1 457 6
	movl	netgame(%rip), %eax	# netgame, netgame.12_34
# p_inter.c:457: 	if (!netgame)
	.loc 1 457 5
	testl	%eax, %eax	# netgame.12_34
	jne	.L167	#,
# p_inter.c:458: 	    break;
	.loc 1 458 6
	jmp	.L106	#
.L96:
# p_inter.c:462: 	if (!player->cards[it_redskull])
	.loc 1 462 20
	movq	-8(%rbp), %rax	# player, tmp239
	movl	92(%rax), %eax	# player_113->cards[5], _35
# p_inter.c:462: 	if (!player->cards[it_redskull])
	.loc 1 462 5
	testl	%eax, %eax	# _35
	jne	.L123	#,
# p_inter.c:463: 	    player->message = GOTREDSKULL;
	.loc 1 463 22
	movq	-8(%rbp), %rax	# player, tmp240
	leaq	.LC12(%rip), %rdx	#, tmp241
	movq	%rdx, 224(%rax)	# tmp241, player_113->message
.L123:
# p_inter.c:464: 	P_GiveCard (player, it_redskull);
	.loc 1 464 2
	movq	-8(%rbp), %rax	# player, tmp242
	movl	$5, %esi	#,
	movq	%rax, %rdi	# tmp242,
	call	P_GiveCard	#
# p_inter.c:465: 	if (!netgame)
	.loc 1 465 6
	movl	netgame(%rip), %eax	# netgame, netgame.13_36
# p_inter.c:465: 	if (!netgame)
	.loc 1 465 5
	testl	%eax, %eax	# netgame.13_36
	jne	.L168	#,
# p_inter.c:466: 	    break;
	.loc 1 466 6
	jmp	.L106	#
.L94:
# p_inter.c:471: 	if (!P_GiveBody (player, 10))
	.loc 1 471 7
	movq	-8(%rbp), %rax	# player, tmp243
	movl	$10, %esi	#,
	movq	%rax, %rdi	# tmp243,
	call	P_GiveBody	#
# p_inter.c:471: 	if (!P_GiveBody (player, 10))
	.loc 1 471 5 discriminator 1
	testl	%eax, %eax	# _37
	je	.L169	#,
# p_inter.c:473: 	player->message = GOTSTIM;
	.loc 1 473 18
	movq	-8(%rbp), %rax	# player, tmp244
	leaq	.LC13(%rip), %rdx	#, tmp245
	movq	%rdx, 224(%rax)	# tmp245, player_113->message
# p_inter.c:474: 	break;
	.loc 1 474 2
	jmp	.L106	#
.L93:
# p_inter.c:477: 	if (!P_GiveBody (player, 25))
	.loc 1 477 7
	movq	-8(%rbp), %rax	# player, tmp246
	movl	$25, %esi	#,
	movq	%rax, %rdi	# tmp246,
	call	P_GiveBody	#
# p_inter.c:477: 	if (!P_GiveBody (player, 25))
	.loc 1 477 5 discriminator 1
	testl	%eax, %eax	# _38
	je	.L170	#,
# p_inter.c:480: 	if (player->health < 25)
	.loc 1 480 12
	movq	-8(%rbp), %rax	# player, tmp247
	movl	36(%rax), %eax	# player_113->health, _39
# p_inter.c:480: 	if (player->health < 25)
	.loc 1 480 5
	cmpl	$24, %eax	#, _39
	jg	.L127	#,
# p_inter.c:481: 	    player->message = GOTMEDINEED;
	.loc 1 481 22
	movq	-8(%rbp), %rax	# player, tmp248
	leaq	.LC14(%rip), %rdx	#, tmp249
	movq	%rdx, 224(%rax)	# tmp249, player_113->message
# p_inter.c:484: 	break;
	.loc 1 484 2
	jmp	.L106	#
.L127:
# p_inter.c:483: 	    player->message = GOTMEDIKIT;
	.loc 1 483 22
	movq	-8(%rbp), %rax	# player, tmp250
	leaq	.LC15(%rip), %rdx	#, tmp251
	movq	%rdx, 224(%rax)	# tmp251, player_113->message
# p_inter.c:484: 	break;
	.loc 1 484 2
	jmp	.L106	#
.L91:
# p_inter.c:489: 	if (!P_GivePower (player, pw_invulnerability))
	.loc 1 489 7
	movq	-8(%rbp), %rax	# player, tmp252
	movl	$0, %esi	#,
	movq	%rax, %rdi	# tmp252,
	call	P_GivePower	#
# p_inter.c:489: 	if (!P_GivePower (player, pw_invulnerability))
	.loc 1 489 5 discriminator 1
	testl	%eax, %eax	# _40
	je	.L171	#,
# p_inter.c:491: 	player->message = GOTINVUL;
	.loc 1 491 18
	movq	-8(%rbp), %rax	# player, tmp253
	leaq	.LC16(%rip), %rdx	#, tmp254
	movq	%rdx, 224(%rax)	# tmp254, player_113->message
# p_inter.c:492: 	sound = sfx_getpow;
	.loc 1 492 8
	movl	$93, -16(%rbp)	#, sound
# p_inter.c:493: 	break;
	.loc 1 493 2
	jmp	.L106	#
.L90:
# p_inter.c:496: 	if (!P_GivePower (player, pw_strength))
	.loc 1 496 7
	movq	-8(%rbp), %rax	# player, tmp255
	movl	$1, %esi	#,
	movq	%rax, %rdi	# tmp255,
	call	P_GivePower	#
# p_inter.c:496: 	if (!P_GivePower (player, pw_strength))
	.loc 1 496 5 discriminator 1
	testl	%eax, %eax	# _41
	je	.L172	#,
# p_inter.c:498: 	player->message = GOTBERSERK;
	.loc 1 498 18
	movq	-8(%rbp), %rax	# player, tmp256
	leaq	.LC17(%rip), %rdx	#, tmp257
	movq	%rdx, 224(%rax)	# tmp257, player_113->message
# p_inter.c:499: 	if (player->readyweapon != wp_fist)
	.loc 1 499 12
	movq	-8(%rbp), %rax	# player, tmp258
	movl	116(%rax), %eax	# player_113->readyweapon, _42
# p_inter.c:499: 	if (player->readyweapon != wp_fist)
	.loc 1 499 5
	testl	%eax, %eax	# _42
	je	.L131	#,
# p_inter.c:500: 	    player->pendingweapon = wp_fist;
	.loc 1 500 28
	movq	-8(%rbp), %rax	# player, tmp259
	movl	$0, 120(%rax)	#, player_113->pendingweapon
.L131:
# p_inter.c:501: 	sound = sfx_getpow;
	.loc 1 501 8
	movl	$93, -16(%rbp)	#, sound
# p_inter.c:502: 	break;
	.loc 1 502 2
	jmp	.L106	#
.L89:
# p_inter.c:505: 	if (!P_GivePower (player, pw_invisibility))
	.loc 1 505 7
	movq	-8(%rbp), %rax	# player, tmp260
	movl	$2, %esi	#,
	movq	%rax, %rdi	# tmp260,
	call	P_GivePower	#
# p_inter.c:505: 	if (!P_GivePower (player, pw_invisibility))
	.loc 1 505 5 discriminator 1
	testl	%eax, %eax	# _43
	je	.L173	#,
# p_inter.c:507: 	player->message = GOTINVIS;
	.loc 1 507 18
	movq	-8(%rbp), %rax	# player, tmp261
	leaq	.LC18(%rip), %rdx	#, tmp262
	movq	%rdx, 224(%rax)	# tmp262, player_113->message
# p_inter.c:508: 	sound = sfx_getpow;
	.loc 1 508 8
	movl	$93, -16(%rbp)	#, sound
# p_inter.c:509: 	break;
	.loc 1 509 2
	jmp	.L106	#
.L87:
# p_inter.c:512: 	if (!P_GivePower (player, pw_ironfeet))
	.loc 1 512 7
	movq	-8(%rbp), %rax	# player, tmp263
	movl	$3, %esi	#,
	movq	%rax, %rdi	# tmp263,
	call	P_GivePower	#
# p_inter.c:512: 	if (!P_GivePower (player, pw_ironfeet))
	.loc 1 512 5 discriminator 1
	testl	%eax, %eax	# _44
	je	.L174	#,
# p_inter.c:514: 	player->message = GOTSUIT;
	.loc 1 514 18
	movq	-8(%rbp), %rax	# player, tmp264
	leaq	.LC19(%rip), %rdx	#, tmp265
	movq	%rdx, 224(%rax)	# tmp265, player_113->message
# p_inter.c:515: 	sound = sfx_getpow;
	.loc 1 515 8
	movl	$93, -16(%rbp)	#, sound
# p_inter.c:516: 	break;
	.loc 1 516 2
	jmp	.L106	#
.L86:
# p_inter.c:519: 	if (!P_GivePower (player, pw_allmap))
	.loc 1 519 7
	movq	-8(%rbp), %rax	# player, tmp266
	movl	$4, %esi	#,
	movq	%rax, %rdi	# tmp266,
	call	P_GivePower	#
# p_inter.c:519: 	if (!P_GivePower (player, pw_allmap))
	.loc 1 519 5 discriminator 1
	testl	%eax, %eax	# _45
	je	.L175	#,
# p_inter.c:521: 	player->message = GOTMAP;
	.loc 1 521 18
	movq	-8(%rbp), %rax	# player, tmp267
	leaq	.LC20(%rip), %rdx	#, tmp268
	movq	%rdx, 224(%rax)	# tmp268, player_113->message
# p_inter.c:522: 	sound = sfx_getpow;
	.loc 1 522 8
	movl	$93, -16(%rbp)	#, sound
# p_inter.c:523: 	break;
	.loc 1 523 2
	jmp	.L106	#
.L85:
# p_inter.c:526: 	if (!P_GivePower (player, pw_infrared))
	.loc 1 526 7
	movq	-8(%rbp), %rax	# player, tmp269
	movl	$5, %esi	#,
	movq	%rax, %rdi	# tmp269,
	call	P_GivePower	#
# p_inter.c:526: 	if (!P_GivePower (player, pw_infrared))
	.loc 1 526 5 discriminator 1
	testl	%eax, %eax	# _46
	je	.L176	#,
# p_inter.c:528: 	player->message = GOTVISOR;
	.loc 1 528 18
	movq	-8(%rbp), %rax	# player, tmp270
	leaq	.LC21(%rip), %rdx	#, tmp271
	movq	%rdx, 224(%rax)	# tmp271, player_113->message
# p_inter.c:529: 	sound = sfx_getpow;
	.loc 1 529 8
	movl	$93, -16(%rbp)	#, sound
# p_inter.c:530: 	break;
	.loc 1 530 2
	jmp	.L106	#
.L84:
# p_inter.c:534: 	if (special->flags & MF_DROPPED)
	.loc 1 534 13
	movq	-40(%rbp), %rax	# special, tmp272
	movl	160(%rax), %eax	# special_109(D)->flags, _47
# p_inter.c:534: 	if (special->flags & MF_DROPPED)
	.loc 1 534 21
	andl	$131072, %eax	#, _48
# p_inter.c:534: 	if (special->flags & MF_DROPPED)
	.loc 1 534 5
	testl	%eax, %eax	# _48
	je	.L136	#,
# p_inter.c:536: 	    if (!P_GiveAmmo (player,am_clip,0))
	.loc 1 536 11
	movq	-8(%rbp), %rax	# player, tmp273
	movl	$0, %edx	#,
	movl	$0, %esi	#,
	movq	%rax, %rdi	# tmp273,
	call	P_GiveAmmo	#
# p_inter.c:536: 	    if (!P_GiveAmmo (player,am_clip,0))
	.loc 1 536 9 discriminator 1
	testl	%eax, %eax	# _49
	jne	.L137	#,
# p_inter.c:537: 		return;
	.loc 1 537 3
	jmp	.L62	#
.L136:
# p_inter.c:541: 	    if (!P_GiveAmmo (player,am_clip,1))
	.loc 1 541 11
	movq	-8(%rbp), %rax	# player, tmp274
	movl	$1, %edx	#,
	movl	$0, %esi	#,
	movq	%rax, %rdi	# tmp274,
	call	P_GiveAmmo	#
# p_inter.c:541: 	    if (!P_GiveAmmo (player,am_clip,1))
	.loc 1 541 9 discriminator 1
	testl	%eax, %eax	# _50
	je	.L177	#,
.L137:
# p_inter.c:544: 	player->message = GOTCLIP;
	.loc 1 544 18
	movq	-8(%rbp), %rax	# player, tmp275
	leaq	.LC22(%rip), %rdx	#, tmp276
	movq	%rdx, 224(%rax)	# tmp276, player_113->message
# p_inter.c:545: 	break;
	.loc 1 545 2
	jmp	.L106	#
.L83:
# p_inter.c:548: 	if (!P_GiveAmmo (player, am_clip,5))
	.loc 1 548 7
	movq	-8(%rbp), %rax	# player, tmp277
	movl	$5, %edx	#,
	movl	$0, %esi	#,
	movq	%rax, %rdi	# tmp277,
	call	P_GiveAmmo	#
# p_inter.c:548: 	if (!P_GiveAmmo (player, am_clip,5))
	.loc 1 548 5 discriminator 1
	testl	%eax, %eax	# _51
	je	.L178	#,
# p_inter.c:550: 	player->message = GOTCLIPBOX;
	.loc 1 550 18
	movq	-8(%rbp), %rax	# player, tmp278
	leaq	.LC23(%rip), %rdx	#, tmp279
	movq	%rdx, 224(%rax)	# tmp279, player_113->message
# p_inter.c:551: 	break;
	.loc 1 551 2
	jmp	.L106	#
.L82:
# p_inter.c:554: 	if (!P_GiveAmmo (player, am_misl,1))
	.loc 1 554 7
	movq	-8(%rbp), %rax	# player, tmp280
	movl	$1, %edx	#,
	movl	$3, %esi	#,
	movq	%rax, %rdi	# tmp280,
	call	P_GiveAmmo	#
# p_inter.c:554: 	if (!P_GiveAmmo (player, am_misl,1))
	.loc 1 554 5 discriminator 1
	testl	%eax, %eax	# _52
	je	.L179	#,
# p_inter.c:556: 	player->message = GOTROCKET;
	.loc 1 556 18
	movq	-8(%rbp), %rax	# player, tmp281
	leaq	.LC24(%rip), %rdx	#, tmp282
	movq	%rdx, 224(%rax)	# tmp282, player_113->message
# p_inter.c:557: 	break;
	.loc 1 557 2
	jmp	.L106	#
.L81:
# p_inter.c:560: 	if (!P_GiveAmmo (player, am_misl,5))
	.loc 1 560 7
	movq	-8(%rbp), %rax	# player, tmp283
	movl	$5, %edx	#,
	movl	$3, %esi	#,
	movq	%rax, %rdi	# tmp283,
	call	P_GiveAmmo	#
# p_inter.c:560: 	if (!P_GiveAmmo (player, am_misl,5))
	.loc 1 560 5 discriminator 1
	testl	%eax, %eax	# _53
	je	.L180	#,
# p_inter.c:562: 	player->message = GOTROCKBOX;
	.loc 1 562 18
	movq	-8(%rbp), %rax	# player, tmp284
	leaq	.LC25(%rip), %rdx	#, tmp285
	movq	%rdx, 224(%rax)	# tmp285, player_113->message
# p_inter.c:563: 	break;
	.loc 1 563 2
	jmp	.L106	#
.L80:
# p_inter.c:566: 	if (!P_GiveAmmo (player, am_cell,1))
	.loc 1 566 7
	movq	-8(%rbp), %rax	# player, tmp286
	movl	$1, %edx	#,
	movl	$2, %esi	#,
	movq	%rax, %rdi	# tmp286,
	call	P_GiveAmmo	#
# p_inter.c:566: 	if (!P_GiveAmmo (player, am_cell,1))
	.loc 1 566 5 discriminator 1
	testl	%eax, %eax	# _54
	je	.L181	#,
# p_inter.c:568: 	player->message = GOTCELL;
	.loc 1 568 18
	movq	-8(%rbp), %rax	# player, tmp287
	leaq	.LC26(%rip), %rdx	#, tmp288
	movq	%rdx, 224(%rax)	# tmp288, player_113->message
# p_inter.c:569: 	break;
	.loc 1 569 2
	jmp	.L106	#
.L79:
# p_inter.c:572: 	if (!P_GiveAmmo (player, am_cell,5))
	.loc 1 572 7
	movq	-8(%rbp), %rax	# player, tmp289
	movl	$5, %edx	#,
	movl	$2, %esi	#,
	movq	%rax, %rdi	# tmp289,
	call	P_GiveAmmo	#
# p_inter.c:572: 	if (!P_GiveAmmo (player, am_cell,5))
	.loc 1 572 5 discriminator 1
	testl	%eax, %eax	# _55
	je	.L182	#,
# p_inter.c:574: 	player->message = GOTCELLBOX;
	.loc 1 574 18
	movq	-8(%rbp), %rax	# player, tmp290
	leaq	.LC27(%rip), %rdx	#, tmp291
	movq	%rdx, 224(%rax)	# tmp291, player_113->message
# p_inter.c:575: 	break;
	.loc 1 575 2
	jmp	.L106	#
.L78:
# p_inter.c:578: 	if (!P_GiveAmmo (player, am_shell,1))
	.loc 1 578 7
	movq	-8(%rbp), %rax	# player, tmp292
	movl	$1, %edx	#,
	movl	$1, %esi	#,
	movq	%rax, %rdi	# tmp292,
	call	P_GiveAmmo	#
# p_inter.c:578: 	if (!P_GiveAmmo (player, am_shell,1))
	.loc 1 578 5 discriminator 1
	testl	%eax, %eax	# _56
	je	.L183	#,
# p_inter.c:580: 	player->message = GOTSHELLS;
	.loc 1 580 18
	movq	-8(%rbp), %rax	# player, tmp293
	leaq	.LC28(%rip), %rdx	#, tmp294
	movq	%rdx, 224(%rax)	# tmp294, player_113->message
# p_inter.c:581: 	break;
	.loc 1 581 2
	jmp	.L106	#
.L77:
# p_inter.c:584: 	if (!P_GiveAmmo (player, am_shell,5))
	.loc 1 584 7
	movq	-8(%rbp), %rax	# player, tmp295
	movl	$5, %edx	#,
	movl	$1, %esi	#,
	movq	%rax, %rdi	# tmp295,
	call	P_GiveAmmo	#
# p_inter.c:584: 	if (!P_GiveAmmo (player, am_shell,5))
	.loc 1 584 5 discriminator 1
	testl	%eax, %eax	# _57
	je	.L184	#,
# p_inter.c:586: 	player->message = GOTSHELLBOX;
	.loc 1 586 18
	movq	-8(%rbp), %rax	# player, tmp296
	leaq	.LC29(%rip), %rdx	#, tmp297
	movq	%rdx, 224(%rax)	# tmp297, player_113->message
# p_inter.c:587: 	break;
	.loc 1 587 2
	jmp	.L106	#
.L76:
# p_inter.c:590: 	if (!player->backpack)
	.loc 1 590 13
	movq	-8(%rbp), %rax	# player, tmp298
	movl	96(%rax), %eax	# player_113->backpack, _58
# p_inter.c:590: 	if (!player->backpack)
	.loc 1 590 5
	testl	%eax, %eax	# _58
	jne	.L145	#,
# p_inter.c:592: 	    for (i=0 ; i<NUMAMMO ; i++)
	.loc 1 592 12
	movl	$0, -20(%rbp)	#, i
# p_inter.c:592: 	    for (i=0 ; i<NUMAMMO ; i++)
	.loc 1 592 6
	jmp	.L146	#
.L147:
# p_inter.c:593: 		player->maxammo[i] *= 2;
	.loc 1 593 18
	movq	-8(%rbp), %rax	# player, tmp299
	movl	-20(%rbp), %edx	# i, tmp301
	movslq	%edx, %rdx	# tmp301, tmp300
	addq	$44, %rdx	#, tmp302
	movl	(%rax,%rdx,4), %eax	# player_113->maxammo[i_86], _59
# p_inter.c:593: 		player->maxammo[i] *= 2;
	.loc 1 593 22
	leal	(%rax,%rax), %ecx	#, _60
	movq	-8(%rbp), %rax	# player, tmp303
	movl	-20(%rbp), %edx	# i, tmp305
	movslq	%edx, %rdx	# tmp305, tmp304
	addq	$44, %rdx	#, tmp306
	movl	%ecx, (%rax,%rdx,4)	# _60, player_113->maxammo[i_86]
# p_inter.c:592: 	    for (i=0 ; i<NUMAMMO ; i++)
	.loc 1 592 30 discriminator 3
	addl	$1, -20(%rbp)	#, i
.L146:
# p_inter.c:592: 	    for (i=0 ; i<NUMAMMO ; i++)
	.loc 1 592 18 discriminator 1
	cmpl	$3, -20(%rbp)	#, i
	jle	.L147	#,
# p_inter.c:594: 	    player->backpack = true;
	.loc 1 594 23
	movq	-8(%rbp), %rax	# player, tmp307
	movl	$1, 96(%rax)	#, player_113->backpack
.L145:
# p_inter.c:596: 	for (i=0 ; i<NUMAMMO ; i++)
	.loc 1 596 8
	movl	$0, -20(%rbp)	#, i
# p_inter.c:596: 	for (i=0 ; i<NUMAMMO ; i++)
	.loc 1 596 2
	jmp	.L148	#
.L149:
# p_inter.c:597: 	    P_GiveAmmo (player, i, 1);
	.loc 1 597 6
	movl	-20(%rbp), %ecx	# i, i.14_61
	movq	-8(%rbp), %rax	# player, tmp308
	movl	$1, %edx	#,
	movl	%ecx, %esi	# i.14_61,
	movq	%rax, %rdi	# tmp308,
	call	P_GiveAmmo	#
# p_inter.c:596: 	for (i=0 ; i<NUMAMMO ; i++)
	.loc 1 596 26 discriminator 3
	addl	$1, -20(%rbp)	#, i
.L148:
# p_inter.c:596: 	for (i=0 ; i<NUMAMMO ; i++)
	.loc 1 596 14 discriminator 1
	cmpl	$3, -20(%rbp)	#, i
	jle	.L149	#,
# p_inter.c:598: 	player->message = GOTBACKPACK;
	.loc 1 598 18
	movq	-8(%rbp), %rax	# player, tmp309
	leaq	.LC30(%rip), %rdx	#, tmp310
	movq	%rdx, 224(%rax)	# tmp310, player_113->message
# p_inter.c:599: 	break;
	.loc 1 599 2
	jmp	.L106	#
.L75:
# p_inter.c:603: 	if (!P_GiveWeapon (player, wp_bfg, false) )
	.loc 1 603 7
	movq	-8(%rbp), %rax	# player, tmp311
	movl	$0, %edx	#,
	movl	$6, %esi	#,
	movq	%rax, %rdi	# tmp311,
	call	P_GiveWeapon	#
# p_inter.c:603: 	if (!P_GiveWeapon (player, wp_bfg, false) )
	.loc 1 603 5 discriminator 1
	testl	%eax, %eax	# _62
	je	.L185	#,
# p_inter.c:605: 	player->message = GOTBFG9000;
	.loc 1 605 18
	movq	-8(%rbp), %rax	# player, tmp312
	leaq	.LC31(%rip), %rdx	#, tmp313
	movq	%rdx, 224(%rax)	# tmp313, player_113->message
# p_inter.c:606: 	sound = sfx_wpnup;	
	.loc 1 606 8
	movl	$33, -16(%rbp)	#, sound
# p_inter.c:607: 	break;
	.loc 1 607 2
	jmp	.L106	#
.L74:
# p_inter.c:610: 	if (!P_GiveWeapon (player, wp_chaingun, special->flags&MF_DROPPED) )
	.loc 1 610 49
	movq	-40(%rbp), %rax	# special, tmp314
	movl	160(%rax), %eax	# special_109(D)->flags, _63
# p_inter.c:610: 	if (!P_GiveWeapon (player, wp_chaingun, special->flags&MF_DROPPED) )
	.loc 1 610 56
	andl	$131072, %eax	#, _64
# p_inter.c:610: 	if (!P_GiveWeapon (player, wp_chaingun, special->flags&MF_DROPPED) )
	.loc 1 610 7
	movl	%eax, %edx	# _64, _65
	movq	-8(%rbp), %rax	# player, tmp315
	movl	$3, %esi	#,
	movq	%rax, %rdi	# tmp315,
	call	P_GiveWeapon	#
# p_inter.c:610: 	if (!P_GiveWeapon (player, wp_chaingun, special->flags&MF_DROPPED) )
	.loc 1 610 5 discriminator 1
	testl	%eax, %eax	# _66
	je	.L186	#,
# p_inter.c:612: 	player->message = GOTCHAINGUN;
	.loc 1 612 18
	movq	-8(%rbp), %rax	# player, tmp316
	leaq	.LC32(%rip), %rdx	#, tmp317
	movq	%rdx, 224(%rax)	# tmp317, player_113->message
# p_inter.c:613: 	sound = sfx_wpnup;	
	.loc 1 613 8
	movl	$33, -16(%rbp)	#, sound
# p_inter.c:614: 	break;
	.loc 1 614 2
	jmp	.L106	#
.L73:
# p_inter.c:617: 	if (!P_GiveWeapon (player, wp_chainsaw, false) )
	.loc 1 617 7
	movq	-8(%rbp), %rax	# player, tmp318
	movl	$0, %edx	#,
	movl	$7, %esi	#,
	movq	%rax, %rdi	# tmp318,
	call	P_GiveWeapon	#
# p_inter.c:617: 	if (!P_GiveWeapon (player, wp_chainsaw, false) )
	.loc 1 617 5 discriminator 1
	testl	%eax, %eax	# _67
	je	.L187	#,
# p_inter.c:619: 	player->message = GOTCHAINSAW;
	.loc 1 619 18
	movq	-8(%rbp), %rax	# player, tmp319
	leaq	.LC33(%rip), %rdx	#, tmp320
	movq	%rdx, 224(%rax)	# tmp320, player_113->message
# p_inter.c:620: 	sound = sfx_wpnup;	
	.loc 1 620 8
	movl	$33, -16(%rbp)	#, sound
# p_inter.c:621: 	break;
	.loc 1 621 2
	jmp	.L106	#
.L72:
# p_inter.c:624: 	if (!P_GiveWeapon (player, wp_missile, false) )
	.loc 1 624 7
	movq	-8(%rbp), %rax	# player, tmp321
	movl	$0, %edx	#,
	movl	$4, %esi	#,
	movq	%rax, %rdi	# tmp321,
	call	P_GiveWeapon	#
# p_inter.c:624: 	if (!P_GiveWeapon (player, wp_missile, false) )
	.loc 1 624 5 discriminator 1
	testl	%eax, %eax	# _68
	je	.L188	#,
# p_inter.c:626: 	player->message = GOTLAUNCHER;
	.loc 1 626 18
	movq	-8(%rbp), %rax	# player, tmp322
	leaq	.LC34(%rip), %rdx	#, tmp323
	movq	%rdx, 224(%rax)	# tmp323, player_113->message
# p_inter.c:627: 	sound = sfx_wpnup;	
	.loc 1 627 8
	movl	$33, -16(%rbp)	#, sound
# p_inter.c:628: 	break;
	.loc 1 628 2
	jmp	.L106	#
.L71:
# p_inter.c:631: 	if (!P_GiveWeapon (player, wp_plasma, false) )
	.loc 1 631 7
	movq	-8(%rbp), %rax	# player, tmp324
	movl	$0, %edx	#,
	movl	$5, %esi	#,
	movq	%rax, %rdi	# tmp324,
	call	P_GiveWeapon	#
# p_inter.c:631: 	if (!P_GiveWeapon (player, wp_plasma, false) )
	.loc 1 631 5 discriminator 1
	testl	%eax, %eax	# _69
	je	.L189	#,
# p_inter.c:633: 	player->message = GOTPLASMA;
	.loc 1 633 18
	movq	-8(%rbp), %rax	# player, tmp325
	leaq	.LC35(%rip), %rdx	#, tmp326
	movq	%rdx, 224(%rax)	# tmp326, player_113->message
# p_inter.c:634: 	sound = sfx_wpnup;	
	.loc 1 634 8
	movl	$33, -16(%rbp)	#, sound
# p_inter.c:635: 	break;
	.loc 1 635 2
	jmp	.L106	#
.L70:
# p_inter.c:638: 	if (!P_GiveWeapon (player, wp_shotgun, special->flags&MF_DROPPED ) )
	.loc 1 638 48
	movq	-40(%rbp), %rax	# special, tmp327
	movl	160(%rax), %eax	# special_109(D)->flags, _70
# p_inter.c:638: 	if (!P_GiveWeapon (player, wp_shotgun, special->flags&MF_DROPPED ) )
	.loc 1 638 55
	andl	$131072, %eax	#, _71
# p_inter.c:638: 	if (!P_GiveWeapon (player, wp_shotgun, special->flags&MF_DROPPED ) )
	.loc 1 638 7
	movl	%eax, %edx	# _71, _72
	movq	-8(%rbp), %rax	# player, tmp328
	movl	$2, %esi	#,
	movq	%rax, %rdi	# tmp328,
	call	P_GiveWeapon	#
# p_inter.c:638: 	if (!P_GiveWeapon (player, wp_shotgun, special->flags&MF_DROPPED ) )
	.loc 1 638 5 discriminator 1
	testl	%eax, %eax	# _73
	je	.L190	#,
# p_inter.c:640: 	player->message = GOTSHOTGUN;
	.loc 1 640 18
	movq	-8(%rbp), %rax	# player, tmp329
	leaq	.LC36(%rip), %rdx	#, tmp330
	movq	%rdx, 224(%rax)	# tmp330, player_113->message
# p_inter.c:641: 	sound = sfx_wpnup;	
	.loc 1 641 8
	movl	$33, -16(%rbp)	#, sound
# p_inter.c:642: 	break;
	.loc 1 642 2
	jmp	.L106	#
.L68:
# p_inter.c:645: 	if (!P_GiveWeapon (player, wp_supershotgun, special->flags&MF_DROPPED ) )
	.loc 1 645 53
	movq	-40(%rbp), %rax	# special, tmp331
	movl	160(%rax), %eax	# special_109(D)->flags, _74
# p_inter.c:645: 	if (!P_GiveWeapon (player, wp_supershotgun, special->flags&MF_DROPPED ) )
	.loc 1 645 60
	andl	$131072, %eax	#, _75
# p_inter.c:645: 	if (!P_GiveWeapon (player, wp_supershotgun, special->flags&MF_DROPPED ) )
	.loc 1 645 7
	movl	%eax, %edx	# _75, _76
	movq	-8(%rbp), %rax	# player, tmp332
	movl	$8, %esi	#,
	movq	%rax, %rdi	# tmp332,
	call	P_GiveWeapon	#
# p_inter.c:645: 	if (!P_GiveWeapon (player, wp_supershotgun, special->flags&MF_DROPPED ) )
	.loc 1 645 5 discriminator 1
	testl	%eax, %eax	# _77
	je	.L191	#,
# p_inter.c:647: 	player->message = GOTSHOTGUN2;
	.loc 1 647 18
	movq	-8(%rbp), %rax	# player, tmp333
	leaq	.LC37(%rip), %rdx	#, tmp334
	movq	%rdx, 224(%rax)	# tmp334, player_113->message
# p_inter.c:648: 	sound = sfx_wpnup;	
	.loc 1 648 8
	movl	$33, -16(%rbp)	#, sound
# p_inter.c:649: 	break;
	.loc 1 649 2
	jmp	.L106	#
.L67:
# p_inter.c:652: 	I_Error ("P_SpecialThing: Unknown gettable thing");
	.loc 1 652 2
	leaq	.LC38(%rip), %rax	#, tmp335
	movq	%rax, %rdi	# tmp335,
	movl	$0, %eax	#,
	call	I_Error@PLT	#
.L106:
# p_inter.c:655:     if (special->flags & MF_COUNTITEM)
	.loc 1 655 16
	movq	-40(%rbp), %rax	# special, tmp336
	movl	160(%rax), %eax	# special_109(D)->flags, _78
# p_inter.c:655:     if (special->flags & MF_COUNTITEM)
	.loc 1 655 24
	andl	$8388608, %eax	#, _79
# p_inter.c:655:     if (special->flags & MF_COUNTITEM)
	.loc 1 655 8
	testl	%eax, %eax	# _79
	je	.L157	#,
# p_inter.c:656: 	player->itemcount++;
	.loc 1 656 8
	movq	-8(%rbp), %rax	# player, tmp337
	movl	212(%rax), %eax	# player_113->itemcount, _80
# p_inter.c:656: 	player->itemcount++;
	.loc 1 656 19
	leal	1(%rax), %edx	#, _81
	movq	-8(%rbp), %rax	# player, tmp338
	movl	%edx, 212(%rax)	# _81, player_113->itemcount
.L157:
# p_inter.c:657:     P_RemoveMobj (special);
	.loc 1 657 5
	movq	-40(%rbp), %rax	# special, tmp339
	movq	%rax, %rdi	# tmp339,
	call	P_RemoveMobj@PLT	#
# p_inter.c:658:     player->bonuscount += BONUSADD;
	.loc 1 658 11
	movq	-8(%rbp), %rax	# player, tmp340
	movl	236(%rax), %eax	# player_113->bonuscount, _82
# p_inter.c:658:     player->bonuscount += BONUSADD;
	.loc 1 658 24
	leal	6(%rax), %edx	#, _83
	movq	-8(%rbp), %rax	# player, tmp341
	movl	%edx, 236(%rax)	# _83, player_113->bonuscount
# p_inter.c:659:     if (player == &players[consoleplayer])
	.loc 1 659 27
	movl	consoleplayer(%rip), %eax	# consoleplayer, consoleplayer.15_84
# p_inter.c:659:     if (player == &players[consoleplayer])
	.loc 1 659 19
	movslq	%eax, %rdx	# consoleplayer.15_84, tmp342
	movq	%rdx, %rax	# tmp342, tmp343
	salq	$2, %rax	#, tmp343
	addq	%rdx, %rax	# tmp342, tmp343
	salq	$6, %rax	#, tmp344
	leaq	players(%rip), %rdx	#, tmp345
	addq	%rdx, %rax	# tmp345, _85
# p_inter.c:659:     if (player == &players[consoleplayer])
	.loc 1 659 8
	cmpq	%rax, -8(%rbp)	# _85, player
	jne	.L62	#,
# p_inter.c:660: 	S_StartSound (NULL, sound);
	.loc 1 660 2
	movl	-16(%rbp), %eax	# sound, tmp346
	movl	%eax, %esi	# tmp346,
	movl	$0, %edi	#,
	call	S_StartSound@PLT	#
	jmp	.L62	#
.L158:
# p_inter.c:354: 	return;
	.loc 1 354 2
	nop	
	jmp	.L62	#
.L159:
# p_inter.c:364: 	return;
	.loc 1 364 2
	nop	
	jmp	.L62	#
.L160:
# p_inter.c:372: 	    return;
	.loc 1 372 6
	nop	
	jmp	.L62	#
.L161:
# p_inter.c:378: 	    return;
	.loc 1 378 6
	nop	
	jmp	.L62	#
.L162:
# p_inter.c:411: 	    return;
	.loc 1 411 6
	nop	
	jmp	.L62	#
.L163:
# p_inter.c:427: 	return;
	.loc 1 427 2
	nop	
	jmp	.L62	#
.L164:
# p_inter.c:435: 	return;
	.loc 1 435 2
	nop	
	jmp	.L62	#
.L165:
# p_inter.c:443: 	return;
	.loc 1 443 2
	nop	
	jmp	.L62	#
.L166:
# p_inter.c:451: 	return;
	.loc 1 451 2
	nop	
	jmp	.L62	#
.L167:
# p_inter.c:459: 	return;
	.loc 1 459 2
	nop	
	jmp	.L62	#
.L168:
# p_inter.c:467: 	return;
	.loc 1 467 2
	nop	
	jmp	.L62	#
.L169:
# p_inter.c:472: 	    return;
	.loc 1 472 6
	nop	
	jmp	.L62	#
.L170:
# p_inter.c:478: 	    return;
	.loc 1 478 6
	nop	
	jmp	.L62	#
.L171:
# p_inter.c:490: 	    return;
	.loc 1 490 6
	nop	
	jmp	.L62	#
.L172:
# p_inter.c:497: 	    return;
	.loc 1 497 6
	nop	
	jmp	.L62	#
.L173:
# p_inter.c:506: 	    return;
	.loc 1 506 6
	nop	
	jmp	.L62	#
.L174:
# p_inter.c:513: 	    return;
	.loc 1 513 6
	nop	
	jmp	.L62	#
.L175:
# p_inter.c:520: 	    return;
	.loc 1 520 6
	nop	
	jmp	.L62	#
.L176:
# p_inter.c:527: 	    return;
	.loc 1 527 6
	nop	
	jmp	.L62	#
.L177:
# p_inter.c:542: 		return;
	.loc 1 542 3
	nop	
	jmp	.L62	#
.L178:
# p_inter.c:549: 	    return;
	.loc 1 549 6
	nop	
	jmp	.L62	#
.L179:
# p_inter.c:555: 	    return;
	.loc 1 555 6
	nop	
	jmp	.L62	#
.L180:
# p_inter.c:561: 	    return;
	.loc 1 561 6
	nop	
	jmp	.L62	#
.L181:
# p_inter.c:567: 	    return;
	.loc 1 567 6
	nop	
	jmp	.L62	#
.L182:
# p_inter.c:573: 	    return;
	.loc 1 573 6
	nop	
	jmp	.L62	#
.L183:
# p_inter.c:579: 	    return;
	.loc 1 579 6
	nop	
	jmp	.L62	#
.L184:
# p_inter.c:585: 	    return;
	.loc 1 585 6
	nop	
	jmp	.L62	#
.L185:
# p_inter.c:604: 	    return;
	.loc 1 604 6
	nop	
	jmp	.L62	#
.L186:
# p_inter.c:611: 	    return;
	.loc 1 611 6
	nop	
	jmp	.L62	#
.L187:
# p_inter.c:618: 	    return;
	.loc 1 618 6
	nop	
	jmp	.L62	#
.L188:
# p_inter.c:625: 	    return;
	.loc 1 625 6
	nop	
	jmp	.L62	#
.L189:
# p_inter.c:632: 	    return;
	.loc 1 632 6
	nop	
	jmp	.L62	#
.L190:
# p_inter.c:639: 	    return;
	.loc 1 639 6
	nop	
	jmp	.L62	#
.L191:
# p_inter.c:646: 	    return;
	.loc 1 646 6
	nop	
.L62:
# p_inter.c:661: }
	.loc 1 661 1
	leave	
	.cfi_def_cfa 7, 8
	ret	
	.cfi_endproc
.LFE6:
	.size	P_TouchSpecialThing, .-P_TouchSpecialThing
	.globl	P_KillMobj
	.type	P_KillMobj, @function
P_KillMobj:
.LFB7:
	.loc 1 671 1
	.cfi_startproc
	endbr64	
	pushq	%rbp	#
	.cfi_def_cfa_offset 16
	.cfi_offset 6, -16
	movq	%rsp, %rbp	#,
	.cfi_def_cfa_register 6
	subq	$32, %rsp	#,
	movq	%rdi, -24(%rbp)	# source, source
	movq	%rsi, -32(%rbp)	# target, target
# p_inter.c:675:     target->flags &= ~(MF_SHOOTABLE|MF_FLOAT|MF_SKULLFLY);
	.loc 1 675 11
	movq	-32(%rbp), %rax	# target, tmp146
	movl	160(%rax), %eax	# target_75(D)->flags, _1
# p_inter.c:675:     target->flags &= ~(MF_SHOOTABLE|MF_FLOAT|MF_SKULLFLY);
	.loc 1 675 19
	andl	$-16793605, %eax	#, _1
	movl	%eax, %edx	# _1, _2
	movq	-32(%rbp), %rax	# target, tmp147
	movl	%edx, 160(%rax)	# _2, target_75(D)->flags
# p_inter.c:677:     if (target->type != MT_SKULL)
	.loc 1 677 15
	movq	-32(%rbp), %rax	# target, tmp148
	movl	128(%rax), %eax	# target_75(D)->type, _3
# p_inter.c:677:     if (target->type != MT_SKULL)
	.loc 1 677 8
	cmpl	$18, %eax	#, _3
	je	.L193	#,
# p_inter.c:678: 	target->flags &= ~MF_NOGRAVITY;
	.loc 1 678 8
	movq	-32(%rbp), %rax	# target, tmp149
	movl	160(%rax), %eax	# target_75(D)->flags, _4
# p_inter.c:678: 	target->flags &= ~MF_NOGRAVITY;
	.loc 1 678 16
	andb	$-3, %ah	#, _4
	movl	%eax, %edx	# _4, _5
	movq	-32(%rbp), %rax	# target, tmp150
	movl	%edx, 160(%rax)	# _5, target_75(D)->flags
.L193:
# p_inter.c:680:     target->flags |= MF_CORPSE|MF_DROPOFF;
	.loc 1 680 11
	movq	-32(%rbp), %rax	# target, tmp151
	movl	160(%rax), %eax	# target_75(D)->flags, _6
# p_inter.c:680:     target->flags |= MF_CORPSE|MF_DROPOFF;
	.loc 1 680 19
	orl	$1049600, %eax	#, _6
	movl	%eax, %edx	# _6, _7
	movq	-32(%rbp), %rax	# target, tmp152
	movl	%edx, 160(%rax)	# _7, target_75(D)->flags
# p_inter.c:681:     target->height >>= 2;
	.loc 1 681 11
	movq	-32(%rbp), %rax	# target, tmp153
	movl	108(%rax), %eax	# target_75(D)->height, _8
# p_inter.c:681:     target->height >>= 2;
	.loc 1 681 20
	sarl	$2, %eax	#, _8
	movl	%eax, %edx	# _8, _9
	movq	-32(%rbp), %rax	# target, tmp154
	movl	%edx, 108(%rax)	# _9, target_75(D)->height
# p_inter.c:683:     if (source && source->player)
	.loc 1 683 8
	cmpq	$0, -24(%rbp)	#, source
	je	.L194	#,
# p_inter.c:683:     if (source && source->player)
	.loc 1 683 25 discriminator 1
	movq	-24(%rbp), %rax	# source, tmp155
	movq	192(%rax), %rax	# source_80(D)->player, _10
# p_inter.c:683:     if (source && source->player)
	.loc 1 683 16 discriminator 1
	testq	%rax, %rax	# _10
	je	.L194	#,
# p_inter.c:686: 	if (target->flags & MF_COUNTKILL)
	.loc 1 686 12
	movq	-32(%rbp), %rax	# target, tmp156
	movl	160(%rax), %eax	# target_75(D)->flags, _11
# p_inter.c:686: 	if (target->flags & MF_COUNTKILL)
	.loc 1 686 20
	andl	$4194304, %eax	#, _12
# p_inter.c:686: 	if (target->flags & MF_COUNTKILL)
	.loc 1 686 5
	testl	%eax, %eax	# _12
	je	.L195	#,
# p_inter.c:687: 	    source->player->killcount++;	
	.loc 1 687 12
	movq	-24(%rbp), %rax	# source, tmp157
	movq	192(%rax), %rax	# source_80(D)->player, _13
# p_inter.c:687: 	    source->player->killcount++;	
	.loc 1 687 20
	movl	208(%rax), %edx	# _13->killcount, _14
# p_inter.c:687: 	    source->player->killcount++;	
	.loc 1 687 31
	addl	$1, %edx	#, _15
	movl	%edx, 208(%rax)	# _15, _13->killcount
.L195:
# p_inter.c:689: 	if (target->player)
	.loc 1 689 12
	movq	-32(%rbp), %rax	# target, tmp158
	movq	192(%rax), %rax	# target_75(D)->player, _16
# p_inter.c:689: 	if (target->player)
	.loc 1 689 5
	testq	%rax, %rax	# _16
	je	.L197	#,
# p_inter.c:690: 	    source->player->frags[target->player-players]++;
	.loc 1 690 12
	movq	-24(%rbp), %rax	# source, tmp159
	movq	192(%rax), %rax	# source_80(D)->player, _17
# p_inter.c:690: 	    source->player->frags[target->player-players]++;
	.loc 1 690 34
	movq	-32(%rbp), %rdx	# target, tmp160
	movq	192(%rdx), %rcx	# target_75(D)->player, _18
# p_inter.c:690: 	    source->player->frags[target->player-players]++;
	.loc 1 690 42
	leaq	players(%rip), %rdx	#, tmp161
	subq	%rdx, %rcx	# tmp161, _19
	sarq	$6, %rcx	#, tmp162
	movabsq	$-3689348814741910323, %rdx	#, tmp164
	imulq	%rcx, %rdx	# tmp162, tmp163
# p_inter.c:690: 	    source->player->frags[target->player-players]++;
	.loc 1 690 27
	leaq	24(%rdx), %rcx	#, tmp165
	movl	4(%rax,%rcx,4), %ecx	# _17->frags[_20], _21
# p_inter.c:690: 	    source->player->frags[target->player-players]++;
	.loc 1 690 51
	addl	$1, %ecx	#, _22
	addq	$24, %rdx	#, tmp166
	movl	%ecx, 4(%rax,%rdx,4)	# _22, _17->frags[_20]
# p_inter.c:689: 	if (target->player)
	.loc 1 689 5
	jmp	.L197	#
.L194:
# p_inter.c:692:     else if (!netgame && (target->flags & MF_COUNTKILL) )
	.loc 1 692 14
	movl	netgame(%rip), %eax	# netgame, netgame.16_23
# p_inter.c:692:     else if (!netgame && (target->flags & MF_COUNTKILL) )
	.loc 1 692 13
	testl	%eax, %eax	# netgame.16_23
	jne	.L197	#,
# p_inter.c:692:     else if (!netgame && (target->flags & MF_COUNTKILL) )
	.loc 1 692 33 discriminator 1
	movq	-32(%rbp), %rax	# target, tmp167
	movl	160(%rax), %eax	# target_75(D)->flags, _24
# p_inter.c:692:     else if (!netgame && (target->flags & MF_COUNTKILL) )
	.loc 1 692 41 discriminator 1
	andl	$4194304, %eax	#, _25
# p_inter.c:692:     else if (!netgame && (target->flags & MF_COUNTKILL) )
	.loc 1 692 23 discriminator 1
	testl	%eax, %eax	# _25
	je	.L197	#,
# p_inter.c:696: 	players[0].killcount++;
	.loc 1 696 12
	movl	208+players(%rip), %eax	# players[0].killcount, _26
# p_inter.c:696: 	players[0].killcount++;
	.loc 1 696 22
	addl	$1, %eax	#, _27
	movl	%eax, 208+players(%rip)	# _27, players[0].killcount
.L197:
# p_inter.c:699:     if (target->player)
	.loc 1 699 15
	movq	-32(%rbp), %rax	# target, tmp168
	movq	192(%rax), %rax	# target_75(D)->player, _28
# p_inter.c:699:     if (target->player)
	.loc 1 699 8
	testq	%rax, %rax	# _28
	je	.L198	#,
# p_inter.c:702: 	if (!source)	
	.loc 1 702 5
	cmpq	$0, -24(%rbp)	#, source
	jne	.L199	#,
# p_inter.c:703: 	    target->player->frags[target->player-players]++;
	.loc 1 703 12
	movq	-32(%rbp), %rax	# target, tmp169
	movq	192(%rax), %rax	# target_75(D)->player, _29
# p_inter.c:703: 	    target->player->frags[target->player-players]++;
	.loc 1 703 34
	movq	-32(%rbp), %rdx	# target, tmp170
	movq	192(%rdx), %rcx	# target_75(D)->player, _30
# p_inter.c:703: 	    target->player->frags[target->player-players]++;
	.loc 1 703 42
	leaq	players(%rip), %rdx	#, tmp171
	subq	%rdx, %rcx	# tmp171, _31
	sarq	$6, %rcx	#, tmp172
	movabsq	$-3689348814741910323, %rdx	#, tmp174
	imulq	%rcx, %rdx	# tmp172, tmp173
# p_inter.c:703: 	    target->player->frags[target->player-players]++;
	.loc 1 703 27
	leaq	24(%rdx), %rcx	#, tmp175
	movl	4(%rax,%rcx,4), %ecx	# _29->frags[_32], _33
# p_inter.c:703: 	    target->player->frags[target->player-players]++;
	.loc 1 703 51
	addl	$1, %ecx	#, _34
	addq	$24, %rdx	#, tmp176
	movl	%ecx, 4(%rax,%rdx,4)	# _34, _29->frags[_32]
.L199:
# p_inter.c:705: 	target->flags &= ~MF_SOLID;
	.loc 1 705 8
	movq	-32(%rbp), %rax	# target, tmp177
	movl	160(%rax), %eax	# target_75(D)->flags, _35
# p_inter.c:705: 	target->flags &= ~MF_SOLID;
	.loc 1 705 16
	andl	$-3, %eax	#, _35
	movl	%eax, %edx	# _35, _36
	movq	-32(%rbp), %rax	# target, tmp178
	movl	%edx, 160(%rax)	# _36, target_75(D)->flags
# p_inter.c:706: 	target->player->playerstate = PST_DEAD;
	.loc 1 706 8
	movq	-32(%rbp), %rax	# target, tmp179
	movq	192(%rax), %rax	# target_75(D)->player, _37
# p_inter.c:706: 	target->player->playerstate = PST_DEAD;
	.loc 1 706 30
	movl	$1, 8(%rax)	#, _37->playerstate
# p_inter.c:707: 	P_DropWeapon (target->player);
	.loc 1 707 22
	movq	-32(%rbp), %rax	# target, tmp180
	movq	192(%rax), %rax	# target_75(D)->player, _38
# p_inter.c:707: 	P_DropWeapon (target->player);
	.loc 1 707 2
	movq	%rax, %rdi	# _38,
	call	P_DropWeapon@PLT	#
# p_inter.c:709: 	if (target->player == &players[consoleplayer]
	.loc 1 709 12
	movq	-32(%rbp), %rax	# target, tmp181
	movq	192(%rax), %rcx	# target_75(D)->player, _39
# p_inter.c:709: 	if (target->player == &players[consoleplayer]
	.loc 1 709 32
	movl	consoleplayer(%rip), %eax	# consoleplayer, consoleplayer.17_40
# p_inter.c:709: 	if (target->player == &players[consoleplayer]
	.loc 1 709 24
	movslq	%eax, %rdx	# consoleplayer.17_40, tmp182
	movq	%rdx, %rax	# tmp182, tmp183
	salq	$2, %rax	#, tmp183
	addq	%rdx, %rax	# tmp182, tmp183
	salq	$6, %rax	#, tmp184
	leaq	players(%rip), %rdx	#, tmp185
	addq	%rdx, %rax	# tmp185, _41
# p_inter.c:709: 	if (target->player == &players[consoleplayer]
	.loc 1 709 5
	cmpq	%rax, %rcx	# _41, _39
	jne	.L198	#,
# p_inter.c:710: 	    && automapactive)
	.loc 1 710 6
	movl	automapactive(%rip), %eax	# automapactive, automapactive.18_42
	testl	%eax, %eax	# automapactive.18_42
	je	.L198	#,
# p_inter.c:714: 	    AM_Stop ();
	.loc 1 714 6
	call	AM_Stop@PLT	#
.L198:
# p_inter.c:719:     if (target->health < -target->info->spawnhealth 
	.loc 1 719 15
	movq	-32(%rbp), %rax	# target, tmp186
	movl	164(%rax), %edx	# target_75(D)->health, _43
# p_inter.c:719:     if (target->health < -target->info->spawnhealth 
	.loc 1 719 33
	movq	-32(%rbp), %rax	# target, tmp187
	movq	136(%rax), %rax	# target_75(D)->info, _44
# p_inter.c:719:     if (target->health < -target->info->spawnhealth 
	.loc 1 719 39
	movl	8(%rax), %eax	# _44->spawnhealth, _45
# p_inter.c:719:     if (target->health < -target->info->spawnhealth 
	.loc 1 719 26
	negl	%eax	# _46
# p_inter.c:719:     if (target->health < -target->info->spawnhealth 
	.loc 1 719 8
	cmpl	%eax, %edx	# _46, _43
	jge	.L200	#,
# p_inter.c:720: 	&& target->info->xdeathstate)
	.loc 1 720 11
	movq	-32(%rbp), %rax	# target, tmp188
	movq	136(%rax), %rax	# target_75(D)->info, _47
# p_inter.c:720: 	&& target->info->xdeathstate)
	.loc 1 720 17
	movl	52(%rax), %eax	# _47->xdeathstate, _48
# p_inter.c:720: 	&& target->info->xdeathstate)
	.loc 1 720 2
	testl	%eax, %eax	# _48
	je	.L200	#,
# p_inter.c:722: 	P_SetMobjState (target, target->info->xdeathstate);
	.loc 1 722 32
	movq	-32(%rbp), %rax	# target, tmp189
	movq	136(%rax), %rax	# target_75(D)->info, _49
# p_inter.c:722: 	P_SetMobjState (target, target->info->xdeathstate);
	.loc 1 722 38
	movl	52(%rax), %eax	# _49->xdeathstate, _50
# p_inter.c:722: 	P_SetMobjState (target, target->info->xdeathstate);
	.loc 1 722 2
	movl	%eax, %edx	# _50, _51
	movq	-32(%rbp), %rax	# target, tmp190
	movl	%edx, %esi	# _51,
	movq	%rax, %rdi	# tmp190,
	call	P_SetMobjState@PLT	#
	jmp	.L201	#
.L200:
# p_inter.c:725: 	P_SetMobjState (target, target->info->deathstate);
	.loc 1 725 32
	movq	-32(%rbp), %rax	# target, tmp191
	movq	136(%rax), %rax	# target_75(D)->info, _52
# p_inter.c:725: 	P_SetMobjState (target, target->info->deathstate);
	.loc 1 725 38
	movl	48(%rax), %eax	# _52->deathstate, _53
# p_inter.c:725: 	P_SetMobjState (target, target->info->deathstate);
	.loc 1 725 2
	movl	%eax, %edx	# _53, _54
	movq	-32(%rbp), %rax	# target, tmp192
	movl	%edx, %esi	# _54,
	movq	%rax, %rdi	# tmp192,
	call	P_SetMobjState@PLT	#
.L201:
# p_inter.c:726:     target->tics -= P_Random()&3;
	.loc 1 726 21
	call	P_Random@PLT	#
# p_inter.c:726:     target->tics -= P_Random()&3;
	.loc 1 726 31 discriminator 1
	andl	$3, %eax	#, _55
	movl	%eax, %ecx	# _55, _92
# p_inter.c:726:     target->tics -= P_Random()&3;
	.loc 1 726 11 discriminator 1
	movq	-32(%rbp), %rax	# target, tmp193
	movl	144(%rax), %eax	# target_75(D)->tics, _56
# p_inter.c:726:     target->tics -= P_Random()&3;
	.loc 1 726 18 discriminator 1
	subl	%ecx, %eax	# _92, _56
	movl	%eax, %edx	# _56, _57
	movq	-32(%rbp), %rax	# target, tmp194
	movl	%edx, 144(%rax)	# _57, target_75(D)->tics
# p_inter.c:728:     if (target->tics < 1)
	.loc 1 728 15
	movq	-32(%rbp), %rax	# target, tmp195
	movl	144(%rax), %eax	# target_75(D)->tics, _58
# p_inter.c:728:     if (target->tics < 1)
	.loc 1 728 8
	testl	%eax, %eax	# _58
	jg	.L202	#,
# p_inter.c:729: 	target->tics = 1;
	.loc 1 729 15
	movq	-32(%rbp), %rax	# target, tmp196
	movl	$1, 144(%rax)	#, target_75(D)->tics
.L202:
# p_inter.c:737:     switch (target->type)
	.loc 1 737 19
	movq	-32(%rbp), %rax	# target, tmp197
	movl	128(%rax), %eax	# target_75(D)->type, _59
# p_inter.c:737:     switch (target->type)
	.loc 1 737 5
	cmpl	$23, %eax	#, _59
	je	.L203	#,
	cmpl	$23, %eax	#, _59
	ja	.L209	#,
	cmpl	$10, %eax	#, _59
	je	.L205	#,
	cmpl	$10, %eax	#, _59
	ja	.L209	#,
	cmpl	$1, %eax	#, _59
	je	.L203	#,
	cmpl	$2, %eax	#, _59
	je	.L206	#,
# p_inter.c:753: 	return;
	.loc 1 753 2
	jmp	.L209	#
.L203:
# p_inter.c:741: 	item = MT_CLIP;
	.loc 1 741 7
	movl	$63, -12(%rbp)	#, item
# p_inter.c:742: 	break;
	.loc 1 742 2
	jmp	.L207	#
.L206:
# p_inter.c:745: 	item = MT_SHOTGUN;
	.loc 1 745 7
	movl	$77, -12(%rbp)	#, item
# p_inter.c:746: 	break;
	.loc 1 746 2
	jmp	.L207	#
.L205:
# p_inter.c:749: 	item = MT_CHAINGUN;
	.loc 1 749 7
	movl	$73, -12(%rbp)	#, item
# p_inter.c:750: 	break;
	.loc 1 750 2
	nop	
.L207:
# p_inter.c:756:     mo = P_SpawnMobj (target->x,target->y,ONFLOORZ, item);
	.loc 1 756 10
	movq	-32(%rbp), %rax	# target, tmp198
	movl	28(%rax), %esi	# target_75(D)->y, _60
	movq	-32(%rbp), %rax	# target, tmp199
	movl	24(%rax), %eax	# target_75(D)->x, _61
	movl	-12(%rbp), %edx	# item, tmp200
	movl	%edx, %ecx	# tmp200,
	movl	$-2147483648, %edx	#,
	movl	%eax, %edi	# _61,
	call	P_SpawnMobj@PLT	#
	movq	%rax, -8(%rbp)	# tmp201, mo
# p_inter.c:757:     mo->flags |= MF_DROPPED;	// special versions of items
	.loc 1 757 7
	movq	-8(%rbp), %rax	# mo, tmp202
	movl	160(%rax), %eax	# mo_99->flags, _62
# p_inter.c:757:     mo->flags |= MF_DROPPED;	// special versions of items
	.loc 1 757 15
	orl	$131072, %eax	#, _62
	movl	%eax, %edx	# _62, _63
	movq	-8(%rbp), %rax	# mo, tmp203
	movl	%edx, 160(%rax)	# _63, mo_99->flags
	jmp	.L192	#
.L209:
# p_inter.c:753: 	return;
	.loc 1 753 2
	nop	
.L192:
# p_inter.c:758: }
	.loc 1 758 1
	leave	
	.cfi_def_cfa 7, 8
	ret	
	.cfi_endproc
.LFE7:
	.size	P_KillMobj, .-P_KillMobj
	.globl	P_DamageMobj
	.type	P_DamageMobj, @function
P_DamageMobj:
.LFB8:
	.loc 1 780 1
	.cfi_startproc
	endbr64	
	pushq	%rbp	#
	.cfi_def_cfa_offset 16
	.cfi_offset 6, -16
	movq	%rsp, %rbp	#,
	.cfi_def_cfa_register 6
	subq	$64, %rsp	#,
	movq	%rdi, -40(%rbp)	# target, target
	movq	%rsi, -48(%rbp)	# inflictor, inflictor
	movq	%rdx, -56(%rbp)	# source, source
	movl	%ecx, -60(%rbp)	# damage, damage
# p_inter.c:787:     if ( !(target->flags & MF_SHOOTABLE) )
	.loc 1 787 18
	movq	-40(%rbp), %rax	# target, tmp168
	movl	160(%rax), %eax	# target_104(D)->flags, _1
# p_inter.c:787:     if ( !(target->flags & MF_SHOOTABLE) )
	.loc 1 787 26
	andl	$4, %eax	#, _2
# p_inter.c:787:     if ( !(target->flags & MF_SHOOTABLE) )
	.loc 1 787 8
	testl	%eax, %eax	# _2
	je	.L232	#,
# p_inter.c:790:     if (target->health <= 0)
	.loc 1 790 15
	movq	-40(%rbp), %rax	# target, tmp169
	movl	164(%rax), %eax	# target_104(D)->health, _3
# p_inter.c:790:     if (target->health <= 0)
	.loc 1 790 8
	testl	%eax, %eax	# _3
	jle	.L233	#,
# p_inter.c:793:     if ( target->flags & MF_SKULLFLY )
	.loc 1 793 16
	movq	-40(%rbp), %rax	# target, tmp170
	movl	160(%rax), %eax	# target_104(D)->flags, _4
# p_inter.c:793:     if ( target->flags & MF_SKULLFLY )
	.loc 1 793 24
	andl	$16777216, %eax	#, _5
# p_inter.c:793:     if ( target->flags & MF_SKULLFLY )
	.loc 1 793 8
	testl	%eax, %eax	# _5
	je	.L214	#,
# p_inter.c:795: 	target->momx = target->momy = target->momz = 0;
	.loc 1 795 45
	movq	-40(%rbp), %rax	# target, tmp171
	movl	$0, 120(%rax)	#, target_104(D)->momz
# p_inter.c:795: 	target->momx = target->momy = target->momz = 0;
	.loc 1 795 38
	movq	-40(%rbp), %rax	# target, tmp172
	movl	120(%rax), %edx	# target_104(D)->momz, _6
# p_inter.c:795: 	target->momx = target->momy = target->momz = 0;
	.loc 1 795 30
	movq	-40(%rbp), %rax	# target, tmp173
	movl	%edx, 116(%rax)	# _6, target_104(D)->momy
# p_inter.c:795: 	target->momx = target->momy = target->momz = 0;
	.loc 1 795 23
	movq	-40(%rbp), %rax	# target, tmp174
	movl	116(%rax), %edx	# target_104(D)->momy, _7
# p_inter.c:795: 	target->momx = target->momy = target->momz = 0;
	.loc 1 795 15
	movq	-40(%rbp), %rax	# target, tmp175
	movl	%edx, 112(%rax)	# _7, target_104(D)->momx
.L214:
# p_inter.c:798:     player = target->player;
	.loc 1 798 12
	movq	-40(%rbp), %rax	# target, tmp176
	movq	192(%rax), %rax	# target_104(D)->player, tmp177
	movq	%rax, -8(%rbp)	# tmp177, player
# p_inter.c:799:     if (player && gameskill == sk_baby)
	.loc 1 799 8
	cmpq	$0, -8(%rbp)	#, player
	je	.L215	#,
# p_inter.c:799:     if (player && gameskill == sk_baby)
	.loc 1 799 29 discriminator 1
	movl	gameskill(%rip), %eax	# gameskill, gameskill.19_8
# p_inter.c:799:     if (player && gameskill == sk_baby)
	.loc 1 799 16 discriminator 1
	testl	%eax, %eax	# gameskill.19_8
	jne	.L215	#,
# p_inter.c:800: 	damage >>= 1; 	// take half damage in trainer mode
	.loc 1 800 9
	sarl	-60(%rbp)	# damage
.L215:
# p_inter.c:806:     if (inflictor
	.loc 1 806 8
	cmpq	$0, -48(%rbp)	#, inflictor
	je	.L216	#,
# p_inter.c:807: 	&& !(target->flags & MF_NOCLIP)
	.loc 1 807 13
	movq	-40(%rbp), %rax	# target, tmp178
	movl	160(%rax), %eax	# target_104(D)->flags, _9
# p_inter.c:807: 	&& !(target->flags & MF_NOCLIP)
	.loc 1 807 21
	andl	$4096, %eax	#, _10
# p_inter.c:807: 	&& !(target->flags & MF_NOCLIP)
	.loc 1 807 2
	testl	%eax, %eax	# _10
	jne	.L216	#,
# p_inter.c:808: 	&& (!source
	.loc 1 808 2
	cmpq	$0, -56(%rbp)	#, source
	je	.L217	#,
# p_inter.c:809: 	    || !source->player
	.loc 1 809 16
	movq	-56(%rbp), %rax	# source, tmp179
	movq	192(%rax), %rax	# source_112(D)->player, _11
# p_inter.c:809: 	    || !source->player
	.loc 1 809 6
	testq	%rax, %rax	# _11
	je	.L217	#,
# p_inter.c:810: 	    || source->player->readyweapon != wp_chainsaw))
	.loc 1 810 15
	movq	-56(%rbp), %rax	# source, tmp180
	movq	192(%rax), %rax	# source_112(D)->player, _12
# p_inter.c:810: 	    || source->player->readyweapon != wp_chainsaw))
	.loc 1 810 23
	movl	116(%rax), %eax	# _12->readyweapon, _13
# p_inter.c:810: 	    || source->player->readyweapon != wp_chainsaw))
	.loc 1 810 6
	cmpl	$7, %eax	#, _13
	je	.L216	#,
.L217:
# p_inter.c:812: 	ang = R_PointToAngle2 ( inflictor->x,
	.loc 1 812 8
	movq	-40(%rbp), %rax	# target, tmp181
	movl	28(%rax), %ecx	# target_104(D)->y, _14
	movq	-40(%rbp), %rax	# target, tmp182
	movl	24(%rax), %edx	# target_104(D)->x, _15
	movq	-48(%rbp), %rax	# inflictor, tmp183
	movl	28(%rax), %esi	# inflictor_111(D)->y, _16
	movq	-48(%rbp), %rax	# inflictor, tmp184
	movl	24(%rax), %eax	# inflictor_111(D)->x, _17
	movl	%eax, %edi	# _17,
	call	R_PointToAngle2@PLT	#
	movl	%eax, -24(%rbp)	# tmp185, ang
# p_inter.c:817: 	thrust = damage*(FRACUNIT>>3)*100/target->info->mass;
	.loc 1 817 31
	movl	-60(%rbp), %eax	# damage, tmp186
	imull	$819200, %eax, %eax	#, tmp186, _18
# p_inter.c:817: 	thrust = damage*(FRACUNIT>>3)*100/target->info->mass;
	.loc 1 817 42
	movq	-40(%rbp), %rdx	# target, tmp187
	movq	136(%rdx), %rdx	# target_104(D)->info, _19
# p_inter.c:817: 	thrust = damage*(FRACUNIT>>3)*100/target->info->mass;
	.loc 1 817 48
	movl	72(%rdx), %edi	# _19->mass, _20
# p_inter.c:817: 	thrust = damage*(FRACUNIT>>3)*100/target->info->mass;
	.loc 1 817 9
	cltd
	idivl	%edi	# _20
	movl	%eax, -16(%rbp)	# tmp188, thrust
# p_inter.c:820: 	if ( damage < 40
	.loc 1 820 5
	cmpl	$39, -60(%rbp)	#, damage
	jg	.L218	#,
# p_inter.c:821: 	     && damage > target->health
	.loc 1 821 25
	movq	-40(%rbp), %rax	# target, tmp190
	movl	164(%rax), %eax	# target_104(D)->health, _21
# p_inter.c:821: 	     && damage > target->health
	.loc 1 821 7
	cmpl	%eax, -60(%rbp)	# _21, damage
	jle	.L218	#,
# p_inter.c:822: 	     && target->z - inflictor->z > 64*FRACUNIT
	.loc 1 822 16
	movq	-40(%rbp), %rax	# target, tmp191
	movl	32(%rax), %edx	# target_104(D)->z, _22
# p_inter.c:822: 	     && target->z - inflictor->z > 64*FRACUNIT
	.loc 1 822 31
	movq	-48(%rbp), %rax	# inflictor, tmp192
	movl	32(%rax), %eax	# inflictor_111(D)->z, _23
# p_inter.c:822: 	     && target->z - inflictor->z > 64*FRACUNIT
	.loc 1 822 20
	subl	%eax, %edx	# _23, _24
# p_inter.c:822: 	     && target->z - inflictor->z > 64*FRACUNIT
	.loc 1 822 7
	cmpl	$4194304, %edx	#, _24
	jle	.L218	#,
# p_inter.c:823: 	     && (P_Random ()&1) )
	.loc 1 823 11
	call	P_Random@PLT	#
# p_inter.c:823: 	     && (P_Random ()&1) )
	.loc 1 823 22 discriminator 1
	andl	$1, %eax	#, _26
# p_inter.c:823: 	     && (P_Random ()&1) )
	.loc 1 823 7 discriminator 1
	testl	%eax, %eax	# _26
	je	.L218	#,
# p_inter.c:825: 	    ang += ANG180;
	.loc 1 825 10
	addl	$-2147483648, -24(%rbp)	#, ang
# p_inter.c:826: 	    thrust *= 4;
	.loc 1 826 13
	sall	$2, -16(%rbp)	#, thrust
.L218:
# p_inter.c:829: 	ang >>= ANGLETOFINESHIFT;
	.loc 1 829 6
	shrl	$19, -24(%rbp)	#, ang
# p_inter.c:830: 	target->momx += FixedMul (thrust, finecosine[ang]);
	.loc 1 830 46
	movq	finecosine(%rip), %rax	# finecosine, finecosine.20_27
	movl	-24(%rbp), %edx	# ang, _28
	salq	$2, %rdx	#, _29
	addq	%rdx, %rax	# _29, _30
# p_inter.c:830: 	target->momx += FixedMul (thrust, finecosine[ang]);
	.loc 1 830 18
	movl	(%rax), %edx	# *_30, _31
	movl	-16(%rbp), %eax	# thrust, tmp193
	movl	%edx, %esi	# _31,
	movl	%eax, %edi	# tmp193,
	call	FixedMul@PLT	#
# p_inter.c:830: 	target->momx += FixedMul (thrust, finecosine[ang]);
	.loc 1 830 8 discriminator 1
	movq	-40(%rbp), %rdx	# target, tmp194
	movl	112(%rdx), %edx	# target_104(D)->momx, _32
# p_inter.c:830: 	target->momx += FixedMul (thrust, finecosine[ang]);
	.loc 1 830 15 discriminator 1
	addl	%eax, %edx	# _121, _33
	movq	-40(%rbp), %rax	# target, tmp195
	movl	%edx, 112(%rax)	# _33, target_104(D)->momx
# p_inter.c:831: 	target->momy += FixedMul (thrust, finesine[ang]);
	.loc 1 831 18
	movl	-24(%rbp), %eax	# ang, tmp196
	leaq	0(,%rax,4), %rdx	#, tmp197
	leaq	finesine(%rip), %rax	#, tmp198
	movl	(%rdx,%rax), %edx	# finesine[ang_119], _34
	movl	-16(%rbp), %eax	# thrust, tmp199
	movl	%edx, %esi	# _34,
	movl	%eax, %edi	# tmp199,
	call	FixedMul@PLT	#
# p_inter.c:831: 	target->momy += FixedMul (thrust, finesine[ang]);
	.loc 1 831 8 discriminator 1
	movq	-40(%rbp), %rdx	# target, tmp200
	movl	116(%rdx), %edx	# target_104(D)->momy, _35
# p_inter.c:831: 	target->momy += FixedMul (thrust, finesine[ang]);
	.loc 1 831 15 discriminator 1
	addl	%eax, %edx	# _124, _36
	movq	-40(%rbp), %rax	# target, tmp201
	movl	%edx, 116(%rax)	# _36, target_104(D)->momy
.L216:
# p_inter.c:835:     if (player)
	.loc 1 835 8
	cmpq	$0, -8(%rbp)	#, player
	je	.L219	#,
# p_inter.c:838: 	if (target->subsector->sector->special == 11
	.loc 1 838 12
	movq	-40(%rbp), %rax	# target, tmp202
	movq	88(%rax), %rax	# target_104(D)->subsector, _37
# p_inter.c:838: 	if (target->subsector->sector->special == 11
	.loc 1 838 23
	movq	(%rax), %rax	# _37->sector, _38
# p_inter.c:838: 	if (target->subsector->sector->special == 11
	.loc 1 838 31
	movzwl	14(%rax), %eax	# _38->special, _39
# p_inter.c:838: 	if (target->subsector->sector->special == 11
	.loc 1 838 5
	cmpw	$11, %ax	#, _39
	jne	.L220	#,
# p_inter.c:839: 	    && damage >= target->health)
	.loc 1 839 25
	movq	-40(%rbp), %rax	# target, tmp203
	movl	164(%rax), %eax	# target_104(D)->health, _40
# p_inter.c:839: 	    && damage >= target->health)
	.loc 1 839 6
	cmpl	%eax, -60(%rbp)	# _40, damage
	jl	.L220	#,
# p_inter.c:841: 	    damage = target->health - 1;
	.loc 1 841 21
	movq	-40(%rbp), %rax	# target, tmp204
	movl	164(%rax), %eax	# target_104(D)->health, _41
# p_inter.c:841: 	    damage = target->health - 1;
	.loc 1 841 13
	subl	$1, %eax	#, tmp205
	movl	%eax, -60(%rbp)	# tmp205, damage
.L220:
# p_inter.c:847: 	if ( damage < 1000
	.loc 1 847 5
	cmpl	$999, -60(%rbp)	#, damage
	jg	.L221	#,
# p_inter.c:848: 	     && ( (player->cheats&CF_GODMODE)
	.loc 1 848 19
	movq	-8(%rbp), %rax	# player, tmp206
	movl	200(%rax), %eax	# player_108->cheats, _42
# p_inter.c:848: 	     && ( (player->cheats&CF_GODMODE)
	.loc 1 848 27
	andl	$2, %eax	#, _43
# p_inter.c:848: 	     && ( (player->cheats&CF_GODMODE)
	.loc 1 848 7
	testl	%eax, %eax	# _43
	jne	.L234	#,
# p_inter.c:849: 		  || player->powers[pw_invulnerability] ) )
	.loc 1 849 22
	movq	-8(%rbp), %rax	# player, tmp207
	movl	48(%rax), %eax	# player_108->powers[0], _44
# p_inter.c:849: 		  || player->powers[pw_invulnerability] ) )
	.loc 1 849 5
	testl	%eax, %eax	# _44
	jne	.L234	#,
.L221:
# p_inter.c:854: 	if (player->armortype)
	.loc 1 854 12
	movq	-8(%rbp), %rax	# player, tmp208
	movl	44(%rax), %eax	# player_108->armortype, _45
# p_inter.c:854: 	if (player->armortype)
	.loc 1 854 5
	testl	%eax, %eax	# _45
	je	.L223	#,
# p_inter.c:856: 	    if (player->armortype == 1)
	.loc 1 856 16
	movq	-8(%rbp), %rax	# player, tmp209
	movl	44(%rax), %eax	# player_108->armortype, _46
# p_inter.c:856: 	    if (player->armortype == 1)
	.loc 1 856 9
	cmpl	$1, %eax	#, _46
	jne	.L224	#,
# p_inter.c:857: 		saved = damage/3;
	.loc 1 857 9
	movl	-60(%rbp), %eax	# damage, tmp211
	movslq	%eax, %rdx	# tmp211, tmp212
	imulq	$1431655766, %rdx, %rdx	#, tmp212, tmp213
	movq	%rdx, %rcx	# tmp213, tmp213
	shrq	$32, %rcx	#, tmp213
	cltd
	movl	%ecx, %eax	# tmp214, tmp210
	subl	%edx, %eax	# tmp215, tmp210
	movl	%eax, -20(%rbp)	# tmp210, saved
	jmp	.L225	#
.L224:
# p_inter.c:859: 		saved = damage/2;
	.loc 1 859 9
	movl	-60(%rbp), %eax	# damage, tmp217
	movl	%eax, %edx	# tmp217, tmp218
	shrl	$31, %edx	#, tmp218
	addl	%edx, %eax	# tmp218, tmp219
	sarl	%eax	# tmp220
	movl	%eax, -20(%rbp)	# tmp220, saved
.L225:
# p_inter.c:861: 	    if (player->armorpoints <= saved)
	.loc 1 861 16
	movq	-8(%rbp), %rax	# player, tmp221
	movl	40(%rax), %eax	# player_108->armorpoints, _47
# p_inter.c:861: 	    if (player->armorpoints <= saved)
	.loc 1 861 9
	cmpl	%eax, -20(%rbp)	# _47, saved
	jl	.L226	#,
# p_inter.c:864: 		saved = player->armorpoints;
	.loc 1 864 9
	movq	-8(%rbp), %rax	# player, tmp222
	movl	40(%rax), %eax	# player_108->armorpoints, tmp223
	movl	%eax, -20(%rbp)	# tmp223, saved
# p_inter.c:865: 		player->armortype = 0;
	.loc 1 865 21
	movq	-8(%rbp), %rax	# player, tmp224
	movl	$0, 44(%rax)	#, player_108->armortype
.L226:
# p_inter.c:867: 	    player->armorpoints -= saved;
	.loc 1 867 12
	movq	-8(%rbp), %rax	# player, tmp225
	movl	40(%rax), %eax	# player_108->armorpoints, _48
# p_inter.c:867: 	    player->armorpoints -= saved;
	.loc 1 867 26
	subl	-20(%rbp), %eax	# saved, _48
	movl	%eax, %edx	# _48, _49
	movq	-8(%rbp), %rax	# player, tmp226
	movl	%edx, 40(%rax)	# _49, player_108->armorpoints
# p_inter.c:868: 	    damage -= saved;
	.loc 1 868 13
	movl	-20(%rbp), %eax	# saved, tmp227
	subl	%eax, -60(%rbp)	# tmp227, damage
.L223:
# p_inter.c:870: 	player->health -= damage; 	// mirror mobj health here for Dave
	.loc 1 870 8
	movq	-8(%rbp), %rax	# player, tmp228
	movl	36(%rax), %eax	# player_108->health, _50
# p_inter.c:870: 	player->health -= damage; 	// mirror mobj health here for Dave
	.loc 1 870 17
	subl	-60(%rbp), %eax	# damage, _50
	movl	%eax, %edx	# _50, _51
	movq	-8(%rbp), %rax	# player, tmp229
	movl	%edx, 36(%rax)	# _51, player_108->health
# p_inter.c:871: 	if (player->health < 0)
	.loc 1 871 12
	movq	-8(%rbp), %rax	# player, tmp230
	movl	36(%rax), %eax	# player_108->health, _52
# p_inter.c:871: 	if (player->health < 0)
	.loc 1 871 5
	testl	%eax, %eax	# _52
	jns	.L227	#,
# p_inter.c:872: 	    player->health = 0;
	.loc 1 872 21
	movq	-8(%rbp), %rax	# player, tmp231
	movl	$0, 36(%rax)	#, player_108->health
.L227:
# p_inter.c:874: 	player->attacker = source;
	.loc 1 874 19
	movq	-8(%rbp), %rax	# player, tmp232
	movq	-56(%rbp), %rdx	# source, tmp233
	movq	%rdx, 240(%rax)	# tmp233, player_108->attacker
# p_inter.c:875: 	player->damagecount += damage;	// add damage after armor / invuln
	.loc 1 875 8
	movq	-8(%rbp), %rax	# player, tmp234
	movl	232(%rax), %edx	# player_108->damagecount, _53
# p_inter.c:875: 	player->damagecount += damage;	// add damage after armor / invuln
	.loc 1 875 22
	movl	-60(%rbp), %eax	# damage, tmp235
	addl	%eax, %edx	# tmp235, _54
	movq	-8(%rbp), %rax	# player, tmp236
	movl	%edx, 232(%rax)	# _54, player_108->damagecount
# p_inter.c:877: 	if (player->damagecount > 100)
	.loc 1 877 12
	movq	-8(%rbp), %rax	# player, tmp237
	movl	232(%rax), %eax	# player_108->damagecount, _55
# p_inter.c:877: 	if (player->damagecount > 100)
	.loc 1 877 5
	cmpl	$100, %eax	#, _55
	jle	.L228	#,
# p_inter.c:878: 	    player->damagecount = 100;	// teleport stomp does 10k points...
	.loc 1 878 26
	movq	-8(%rbp), %rax	# player, tmp238
	movl	$100, 232(%rax)	#, player_108->damagecount
.L228:
# p_inter.c:880: 	temp = damage < 100 ? damage : 100;
	.loc 1 880 7
	movl	-60(%rbp), %eax	# damage, tmp240
	movl	$100, %edx	#, tmp275
	cmpl	%edx, %eax	# tmp275, tmp240
	cmovg	%edx, %eax	# tmp240,, tmp275, tmp239
	movl	%eax, -12(%rbp)	# tmp239, temp
# p_inter.c:882: 	if (player == &players[consoleplayer])
	.loc 1 882 24
	movl	consoleplayer(%rip), %eax	# consoleplayer, consoleplayer.21_56
# p_inter.c:882: 	if (player == &players[consoleplayer])
	.loc 1 882 16
	movslq	%eax, %rdx	# consoleplayer.21_56, tmp241
	movq	%rdx, %rax	# tmp241, tmp242
	salq	$2, %rax	#, tmp242
	addq	%rdx, %rax	# tmp241, tmp242
	salq	$6, %rax	#, tmp243
	leaq	players(%rip), %rdx	#, tmp244
	addq	%rdx, %rax	# tmp244, _57
# p_inter.c:882: 	if (player == &players[consoleplayer])
	.loc 1 882 5
	cmpq	%rax, -8(%rbp)	# _57, player
	jne	.L219	#,
# p_inter.c:883: 	    I_Tactile (40,10,40+temp*2);
	.loc 1 883 25
	movl	-12(%rbp), %eax	# temp, tmp245
	addl	$20, %eax	#, _58
# p_inter.c:883: 	    I_Tactile (40,10,40+temp*2);
	.loc 1 883 6
	addl	%eax, %eax	# _59
	movl	%eax, %edx	# _59,
	movl	$10, %esi	#,
	movl	$40, %edi	#,
	call	I_Tactile@PLT	#
.L219:
# p_inter.c:887:     target->health -= damage;	
	.loc 1 887 11
	movq	-40(%rbp), %rax	# target, tmp246
	movl	164(%rax), %eax	# target_104(D)->health, _60
# p_inter.c:887:     target->health -= damage;	
	.loc 1 887 20
	subl	-60(%rbp), %eax	# damage, _60
	movl	%eax, %edx	# _60, _61
	movq	-40(%rbp), %rax	# target, tmp247
	movl	%edx, 164(%rax)	# _61, target_104(D)->health
# p_inter.c:888:     if (target->health <= 0)
	.loc 1 888 15
	movq	-40(%rbp), %rax	# target, tmp248
	movl	164(%rax), %eax	# target_104(D)->health, _62
# p_inter.c:888:     if (target->health <= 0)
	.loc 1 888 8
	testl	%eax, %eax	# _62
	jg	.L229	#,
# p_inter.c:890: 	P_KillMobj (source, target);
	.loc 1 890 2
	movq	-40(%rbp), %rdx	# target, tmp249
	movq	-56(%rbp), %rax	# source, tmp250
	movq	%rdx, %rsi	# tmp249,
	movq	%rax, %rdi	# tmp250,
	call	P_KillMobj	#
# p_inter.c:891: 	return;
	.loc 1 891 2
	jmp	.L210	#
.L229:
# p_inter.c:894:     if ( (P_Random () < target->info->painchance)
	.loc 1 894 11
	call	P_Random@PLT	#
	movl	%eax, %edx	#, _63
# p_inter.c:894:     if ( (P_Random () < target->info->painchance)
	.loc 1 894 31 discriminator 1
	movq	-40(%rbp), %rax	# target, tmp251
	movq	136(%rax), %rax	# target_104(D)->info, _64
# p_inter.c:894:     if ( (P_Random () < target->info->painchance)
	.loc 1 894 37 discriminator 1
	movl	32(%rax), %eax	# _64->painchance, _65
# p_inter.c:894:     if ( (P_Random () < target->info->painchance)
	.loc 1 894 8 discriminator 1
	cmpl	%eax, %edx	# _65, _63
	jge	.L230	#,
# p_inter.c:895: 	 && !(target->flags&MF_SKULLFLY) )
	.loc 1 895 14
	movq	-40(%rbp), %rax	# target, tmp252
	movl	160(%rax), %eax	# target_104(D)->flags, _66
# p_inter.c:895: 	 && !(target->flags&MF_SKULLFLY) )
	.loc 1 895 21
	andl	$16777216, %eax	#, _67
# p_inter.c:895: 	 && !(target->flags&MF_SKULLFLY) )
	.loc 1 895 3
	testl	%eax, %eax	# _67
	jne	.L230	#,
# p_inter.c:897: 	target->flags |= MF_JUSTHIT;	// fight back!
	.loc 1 897 8
	movq	-40(%rbp), %rax	# target, tmp253
	movl	160(%rax), %eax	# target_104(D)->flags, _68
# p_inter.c:897: 	target->flags |= MF_JUSTHIT;	// fight back!
	.loc 1 897 16
	orl	$64, %eax	#, _68
	movl	%eax, %edx	# _68, _69
	movq	-40(%rbp), %rax	# target, tmp254
	movl	%edx, 160(%rax)	# _69, target_104(D)->flags
# p_inter.c:899: 	P_SetMobjState (target, target->info->painstate);
	.loc 1 899 32
	movq	-40(%rbp), %rax	# target, tmp255
	movq	136(%rax), %rax	# target_104(D)->info, _70
# p_inter.c:899: 	P_SetMobjState (target, target->info->painstate);
	.loc 1 899 38
	movl	28(%rax), %eax	# _70->painstate, _71
# p_inter.c:899: 	P_SetMobjState (target, target->info->painstate);
	.loc 1 899 2
	movl	%eax, %edx	# _71, _72
	movq	-40(%rbp), %rax	# target, tmp256
	movl	%edx, %esi	# _72,
	movq	%rax, %rdi	# tmp256,
	call	P_SetMobjState@PLT	#
.L230:
# p_inter.c:902:     target->reactiontime = 0;		// we're awake now...	
	.loc 1 902 26
	movq	-40(%rbp), %rax	# target, tmp257
	movl	$0, 184(%rax)	#, target_104(D)->reactiontime
# p_inter.c:904:     if ( (!target->threshold || target->type == MT_VILE)
	.loc 1 904 18
	movq	-40(%rbp), %rax	# target, tmp258
	movl	188(%rax), %eax	# target_104(D)->threshold, _73
# p_inter.c:904:     if ( (!target->threshold || target->type == MT_VILE)
	.loc 1 904 8
	testl	%eax, %eax	# _73
	je	.L231	#,
# p_inter.c:904:     if ( (!target->threshold || target->type == MT_VILE)
	.loc 1 904 39 discriminator 1
	movq	-40(%rbp), %rax	# target, tmp259
	movl	128(%rax), %eax	# target_104(D)->type, _74
# p_inter.c:904:     if ( (!target->threshold || target->type == MT_VILE)
	.loc 1 904 30 discriminator 1
	cmpl	$3, %eax	#, _74
	jne	.L210	#,
.L231:
# p_inter.c:905: 	 && source && source != target
	.loc 1 905 3
	cmpq	$0, -56(%rbp)	#, source
	je	.L210	#,
# p_inter.c:905: 	 && source && source != target
	.loc 1 905 13 discriminator 1
	movq	-56(%rbp), %rax	# source, tmp260
	cmpq	-40(%rbp), %rax	# target, tmp260
	je	.L210	#,
# p_inter.c:906: 	 && source->type != MT_VILE)
	.loc 1 906 12
	movq	-56(%rbp), %rax	# source, tmp261
	movl	128(%rax), %eax	# source_112(D)->type, _75
# p_inter.c:906: 	 && source->type != MT_VILE)
	.loc 1 906 3
	cmpl	$3, %eax	#, _75
	je	.L210	#,
# p_inter.c:910: 	target->target = source;
	.loc 1 910 17
	movq	-40(%rbp), %rax	# target, tmp262
	movq	-56(%rbp), %rdx	# source, tmp263
	movq	%rdx, 176(%rax)	# tmp263, target_104(D)->target
# p_inter.c:911: 	target->threshold = BASETHRESHOLD;
	.loc 1 911 20
	movq	-40(%rbp), %rax	# target, tmp264
	movl	$100, 188(%rax)	#, target_104(D)->threshold
# p_inter.c:912: 	if (target->state == &states[target->info->spawnstate]
	.loc 1 912 12
	movq	-40(%rbp), %rax	# target, tmp265
	movq	152(%rax), %rcx	# target_104(D)->state, _76
# p_inter.c:912: 	if (target->state == &states[target->info->spawnstate]
	.loc 1 912 37
	movq	-40(%rbp), %rax	# target, tmp266
	movq	136(%rax), %rax	# target_104(D)->info, _77
# p_inter.c:912: 	if (target->state == &states[target->info->spawnstate]
	.loc 1 912 43
	movl	4(%rax), %eax	# _77->spawnstate, _78
# p_inter.c:912: 	if (target->state == &states[target->info->spawnstate]
	.loc 1 912 23
	movslq	%eax, %rdx	# _78, tmp267
	movq	%rdx, %rax	# tmp267, tmp268
	salq	$3, %rax	#, tmp269
	subq	%rdx, %rax	# tmp267, tmp268
	salq	$3, %rax	#, tmp270
	leaq	states(%rip), %rdx	#, tmp271
	addq	%rdx, %rax	# tmp271, _79
# p_inter.c:912: 	if (target->state == &states[target->info->spawnstate]
	.loc 1 912 5
	cmpq	%rax, %rcx	# _79, _76
	jne	.L210	#,
# p_inter.c:913: 	    && target->info->seestate != S_NULL)
	.loc 1 913 15
	movq	-40(%rbp), %rax	# target, tmp272
	movq	136(%rax), %rax	# target_104(D)->info, _80
# p_inter.c:913: 	    && target->info->seestate != S_NULL)
	.loc 1 913 21
	movl	12(%rax), %eax	# _80->seestate, _81
# p_inter.c:913: 	    && target->info->seestate != S_NULL)
	.loc 1 913 6
	testl	%eax, %eax	# _81
	je	.L210	#,
# p_inter.c:914: 	    P_SetMobjState (target, target->info->seestate);
	.loc 1 914 36
	movq	-40(%rbp), %rax	# target, tmp273
	movq	136(%rax), %rax	# target_104(D)->info, _82
# p_inter.c:914: 	    P_SetMobjState (target, target->info->seestate);
	.loc 1 914 42
	movl	12(%rax), %eax	# _82->seestate, _83
# p_inter.c:914: 	    P_SetMobjState (target, target->info->seestate);
	.loc 1 914 6
	movl	%eax, %edx	# _83, _84
	movq	-40(%rbp), %rax	# target, tmp274
	movl	%edx, %esi	# _84,
	movq	%rax, %rdi	# tmp274,
	call	P_SetMobjState@PLT	#
	jmp	.L210	#
.L232:
# p_inter.c:788: 	return;	// shouldn't happen...
	.loc 1 788 2
	nop	
	jmp	.L210	#
.L233:
# p_inter.c:791: 	return;
	.loc 1 791 2
	nop	
	jmp	.L210	#
.L234:
# p_inter.c:851: 	    return;
	.loc 1 851 6
	nop	
.L210:
# p_inter.c:917: }
	.loc 1 917 1
	leave	
	.cfi_def_cfa 7, 8
	ret	
	.cfi_endproc
.LFE8:
	.size	P_DamageMobj, .-P_DamageMobj
.Letext0:
	.file 2 "doomdef.h"
	.file 3 "sounds.h"
	.file 4 "doomtype.h"
	.file 5 "doomdata.h"
	.file 6 "d_items.h"
	.file 7 "m_fixed.h"
	.file 8 "tables.h"
	.file 9 "d_think.h"
	.file 10 "info.h"
	.file 11 "p_pspr.h"
	.file 12 "p_mobj.h"
	.file 13 "r_defs.h"
	.file 14 "d_player.h"
	.file 15 "d_ticcmd.h"
	.file 16 "doomstat.h"
	.file 17 "p_local.h"
	.file 18 "r_main.h"
	.file 19 "i_system.h"
	.file 20 "s_sound.h"
	.file 21 "m_random.h"
	.file 22 "am_map.h"
	.section	.note.GNU-stack,"",@progbits
	.section	.note.gnu.property,"a"
	.align 8
	.long	1f - 0f
	.long	4f - 1f
	.long	5
0:
	.string	"GNU"
1:
	.align 8
	.long	0xc0000002
	.long	3f - 2f
2:
	.long	0x3
3:
	.align 8
4:
