	.file	"p_maputl.c"
# GNU C17 (Ubuntu 13.3.0-6ubuntu2~24.04) version 13.3.0 (x86_64-linux-gnu)
#	compiled by GNU C version 13.3.0, GMP version 6.3.0, MPFR version 4.2.1, MPC version 1.3.1, isl version isl-0.26-GMP

# GGC heuristics: --param ggc-min-expand=100 --param ggc-min-heapsize=131072
# options passed: -mtune=generic -march=x86-64 -g -fasynchronous-unwind-tables -fstack-protector-strong -fstack-clash-protection -fcf-protection
	.text
.Ltext0:
	.file 0 "/home/astrid/Documents/enseignements/DOOM/linuxdoom-1.10" "p_maputl.c"
	.section	.rodata
	.align 32
	.type	rcsid, @object
	.size	rcsid, 51
rcsid:
	.string	"$Id: p_maputl.c,v 1.5 1997/02/03 22:45:11 b1 Exp $"
	.text
	.globl	P_AproxDistance
	.type	P_AproxDistance, @function
P_AproxDistance:
.LFB6:
	.file 1 "p_maputl.c"
	.loc 1 52 1
	.cfi_startproc
	endbr64	
	pushq	%rbp	#
	.cfi_def_cfa_offset 16
	.cfi_offset 6, -16
	movq	%rsp, %rbp	#,
	.cfi_def_cfa_register 6
	movl	%edi, -4(%rbp)	# dx, dx
	movl	%esi, -8(%rbp)	# dy, dy
# p_maputl.c:53:     dx = abs(dx);
	.loc 1 53 8
	movl	-4(%rbp), %eax	# dx, tmp98
	movl	%eax, %edx	# tmp98, tmp99
	negl	%edx	# tmp99
	cmovns	%edx, %eax	# tmp99,, tmp88
	movl	%eax, -4(%rbp)	# tmp88, dx
# p_maputl.c:54:     dy = abs(dy);
	.loc 1 54 8
	movl	-8(%rbp), %eax	# dy, tmp100
	movl	%eax, %edx	# tmp100, tmp101
	negl	%edx	# tmp101
	cmovns	%edx, %eax	# tmp101,, tmp89
	movl	%eax, -8(%rbp)	# tmp89, dy
# p_maputl.c:55:     if (dx < dy)
	.loc 1 55 8
	movl	-4(%rbp), %eax	# dx, tmp90
	cmpl	-8(%rbp), %eax	# dy, tmp90
	jge	.L2	#,
# p_maputl.c:56: 	return dx+dy-(dx>>1);
	.loc 1 56 11
	movl	-4(%rbp), %edx	# dx, tmp91
	movl	-8(%rbp), %eax	# dy, tmp92
	leal	(%rdx,%rax), %ecx	#, _1
# p_maputl.c:56: 	return dx+dy-(dx>>1);
	.loc 1 56 18
	movl	-4(%rbp), %eax	# dx, tmp93
	sarl	%eax	# tmp93
	movl	%eax, %edx	# tmp93, _2
# p_maputl.c:56: 	return dx+dy-(dx>>1);
	.loc 1 56 14
	movl	%ecx, %eax	# _1, _1
	subl	%edx, %eax	# _2, _1
	jmp	.L3	#
.L2:
# p_maputl.c:57:     return dx+dy-(dy>>1);
	.loc 1 57 14
	movl	-4(%rbp), %edx	# dx, tmp94
	movl	-8(%rbp), %eax	# dy, tmp95
	leal	(%rdx,%rax), %ecx	#, _3
# p_maputl.c:57:     return dx+dy-(dy>>1);
	.loc 1 57 21
	movl	-8(%rbp), %eax	# dy, tmp96
	sarl	%eax	# tmp96
	movl	%eax, %edx	# tmp96, _4
# p_maputl.c:57:     return dx+dy-(dy>>1);
	.loc 1 57 17
	movl	%ecx, %eax	# _3, _3
	subl	%edx, %eax	# _4, _3
.L3:
# p_maputl.c:58: }
	.loc 1 58 1
	popq	%rbp	#
	.cfi_def_cfa 7, 8
	ret	
	.cfi_endproc
.LFE6:
	.size	P_AproxDistance, .-P_AproxDistance
	.globl	P_PointOnLineSide
	.type	P_PointOnLineSide, @function
P_PointOnLineSide:
.LFB7:
	.loc 1 70 1
	.cfi_startproc
	endbr64	
	pushq	%rbp	#
	.cfi_def_cfa_offset 16
	.cfi_offset 6, -16
	movq	%rsp, %rbp	#,
	.cfi_def_cfa_register 6
	subq	$32, %rsp	#,
	movl	%edi, -20(%rbp)	# x, x
	movl	%esi, -24(%rbp)	# y, y
	movq	%rdx, -32(%rbp)	# line, line
# p_maputl.c:76:     if (!line->dx)
	.loc 1 76 14
	movq	-32(%rbp), %rax	# line, tmp106
	movl	16(%rax), %eax	# line_26(D)->dx, _1
# p_maputl.c:76:     if (!line->dx)
	.loc 1 76 8
	testl	%eax, %eax	# _1
	jne	.L5	#,
# p_maputl.c:78: 	if (x <= line->v1->x)
	.loc 1 78 15
	movq	-32(%rbp), %rax	# line, tmp107
	movq	(%rax), %rax	# line_26(D)->v1, _2
# p_maputl.c:78: 	if (x <= line->v1->x)
	.loc 1 78 19
	movl	(%rax), %eax	# _2->x, _3
# p_maputl.c:78: 	if (x <= line->v1->x)
	.loc 1 78 5
	cmpl	%eax, -20(%rbp)	# _3, x
	jg	.L6	#,
# p_maputl.c:79: 	    return line->dy > 0;
	.loc 1 79 17
	movq	-32(%rbp), %rax	# line, tmp108
	movl	20(%rax), %eax	# line_26(D)->dy, _4
# p_maputl.c:79: 	    return line->dy > 0;
	.loc 1 79 22
	testl	%eax, %eax	# _4
	setg	%al	#, _5
	movzbl	%al, %eax	# _5, _23
	jmp	.L7	#
.L6:
# p_maputl.c:81: 	return line->dy < 0;
	.loc 1 81 13
	movq	-32(%rbp), %rax	# line, tmp109
	movl	20(%rax), %eax	# line_26(D)->dy, _6
# p_maputl.c:81: 	return line->dy < 0;
	.loc 1 81 18
	shrl	$31, %eax	#, tmp110
	movzbl	%al, %eax	# _7, _23
	jmp	.L7	#
.L5:
# p_maputl.c:83:     if (!line->dy)
	.loc 1 83 14
	movq	-32(%rbp), %rax	# line, tmp111
	movl	20(%rax), %eax	# line_26(D)->dy, _8
# p_maputl.c:83:     if (!line->dy)
	.loc 1 83 8
	testl	%eax, %eax	# _8
	jne	.L8	#,
# p_maputl.c:85: 	if (y <= line->v1->y)
	.loc 1 85 15
	movq	-32(%rbp), %rax	# line, tmp112
	movq	(%rax), %rax	# line_26(D)->v1, _9
# p_maputl.c:85: 	if (y <= line->v1->y)
	.loc 1 85 19
	movl	4(%rax), %eax	# _9->y, _10
# p_maputl.c:85: 	if (y <= line->v1->y)
	.loc 1 85 5
	cmpl	%eax, -24(%rbp)	# _10, y
	jg	.L9	#,
# p_maputl.c:86: 	    return line->dx < 0;
	.loc 1 86 17
	movq	-32(%rbp), %rax	# line, tmp113
	movl	16(%rax), %eax	# line_26(D)->dx, _11
# p_maputl.c:86: 	    return line->dx < 0;
	.loc 1 86 22
	shrl	$31, %eax	#, tmp114
	movzbl	%al, %eax	# _12, _23
	jmp	.L7	#
.L9:
# p_maputl.c:88: 	return line->dx > 0;
	.loc 1 88 13
	movq	-32(%rbp), %rax	# line, tmp115
	movl	16(%rax), %eax	# line_26(D)->dx, _13
# p_maputl.c:88: 	return line->dx > 0;
	.loc 1 88 18
	testl	%eax, %eax	# _13
	setg	%al	#, _14
	movzbl	%al, %eax	# _14, _23
	jmp	.L7	#
.L8:
# p_maputl.c:91:     dx = (x - line->v1->x);
	.loc 1 91 19
	movq	-32(%rbp), %rax	# line, tmp116
	movq	(%rax), %rax	# line_26(D)->v1, _15
# p_maputl.c:91:     dx = (x - line->v1->x);
	.loc 1 91 23
	movl	(%rax), %eax	# _15->x, _16
# p_maputl.c:91:     dx = (x - line->v1->x);
	.loc 1 91 8
	movl	-20(%rbp), %edx	# x, tmp120
	subl	%eax, %edx	# _16, tmp119
	movl	%edx, -16(%rbp)	# tmp119, dx
# p_maputl.c:92:     dy = (y - line->v1->y);
	.loc 1 92 19
	movq	-32(%rbp), %rax	# line, tmp121
	movq	(%rax), %rax	# line_26(D)->v1, _17
# p_maputl.c:92:     dy = (y - line->v1->y);
	.loc 1 92 23
	movl	4(%rax), %eax	# _17->y, _18
# p_maputl.c:92:     dy = (y - line->v1->y);
	.loc 1 92 8
	movl	-24(%rbp), %edx	# y, tmp125
	subl	%eax, %edx	# _18, tmp124
	movl	%edx, -12(%rbp)	# tmp124, dy
# p_maputl.c:94:     left = FixedMul ( line->dy>>FRACBITS , dx );
	.loc 1 94 27
	movq	-32(%rbp), %rax	# line, tmp126
	movl	20(%rax), %eax	# line_26(D)->dy, _19
# p_maputl.c:94:     left = FixedMul ( line->dy>>FRACBITS , dx );
	.loc 1 94 12
	sarl	$16, %eax	#, _19
	movl	%eax, %edx	# _19, _20
	movl	-16(%rbp), %eax	# dx, tmp127
	movl	%eax, %esi	# tmp127,
	movl	%edx, %edi	# _20,
	call	FixedMul@PLT	#
	movl	%eax, -8(%rbp)	# tmp128, left
# p_maputl.c:95:     right = FixedMul ( dy , line->dx>>FRACBITS );
	.loc 1 95 33
	movq	-32(%rbp), %rax	# line, tmp129
	movl	16(%rax), %eax	# line_26(D)->dx, _21
# p_maputl.c:95:     right = FixedMul ( dy , line->dx>>FRACBITS );
	.loc 1 95 13
	sarl	$16, %eax	#, _21
	movl	%eax, %edx	# _21, _22
	movl	-12(%rbp), %eax	# dy, tmp130
	movl	%edx, %esi	# _22,
	movl	%eax, %edi	# tmp130,
	call	FixedMul@PLT	#
	movl	%eax, -4(%rbp)	# tmp131, right
# p_maputl.c:97:     if (right < left)
	.loc 1 97 8
	movl	-4(%rbp), %eax	# right, tmp132
	cmpl	-8(%rbp), %eax	# left, tmp132
	jge	.L10	#,
# p_maputl.c:98: 	return 0;		// front side
	.loc 1 98 9
	movl	$0, %eax	#, _23
	jmp	.L7	#
.L10:
# p_maputl.c:99:     return 1;			// back side
	.loc 1 99 12
	movl	$1, %eax	#, _23
.L7:
# p_maputl.c:100: }
	.loc 1 100 1
	leave	
	.cfi_def_cfa 7, 8
	ret	
	.cfi_endproc
.LFE7:
	.size	P_PointOnLineSide, .-P_PointOnLineSide
	.globl	P_BoxOnLineSide
	.type	P_BoxOnLineSide, @function
P_BoxOnLineSide:
.LFB8:
	.loc 1 113 1
	.cfi_startproc
	endbr64	
	pushq	%rbp	#
	.cfi_def_cfa_offset 16
	.cfi_offset 6, -16
	movq	%rsp, %rbp	#,
	.cfi_def_cfa_register 6
	subq	$32, %rsp	#,
	movq	%rdi, -24(%rbp)	# tmbox, tmbox
	movq	%rsi, -32(%rbp)	# ld, ld
# p_maputl.c:117:     switch (ld->slopetype)
	.loc 1 117 15
	movq	-32(%rbp), %rax	# ld, tmp120
	movl	52(%rax), %eax	# ld_46(D)->slopetype, _1
# p_maputl.c:117:     switch (ld->slopetype)
	.loc 1 117 5
	cmpl	$3, %eax	#, _1
	je	.L12	#,
	cmpl	$3, %eax	#, _1
	ja	.L13	#,
	cmpl	$2, %eax	#, _1
	je	.L14	#,
	cmpl	$2, %eax	#, _1
	ja	.L13	#,
	testl	%eax, %eax	# _1
	je	.L15	#,
	cmpl	$1, %eax	#, _1
	je	.L16	#,
	jmp	.L13	#
.L15:
# p_maputl.c:120: 	p1 = tmbox[BOXTOP] > ld->v1->y;
	.loc 1 120 12
	movq	-24(%rbp), %rax	# tmbox, tmp121
	movl	(%rax), %edx	# *tmbox_49(D), _2
# p_maputl.c:120: 	p1 = tmbox[BOXTOP] > ld->v1->y;
	.loc 1 120 25
	movq	-32(%rbp), %rax	# ld, tmp122
	movq	(%rax), %rax	# ld_46(D)->v1, _3
# p_maputl.c:120: 	p1 = tmbox[BOXTOP] > ld->v1->y;
	.loc 1 120 29
	movl	4(%rax), %eax	# _3->y, _4
# p_maputl.c:120: 	p1 = tmbox[BOXTOP] > ld->v1->y;
	.loc 1 120 21
	cmpl	%eax, %edx	# _4, _2
	setg	%al	#, _5
# p_maputl.c:120: 	p1 = tmbox[BOXTOP] > ld->v1->y;
	.loc 1 120 5
	movzbl	%al, %eax	# _5, tmp123
	movl	%eax, -8(%rbp)	# tmp123, p1
# p_maputl.c:121: 	p2 = tmbox[BOXBOTTOM] > ld->v1->y;
	.loc 1 121 12
	movq	-24(%rbp), %rax	# tmbox, tmp124
	addq	$4, %rax	#, _6
	movl	(%rax), %edx	# *_6, _7
# p_maputl.c:121: 	p2 = tmbox[BOXBOTTOM] > ld->v1->y;
	.loc 1 121 28
	movq	-32(%rbp), %rax	# ld, tmp125
	movq	(%rax), %rax	# ld_46(D)->v1, _8
# p_maputl.c:121: 	p2 = tmbox[BOXBOTTOM] > ld->v1->y;
	.loc 1 121 32
	movl	4(%rax), %eax	# _8->y, _9
# p_maputl.c:121: 	p2 = tmbox[BOXBOTTOM] > ld->v1->y;
	.loc 1 121 24
	cmpl	%eax, %edx	# _9, _7
	setg	%al	#, _10
# p_maputl.c:121: 	p2 = tmbox[BOXBOTTOM] > ld->v1->y;
	.loc 1 121 5
	movzbl	%al, %eax	# _10, tmp126
	movl	%eax, -4(%rbp)	# tmp126, p2
# p_maputl.c:122: 	if (ld->dx < 0)
	.loc 1 122 8
	movq	-32(%rbp), %rax	# ld, tmp127
	movl	16(%rax), %eax	# ld_46(D)->dx, _11
# p_maputl.c:122: 	if (ld->dx < 0)
	.loc 1 122 5
	testl	%eax, %eax	# _11
	jns	.L21	#,
# p_maputl.c:124: 	    p1 ^= 1;
	.loc 1 124 9
	xorl	$1, -8(%rbp)	#, p1
# p_maputl.c:125: 	    p2 ^= 1;
	.loc 1 125 9
	xorl	$1, -4(%rbp)	#, p2
# p_maputl.c:127: 	break;
	.loc 1 127 2
	jmp	.L21	#
.L16:
# p_maputl.c:130: 	p1 = tmbox[BOXRIGHT] < ld->v1->x;
	.loc 1 130 12
	movq	-24(%rbp), %rax	# tmbox, tmp128
	addq	$12, %rax	#, _12
	movl	(%rax), %edx	# *_12, _13
# p_maputl.c:130: 	p1 = tmbox[BOXRIGHT] < ld->v1->x;
	.loc 1 130 27
	movq	-32(%rbp), %rax	# ld, tmp129
	movq	(%rax), %rax	# ld_46(D)->v1, _14
# p_maputl.c:130: 	p1 = tmbox[BOXRIGHT] < ld->v1->x;
	.loc 1 130 31
	movl	(%rax), %eax	# _14->x, _15
# p_maputl.c:130: 	p1 = tmbox[BOXRIGHT] < ld->v1->x;
	.loc 1 130 23
	cmpl	%eax, %edx	# _15, _13
	setl	%al	#, _16
# p_maputl.c:130: 	p1 = tmbox[BOXRIGHT] < ld->v1->x;
	.loc 1 130 5
	movzbl	%al, %eax	# _16, tmp130
	movl	%eax, -8(%rbp)	# tmp130, p1
# p_maputl.c:131: 	p2 = tmbox[BOXLEFT] < ld->v1->x;
	.loc 1 131 12
	movq	-24(%rbp), %rax	# tmbox, tmp131
	addq	$8, %rax	#, _17
	movl	(%rax), %edx	# *_17, _18
# p_maputl.c:131: 	p2 = tmbox[BOXLEFT] < ld->v1->x;
	.loc 1 131 26
	movq	-32(%rbp), %rax	# ld, tmp132
	movq	(%rax), %rax	# ld_46(D)->v1, _19
# p_maputl.c:131: 	p2 = tmbox[BOXLEFT] < ld->v1->x;
	.loc 1 131 30
	movl	(%rax), %eax	# _19->x, _20
# p_maputl.c:131: 	p2 = tmbox[BOXLEFT] < ld->v1->x;
	.loc 1 131 22
	cmpl	%eax, %edx	# _20, _18
	setl	%al	#, _21
# p_maputl.c:131: 	p2 = tmbox[BOXLEFT] < ld->v1->x;
	.loc 1 131 5
	movzbl	%al, %eax	# _21, tmp133
	movl	%eax, -4(%rbp)	# tmp133, p2
# p_maputl.c:132: 	if (ld->dy < 0)
	.loc 1 132 8
	movq	-32(%rbp), %rax	# ld, tmp134
	movl	20(%rax), %eax	# ld_46(D)->dy, _22
# p_maputl.c:132: 	if (ld->dy < 0)
	.loc 1 132 5
	testl	%eax, %eax	# _22
	jns	.L22	#,
# p_maputl.c:134: 	    p1 ^= 1;
	.loc 1 134 9
	xorl	$1, -8(%rbp)	#, p1
# p_maputl.c:135: 	    p2 ^= 1;
	.loc 1 135 9
	xorl	$1, -4(%rbp)	#, p2
# p_maputl.c:137: 	break;
	.loc 1 137 2
	jmp	.L22	#
.L14:
# p_maputl.c:140: 	p1 = P_PointOnLineSide (tmbox[BOXLEFT], tmbox[BOXTOP], ld);
	.loc 1 140 7
	movq	-24(%rbp), %rax	# tmbox, tmp135
	movl	(%rax), %ecx	# *tmbox_49(D), _23
# p_maputl.c:140: 	p1 = P_PointOnLineSide (tmbox[BOXLEFT], tmbox[BOXTOP], ld);
	.loc 1 140 31
	movq	-24(%rbp), %rax	# tmbox, tmp136
	addq	$8, %rax	#, _24
# p_maputl.c:140: 	p1 = P_PointOnLineSide (tmbox[BOXLEFT], tmbox[BOXTOP], ld);
	.loc 1 140 7
	movl	(%rax), %eax	# *_24, _25
	movq	-32(%rbp), %rdx	# ld, tmp137
	movl	%ecx, %esi	# _23,
	movl	%eax, %edi	# _25,
	call	P_PointOnLineSide	#
	movl	%eax, -8(%rbp)	# tmp138, p1
# p_maputl.c:141: 	p2 = P_PointOnLineSide (tmbox[BOXRIGHT], tmbox[BOXBOTTOM], ld);
	.loc 1 141 48
	movq	-24(%rbp), %rax	# tmbox, tmp139
	addq	$4, %rax	#, _26
# p_maputl.c:141: 	p2 = P_PointOnLineSide (tmbox[BOXRIGHT], tmbox[BOXBOTTOM], ld);
	.loc 1 141 7
	movl	(%rax), %ecx	# *_26, _27
# p_maputl.c:141: 	p2 = P_PointOnLineSide (tmbox[BOXRIGHT], tmbox[BOXBOTTOM], ld);
	.loc 1 141 31
	movq	-24(%rbp), %rax	# tmbox, tmp140
	addq	$12, %rax	#, _28
# p_maputl.c:141: 	p2 = P_PointOnLineSide (tmbox[BOXRIGHT], tmbox[BOXBOTTOM], ld);
	.loc 1 141 7
	movl	(%rax), %eax	# *_28, _29
	movq	-32(%rbp), %rdx	# ld, tmp141
	movl	%ecx, %esi	# _27,
	movl	%eax, %edi	# _29,
	call	P_PointOnLineSide	#
	movl	%eax, -4(%rbp)	# tmp142, p2
# p_maputl.c:142: 	break;
	.loc 1 142 2
	jmp	.L13	#
.L12:
# p_maputl.c:145: 	p1 = P_PointOnLineSide (tmbox[BOXRIGHT], tmbox[BOXTOP], ld);
	.loc 1 145 7
	movq	-24(%rbp), %rax	# tmbox, tmp143
	movl	(%rax), %ecx	# *tmbox_49(D), _30
# p_maputl.c:145: 	p1 = P_PointOnLineSide (tmbox[BOXRIGHT], tmbox[BOXTOP], ld);
	.loc 1 145 31
	movq	-24(%rbp), %rax	# tmbox, tmp144
	addq	$12, %rax	#, _31
# p_maputl.c:145: 	p1 = P_PointOnLineSide (tmbox[BOXRIGHT], tmbox[BOXTOP], ld);
	.loc 1 145 7
	movl	(%rax), %eax	# *_31, _32
	movq	-32(%rbp), %rdx	# ld, tmp145
	movl	%ecx, %esi	# _30,
	movl	%eax, %edi	# _32,
	call	P_PointOnLineSide	#
	movl	%eax, -8(%rbp)	# tmp146, p1
# p_maputl.c:146: 	p2 = P_PointOnLineSide (tmbox[BOXLEFT], tmbox[BOXBOTTOM], ld);
	.loc 1 146 47
	movq	-24(%rbp), %rax	# tmbox, tmp147
	addq	$4, %rax	#, _33
# p_maputl.c:146: 	p2 = P_PointOnLineSide (tmbox[BOXLEFT], tmbox[BOXBOTTOM], ld);
	.loc 1 146 7
	movl	(%rax), %ecx	# *_33, _34
# p_maputl.c:146: 	p2 = P_PointOnLineSide (tmbox[BOXLEFT], tmbox[BOXBOTTOM], ld);
	.loc 1 146 31
	movq	-24(%rbp), %rax	# tmbox, tmp148
	addq	$8, %rax	#, _35
# p_maputl.c:146: 	p2 = P_PointOnLineSide (tmbox[BOXLEFT], tmbox[BOXBOTTOM], ld);
	.loc 1 146 7
	movl	(%rax), %eax	# *_35, _36
	movq	-32(%rbp), %rdx	# ld, tmp149
	movl	%ecx, %esi	# _34,
	movl	%eax, %edi	# _36,
	call	P_PointOnLineSide	#
	movl	%eax, -4(%rbp)	# tmp150, p2
# p_maputl.c:147: 	break;
	.loc 1 147 2
	jmp	.L13	#
.L21:
# p_maputl.c:127: 	break;
	.loc 1 127 2
	nop	
	jmp	.L13	#
.L22:
# p_maputl.c:137: 	break;
	.loc 1 137 2
	nop	
.L13:
# p_maputl.c:150:     if (p1 == p2)
	.loc 1 150 8
	movl	-8(%rbp), %eax	# p1, tmp151
	cmpl	-4(%rbp), %eax	# p2, tmp151
	jne	.L19	#,
# p_maputl.c:151: 	return p1;
	.loc 1 151 9
	movl	-8(%rbp), %eax	# p1, _43
	jmp	.L20	#
.L19:
# p_maputl.c:152:     return -1;
	.loc 1 152 12
	movl	$-1, %eax	#, _43
.L20:
# p_maputl.c:153: }
	.loc 1 153 1
	leave	
	.cfi_def_cfa 7, 8
	ret	
	.cfi_endproc
.LFE8:
	.size	P_BoxOnLineSide, .-P_BoxOnLineSide
	.globl	P_PointOnDivlineSide
	.type	P_PointOnDivlineSide, @function
P_PointOnDivlineSide:
.LFB9:
	.loc 1 165 1
	.cfi_startproc
	endbr64	
	pushq	%rbp	#
	.cfi_def_cfa_offset 16
	.cfi_offset 6, -16
	movq	%rsp, %rbp	#,
	.cfi_def_cfa_register 6
	subq	$32, %rsp	#,
	movl	%edi, -20(%rbp)	# x, x
	movl	%esi, -24(%rbp)	# y, y
	movq	%rdx, -32(%rbp)	# line, line
# p_maputl.c:171:     if (!line->dx)
	.loc 1 171 14
	movq	-32(%rbp), %rax	# line, tmp111
	movl	8(%rax), %eax	# line_31(D)->dx, _1
# p_maputl.c:171:     if (!line->dx)
	.loc 1 171 8
	testl	%eax, %eax	# _1
	jne	.L24	#,
# p_maputl.c:173: 	if (x <= line->x)
	.loc 1 173 15
	movq	-32(%rbp), %rax	# line, tmp112
	movl	(%rax), %eax	# line_31(D)->x, _2
# p_maputl.c:173: 	if (x <= line->x)
	.loc 1 173 5
	cmpl	%eax, -20(%rbp)	# _2, x
	jg	.L25	#,
# p_maputl.c:174: 	    return line->dy > 0;
	.loc 1 174 17
	movq	-32(%rbp), %rax	# line, tmp113
	movl	12(%rax), %eax	# line_31(D)->dy, _3
# p_maputl.c:174: 	    return line->dy > 0;
	.loc 1 174 22
	testl	%eax, %eax	# _3
	setg	%al	#, _4
	movzbl	%al, %eax	# _4, _28
	jmp	.L26	#
.L25:
# p_maputl.c:176: 	return line->dy < 0;
	.loc 1 176 13
	movq	-32(%rbp), %rax	# line, tmp114
	movl	12(%rax), %eax	# line_31(D)->dy, _5
# p_maputl.c:176: 	return line->dy < 0;
	.loc 1 176 18
	shrl	$31, %eax	#, tmp115
	movzbl	%al, %eax	# _6, _28
	jmp	.L26	#
.L24:
# p_maputl.c:178:     if (!line->dy)
	.loc 1 178 14
	movq	-32(%rbp), %rax	# line, tmp116
	movl	12(%rax), %eax	# line_31(D)->dy, _7
# p_maputl.c:178:     if (!line->dy)
	.loc 1 178 8
	testl	%eax, %eax	# _7
	jne	.L27	#,
# p_maputl.c:180: 	if (y <= line->y)
	.loc 1 180 15
	movq	-32(%rbp), %rax	# line, tmp117
	movl	4(%rax), %eax	# line_31(D)->y, _8
# p_maputl.c:180: 	if (y <= line->y)
	.loc 1 180 5
	cmpl	%eax, -24(%rbp)	# _8, y
	jg	.L28	#,
# p_maputl.c:181: 	    return line->dx < 0;
	.loc 1 181 17
	movq	-32(%rbp), %rax	# line, tmp118
	movl	8(%rax), %eax	# line_31(D)->dx, _9
# p_maputl.c:181: 	    return line->dx < 0;
	.loc 1 181 22
	shrl	$31, %eax	#, tmp119
	movzbl	%al, %eax	# _10, _28
	jmp	.L26	#
.L28:
# p_maputl.c:183: 	return line->dx > 0;
	.loc 1 183 13
	movq	-32(%rbp), %rax	# line, tmp120
	movl	8(%rax), %eax	# line_31(D)->dx, _11
# p_maputl.c:183: 	return line->dx > 0;
	.loc 1 183 18
	testl	%eax, %eax	# _11
	setg	%al	#, _12
	movzbl	%al, %eax	# _12, _28
	jmp	.L26	#
.L27:
# p_maputl.c:186:     dx = (x - line->x);
	.loc 1 186 19
	movq	-32(%rbp), %rax	# line, tmp121
	movl	(%rax), %eax	# line_31(D)->x, _13
# p_maputl.c:186:     dx = (x - line->x);
	.loc 1 186 8
	movl	-20(%rbp), %edx	# x, tmp125
	subl	%eax, %edx	# _13, tmp124
	movl	%edx, -16(%rbp)	# tmp124, dx
# p_maputl.c:187:     dy = (y - line->y);
	.loc 1 187 19
	movq	-32(%rbp), %rax	# line, tmp126
	movl	4(%rax), %eax	# line_31(D)->y, _14
# p_maputl.c:187:     dy = (y - line->y);
	.loc 1 187 8
	movl	-24(%rbp), %edx	# y, tmp130
	subl	%eax, %edx	# _14, tmp129
	movl	%edx, -12(%rbp)	# tmp129, dy
# p_maputl.c:190:     if ( (line->dy ^ line->dx ^ dx ^ dy)&0x80000000 )
	.loc 1 190 15
	movq	-32(%rbp), %rax	# line, tmp131
	movl	12(%rax), %edx	# line_31(D)->dy, _15
# p_maputl.c:190:     if ( (line->dy ^ line->dx ^ dx ^ dy)&0x80000000 )
	.loc 1 190 26
	movq	-32(%rbp), %rax	# line, tmp132
	movl	8(%rax), %eax	# line_31(D)->dx, _16
# p_maputl.c:190:     if ( (line->dy ^ line->dx ^ dx ^ dy)&0x80000000 )
	.loc 1 190 20
	xorl	%edx, %eax	# _15, _17
# p_maputl.c:190:     if ( (line->dy ^ line->dx ^ dx ^ dy)&0x80000000 )
	.loc 1 190 31
	xorl	-16(%rbp), %eax	# dx, _18
# p_maputl.c:190:     if ( (line->dy ^ line->dx ^ dx ^ dy)&0x80000000 )
	.loc 1 190 36
	xorl	-12(%rbp), %eax	# dy, _19
# p_maputl.c:190:     if ( (line->dy ^ line->dx ^ dx ^ dy)&0x80000000 )
	.loc 1 190 8
	testl	%eax, %eax	# _19
	jns	.L29	#,
# p_maputl.c:192: 	if ( (line->dy ^ dx) & 0x80000000 )
	.loc 1 192 12
	movq	-32(%rbp), %rax	# line, tmp133
	movl	12(%rax), %eax	# line_31(D)->dy, _20
# p_maputl.c:192: 	if ( (line->dy ^ dx) & 0x80000000 )
	.loc 1 192 17
	xorl	-16(%rbp), %eax	# dx, _21
# p_maputl.c:192: 	if ( (line->dy ^ dx) & 0x80000000 )
	.loc 1 192 5
	testl	%eax, %eax	# _21
	jns	.L30	#,
# p_maputl.c:193: 	    return 1;		// (left is negative)
	.loc 1 193 13
	movl	$1, %eax	#, _28
	jmp	.L26	#
.L30:
# p_maputl.c:194: 	return 0;
	.loc 1 194 9
	movl	$0, %eax	#, _28
	jmp	.L26	#
.L29:
# p_maputl.c:197:     left = FixedMul ( line->dy>>8, dx>>8 );
	.loc 1 197 12
	movl	-16(%rbp), %eax	# dx, tmp134
	sarl	$8, %eax	#, tmp134
	movl	%eax, %edx	# tmp134, _22
# p_maputl.c:197:     left = FixedMul ( line->dy>>8, dx>>8 );
	.loc 1 197 27
	movq	-32(%rbp), %rax	# line, tmp135
	movl	12(%rax), %eax	# line_31(D)->dy, _23
# p_maputl.c:197:     left = FixedMul ( line->dy>>8, dx>>8 );
	.loc 1 197 12
	sarl	$8, %eax	#, _24
	movl	%edx, %esi	# _22,
	movl	%eax, %edi	# _24,
	call	FixedMul@PLT	#
	movl	%eax, -8(%rbp)	# tmp136, left
# p_maputl.c:198:     right = FixedMul ( dy>>8 , line->dx>>8 );
	.loc 1 198 36
	movq	-32(%rbp), %rax	# line, tmp137
	movl	8(%rax), %eax	# line_31(D)->dx, _25
# p_maputl.c:198:     right = FixedMul ( dy>>8 , line->dx>>8 );
	.loc 1 198 13
	sarl	$8, %eax	#, _25
	movl	%eax, %edx	# _25, _26
	movl	-12(%rbp), %eax	# dy, tmp138
	sarl	$8, %eax	#, _27
	movl	%edx, %esi	# _26,
	movl	%eax, %edi	# _27,
	call	FixedMul@PLT	#
	movl	%eax, -4(%rbp)	# tmp139, right
# p_maputl.c:200:     if (right < left)
	.loc 1 200 8
	movl	-4(%rbp), %eax	# right, tmp140
	cmpl	-8(%rbp), %eax	# left, tmp140
	jge	.L31	#,
# p_maputl.c:201: 	return 0;		// front side
	.loc 1 201 9
	movl	$0, %eax	#, _28
	jmp	.L26	#
.L31:
# p_maputl.c:202:     return 1;			// back side
	.loc 1 202 12
	movl	$1, %eax	#, _28
.L26:
# p_maputl.c:203: }
	.loc 1 203 1
	leave	
	.cfi_def_cfa 7, 8
	ret	
	.cfi_endproc
.LFE9:
	.size	P_PointOnDivlineSide, .-P_PointOnDivlineSide
	.globl	P_MakeDivline
	.type	P_MakeDivline, @function
P_MakeDivline:
.LFB10:
	.loc 1 214 1
	.cfi_startproc
	endbr64	
	pushq	%rbp	#
	.cfi_def_cfa_offset 16
	.cfi_offset 6, -16
	movq	%rsp, %rbp	#,
	.cfi_def_cfa_register 6
	movq	%rdi, -8(%rbp)	# li, li
	movq	%rsi, -16(%rbp)	# dl, dl
# p_maputl.c:215:     dl->x = li->v1->x;
	.loc 1 215 15
	movq	-8(%rbp), %rax	# li, tmp88
	movq	(%rax), %rax	# li_8(D)->v1, _1
# p_maputl.c:215:     dl->x = li->v1->x;
	.loc 1 215 19
	movl	(%rax), %edx	# _1->x, _2
# p_maputl.c:215:     dl->x = li->v1->x;
	.loc 1 215 11
	movq	-16(%rbp), %rax	# dl, tmp89
	movl	%edx, (%rax)	# _2, dl_9(D)->x
# p_maputl.c:216:     dl->y = li->v1->y;
	.loc 1 216 15
	movq	-8(%rbp), %rax	# li, tmp90
	movq	(%rax), %rax	# li_8(D)->v1, _3
# p_maputl.c:216:     dl->y = li->v1->y;
	.loc 1 216 19
	movl	4(%rax), %edx	# _3->y, _4
# p_maputl.c:216:     dl->y = li->v1->y;
	.loc 1 216 11
	movq	-16(%rbp), %rax	# dl, tmp91
	movl	%edx, 4(%rax)	# _4, dl_9(D)->y
# p_maputl.c:217:     dl->dx = li->dx;
	.loc 1 217 16
	movq	-8(%rbp), %rax	# li, tmp92
	movl	16(%rax), %edx	# li_8(D)->dx, _5
# p_maputl.c:217:     dl->dx = li->dx;
	.loc 1 217 12
	movq	-16(%rbp), %rax	# dl, tmp93
	movl	%edx, 8(%rax)	# _5, dl_9(D)->dx
# p_maputl.c:218:     dl->dy = li->dy;
	.loc 1 218 16
	movq	-8(%rbp), %rax	# li, tmp94
	movl	20(%rax), %edx	# li_8(D)->dy, _6
# p_maputl.c:218:     dl->dy = li->dy;
	.loc 1 218 12
	movq	-16(%rbp), %rax	# dl, tmp95
	movl	%edx, 12(%rax)	# _6, dl_9(D)->dy
# p_maputl.c:219: }
	.loc 1 219 1
	nop	
	popq	%rbp	#
	.cfi_def_cfa 7, 8
	ret	
	.cfi_endproc
.LFE10:
	.size	P_MakeDivline, .-P_MakeDivline
	.globl	P_InterceptVector
	.type	P_InterceptVector, @function
P_InterceptVector:
.LFB11:
	.loc 1 234 1
	.cfi_startproc
	endbr64	
	pushq	%rbp	#
	.cfi_def_cfa_offset 16
	.cfi_offset 6, -16
	movq	%rsp, %rbp	#,
	.cfi_def_cfa_register 6
	pushq	%rbx	#
	subq	$40, %rsp	#,
	.cfi_offset 3, -24
	movq	%rdi, -40(%rbp)	# v2, v2
	movq	%rsi, -48(%rbp)	# v1, v1
# p_maputl.c:240:     den = FixedMul (v1->dy>>8,v2->dx) - FixedMul(v1->dx>>8,v2->dy);
	.loc 1 240 11
	movq	-40(%rbp), %rax	# v2, tmp104
	movl	8(%rax), %eax	# v2_24(D)->dx, _1
# p_maputl.c:240:     den = FixedMul (v1->dy>>8,v2->dx) - FixedMul(v1->dx>>8,v2->dy);
	.loc 1 240 23
	movq	-48(%rbp), %rdx	# v1, tmp105
	movl	12(%rdx), %edx	# v1_25(D)->dy, _2
# p_maputl.c:240:     den = FixedMul (v1->dy>>8,v2->dx) - FixedMul(v1->dx>>8,v2->dy);
	.loc 1 240 11
	sarl	$8, %edx	#, _3
	movl	%eax, %esi	# _1,
	movl	%edx, %edi	# _3,
	call	FixedMul@PLT	#
	movl	%eax, %ebx	#, _4
# p_maputl.c:240:     den = FixedMul (v1->dy>>8,v2->dx) - FixedMul(v1->dx>>8,v2->dy);
	.loc 1 240 41 discriminator 1
	movq	-40(%rbp), %rax	# v2, tmp106
	movl	12(%rax), %eax	# v2_24(D)->dy, _5
# p_maputl.c:240:     den = FixedMul (v1->dy>>8,v2->dx) - FixedMul(v1->dx>>8,v2->dy);
	.loc 1 240 52 discriminator 1
	movq	-48(%rbp), %rdx	# v1, tmp107
	movl	8(%rdx), %edx	# v1_25(D)->dx, _6
# p_maputl.c:240:     den = FixedMul (v1->dy>>8,v2->dx) - FixedMul(v1->dx>>8,v2->dy);
	.loc 1 240 41 discriminator 1
	sarl	$8, %edx	#, _7
	movl	%eax, %esi	# _5,
	movl	%edx, %edi	# _7,
	call	FixedMul@PLT	#
# p_maputl.c:240:     den = FixedMul (v1->dy>>8,v2->dx) - FixedMul(v1->dx>>8,v2->dy);
	.loc 1 240 9 discriminator 2
	subl	%eax, %ebx	# _8, _4
	movl	%ebx, %edx	# _4, tmp108
	movl	%edx, -28(%rbp)	# tmp108, den
# p_maputl.c:242:     if (den == 0)
	.loc 1 242 8
	cmpl	$0, -28(%rbp)	#, den
	jne	.L34	#,
# p_maputl.c:243: 	return 0;
	.loc 1 243 9
	movl	$0, %eax	#, _21
	jmp	.L35	#
.L34:
# p_maputl.c:247: 	FixedMul ( (v1->x - v2->x)>>8 ,v1->dy )
	.loc 1 247 2
	movq	-48(%rbp), %rax	# v1, tmp109
	movl	12(%rax), %eax	# v1_25(D)->dy, _9
# p_maputl.c:247: 	FixedMul ( (v1->x - v2->x)>>8 ,v1->dy )
	.loc 1 247 16
	movq	-48(%rbp), %rdx	# v1, tmp110
	movl	(%rdx), %ecx	# v1_25(D)->x, _10
# p_maputl.c:247: 	FixedMul ( (v1->x - v2->x)>>8 ,v1->dy )
	.loc 1 247 24
	movq	-40(%rbp), %rdx	# v2, tmp111
	movl	(%rdx), %edx	# v2_24(D)->x, _11
# p_maputl.c:247: 	FixedMul ( (v1->x - v2->x)>>8 ,v1->dy )
	.loc 1 247 20
	subl	%edx, %ecx	# _11, _12
# p_maputl.c:247: 	FixedMul ( (v1->x - v2->x)>>8 ,v1->dy )
	.loc 1 247 2
	sarl	$8, %ecx	#, _12
	movl	%ecx, %edx	# _12, _13
	movl	%eax, %esi	# _9,
	movl	%edx, %edi	# _13,
	call	FixedMul@PLT	#
	movl	%eax, %ebx	#, _14
# p_maputl.c:248: 	+FixedMul ( (v2->y - v1->y)>>8, v1->dx );
	.loc 1 248 3
	movq	-48(%rbp), %rax	# v1, tmp112
	movl	8(%rax), %eax	# v1_25(D)->dx, _15
# p_maputl.c:248: 	+FixedMul ( (v2->y - v1->y)>>8, v1->dx );
	.loc 1 248 17
	movq	-40(%rbp), %rdx	# v2, tmp113
	movl	4(%rdx), %ecx	# v2_24(D)->y, _16
# p_maputl.c:248: 	+FixedMul ( (v2->y - v1->y)>>8, v1->dx );
	.loc 1 248 25
	movq	-48(%rbp), %rdx	# v1, tmp114
	movl	4(%rdx), %edx	# v1_25(D)->y, _17
# p_maputl.c:248: 	+FixedMul ( (v2->y - v1->y)>>8, v1->dx );
	.loc 1 248 21
	subl	%edx, %ecx	# _17, _18
# p_maputl.c:248: 	+FixedMul ( (v2->y - v1->y)>>8, v1->dx );
	.loc 1 248 3
	sarl	$8, %ecx	#, _18
	movl	%ecx, %edx	# _18, _19
	movl	%eax, %esi	# _15,
	movl	%edx, %edi	# _19,
	call	FixedMul@PLT	#
# p_maputl.c:246:     num =
	.loc 1 246 9
	addl	%ebx, %eax	# _14, tmp115
	movl	%eax, -24(%rbp)	# tmp115, num
# p_maputl.c:250:     frac = FixedDiv (num , den);
	.loc 1 250 12
	movl	-28(%rbp), %edx	# den, tmp116
	movl	-24(%rbp), %eax	# num, tmp117
	movl	%edx, %esi	# tmp116,
	movl	%eax, %edi	# tmp117,
	call	FixedDiv@PLT	#
	movl	%eax, -20(%rbp)	# tmp118, frac
# p_maputl.c:252:     return frac;
	.loc 1 252 12
	movl	-20(%rbp), %eax	# frac, _21
.L35:
# p_maputl.c:285: }
	.loc 1 285 1
	movq	-8(%rbp), %rbx	#,
	leave	
	.cfi_def_cfa 7, 8
	ret	
	.cfi_endproc
.LFE11:
	.size	P_InterceptVector, .-P_InterceptVector
	.globl	opentop
	.bss
	.align 4
	.type	opentop, @object
	.size	opentop, 4
opentop:
	.zero	4
	.globl	openbottom
	.align 4
	.type	openbottom, @object
	.size	openbottom, 4
openbottom:
	.zero	4
	.globl	openrange
	.align 4
	.type	openrange, @object
	.size	openrange, 4
openrange:
	.zero	4
	.globl	lowfloor
	.align 4
	.type	lowfloor, @object
	.size	lowfloor, 4
lowfloor:
	.zero	4
	.text
	.globl	P_LineOpening
	.type	P_LineOpening, @function
P_LineOpening:
.LFB12:
	.loc 1 301 1
	.cfi_startproc
	endbr64	
	pushq	%rbp	#
	.cfi_def_cfa_offset 16
	.cfi_offset 6, -16
	movq	%rsp, %rbp	#,
	.cfi_def_cfa_register 6
	movq	%rdi, -24(%rbp)	# linedef, linedef
# p_maputl.c:305:     if (linedef->sidenum[1] == -1)
	.loc 1 305 25
	movq	-24(%rbp), %rax	# linedef, tmp96
	movzwl	32(%rax), %eax	# linedef_19(D)->sidenum[1], _1
# p_maputl.c:305:     if (linedef->sidenum[1] == -1)
	.loc 1 305 8
	cmpw	$-1, %ax	#, _1
	jne	.L37	#,
# p_maputl.c:308: 	openrange = 0;
	.loc 1 308 12
	movl	$0, openrange(%rip)	#, openrange
# p_maputl.c:309: 	return;
	.loc 1 309 2
	jmp	.L36	#
.L37:
# p_maputl.c:312:     front = linedef->frontsector;
	.loc 1 312 11
	movq	-24(%rbp), %rax	# linedef, tmp97
	movq	56(%rax), %rax	# linedef_19(D)->frontsector, tmp98
	movq	%rax, -16(%rbp)	# tmp98, front
# p_maputl.c:313:     back = linedef->backsector;
	.loc 1 313 10
	movq	-24(%rbp), %rax	# linedef, tmp99
	movq	64(%rax), %rax	# linedef_19(D)->backsector, tmp100
	movq	%rax, -8(%rbp)	# tmp100, back
# p_maputl.c:315:     if (front->ceilingheight < back->ceilingheight)
	.loc 1 315 14
	movq	-16(%rbp), %rax	# front, tmp101
	movl	4(%rax), %edx	# front_20->ceilingheight, _2
# p_maputl.c:315:     if (front->ceilingheight < back->ceilingheight)
	.loc 1 315 36
	movq	-8(%rbp), %rax	# back, tmp102
	movl	4(%rax), %eax	# back_21->ceilingheight, _3
# p_maputl.c:315:     if (front->ceilingheight < back->ceilingheight)
	.loc 1 315 8
	cmpl	%eax, %edx	# _3, _2
	jge	.L39	#,
# p_maputl.c:316: 	opentop = front->ceilingheight;
	.loc 1 316 17
	movq	-16(%rbp), %rax	# front, tmp103
	movl	4(%rax), %eax	# front_20->ceilingheight, _4
# p_maputl.c:316: 	opentop = front->ceilingheight;
	.loc 1 316 10
	movl	%eax, opentop(%rip)	# _4, opentop
	jmp	.L40	#
.L39:
# p_maputl.c:318: 	opentop = back->ceilingheight;
	.loc 1 318 16
	movq	-8(%rbp), %rax	# back, tmp104
	movl	4(%rax), %eax	# back_21->ceilingheight, _5
# p_maputl.c:318: 	opentop = back->ceilingheight;
	.loc 1 318 10
	movl	%eax, opentop(%rip)	# _5, opentop
.L40:
# p_maputl.c:320:     if (front->floorheight > back->floorheight)
	.loc 1 320 14
	movq	-16(%rbp), %rax	# front, tmp105
	movl	(%rax), %edx	# front_20->floorheight, _6
# p_maputl.c:320:     if (front->floorheight > back->floorheight)
	.loc 1 320 34
	movq	-8(%rbp), %rax	# back, tmp106
	movl	(%rax), %eax	# back_21->floorheight, _7
# p_maputl.c:320:     if (front->floorheight > back->floorheight)
	.loc 1 320 8
	cmpl	%eax, %edx	# _7, _6
	jle	.L41	#,
# p_maputl.c:322: 	openbottom = front->floorheight;
	.loc 1 322 20
	movq	-16(%rbp), %rax	# front, tmp107
	movl	(%rax), %eax	# front_20->floorheight, _8
# p_maputl.c:322: 	openbottom = front->floorheight;
	.loc 1 322 13
	movl	%eax, openbottom(%rip)	# _8, openbottom
# p_maputl.c:323: 	lowfloor = back->floorheight;
	.loc 1 323 17
	movq	-8(%rbp), %rax	# back, tmp108
	movl	(%rax), %eax	# back_21->floorheight, _9
# p_maputl.c:323: 	lowfloor = back->floorheight;
	.loc 1 323 11
	movl	%eax, lowfloor(%rip)	# _9, lowfloor
	jmp	.L42	#
.L41:
# p_maputl.c:327: 	openbottom = back->floorheight;
	.loc 1 327 19
	movq	-8(%rbp), %rax	# back, tmp109
	movl	(%rax), %eax	# back_21->floorheight, _10
# p_maputl.c:327: 	openbottom = back->floorheight;
	.loc 1 327 13
	movl	%eax, openbottom(%rip)	# _10, openbottom
# p_maputl.c:328: 	lowfloor = front->floorheight;
	.loc 1 328 18
	movq	-16(%rbp), %rax	# front, tmp110
	movl	(%rax), %eax	# front_20->floorheight, _11
# p_maputl.c:328: 	lowfloor = front->floorheight;
	.loc 1 328 11
	movl	%eax, lowfloor(%rip)	# _11, lowfloor
.L42:
# p_maputl.c:331:     openrange = opentop - openbottom;
	.loc 1 331 25
	movl	opentop(%rip), %edx	# opentop, opentop.0_12
	movl	openbottom(%rip), %eax	# openbottom, openbottom.1_13
	subl	%eax, %edx	# openbottom.1_13, _14
# p_maputl.c:331:     openrange = opentop - openbottom;
	.loc 1 331 15
	movl	%edx, openrange(%rip)	# _14, openrange
.L36:
# p_maputl.c:332: }
	.loc 1 332 1
	popq	%rbp	#
	.cfi_def_cfa 7, 8
	ret	
	.cfi_endproc
.LFE12:
	.size	P_LineOpening, .-P_LineOpening
	.globl	P_UnsetThingPosition
	.type	P_UnsetThingPosition, @function
P_UnsetThingPosition:
.LFB13:
	.loc 1 348 1
	.cfi_startproc
	endbr64	
	pushq	%rbp	#
	.cfi_def_cfa_offset 16
	.cfi_offset 6, -16
	movq	%rsp, %rbp	#,
	.cfi_def_cfa_register 6
	movq	%rdi, -24(%rbp)	# thing, thing
# p_maputl.c:352:     if ( ! (thing->flags & MF_NOSECTOR) )
	.loc 1 352 18
	movq	-24(%rbp), %rax	# thing, tmp117
	movl	160(%rax), %eax	# thing_41(D)->flags, _1
# p_maputl.c:352:     if ( ! (thing->flags & MF_NOSECTOR) )
	.loc 1 352 26
	andl	$8, %eax	#, _2
# p_maputl.c:352:     if ( ! (thing->flags & MF_NOSECTOR) )
	.loc 1 352 8
	testl	%eax, %eax	# _2
	jne	.L44	#,
# p_maputl.c:356: 	if (thing->snext)
	.loc 1 356 11
	movq	-24(%rbp), %rax	# thing, tmp118
	movq	40(%rax), %rax	# thing_41(D)->snext, _3
# p_maputl.c:356: 	if (thing->snext)
	.loc 1 356 5
	testq	%rax, %rax	# _3
	je	.L45	#,
# p_maputl.c:357: 	    thing->snext->sprev = thing->sprev;
	.loc 1 357 11
	movq	-24(%rbp), %rax	# thing, tmp119
	movq	40(%rax), %rax	# thing_41(D)->snext, _4
# p_maputl.c:357: 	    thing->snext->sprev = thing->sprev;
	.loc 1 357 33
	movq	-24(%rbp), %rdx	# thing, tmp120
	movq	48(%rdx), %rdx	# thing_41(D)->sprev, _5
# p_maputl.c:357: 	    thing->snext->sprev = thing->sprev;
	.loc 1 357 26
	movq	%rdx, 48(%rax)	# _5, _4->sprev
.L45:
# p_maputl.c:359: 	if (thing->sprev)
	.loc 1 359 11
	movq	-24(%rbp), %rax	# thing, tmp121
	movq	48(%rax), %rax	# thing_41(D)->sprev, _6
# p_maputl.c:359: 	if (thing->sprev)
	.loc 1 359 5
	testq	%rax, %rax	# _6
	je	.L46	#,
# p_maputl.c:360: 	    thing->sprev->snext = thing->snext;
	.loc 1 360 11
	movq	-24(%rbp), %rax	# thing, tmp122
	movq	48(%rax), %rax	# thing_41(D)->sprev, _7
# p_maputl.c:360: 	    thing->sprev->snext = thing->snext;
	.loc 1 360 33
	movq	-24(%rbp), %rdx	# thing, tmp123
	movq	40(%rdx), %rdx	# thing_41(D)->snext, _8
# p_maputl.c:360: 	    thing->sprev->snext = thing->snext;
	.loc 1 360 26
	movq	%rdx, 40(%rax)	# _8, _7->snext
	jmp	.L44	#
.L46:
# p_maputl.c:362: 	    thing->subsector->sector->thinglist = thing->snext;
	.loc 1 362 11
	movq	-24(%rbp), %rax	# thing, tmp124
	movq	88(%rax), %rax	# thing_41(D)->subsector, _9
# p_maputl.c:362: 	    thing->subsector->sector->thinglist = thing->snext;
	.loc 1 362 22
	movq	(%rax), %rax	# _9->sector, _10
# p_maputl.c:362: 	    thing->subsector->sector->thinglist = thing->snext;
	.loc 1 362 49
	movq	-24(%rbp), %rdx	# thing, tmp125
	movq	40(%rdx), %rdx	# thing_41(D)->snext, _11
# p_maputl.c:362: 	    thing->subsector->sector->thinglist = thing->snext;
	.loc 1 362 42
	movq	%rdx, 96(%rax)	# _11, _10->thinglist
.L44:
# p_maputl.c:365:     if ( ! (thing->flags & MF_NOBLOCKMAP) )
	.loc 1 365 18
	movq	-24(%rbp), %rax	# thing, tmp126
	movl	160(%rax), %eax	# thing_41(D)->flags, _12
# p_maputl.c:365:     if ( ! (thing->flags & MF_NOBLOCKMAP) )
	.loc 1 365 26
	andl	$16, %eax	#, _13
# p_maputl.c:365:     if ( ! (thing->flags & MF_NOBLOCKMAP) )
	.loc 1 365 8
	testl	%eax, %eax	# _13
	jne	.L50	#,
# p_maputl.c:369: 	if (thing->bnext)
	.loc 1 369 11
	movq	-24(%rbp), %rax	# thing, tmp127
	movq	72(%rax), %rax	# thing_41(D)->bnext, _14
# p_maputl.c:369: 	if (thing->bnext)
	.loc 1 369 5
	testq	%rax, %rax	# _14
	je	.L48	#,
# p_maputl.c:370: 	    thing->bnext->bprev = thing->bprev;
	.loc 1 370 11
	movq	-24(%rbp), %rax	# thing, tmp128
	movq	72(%rax), %rax	# thing_41(D)->bnext, _15
# p_maputl.c:370: 	    thing->bnext->bprev = thing->bprev;
	.loc 1 370 33
	movq	-24(%rbp), %rdx	# thing, tmp129
	movq	80(%rdx), %rdx	# thing_41(D)->bprev, _16
# p_maputl.c:370: 	    thing->bnext->bprev = thing->bprev;
	.loc 1 370 26
	movq	%rdx, 80(%rax)	# _16, _15->bprev
.L48:
# p_maputl.c:372: 	if (thing->bprev)
	.loc 1 372 11
	movq	-24(%rbp), %rax	# thing, tmp130
	movq	80(%rax), %rax	# thing_41(D)->bprev, _17
# p_maputl.c:372: 	if (thing->bprev)
	.loc 1 372 5
	testq	%rax, %rax	# _17
	je	.L49	#,
# p_maputl.c:373: 	    thing->bprev->bnext = thing->bnext;
	.loc 1 373 11
	movq	-24(%rbp), %rax	# thing, tmp131
	movq	80(%rax), %rax	# thing_41(D)->bprev, _18
# p_maputl.c:373: 	    thing->bprev->bnext = thing->bnext;
	.loc 1 373 33
	movq	-24(%rbp), %rdx	# thing, tmp132
	movq	72(%rdx), %rdx	# thing_41(D)->bnext, _19
# p_maputl.c:373: 	    thing->bprev->bnext = thing->bnext;
	.loc 1 373 26
	movq	%rdx, 72(%rax)	# _19, _18->bnext
# p_maputl.c:386: }
	.loc 1 386 1
	jmp	.L50	#
.L49:
# p_maputl.c:376: 	    blockx = (thing->x - bmaporgx)>>MAPBLOCKSHIFT;
	.loc 1 376 21
	movq	-24(%rbp), %rax	# thing, tmp133
	movl	24(%rax), %edx	# thing_41(D)->x, _20
# p_maputl.c:376: 	    blockx = (thing->x - bmaporgx)>>MAPBLOCKSHIFT;
	.loc 1 376 25
	movl	bmaporgx(%rip), %eax	# bmaporgx, bmaporgx.2_21
	subl	%eax, %edx	# bmaporgx.2_21, _22
# p_maputl.c:376: 	    blockx = (thing->x - bmaporgx)>>MAPBLOCKSHIFT;
	.loc 1 376 13
	movl	%edx, %eax	# _22, _22
	sarl	$23, %eax	#, _22
	movl	%eax, -8(%rbp)	# tmp134, blockx
# p_maputl.c:377: 	    blocky = (thing->y - bmaporgy)>>MAPBLOCKSHIFT;
	.loc 1 377 21
	movq	-24(%rbp), %rax	# thing, tmp135
	movl	28(%rax), %edx	# thing_41(D)->y, _23
# p_maputl.c:377: 	    blocky = (thing->y - bmaporgy)>>MAPBLOCKSHIFT;
	.loc 1 377 25
	movl	bmaporgy(%rip), %eax	# bmaporgy, bmaporgy.3_24
	subl	%eax, %edx	# bmaporgy.3_24, _25
# p_maputl.c:377: 	    blocky = (thing->y - bmaporgy)>>MAPBLOCKSHIFT;
	.loc 1 377 13
	movl	%edx, %eax	# _25, _25
	sarl	$23, %eax	#, _25
	movl	%eax, -4(%rbp)	# tmp136, blocky
# p_maputl.c:379: 	    if (blockx>=0 && blockx < bmapwidth
	.loc 1 379 9
	cmpl	$0, -8(%rbp)	#, blockx
	js	.L50	#,
# p_maputl.c:379: 	    if (blockx>=0 && blockx < bmapwidth
	.loc 1 379 30 discriminator 1
	movl	bmapwidth(%rip), %eax	# bmapwidth, bmapwidth.4_26
# p_maputl.c:379: 	    if (blockx>=0 && blockx < bmapwidth
	.loc 1 379 20 discriminator 1
	cmpl	%eax, -8(%rbp)	# bmapwidth.4_26, blockx
	jge	.L50	#,
# p_maputl.c:380: 		&& blocky>=0 && blocky <bmapheight)
	.loc 1 380 3
	cmpl	$0, -4(%rbp)	#, blocky
	js	.L50	#,
# p_maputl.c:380: 		&& blocky>=0 && blocky <bmapheight)
	.loc 1 380 26 discriminator 1
	movl	bmapheight(%rip), %eax	# bmapheight, bmapheight.5_27
# p_maputl.c:380: 		&& blocky>=0 && blocky <bmapheight)
	.loc 1 380 16 discriminator 1
	cmpl	%eax, -4(%rbp)	# bmapheight.5_27, blocky
	jge	.L50	#,
# p_maputl.c:382: 		blocklinks[blocky*bmapwidth+blockx] = thing->bnext;
	.loc 1 382 13
	movq	blocklinks(%rip), %rdx	# blocklinks, blocklinks.6_28
# p_maputl.c:382: 		blocklinks[blocky*bmapwidth+blockx] = thing->bnext;
	.loc 1 382 20
	movl	bmapwidth(%rip), %eax	# bmapwidth, bmapwidth.7_29
	imull	-4(%rbp), %eax	# blocky, bmapwidth.7_29
	movl	%eax, %ecx	# bmapwidth.7_29, _30
# p_maputl.c:382: 		blocklinks[blocky*bmapwidth+blockx] = thing->bnext;
	.loc 1 382 30
	movl	-8(%rbp), %eax	# blockx, tmp137
	addl	%ecx, %eax	# _30, _31
	cltq
# p_maputl.c:382: 		blocklinks[blocky*bmapwidth+blockx] = thing->bnext;
	.loc 1 382 13
	salq	$3, %rax	#, _33
	addq	%rax, %rdx	# _33, _34
# p_maputl.c:382: 		blocklinks[blocky*bmapwidth+blockx] = thing->bnext;
	.loc 1 382 46
	movq	-24(%rbp), %rax	# thing, tmp138
	movq	72(%rax), %rax	# thing_41(D)->bnext, _35
# p_maputl.c:382: 		blocklinks[blocky*bmapwidth+blockx] = thing->bnext;
	.loc 1 382 39
	movq	%rax, (%rdx)	# _35, *_34
.L50:
# p_maputl.c:386: }
	.loc 1 386 1
	nop	
	popq	%rbp	#
	.cfi_def_cfa 7, 8
	ret	
	.cfi_endproc
.LFE13:
	.size	P_UnsetThingPosition, .-P_UnsetThingPosition
	.globl	P_SetThingPosition
	.type	P_SetThingPosition, @function
P_SetThingPosition:
.LFB14:
	.loc 1 397 1
	.cfi_startproc
	endbr64	
	pushq	%rbp	#
	.cfi_def_cfa_offset 16
	.cfi_offset 6, -16
	movq	%rsp, %rbp	#,
	.cfi_def_cfa_register 6
	subq	$48, %rsp	#,
	movq	%rdi, -40(%rbp)	# thing, thing
# p_maputl.c:406:     ss = R_PointInSubsector (thing->x,thing->y);
	.loc 1 406 10
	movq	-40(%rbp), %rax	# thing, tmp109
	movl	28(%rax), %edx	# thing_33(D)->y, _1
	movq	-40(%rbp), %rax	# thing, tmp110
	movl	24(%rax), %eax	# thing_33(D)->x, _2
	movl	%edx, %esi	# _1,
	movl	%eax, %edi	# _2,
	call	R_PointInSubsector@PLT	#
	movq	%rax, -24(%rbp)	# tmp111, ss
# p_maputl.c:407:     thing->subsector = ss;
	.loc 1 407 22
	movq	-40(%rbp), %rax	# thing, tmp112
	movq	-24(%rbp), %rdx	# ss, tmp113
	movq	%rdx, 88(%rax)	# tmp113, thing_33(D)->subsector
# p_maputl.c:409:     if ( ! (thing->flags & MF_NOSECTOR) )
	.loc 1 409 18
	movq	-40(%rbp), %rax	# thing, tmp114
	movl	160(%rax), %eax	# thing_33(D)->flags, _3
# p_maputl.c:409:     if ( ! (thing->flags & MF_NOSECTOR) )
	.loc 1 409 26
	andl	$8, %eax	#, _4
# p_maputl.c:409:     if ( ! (thing->flags & MF_NOSECTOR) )
	.loc 1 409 8
	testl	%eax, %eax	# _4
	jne	.L52	#,
# p_maputl.c:412: 	sec = ss->sector;
	.loc 1 412 6
	movq	-24(%rbp), %rax	# ss, tmp115
	movq	(%rax), %rax	# ss_35->sector, tmp116
	movq	%rax, -16(%rbp)	# tmp116, sec
# p_maputl.c:414: 	thing->sprev = NULL;
	.loc 1 414 15
	movq	-40(%rbp), %rax	# thing, tmp117
	movq	$0, 48(%rax)	#, thing_33(D)->sprev
# p_maputl.c:415: 	thing->snext = sec->thinglist;
	.loc 1 415 20
	movq	-16(%rbp), %rax	# sec, tmp118
	movq	96(%rax), %rdx	# sec_37->thinglist, _5
# p_maputl.c:415: 	thing->snext = sec->thinglist;
	.loc 1 415 15
	movq	-40(%rbp), %rax	# thing, tmp119
	movq	%rdx, 40(%rax)	# _5, thing_33(D)->snext
# p_maputl.c:417: 	if (sec->thinglist)
	.loc 1 417 9
	movq	-16(%rbp), %rax	# sec, tmp120
	movq	96(%rax), %rax	# sec_37->thinglist, _6
# p_maputl.c:417: 	if (sec->thinglist)
	.loc 1 417 5
	testq	%rax, %rax	# _6
	je	.L53	#,
# p_maputl.c:418: 	    sec->thinglist->sprev = thing;
	.loc 1 418 9
	movq	-16(%rbp), %rax	# sec, tmp121
	movq	96(%rax), %rax	# sec_37->thinglist, _7
# p_maputl.c:418: 	    sec->thinglist->sprev = thing;
	.loc 1 418 28
	movq	-40(%rbp), %rdx	# thing, tmp122
	movq	%rdx, 48(%rax)	# tmp122, _7->sprev
.L53:
# p_maputl.c:420: 	sec->thinglist = thing;
	.loc 1 420 17
	movq	-16(%rbp), %rax	# sec, tmp123
	movq	-40(%rbp), %rdx	# thing, tmp124
	movq	%rdx, 96(%rax)	# tmp124, sec_37->thinglist
.L52:
# p_maputl.c:425:     if ( ! (thing->flags & MF_NOBLOCKMAP) )
	.loc 1 425 18
	movq	-40(%rbp), %rax	# thing, tmp125
	movl	160(%rax), %eax	# thing_33(D)->flags, _8
# p_maputl.c:425:     if ( ! (thing->flags & MF_NOBLOCKMAP) )
	.loc 1 425 26
	andl	$16, %eax	#, _9
# p_maputl.c:425:     if ( ! (thing->flags & MF_NOBLOCKMAP) )
	.loc 1 425 8
	testl	%eax, %eax	# _9
	jne	.L57	#,
# p_maputl.c:428: 	blockx = (thing->x - bmaporgx)>>MAPBLOCKSHIFT;
	.loc 1 428 17
	movq	-40(%rbp), %rax	# thing, tmp126
	movl	24(%rax), %edx	# thing_33(D)->x, _10
# p_maputl.c:428: 	blockx = (thing->x - bmaporgx)>>MAPBLOCKSHIFT;
	.loc 1 428 21
	movl	bmaporgx(%rip), %eax	# bmaporgx, bmaporgx.8_11
	subl	%eax, %edx	# bmaporgx.8_11, _12
# p_maputl.c:428: 	blockx = (thing->x - bmaporgx)>>MAPBLOCKSHIFT;
	.loc 1 428 9
	movl	%edx, %eax	# _12, _12
	sarl	$23, %eax	#, _12
	movl	%eax, -32(%rbp)	# tmp127, blockx
# p_maputl.c:429: 	blocky = (thing->y - bmaporgy)>>MAPBLOCKSHIFT;
	.loc 1 429 17
	movq	-40(%rbp), %rax	# thing, tmp128
	movl	28(%rax), %edx	# thing_33(D)->y, _13
# p_maputl.c:429: 	blocky = (thing->y - bmaporgy)>>MAPBLOCKSHIFT;
	.loc 1 429 21
	movl	bmaporgy(%rip), %eax	# bmaporgy, bmaporgy.9_14
	subl	%eax, %edx	# bmaporgy.9_14, _15
# p_maputl.c:429: 	blocky = (thing->y - bmaporgy)>>MAPBLOCKSHIFT;
	.loc 1 429 9
	movl	%edx, %eax	# _15, _15
	sarl	$23, %eax	#, _15
	movl	%eax, -28(%rbp)	# tmp129, blocky
# p_maputl.c:431: 	if (blockx>=0
	.loc 1 431 5
	cmpl	$0, -32(%rbp)	#, blockx
	js	.L55	#,
# p_maputl.c:432: 	    && blockx < bmapwidth
	.loc 1 432 16
	movl	bmapwidth(%rip), %eax	# bmapwidth, bmapwidth.10_16
# p_maputl.c:432: 	    && blockx < bmapwidth
	.loc 1 432 6
	cmpl	%eax, -32(%rbp)	# bmapwidth.10_16, blockx
	jge	.L55	#,
# p_maputl.c:433: 	    && blocky>=0
	.loc 1 433 6
	cmpl	$0, -28(%rbp)	#, blocky
	js	.L55	#,
# p_maputl.c:434: 	    && blocky < bmapheight)
	.loc 1 434 16
	movl	bmapheight(%rip), %eax	# bmapheight, bmapheight.11_17
# p_maputl.c:434: 	    && blocky < bmapheight)
	.loc 1 434 6
	cmpl	%eax, -28(%rbp)	# bmapheight.11_17, blocky
	jge	.L55	#,
# p_maputl.c:436: 	    link = &blocklinks[blocky*bmapwidth+blockx];
	.loc 1 436 13
	movq	blocklinks(%rip), %rdx	# blocklinks, blocklinks.12_18
# p_maputl.c:436: 	    link = &blocklinks[blocky*bmapwidth+blockx];
	.loc 1 436 31
	movl	bmapwidth(%rip), %eax	# bmapwidth, bmapwidth.13_19
	imull	-28(%rbp), %eax	# blocky, bmapwidth.13_19
	movl	%eax, %ecx	# bmapwidth.13_19, _20
# p_maputl.c:436: 	    link = &blocklinks[blocky*bmapwidth+blockx];
	.loc 1 436 41
	movl	-32(%rbp), %eax	# blockx, tmp130
	addl	%ecx, %eax	# _20, _21
	cltq
# p_maputl.c:436: 	    link = &blocklinks[blocky*bmapwidth+blockx];
	.loc 1 436 24
	salq	$3, %rax	#, _23
# p_maputl.c:436: 	    link = &blocklinks[blocky*bmapwidth+blockx];
	.loc 1 436 11
	addq	%rdx, %rax	# blocklinks.12_18, tmp131
	movq	%rax, -8(%rbp)	# tmp131, link
# p_maputl.c:437: 	    thing->bprev = NULL;
	.loc 1 437 19
	movq	-40(%rbp), %rax	# thing, tmp132
	movq	$0, 80(%rax)	#, thing_33(D)->bprev
# p_maputl.c:438: 	    thing->bnext = *link;
	.loc 1 438 21
	movq	-8(%rbp), %rax	# link, tmp133
	movq	(%rax), %rdx	# *link_44, _24
# p_maputl.c:438: 	    thing->bnext = *link;
	.loc 1 438 19
	movq	-40(%rbp), %rax	# thing, tmp134
	movq	%rdx, 72(%rax)	# _24, thing_33(D)->bnext
# p_maputl.c:439: 	    if (*link)
	.loc 1 439 10
	movq	-8(%rbp), %rax	# link, tmp135
	movq	(%rax), %rax	# *link_44, _25
# p_maputl.c:439: 	    if (*link)
	.loc 1 439 9
	testq	%rax, %rax	# _25
	je	.L56	#,
# p_maputl.c:440: 		(*link)->bprev = thing;
	.loc 1 440 4
	movq	-8(%rbp), %rax	# link, tmp136
	movq	(%rax), %rax	# *link_44, _26
# p_maputl.c:440: 		(*link)->bprev = thing;
	.loc 1 440 18
	movq	-40(%rbp), %rdx	# thing, tmp137
	movq	%rdx, 80(%rax)	# tmp137, _26->bprev
.L56:
# p_maputl.c:442: 	    *link = thing;
	.loc 1 442 12
	movq	-8(%rbp), %rax	# link, tmp138
	movq	-40(%rbp), %rdx	# thing, tmp139
	movq	%rdx, (%rax)	# tmp139, *link_44
# p_maputl.c:450: }
	.loc 1 450 1
	jmp	.L57	#
.L55:
# p_maputl.c:447: 	    thing->bnext = thing->bprev = NULL;
	.loc 1 447 34
	movq	-40(%rbp), %rax	# thing, tmp140
	movq	$0, 80(%rax)	#, thing_33(D)->bprev
# p_maputl.c:447: 	    thing->bnext = thing->bprev = NULL;
	.loc 1 447 26
	movq	-40(%rbp), %rax	# thing, tmp141
	movq	80(%rax), %rdx	# thing_33(D)->bprev, _27
# p_maputl.c:447: 	    thing->bnext = thing->bprev = NULL;
	.loc 1 447 19
	movq	-40(%rbp), %rax	# thing, tmp142
	movq	%rdx, 72(%rax)	# _27, thing_33(D)->bnext
.L57:
# p_maputl.c:450: }
	.loc 1 450 1
	nop	
	leave	
	.cfi_def_cfa 7, 8
	ret	
	.cfi_endproc
.LFE14:
	.size	P_SetThingPosition, .-P_SetThingPosition
	.globl	P_BlockLinesIterator
	.type	P_BlockLinesIterator, @function
P_BlockLinesIterator:
.LFB15:
	.loc 1 476 1
	.cfi_startproc
	endbr64	
	pushq	%rbp	#
	.cfi_def_cfa_offset 16
	.cfi_offset 6, -16
	movq	%rsp, %rbp	#,
	.cfi_def_cfa_register 6
	subq	$48, %rsp	#,
	movl	%edi, -36(%rbp)	# x, x
	movl	%esi, -40(%rbp)	# y, y
	movq	%rdx, -48(%rbp)	# func, func
# p_maputl.c:481:     if (x<0
	.loc 1 481 8
	cmpl	$0, -36(%rbp)	#, x
	js	.L59	#,
# p_maputl.c:482: 	|| y<0
	.loc 1 482 2
	cmpl	$0, -40(%rbp)	#, y
	js	.L59	#,
# p_maputl.c:483: 	|| x>=bmapwidth
	.loc 1 483 6
	movl	bmapwidth(%rip), %eax	# bmapwidth, bmapwidth.14_1
# p_maputl.c:483: 	|| x>=bmapwidth
	.loc 1 483 2
	cmpl	%eax, -36(%rbp)	# bmapwidth.14_1, x
	jge	.L59	#,
# p_maputl.c:484: 	|| y>=bmapheight)
	.loc 1 484 6
	movl	bmapheight(%rip), %eax	# bmapheight, bmapheight.15_2
# p_maputl.c:484: 	|| y>=bmapheight)
	.loc 1 484 2
	cmpl	%eax, -40(%rbp)	# bmapheight.15_2, y
	jl	.L60	#,
.L59:
# p_maputl.c:486: 	return true;
	.loc 1 486 9
	movl	$1, %eax	#, _23
	jmp	.L61	#
.L60:
# p_maputl.c:489:     offset = y*bmapwidth+x;
	.loc 1 489 15
	movl	bmapwidth(%rip), %eax	# bmapwidth, bmapwidth.16_3
	imull	-40(%rbp), %eax	# y, bmapwidth.16_3
	movl	%eax, %edx	# bmapwidth.16_3, _4
# p_maputl.c:489:     offset = y*bmapwidth+x;
	.loc 1 489 12
	movl	-36(%rbp), %eax	# x, tmp108
	addl	%edx, %eax	# _4, tmp107
	movl	%eax, -20(%rbp)	# tmp107, offset
# p_maputl.c:491:     offset = *(blockmap+offset);
	.loc 1 491 24
	movq	blockmap(%rip), %rax	# blockmap, blockmap.17_5
	movl	-20(%rbp), %edx	# offset, tmp109
	movslq	%edx, %rdx	# tmp109, _6
	addq	%rdx, %rdx	# _7
	addq	%rdx, %rax	# _7, _8
# p_maputl.c:491:     offset = *(blockmap+offset);
	.loc 1 491 14
	movzwl	(%rax), %eax	# *_8, _9
# p_maputl.c:491:     offset = *(blockmap+offset);
	.loc 1 491 12
	cwtl
	movl	%eax, -20(%rbp)	# tmp110, offset
# p_maputl.c:493:     for ( list = blockmaplump+offset ; *list != -1 ; list++)
	.loc 1 493 30
	movq	blockmaplump(%rip), %rax	# blockmaplump, blockmaplump.18_10
	movl	-20(%rbp), %edx	# offset, tmp111
	movslq	%edx, %rdx	# tmp111, _11
	addq	%rdx, %rdx	# _12
# p_maputl.c:493:     for ( list = blockmaplump+offset ; *list != -1 ; list++)
	.loc 1 493 16
	addq	%rdx, %rax	# _12, tmp112
	movq	%rax, -16(%rbp)	# tmp112, list
# p_maputl.c:493:     for ( list = blockmaplump+offset ; *list != -1 ; list++)
	.loc 1 493 5
	jmp	.L62	#
.L65:
# p_maputl.c:495: 	ld = &lines[*list];
	.loc 1 495 7
	movq	lines(%rip), %rcx	# lines, lines.19_13
# p_maputl.c:495: 	ld = &lines[*list];
	.loc 1 495 14
	movq	-16(%rbp), %rax	# list, tmp113
	movzwl	(%rax), %eax	# *list_22, _14
	movswq	%ax, %rdx	# _14, _15
# p_maputl.c:495: 	ld = &lines[*list];
	.loc 1 495 13
	movq	%rdx, %rax	# _15, tmp114
	salq	$2, %rax	#, tmp114
	addq	%rdx, %rax	# _15, tmp114
	addq	%rax, %rax	# tmp114
	addq	%rdx, %rax	# _15, tmp114
	salq	$3, %rax	#, tmp115
# p_maputl.c:495: 	ld = &lines[*list];
	.loc 1 495 5
	addq	%rcx, %rax	# lines.19_13, tmp116
	movq	%rax, -8(%rbp)	# tmp116, ld
# p_maputl.c:497: 	if (ld->validcount == validcount)
	.loc 1 497 8
	movq	-8(%rbp), %rax	# ld, tmp117
	movl	72(%rax), %edx	# ld_34->validcount, _17
# p_maputl.c:497: 	if (ld->validcount == validcount)
	.loc 1 497 21
	movl	validcount(%rip), %eax	# validcount, validcount.20_18
# p_maputl.c:497: 	if (ld->validcount == validcount)
	.loc 1 497 5
	cmpl	%eax, %edx	# validcount.20_18, _17
	je	.L66	#,
# p_maputl.c:500: 	ld->validcount = validcount;
	.loc 1 500 17
	movl	validcount(%rip), %edx	# validcount, validcount.21_19
	movq	-8(%rbp), %rax	# ld, tmp118
	movl	%edx, 72(%rax)	# validcount.21_19, ld_34->validcount
# p_maputl.c:502: 	if ( !func(ld) )
	.loc 1 502 8
	movq	-8(%rbp), %rax	# ld, tmp119
	movq	-48(%rbp), %rdx	# func, tmp120
	movq	%rax, %rdi	# tmp119,
	call	*%rdx	# tmp120
.LVL0:
# p_maputl.c:502: 	if ( !func(ld) )
	.loc 1 502 5 discriminator 1
	testl	%eax, %eax	# _20
	jne	.L64	#,
# p_maputl.c:503: 	    return false;
	.loc 1 503 13
	movl	$0, %eax	#, _23
	jmp	.L61	#
.L66:
# p_maputl.c:498: 	    continue; 	// line has already been checked
	.loc 1 498 6
	nop	
.L64:
# p_maputl.c:493:     for ( list = blockmaplump+offset ; *list != -1 ; list++)
	.loc 1 493 58 discriminator 2
	addq	$2, -16(%rbp)	#, list
.L62:
# p_maputl.c:493:     for ( list = blockmaplump+offset ; *list != -1 ; list++)
	.loc 1 493 40 discriminator 1
	movq	-16(%rbp), %rax	# list, tmp121
	movzwl	(%rax), %eax	# *list_22, _21
# p_maputl.c:493:     for ( list = blockmaplump+offset ; *list != -1 ; list++)
	.loc 1 493 46 discriminator 1
	cmpw	$-1, %ax	#, _21
	jne	.L65	#,
# p_maputl.c:505:     return true;	// everything was checked
	.loc 1 505 12
	movl	$1, %eax	#, _23
.L61:
# p_maputl.c:506: }
	.loc 1 506 1
	leave	
	.cfi_def_cfa 7, 8
	ret	
	.cfi_endproc
.LFE15:
	.size	P_BlockLinesIterator, .-P_BlockLinesIterator
	.globl	P_BlockThingsIterator
	.type	P_BlockThingsIterator, @function
P_BlockThingsIterator:
.LFB16:
	.loc 1 517 1
	.cfi_startproc
	endbr64	
	pushq	%rbp	#
	.cfi_def_cfa_offset 16
	.cfi_offset 6, -16
	movq	%rsp, %rbp	#,
	.cfi_def_cfa_register 6
	subq	$32, %rsp	#,
	movl	%edi, -20(%rbp)	# x, x
	movl	%esi, -24(%rbp)	# y, y
	movq	%rdx, -32(%rbp)	# func, func
# p_maputl.c:520:     if ( x<0
	.loc 1 520 8
	cmpl	$0, -20(%rbp)	#, x
	js	.L68	#,
# p_maputl.c:521: 	 || y<0
	.loc 1 521 3
	cmpl	$0, -24(%rbp)	#, y
	js	.L68	#,
# p_maputl.c:522: 	 || x>=bmapwidth
	.loc 1 522 7
	movl	bmapwidth(%rip), %eax	# bmapwidth, bmapwidth.22_1
# p_maputl.c:522: 	 || x>=bmapwidth
	.loc 1 522 3
	cmpl	%eax, -20(%rbp)	# bmapwidth.22_1, x
	jge	.L68	#,
# p_maputl.c:523: 	 || y>=bmapheight)
	.loc 1 523 7
	movl	bmapheight(%rip), %eax	# bmapheight, bmapheight.23_2
# p_maputl.c:523: 	 || y>=bmapheight)
	.loc 1 523 3
	cmpl	%eax, -24(%rbp)	# bmapheight.23_2, y
	jl	.L69	#,
.L68:
# p_maputl.c:525: 	return true;
	.loc 1 525 9
	movl	$1, %eax	#, _12
	jmp	.L70	#
.L69:
# p_maputl.c:529:     for (mobj = blocklinks[y*bmapwidth+x] ;
	.loc 1 529 27
	movq	blocklinks(%rip), %rdx	# blocklinks, blocklinks.24_3
# p_maputl.c:529:     for (mobj = blocklinks[y*bmapwidth+x] ;
	.loc 1 529 29
	movl	bmapwidth(%rip), %eax	# bmapwidth, bmapwidth.25_4
	imull	-24(%rbp), %eax	# y, bmapwidth.25_4
	movl	%eax, %ecx	# bmapwidth.25_4, _5
# p_maputl.c:529:     for (mobj = blocklinks[y*bmapwidth+x] ;
	.loc 1 529 39
	movl	-20(%rbp), %eax	# x, tmp94
	addl	%ecx, %eax	# _5, _6
	cltq
# p_maputl.c:529:     for (mobj = blocklinks[y*bmapwidth+x] ;
	.loc 1 529 27
	salq	$3, %rax	#, _8
	addq	%rdx, %rax	# blocklinks.24_3, _9
# p_maputl.c:529:     for (mobj = blocklinks[y*bmapwidth+x] ;
	.loc 1 529 15
	movq	(%rax), %rax	# *_9, tmp95
	movq	%rax, -8(%rbp)	# tmp95, mobj
# p_maputl.c:529:     for (mobj = blocklinks[y*bmapwidth+x] ;
	.loc 1 529 5
	jmp	.L71	#
.L73:
# p_maputl.c:533: 	if (!func( mobj ) )
	.loc 1 533 7
	movq	-8(%rbp), %rax	# mobj, tmp96
	movq	-32(%rbp), %rdx	# func, tmp97
	movq	%rax, %rdi	# tmp96,
	call	*%rdx	# tmp97
.LVL1:
# p_maputl.c:533: 	if (!func( mobj ) )
	.loc 1 533 5 discriminator 1
	testl	%eax, %eax	# _10
	jne	.L72	#,
# p_maputl.c:534: 	    return false;
	.loc 1 534 13
	movl	$0, %eax	#, _12
	jmp	.L70	#
.L72:
# p_maputl.c:531: 	 mobj = mobj->bnext)
	.loc 1 531 8
	movq	-8(%rbp), %rax	# mobj, tmp98
	movq	72(%rax), %rax	# mobj_11->bnext, tmp99
	movq	%rax, -8(%rbp)	# tmp99, mobj
.L71:
# p_maputl.c:530: 	 mobj ;
	.loc 1 530 3
	cmpq	$0, -8(%rbp)	#, mobj
	jne	.L73	#,
# p_maputl.c:536:     return true;
	.loc 1 536 12
	movl	$1, %eax	#, _12
.L70:
# p_maputl.c:537: }
	.loc 1 537 1
	leave	
	.cfi_def_cfa 7, 8
	ret	
	.cfi_endproc
.LFE16:
	.size	P_BlockThingsIterator, .-P_BlockThingsIterator
	.globl	intercepts
	.bss
	.align 32
	.type	intercepts, @object
	.size	intercepts, 2048
intercepts:
	.zero	2048
	.globl	intercept_p
	.align 8
	.type	intercept_p, @object
	.size	intercept_p, 8
intercept_p:
	.zero	8
	.globl	trace
	.align 16
	.type	trace, @object
	.size	trace, 16
trace:
	.zero	16
	.globl	earlyout
	.align 4
	.type	earlyout, @object
	.size	earlyout, 4
earlyout:
	.zero	4
	.globl	ptflags
	.align 4
	.type	ptflags, @object
	.size	ptflags, 4
ptflags:
	.zero	4
	.text
	.globl	PIT_AddLineIntercepts
	.type	PIT_AddLineIntercepts, @function
PIT_AddLineIntercepts:
.LFB17:
	.loc 1 563 1
	.cfi_startproc
	endbr64	
	pushq	%rbp	#
	.cfi_def_cfa_offset 16
	.cfi_offset 6, -16
	movq	%rsp, %rbp	#,
	.cfi_def_cfa_register 6
	subq	$64, %rsp	#,
	movq	%rdi, -56(%rbp)	# ld, ld
# p_maputl.c:563: {
	.loc 1 563 1
	movq	%fs:40, %rax	# MEM[(<address-space-1> long unsigned int *)40B], tmp133
	movq	%rax, -8(%rbp)	# tmp133, D.7869
	xorl	%eax, %eax	# tmp133
# p_maputl.c:570:     if ( trace.dx > FRACUNIT*16
	.loc 1 570 15
	movl	8+trace(%rip), %eax	# trace.dx, _1
# p_maputl.c:570:     if ( trace.dx > FRACUNIT*16
	.loc 1 570 8
	cmpl	$1048576, %eax	#, _1
	jg	.L75	#,
# p_maputl.c:571: 	 || trace.dy > FRACUNIT*16
	.loc 1 571 11
	movl	12+trace(%rip), %eax	# trace.dy, _2
# p_maputl.c:571: 	 || trace.dy > FRACUNIT*16
	.loc 1 571 3
	cmpl	$1048576, %eax	#, _2
	jg	.L75	#,
# p_maputl.c:572: 	 || trace.dx < -FRACUNIT*16
	.loc 1 572 11
	movl	8+trace(%rip), %eax	# trace.dx, _3
# p_maputl.c:572: 	 || trace.dx < -FRACUNIT*16
	.loc 1 572 3
	cmpl	$-1048576, %eax	#, _3
	jl	.L75	#,
# p_maputl.c:573: 	 || trace.dy < -FRACUNIT*16)
	.loc 1 573 11
	movl	12+trace(%rip), %eax	# trace.dy, _4
# p_maputl.c:573: 	 || trace.dy < -FRACUNIT*16)
	.loc 1 573 3
	cmpl	$-1048576, %eax	#, _4
	jge	.L76	#,
.L75:
# p_maputl.c:575: 	s1 = P_PointOnDivlineSide (ld->v1->x, ld->v1->y, &trace);
	.loc 1 575 42
	movq	-56(%rbp), %rax	# ld, tmp111
	movq	(%rax), %rax	# ld_34(D)->v1, _5
# p_maputl.c:575: 	s1 = P_PointOnDivlineSide (ld->v1->x, ld->v1->y, &trace);
	.loc 1 575 7
	movl	4(%rax), %ecx	# _5->y, _6
# p_maputl.c:575: 	s1 = P_PointOnDivlineSide (ld->v1->x, ld->v1->y, &trace);
	.loc 1 575 31
	movq	-56(%rbp), %rax	# ld, tmp112
	movq	(%rax), %rax	# ld_34(D)->v1, _7
# p_maputl.c:575: 	s1 = P_PointOnDivlineSide (ld->v1->x, ld->v1->y, &trace);
	.loc 1 575 7
	movl	(%rax), %eax	# _7->x, _8
	leaq	trace(%rip), %rdx	#, tmp113
	movl	%ecx, %esi	# _6,
	movl	%eax, %edi	# _8,
	call	P_PointOnDivlineSide	#
	movl	%eax, -44(%rbp)	# tmp114, s1
# p_maputl.c:576: 	s2 = P_PointOnDivlineSide (ld->v2->x, ld->v2->y, &trace);
	.loc 1 576 42
	movq	-56(%rbp), %rax	# ld, tmp115
	movq	8(%rax), %rax	# ld_34(D)->v2, _9
# p_maputl.c:576: 	s2 = P_PointOnDivlineSide (ld->v2->x, ld->v2->y, &trace);
	.loc 1 576 7
	movl	4(%rax), %ecx	# _9->y, _10
# p_maputl.c:576: 	s2 = P_PointOnDivlineSide (ld->v2->x, ld->v2->y, &trace);
	.loc 1 576 31
	movq	-56(%rbp), %rax	# ld, tmp116
	movq	8(%rax), %rax	# ld_34(D)->v2, _11
# p_maputl.c:576: 	s2 = P_PointOnDivlineSide (ld->v2->x, ld->v2->y, &trace);
	.loc 1 576 7
	movl	(%rax), %eax	# _11->x, _12
	leaq	trace(%rip), %rdx	#, tmp117
	movl	%ecx, %esi	# _10,
	movl	%eax, %edi	# _12,
	call	P_PointOnDivlineSide	#
	movl	%eax, -40(%rbp)	# tmp118, s2
# p_maputl.c:576: 	s2 = P_PointOnDivlineSide (ld->v2->x, ld->v2->y, &trace);
	.loc 1 576 5
	jmp	.L77	#
.L76:
# p_maputl.c:580: 	s1 = P_PointOnLineSide (trace.x, trace.y, ld);
	.loc 1 580 7
	movl	4+trace(%rip), %ecx	# trace.y, _13
	movl	trace(%rip), %eax	# trace.x, _14
	movq	-56(%rbp), %rdx	# ld, tmp119
	movl	%ecx, %esi	# _13,
	movl	%eax, %edi	# _14,
	call	P_PointOnLineSide	#
	movl	%eax, -44(%rbp)	# tmp120, s1
# p_maputl.c:581: 	s2 = P_PointOnLineSide (trace.x+trace.dx, trace.y+trace.dy, ld);
	.loc 1 581 49
	movl	4+trace(%rip), %edx	# trace.y, _15
# p_maputl.c:581: 	s2 = P_PointOnLineSide (trace.x+trace.dx, trace.y+trace.dy, ld);
	.loc 1 581 57
	movl	12+trace(%rip), %eax	# trace.dy, _16
# p_maputl.c:581: 	s2 = P_PointOnLineSide (trace.x+trace.dx, trace.y+trace.dy, ld);
	.loc 1 581 7
	leal	(%rdx,%rax), %esi	#, _17
# p_maputl.c:581: 	s2 = P_PointOnLineSide (trace.x+trace.dx, trace.y+trace.dy, ld);
	.loc 1 581 31
	movl	trace(%rip), %edx	# trace.x, _18
# p_maputl.c:581: 	s2 = P_PointOnLineSide (trace.x+trace.dx, trace.y+trace.dy, ld);
	.loc 1 581 39
	movl	8+trace(%rip), %eax	# trace.dx, _19
# p_maputl.c:581: 	s2 = P_PointOnLineSide (trace.x+trace.dx, trace.y+trace.dy, ld);
	.loc 1 581 7
	leal	(%rdx,%rax), %ecx	#, _20
	movq	-56(%rbp), %rax	# ld, tmp121
	movq	%rax, %rdx	# tmp121,
	movl	%ecx, %edi	# _20,
	call	P_PointOnLineSide	#
	movl	%eax, -40(%rbp)	# tmp122, s2
.L77:
# p_maputl.c:584:     if (s1 == s2)
	.loc 1 584 8
	movl	-44(%rbp), %eax	# s1, tmp123
	cmpl	-40(%rbp), %eax	# s2, tmp123
	jne	.L78	#,
# p_maputl.c:585: 	return true;	// line isn't crossed
	.loc 1 585 9
	movl	$1, %eax	#, _30
	jmp	.L82	#
.L78:
# p_maputl.c:588:     P_MakeDivline (ld, &dl);
	.loc 1 588 5
	leaq	-32(%rbp), %rdx	#, tmp124
	movq	-56(%rbp), %rax	# ld, tmp125
	movq	%rdx, %rsi	# tmp124,
	movq	%rax, %rdi	# tmp125,
	call	P_MakeDivline	#
# p_maputl.c:589:     frac = P_InterceptVector (&trace, &dl);
	.loc 1 589 12
	leaq	-32(%rbp), %rax	#, tmp126
	movq	%rax, %rsi	# tmp126,
	leaq	trace(%rip), %rax	#, tmp127
	movq	%rax, %rdi	# tmp127,
	call	P_InterceptVector	#
	movl	%eax, -36(%rbp)	# tmp128, frac
# p_maputl.c:591:     if (frac < 0)
	.loc 1 591 8
	cmpl	$0, -36(%rbp)	#, frac
	jns	.L80	#,
# p_maputl.c:592: 	return true;	// behind source
	.loc 1 592 9
	movl	$1, %eax	#, _30
	jmp	.L82	#
.L80:
# p_maputl.c:595:     if (earlyout
	.loc 1 595 9
	movl	earlyout(%rip), %eax	# earlyout, earlyout.26_21
# p_maputl.c:595:     if (earlyout
	.loc 1 595 8
	testl	%eax, %eax	# earlyout.26_21
	je	.L81	#,
# p_maputl.c:596: 	&& frac < FRACUNIT
	.loc 1 596 2
	cmpl	$65535, -36(%rbp)	#, frac
	jg	.L81	#,
# p_maputl.c:597: 	&& !ld->backsector)
	.loc 1 597 8
	movq	-56(%rbp), %rax	# ld, tmp129
	movq	64(%rax), %rax	# ld_34(D)->backsector, _22
# p_maputl.c:597: 	&& !ld->backsector)
	.loc 1 597 2
	testq	%rax, %rax	# _22
	jne	.L81	#,
# p_maputl.c:599: 	return false;	// stop checking
	.loc 1 599 9
	movl	$0, %eax	#, _30
	jmp	.L82	#
.L81:
# p_maputl.c:603:     intercept_p->frac = frac;
	.loc 1 603 16
	movq	intercept_p(%rip), %rax	# intercept_p, intercept_p.27_23
# p_maputl.c:603:     intercept_p->frac = frac;
	.loc 1 603 23
	movl	-36(%rbp), %edx	# frac, tmp130
	movl	%edx, (%rax)	# tmp130, intercept_p.27_23->frac
# p_maputl.c:604:     intercept_p->isaline = true;
	.loc 1 604 16
	movq	intercept_p(%rip), %rax	# intercept_p, intercept_p.28_24
# p_maputl.c:604:     intercept_p->isaline = true;
	.loc 1 604 26
	movl	$1, 4(%rax)	#, intercept_p.28_24->isaline
# p_maputl.c:605:     intercept_p->d.line = ld;
	.loc 1 605 16
	movq	intercept_p(%rip), %rax	# intercept_p, intercept_p.29_25
# p_maputl.c:605:     intercept_p->d.line = ld;
	.loc 1 605 25
	movq	-56(%rbp), %rdx	# ld, tmp131
	movq	%rdx, 8(%rax)	# tmp131, intercept_p.29_25->d.line
# p_maputl.c:606:     intercept_p++;
	.loc 1 606 16
	movq	intercept_p(%rip), %rax	# intercept_p, intercept_p.30_26
	addq	$16, %rax	#, _27
	movq	%rax, intercept_p(%rip)	# _27, intercept_p
# p_maputl.c:608:     return true;	// continue
	.loc 1 608 12
	movl	$1, %eax	#, _30
.L82:
# p_maputl.c:609: }
	.loc 1 609 1
	movq	-8(%rbp), %rdx	# D.7869, tmp134
	subq	%fs:40, %rdx	# MEM[(<address-space-1> long unsigned int *)40B], tmp134
	je	.L83	#,
	call	__stack_chk_fail@PLT	#
.L83:
	leave	
	.cfi_def_cfa 7, 8
	ret	
	.cfi_endproc
.LFE17:
	.size	PIT_AddLineIntercepts, .-PIT_AddLineIntercepts
	.globl	PIT_AddThingIntercepts
	.type	PIT_AddThingIntercepts, @function
PIT_AddThingIntercepts:
.LFB18:
	.loc 1 617 1
	.cfi_startproc
	endbr64	
	pushq	%rbp	#
	.cfi_def_cfa_offset 16
	.cfi_offset 6, -16
	movq	%rsp, %rbp	#,
	.cfi_def_cfa_register 6
	subq	$80, %rsp	#,
	movq	%rdi, -72(%rbp)	# thing, thing
# p_maputl.c:617: {
	.loc 1 617 1
	movq	%fs:40, %rax	# MEM[(<address-space-1> long unsigned int *)40B], tmp155
	movq	%rax, -8(%rbp)	# tmp155, D.7871
	xorl	%eax, %eax	# tmp155
# p_maputl.c:632:     tracepositive = (trace.dx ^ trace.dy)>0;
	.loc 1 632 27
	movl	8+trace(%rip), %edx	# trace.dx, _1
# p_maputl.c:632:     tracepositive = (trace.dx ^ trace.dy)>0;
	.loc 1 632 38
	movl	12+trace(%rip), %eax	# trace.dy, _2
# p_maputl.c:632:     tracepositive = (trace.dx ^ trace.dy)>0;
	.loc 1 632 31
	xorl	%edx, %eax	# _1, _3
# p_maputl.c:632:     tracepositive = (trace.dx ^ trace.dy)>0;
	.loc 1 632 42
	testl	%eax, %eax	# _3
	setg	%al	#, _4
# p_maputl.c:632:     tracepositive = (trace.dx ^ trace.dy)>0;
	.loc 1 632 19
	movzbl	%al, %eax	# _4, tmp111
	movl	%eax, -48(%rbp)	# tmp111, tracepositive
# p_maputl.c:635:     if (tracepositive)
	.loc 1 635 8
	cmpl	$0, -48(%rbp)	#, tracepositive
	je	.L85	#,
# p_maputl.c:637: 	x1 = thing->x - thing->radius;
	.loc 1 637 12
	movq	-72(%rbp), %rax	# thing, tmp112
	movl	24(%rax), %edx	# thing_36(D)->x, _5
# p_maputl.c:637: 	x1 = thing->x - thing->radius;
	.loc 1 637 23
	movq	-72(%rbp), %rax	# thing, tmp113
	movl	104(%rax), %eax	# thing_36(D)->radius, _6
# p_maputl.c:637: 	x1 = thing->x - thing->radius;
	.loc 1 637 5
	subl	%eax, %edx	# _6, tmp114
	movl	%edx, -64(%rbp)	# tmp114, x1
# p_maputl.c:638: 	y1 = thing->y + thing->radius;
	.loc 1 638 12
	movq	-72(%rbp), %rax	# thing, tmp115
	movl	28(%rax), %edx	# thing_36(D)->y, _7
# p_maputl.c:638: 	y1 = thing->y + thing->radius;
	.loc 1 638 23
	movq	-72(%rbp), %rax	# thing, tmp116
	movl	104(%rax), %eax	# thing_36(D)->radius, _8
# p_maputl.c:638: 	y1 = thing->y + thing->radius;
	.loc 1 638 5
	addl	%edx, %eax	# _7, tmp117
	movl	%eax, -60(%rbp)	# tmp117, y1
# p_maputl.c:640: 	x2 = thing->x + thing->radius;
	.loc 1 640 12
	movq	-72(%rbp), %rax	# thing, tmp118
	movl	24(%rax), %edx	# thing_36(D)->x, _9
# p_maputl.c:640: 	x2 = thing->x + thing->radius;
	.loc 1 640 23
	movq	-72(%rbp), %rax	# thing, tmp119
	movl	104(%rax), %eax	# thing_36(D)->radius, _10
# p_maputl.c:640: 	x2 = thing->x + thing->radius;
	.loc 1 640 5
	addl	%edx, %eax	# _9, tmp120
	movl	%eax, -56(%rbp)	# tmp120, x2
# p_maputl.c:641: 	y2 = thing->y - thing->radius;			
	.loc 1 641 12
	movq	-72(%rbp), %rax	# thing, tmp121
	movl	28(%rax), %edx	# thing_36(D)->y, _11
# p_maputl.c:641: 	y2 = thing->y - thing->radius;			
	.loc 1 641 23
	movq	-72(%rbp), %rax	# thing, tmp122
	movl	104(%rax), %eax	# thing_36(D)->radius, _12
# p_maputl.c:641: 	y2 = thing->y - thing->radius;			
	.loc 1 641 5
	subl	%eax, %edx	# _12, tmp123
	movl	%edx, -52(%rbp)	# tmp123, y2
	jmp	.L86	#
.L85:
# p_maputl.c:645: 	x1 = thing->x - thing->radius;
	.loc 1 645 12
	movq	-72(%rbp), %rax	# thing, tmp124
	movl	24(%rax), %edx	# thing_36(D)->x, _13
# p_maputl.c:645: 	x1 = thing->x - thing->radius;
	.loc 1 645 23
	movq	-72(%rbp), %rax	# thing, tmp125
	movl	104(%rax), %eax	# thing_36(D)->radius, _14
# p_maputl.c:645: 	x1 = thing->x - thing->radius;
	.loc 1 645 5
	subl	%eax, %edx	# _14, tmp126
	movl	%edx, -64(%rbp)	# tmp126, x1
# p_maputl.c:646: 	y1 = thing->y - thing->radius;
	.loc 1 646 12
	movq	-72(%rbp), %rax	# thing, tmp127
	movl	28(%rax), %edx	# thing_36(D)->y, _15
# p_maputl.c:646: 	y1 = thing->y - thing->radius;
	.loc 1 646 23
	movq	-72(%rbp), %rax	# thing, tmp128
	movl	104(%rax), %eax	# thing_36(D)->radius, _16
# p_maputl.c:646: 	y1 = thing->y - thing->radius;
	.loc 1 646 5
	subl	%eax, %edx	# _16, tmp129
	movl	%edx, -60(%rbp)	# tmp129, y1
# p_maputl.c:648: 	x2 = thing->x + thing->radius;
	.loc 1 648 12
	movq	-72(%rbp), %rax	# thing, tmp130
	movl	24(%rax), %edx	# thing_36(D)->x, _17
# p_maputl.c:648: 	x2 = thing->x + thing->radius;
	.loc 1 648 23
	movq	-72(%rbp), %rax	# thing, tmp131
	movl	104(%rax), %eax	# thing_36(D)->radius, _18
# p_maputl.c:648: 	x2 = thing->x + thing->radius;
	.loc 1 648 5
	addl	%edx, %eax	# _17, tmp132
	movl	%eax, -56(%rbp)	# tmp132, x2
# p_maputl.c:649: 	y2 = thing->y + thing->radius;			
	.loc 1 649 12
	movq	-72(%rbp), %rax	# thing, tmp133
	movl	28(%rax), %edx	# thing_36(D)->y, _19
# p_maputl.c:649: 	y2 = thing->y + thing->radius;			
	.loc 1 649 23
	movq	-72(%rbp), %rax	# thing, tmp134
	movl	104(%rax), %eax	# thing_36(D)->radius, _20
# p_maputl.c:649: 	y2 = thing->y + thing->radius;			
	.loc 1 649 5
	addl	%edx, %eax	# _19, tmp135
	movl	%eax, -52(%rbp)	# tmp135, y2
.L86:
# p_maputl.c:652:     s1 = P_PointOnDivlineSide (x1, y1, &trace);
	.loc 1 652 10
	movl	-60(%rbp), %ecx	# y1, tmp136
	movl	-64(%rbp), %eax	# x1, tmp137
	leaq	trace(%rip), %rdx	#, tmp138
	movl	%ecx, %esi	# tmp136,
	movl	%eax, %edi	# tmp137,
	call	P_PointOnDivlineSide	#
	movl	%eax, -44(%rbp)	# tmp139, s1
# p_maputl.c:653:     s2 = P_PointOnDivlineSide (x2, y2, &trace);
	.loc 1 653 10
	movl	-52(%rbp), %ecx	# y2, tmp140
	movl	-56(%rbp), %eax	# x2, tmp141
	leaq	trace(%rip), %rdx	#, tmp142
	movl	%ecx, %esi	# tmp140,
	movl	%eax, %edi	# tmp141,
	call	P_PointOnDivlineSide	#
	movl	%eax, -40(%rbp)	# tmp143, s2
# p_maputl.c:655:     if (s1 == s2)
	.loc 1 655 8
	movl	-44(%rbp), %eax	# s1, tmp144
	cmpl	-40(%rbp), %eax	# s2, tmp144
	jne	.L87	#,
# p_maputl.c:656: 	return true;		// line isn't crossed
	.loc 1 656 9
	movl	$1, %eax	#, _32
	jmp	.L90	#
.L87:
# p_maputl.c:658:     dl.x = x1;
	.loc 1 658 10
	movl	-64(%rbp), %eax	# x1, tmp145
	movl	%eax, -32(%rbp)	# tmp145, dl.x
# p_maputl.c:659:     dl.y = y1;
	.loc 1 659 10
	movl	-60(%rbp), %eax	# y1, tmp146
	movl	%eax, -28(%rbp)	# tmp146, dl.y
# p_maputl.c:660:     dl.dx = x2-x1;
	.loc 1 660 15
	movl	-56(%rbp), %eax	# x2, tmp147
	subl	-64(%rbp), %eax	# x1, _21
# p_maputl.c:660:     dl.dx = x2-x1;
	.loc 1 660 11
	movl	%eax, -24(%rbp)	# _21, dl.dx
# p_maputl.c:661:     dl.dy = y2-y1;
	.loc 1 661 15
	movl	-52(%rbp), %eax	# y2, tmp148
	subl	-60(%rbp), %eax	# y1, _22
# p_maputl.c:661:     dl.dy = y2-y1;
	.loc 1 661 11
	movl	%eax, -20(%rbp)	# _22, dl.dy
# p_maputl.c:663:     frac = P_InterceptVector (&trace, &dl);
	.loc 1 663 12
	leaq	-32(%rbp), %rax	#, tmp149
	movq	%rax, %rsi	# tmp149,
	leaq	trace(%rip), %rax	#, tmp150
	movq	%rax, %rdi	# tmp150,
	call	P_InterceptVector	#
	movl	%eax, -36(%rbp)	# tmp151, frac
# p_maputl.c:665:     if (frac < 0)
	.loc 1 665 8
	cmpl	$0, -36(%rbp)	#, frac
	jns	.L89	#,
# p_maputl.c:666: 	return true;		// behind source
	.loc 1 666 9
	movl	$1, %eax	#, _32
	jmp	.L90	#
.L89:
# p_maputl.c:668:     intercept_p->frac = frac;
	.loc 1 668 16
	movq	intercept_p(%rip), %rax	# intercept_p, intercept_p.31_23
# p_maputl.c:668:     intercept_p->frac = frac;
	.loc 1 668 23
	movl	-36(%rbp), %edx	# frac, tmp152
	movl	%edx, (%rax)	# tmp152, intercept_p.31_23->frac
# p_maputl.c:669:     intercept_p->isaline = false;
	.loc 1 669 16
	movq	intercept_p(%rip), %rax	# intercept_p, intercept_p.32_24
# p_maputl.c:669:     intercept_p->isaline = false;
	.loc 1 669 26
	movl	$0, 4(%rax)	#, intercept_p.32_24->isaline
# p_maputl.c:670:     intercept_p->d.thing = thing;
	.loc 1 670 16
	movq	intercept_p(%rip), %rax	# intercept_p, intercept_p.33_25
# p_maputl.c:670:     intercept_p->d.thing = thing;
	.loc 1 670 26
	movq	-72(%rbp), %rdx	# thing, tmp153
	movq	%rdx, 8(%rax)	# tmp153, intercept_p.33_25->d.thing
# p_maputl.c:671:     intercept_p++;
	.loc 1 671 16
	movq	intercept_p(%rip), %rax	# intercept_p, intercept_p.34_26
	addq	$16, %rax	#, _27
	movq	%rax, intercept_p(%rip)	# _27, intercept_p
# p_maputl.c:673:     return true;		// keep going
	.loc 1 673 12
	movl	$1, %eax	#, _32
.L90:
# p_maputl.c:674: }
	.loc 1 674 1
	movq	-8(%rbp), %rdx	# D.7871, tmp156
	subq	%fs:40, %rdx	# MEM[(<address-space-1> long unsigned int *)40B], tmp156
	je	.L91	#,
	call	__stack_chk_fail@PLT	#
.L91:
	leave	
	.cfi_def_cfa 7, 8
	ret	
	.cfi_endproc
.LFE18:
	.size	PIT_AddThingIntercepts, .-PIT_AddThingIntercepts
	.globl	P_TraverseIntercepts
	.type	P_TraverseIntercepts, @function
P_TraverseIntercepts:
.LFB19:
	.loc 1 686 1
	.cfi_startproc
	endbr64	
	pushq	%rbp	#
	.cfi_def_cfa_offset 16
	.cfi_offset 6, -16
	movq	%rsp, %rbp	#,
	.cfi_def_cfa_register 6
	subq	$48, %rsp	#,
	movq	%rdi, -40(%rbp)	# func, func
	movl	%esi, -44(%rbp)	# maxfrac, maxfrac
# p_maputl.c:692:     count = intercept_p - intercepts;
	.loc 1 692 25
	movq	intercept_p(%rip), %rdx	# intercept_p, intercept_p.35_1
	leaq	intercepts(%rip), %rax	#, tmp91
	subq	%rax, %rdx	# tmp91, _2
	movq	%rdx, %rax	# _2, _2
	sarq	$4, %rax	#, _2
# p_maputl.c:692:     count = intercept_p - intercepts;
	.loc 1 692 11
	movl	%eax, -24(%rbp)	# _3, count
# p_maputl.c:694:     in = 0;			// shut up compiler warning
	.loc 1 694 8
	movq	$0, -8(%rbp)	#, in
# p_maputl.c:696:     while (count--)
	.loc 1 696 11
	jmp	.L93	#
.L100:
# p_maputl.c:698: 	dist = MAXINT;
	.loc 1 698 7
	movl	$2147483647, -20(%rbp)	#, dist
# p_maputl.c:699: 	for (scan = intercepts ; scan<intercept_p ; scan++)
	.loc 1 699 12
	leaq	intercepts(%rip), %rax	#, tmp93
	movq	%rax, -16(%rbp)	# tmp93, scan
# p_maputl.c:699: 	for (scan = intercepts ; scan<intercept_p ; scan++)
	.loc 1 699 2
	jmp	.L94	#
.L96:
# p_maputl.c:701: 	    if (scan->frac < dist)
	.loc 1 701 14
	movq	-16(%rbp), %rax	# scan, tmp94
	movl	(%rax), %eax	# scan_11->frac, _4
# p_maputl.c:701: 	    if (scan->frac < dist)
	.loc 1 701 9
	cmpl	%eax, -20(%rbp)	# _4, dist
	jle	.L95	#,
# p_maputl.c:703: 		dist = scan->frac;
	.loc 1 703 8
	movq	-16(%rbp), %rax	# scan, tmp95
	movl	(%rax), %eax	# scan_11->frac, tmp96
	movl	%eax, -20(%rbp)	# tmp96, dist
# p_maputl.c:704: 		in = scan;
	.loc 1 704 6
	movq	-16(%rbp), %rax	# scan, tmp97
	movq	%rax, -8(%rbp)	# tmp97, in
.L95:
# p_maputl.c:699: 	for (scan = intercepts ; scan<intercept_p ; scan++)
	.loc 1 699 50 discriminator 2
	addq	$16, -16(%rbp)	#, scan
.L94:
# p_maputl.c:699: 	for (scan = intercepts ; scan<intercept_p ; scan++)
	.loc 1 699 31 discriminator 1
	movq	intercept_p(%rip), %rax	# intercept_p, intercept_p.36_5
	cmpq	%rax, -16(%rbp)	# intercept_p.36_5, scan
	jb	.L96	#,
# p_maputl.c:708: 	if (dist > maxfrac)
	.loc 1 708 5
	movl	-20(%rbp), %eax	# dist, tmp98
	cmpl	-44(%rbp), %eax	# maxfrac, tmp98
	jle	.L97	#,
# p_maputl.c:709: 	    return true;	// checked everything in range		
	.loc 1 709 13
	movl	$1, %eax	#, _15
	jmp	.L98	#
.L97:
# p_maputl.c:723:         if ( !func (in) )
	.loc 1 723 15
	movq	-8(%rbp), %rax	# in, tmp99
	movq	-40(%rbp), %rdx	# func, tmp100
	movq	%rax, %rdi	# tmp99,
	call	*%rdx	# tmp100
.LVL2:
# p_maputl.c:723:         if ( !func (in) )
	.loc 1 723 12 discriminator 1
	testl	%eax, %eax	# _6
	jne	.L99	#,
# p_maputl.c:724: 	    return false;	// don't bother going farther
	.loc 1 724 13
	movl	$0, %eax	#, _15
	jmp	.L98	#
.L99:
# p_maputl.c:726: 	in->frac = MAXINT;
	.loc 1 726 11
	movq	-8(%rbp), %rax	# in, tmp101
	movl	$2147483647, (%rax)	#, in_13->frac
.L93:
# p_maputl.c:696:     while (count--)
	.loc 1 696 17
	movl	-24(%rbp), %eax	# count, count.37_7
	leal	-1(%rax), %edx	#, tmp102
	movl	%edx, -24(%rbp)	# tmp102, count
# p_maputl.c:696:     while (count--)
	.loc 1 696 12
	testl	%eax, %eax	# count.37_7
	jne	.L100	#,
# p_maputl.c:729:     return true;		// everything was traversed
	.loc 1 729 12
	movl	$1, %eax	#, _15
.L98:
# p_maputl.c:730: }
	.loc 1 730 1
	leave	
	.cfi_def_cfa 7, 8
	ret	
	.cfi_endproc
.LFE19:
	.size	P_TraverseIntercepts, .-P_TraverseIntercepts
	.globl	P_PathTraverse
	.type	P_PathTraverse, @function
P_PathTraverse:
.LFB20:
	.loc 1 750 1
	.cfi_startproc
	endbr64	
	pushq	%rbp	#
	.cfi_def_cfa_offset 16
	.cfi_offset 6, -16
	movq	%rsp, %rbp	#,
	.cfi_def_cfa_register 6
	pushq	%rbx	#
	subq	$104, %rsp	#,
	.cfi_offset 3, -24
	movl	%edi, -84(%rbp)	# x1, x1
	movl	%esi, -88(%rbp)	# y1, y1
	movl	%edx, -92(%rbp)	# x2, x2
	movl	%ecx, -96(%rbp)	# y2, y2
	movl	%r8d, -100(%rbp)	# flags, flags
	movq	%r9, -112(%rbp)	# trav, trav
# p_maputl.c:772:     earlyout = flags & PT_EARLYOUT;
	.loc 1 772 22
	movl	-100(%rbp), %eax	# flags, tmp128
	andl	$4, %eax	#, _1
# p_maputl.c:772:     earlyout = flags & PT_EARLYOUT;
	.loc 1 772 14
	movl	%eax, earlyout(%rip)	# _2, earlyout
# p_maputl.c:774:     validcount++;
	.loc 1 774 15
	movl	validcount(%rip), %eax	# validcount, validcount.38_3
	addl	$1, %eax	#, _4
	movl	%eax, validcount(%rip)	# _4, validcount
# p_maputl.c:775:     intercept_p = intercepts;
	.loc 1 775 17
	leaq	intercepts(%rip), %rax	#, tmp129
	movq	%rax, intercept_p(%rip)	# tmp129, intercept_p
# p_maputl.c:777:     if ( ((x1-bmaporgx)&(MAPBLOCKSIZE-1)) == 0)
	.loc 1 777 14
	movl	bmaporgx(%rip), %eax	# bmaporgx, bmaporgx.39_5
	movl	-84(%rbp), %edx	# x1, tmp130
	subl	%eax, %edx	# bmaporgx.39_5, _6
# p_maputl.c:777:     if ( ((x1-bmaporgx)&(MAPBLOCKSIZE-1)) == 0)
	.loc 1 777 24
	movl	%edx, %eax	# _6, _6
	andl	$8388607, %eax	#, _6
# p_maputl.c:777:     if ( ((x1-bmaporgx)&(MAPBLOCKSIZE-1)) == 0)
	.loc 1 777 8
	testl	%eax, %eax	# _7
	jne	.L102	#,
# p_maputl.c:778: 	x1 += FRACUNIT;	// don't side exactly on a line
	.loc 1 778 5
	addl	$65536, -84(%rbp)	#, x1
.L102:
# p_maputl.c:780:     if ( ((y1-bmaporgy)&(MAPBLOCKSIZE-1)) == 0)
	.loc 1 780 14
	movl	bmaporgy(%rip), %eax	# bmaporgy, bmaporgy.40_8
	movl	-88(%rbp), %edx	# y1, tmp131
	subl	%eax, %edx	# bmaporgy.40_8, _9
# p_maputl.c:780:     if ( ((y1-bmaporgy)&(MAPBLOCKSIZE-1)) == 0)
	.loc 1 780 24
	movl	%edx, %eax	# _9, _9
	andl	$8388607, %eax	#, _9
# p_maputl.c:780:     if ( ((y1-bmaporgy)&(MAPBLOCKSIZE-1)) == 0)
	.loc 1 780 8
	testl	%eax, %eax	# _10
	jne	.L103	#,
# p_maputl.c:781: 	y1 += FRACUNIT;	// don't side exactly on a line
	.loc 1 781 5
	addl	$65536, -88(%rbp)	#, y1
.L103:
# p_maputl.c:783:     trace.x = x1;
	.loc 1 783 13
	movl	-84(%rbp), %eax	# x1, tmp132
	movl	%eax, trace(%rip)	# tmp132, trace.x
# p_maputl.c:784:     trace.y = y1;
	.loc 1 784 13
	movl	-88(%rbp), %eax	# y1, tmp133
	movl	%eax, 4+trace(%rip)	# tmp133, trace.y
# p_maputl.c:785:     trace.dx = x2 - x1;
	.loc 1 785 19
	movl	-92(%rbp), %eax	# x2, tmp134
	subl	-84(%rbp), %eax	# x1, _11
# p_maputl.c:785:     trace.dx = x2 - x1;
	.loc 1 785 14
	movl	%eax, 8+trace(%rip)	# _11, trace.dx
# p_maputl.c:786:     trace.dy = y2 - y1;
	.loc 1 786 19
	movl	-96(%rbp), %eax	# y2, tmp135
	subl	-88(%rbp), %eax	# y1, _12
# p_maputl.c:786:     trace.dy = y2 - y1;
	.loc 1 786 14
	movl	%eax, 12+trace(%rip)	# _12, trace.dy
# p_maputl.c:788:     x1 -= bmaporgx;
	.loc 1 788 8
	movl	bmaporgx(%rip), %eax	# bmaporgx, bmaporgx.41_13
	subl	%eax, -84(%rbp)	# bmaporgx.41_13, x1
# p_maputl.c:789:     y1 -= bmaporgy;
	.loc 1 789 8
	movl	bmaporgy(%rip), %eax	# bmaporgy, bmaporgy.42_14
	subl	%eax, -88(%rbp)	# bmaporgy.42_14, y1
# p_maputl.c:790:     xt1 = x1>>MAPBLOCKSHIFT;
	.loc 1 790 9
	movl	-84(%rbp), %eax	# x1, tmp139
	sarl	$23, %eax	#, tmp138
	movl	%eax, -32(%rbp)	# tmp138, xt1
# p_maputl.c:791:     yt1 = y1>>MAPBLOCKSHIFT;
	.loc 1 791 9
	movl	-88(%rbp), %eax	# y1, tmp143
	sarl	$23, %eax	#, tmp142
	movl	%eax, -28(%rbp)	# tmp142, yt1
# p_maputl.c:793:     x2 -= bmaporgx;
	.loc 1 793 8
	movl	bmaporgx(%rip), %eax	# bmaporgx, bmaporgx.43_15
	subl	%eax, -92(%rbp)	# bmaporgx.43_15, x2
# p_maputl.c:794:     y2 -= bmaporgy;
	.loc 1 794 8
	movl	bmaporgy(%rip), %eax	# bmaporgy, bmaporgy.44_16
	subl	%eax, -96(%rbp)	# bmaporgy.44_16, y2
# p_maputl.c:795:     xt2 = x2>>MAPBLOCKSHIFT;
	.loc 1 795 9
	movl	-92(%rbp), %eax	# x2, tmp147
	sarl	$23, %eax	#, tmp146
	movl	%eax, -24(%rbp)	# tmp146, xt2
# p_maputl.c:796:     yt2 = y2>>MAPBLOCKSHIFT;
	.loc 1 796 9
	movl	-96(%rbp), %eax	# y2, tmp151
	sarl	$23, %eax	#, tmp150
	movl	%eax, -20(%rbp)	# tmp150, yt2
# p_maputl.c:798:     if (xt2 > xt1)
	.loc 1 798 8
	movl	-24(%rbp), %eax	# xt2, tmp152
	cmpl	-32(%rbp), %eax	# xt1, tmp152
	jle	.L104	#,
# p_maputl.c:800: 	mapxstep = 1;
	.loc 1 800 11
	movl	$1, -44(%rbp)	#, mapxstep
# p_maputl.c:801: 	partial = FRACUNIT - ((x1>>MAPBTOFRAC)&(FRACUNIT-1));
	.loc 1 801 27
	movl	-84(%rbp), %eax	# x1, tmp153
	sarl	$7, %eax	#, _17
# p_maputl.c:801: 	partial = FRACUNIT - ((x1>>MAPBTOFRAC)&(FRACUNIT-1));
	.loc 1 801 40
	movzwl	%ax, %eax	# _17, _18
# p_maputl.c:801: 	partial = FRACUNIT - ((x1>>MAPBTOFRAC)&(FRACUNIT-1));
	.loc 1 801 10
	movl	$65536, %edx	#, tmp154
	subl	%eax, %edx	# _18, tmp155
	movl	%edx, -64(%rbp)	# tmp155, partial
# p_maputl.c:802: 	ystep = FixedDiv (y2-y1,abs(x2-x1));
	.loc 1 802 32
	movl	-92(%rbp), %eax	# x2, tmp156
	subl	-84(%rbp), %eax	# x1, _19
# p_maputl.c:802: 	ystep = FixedDiv (y2-y1,abs(x2-x1));
	.loc 1 802 10
	movl	%eax, %edx	# _19, tmp209
	negl	%edx	# tmp209
	cmovs	%eax, %edx	# tmp209,, _19, _20
	movl	-96(%rbp), %eax	# y2, tmp157
	subl	-88(%rbp), %eax	# y1, _21
	movl	%edx, %esi	# _20,
	movl	%eax, %edi	# _21,
	call	FixedDiv@PLT	#
	movl	%eax, -68(%rbp)	# tmp158, ystep
	jmp	.L105	#
.L104:
# p_maputl.c:804:     else if (xt2 < xt1)
	.loc 1 804 13
	movl	-24(%rbp), %eax	# xt2, tmp159
	cmpl	-32(%rbp), %eax	# xt1, tmp159
	jge	.L106	#,
# p_maputl.c:806: 	mapxstep = -1;
	.loc 1 806 11
	movl	$-1, -44(%rbp)	#, mapxstep
# p_maputl.c:807: 	partial = (x1>>MAPBTOFRAC)&(FRACUNIT-1);
	.loc 1 807 15
	movl	-84(%rbp), %eax	# x1, tmp160
	sarl	$7, %eax	#, _22
# p_maputl.c:807: 	partial = (x1>>MAPBTOFRAC)&(FRACUNIT-1);
	.loc 1 807 10
	andl	$65535, %eax	#, tmp161
	movl	%eax, -64(%rbp)	# tmp161, partial
# p_maputl.c:808: 	ystep = FixedDiv (y2-y1,abs(x2-x1));
	.loc 1 808 32
	movl	-92(%rbp), %eax	# x2, tmp162
	subl	-84(%rbp), %eax	# x1, _23
# p_maputl.c:808: 	ystep = FixedDiv (y2-y1,abs(x2-x1));
	.loc 1 808 10
	movl	%eax, %edx	# _23, tmp208
	negl	%edx	# tmp208
	cmovs	%eax, %edx	# tmp208,, _23, _24
	movl	-96(%rbp), %eax	# y2, tmp163
	subl	-88(%rbp), %eax	# y1, _25
	movl	%edx, %esi	# _24,
	movl	%eax, %edi	# _25,
	call	FixedDiv@PLT	#
	movl	%eax, -68(%rbp)	# tmp164, ystep
	jmp	.L105	#
.L106:
# p_maputl.c:812: 	mapxstep = 0;
	.loc 1 812 11
	movl	$0, -44(%rbp)	#, mapxstep
# p_maputl.c:813: 	partial = FRACUNIT;
	.loc 1 813 10
	movl	$65536, -64(%rbp)	#, partial
# p_maputl.c:814: 	ystep = 256*FRACUNIT;
	.loc 1 814 8
	movl	$16777216, -68(%rbp)	#, ystep
.L105:
# p_maputl.c:817:     yintercept = (y1>>MAPBTOFRAC) + FixedMul (partial, ystep);
	.loc 1 817 21
	movl	-88(%rbp), %eax	# y1, tmp165
	sarl	$7, %eax	#, tmp165
	movl	%eax, %ebx	# tmp165, _26
# p_maputl.c:817:     yintercept = (y1>>MAPBTOFRAC) + FixedMul (partial, ystep);
	.loc 1 817 37
	movl	-68(%rbp), %edx	# ystep, tmp166
	movl	-64(%rbp), %eax	# partial, tmp167
	movl	%edx, %esi	# tmp166,
	movl	%eax, %edi	# tmp167,
	call	FixedMul@PLT	#
# p_maputl.c:817:     yintercept = (y1>>MAPBTOFRAC) + FixedMul (partial, ystep);
	.loc 1 817 16 discriminator 1
	addl	%ebx, %eax	# _26, tmp168
	movl	%eax, -56(%rbp)	# tmp168, yintercept
# p_maputl.c:820:     if (yt2 > yt1)
	.loc 1 820 8
	movl	-20(%rbp), %eax	# yt2, tmp169
	cmpl	-28(%rbp), %eax	# yt1, tmp169
	jle	.L107	#,
# p_maputl.c:822: 	mapystep = 1;
	.loc 1 822 11
	movl	$1, -40(%rbp)	#, mapystep
# p_maputl.c:823: 	partial = FRACUNIT - ((y1>>MAPBTOFRAC)&(FRACUNIT-1));
	.loc 1 823 27
	movl	-88(%rbp), %eax	# y1, tmp170
	sarl	$7, %eax	#, _28
# p_maputl.c:823: 	partial = FRACUNIT - ((y1>>MAPBTOFRAC)&(FRACUNIT-1));
	.loc 1 823 40
	movzwl	%ax, %eax	# _28, _29
# p_maputl.c:823: 	partial = FRACUNIT - ((y1>>MAPBTOFRAC)&(FRACUNIT-1));
	.loc 1 823 10
	movl	$65536, %edx	#, tmp171
	subl	%eax, %edx	# _29, tmp172
	movl	%edx, -64(%rbp)	# tmp172, partial
# p_maputl.c:824: 	xstep = FixedDiv (x2-x1,abs(y2-y1));
	.loc 1 824 32
	movl	-96(%rbp), %eax	# y2, tmp173
	subl	-88(%rbp), %eax	# y1, _30
# p_maputl.c:824: 	xstep = FixedDiv (x2-x1,abs(y2-y1));
	.loc 1 824 10
	movl	%eax, %edx	# _30, tmp207
	negl	%edx	# tmp207
	cmovs	%eax, %edx	# tmp207,, _30, _31
	movl	-92(%rbp), %eax	# x2, tmp174
	subl	-84(%rbp), %eax	# x1, _32
	movl	%edx, %esi	# _31,
	movl	%eax, %edi	# _32,
	call	FixedDiv@PLT	#
	movl	%eax, -72(%rbp)	# tmp175, xstep
	jmp	.L108	#
.L107:
# p_maputl.c:826:     else if (yt2 < yt1)
	.loc 1 826 13
	movl	-20(%rbp), %eax	# yt2, tmp176
	cmpl	-28(%rbp), %eax	# yt1, tmp176
	jge	.L109	#,
# p_maputl.c:828: 	mapystep = -1;
	.loc 1 828 11
	movl	$-1, -40(%rbp)	#, mapystep
# p_maputl.c:829: 	partial = (y1>>MAPBTOFRAC)&(FRACUNIT-1);
	.loc 1 829 15
	movl	-88(%rbp), %eax	# y1, tmp177
	sarl	$7, %eax	#, _33
# p_maputl.c:829: 	partial = (y1>>MAPBTOFRAC)&(FRACUNIT-1);
	.loc 1 829 10
	andl	$65535, %eax	#, tmp178
	movl	%eax, -64(%rbp)	# tmp178, partial
# p_maputl.c:830: 	xstep = FixedDiv (x2-x1,abs(y2-y1));
	.loc 1 830 32
	movl	-96(%rbp), %eax	# y2, tmp179
	subl	-88(%rbp), %eax	# y1, _34
# p_maputl.c:830: 	xstep = FixedDiv (x2-x1,abs(y2-y1));
	.loc 1 830 10
	movl	%eax, %edx	# _34, tmp206
	negl	%edx	# tmp206
	cmovs	%eax, %edx	# tmp206,, _34, _35
	movl	-92(%rbp), %eax	# x2, tmp180
	subl	-84(%rbp), %eax	# x1, _36
	movl	%edx, %esi	# _35,
	movl	%eax, %edi	# _36,
	call	FixedDiv@PLT	#
	movl	%eax, -72(%rbp)	# tmp181, xstep
	jmp	.L108	#
.L109:
# p_maputl.c:834: 	mapystep = 0;
	.loc 1 834 11
	movl	$0, -40(%rbp)	#, mapystep
# p_maputl.c:835: 	partial = FRACUNIT;
	.loc 1 835 10
	movl	$65536, -64(%rbp)	#, partial
# p_maputl.c:836: 	xstep = 256*FRACUNIT;
	.loc 1 836 8
	movl	$16777216, -72(%rbp)	#, xstep
.L108:
# p_maputl.c:838:     xintercept = (x1>>MAPBTOFRAC) + FixedMul (partial, xstep);
	.loc 1 838 21
	movl	-84(%rbp), %eax	# x1, tmp182
	sarl	$7, %eax	#, tmp182
	movl	%eax, %ebx	# tmp182, _37
# p_maputl.c:838:     xintercept = (x1>>MAPBTOFRAC) + FixedMul (partial, xstep);
	.loc 1 838 37
	movl	-72(%rbp), %edx	# xstep, tmp183
	movl	-64(%rbp), %eax	# partial, tmp184
	movl	%edx, %esi	# tmp183,
	movl	%eax, %edi	# tmp184,
	call	FixedMul@PLT	#
# p_maputl.c:838:     xintercept = (x1>>MAPBTOFRAC) + FixedMul (partial, xstep);
	.loc 1 838 16 discriminator 1
	addl	%ebx, %eax	# _37, tmp185
	movl	%eax, -60(%rbp)	# tmp185, xintercept
# p_maputl.c:843:     mapx = xt1;
	.loc 1 843 10
	movl	-32(%rbp), %eax	# xt1, tmp186
	movl	%eax, -52(%rbp)	# tmp186, mapx
# p_maputl.c:844:     mapy = yt1;
	.loc 1 844 10
	movl	-28(%rbp), %eax	# yt1, tmp187
	movl	%eax, -48(%rbp)	# tmp187, mapy
# p_maputl.c:846:     for (count = 0 ; count < 64 ; count++)
	.loc 1 846 16
	movl	$0, -36(%rbp)	#, count
# p_maputl.c:846:     for (count = 0 ; count < 64 ; count++)
	.loc 1 846 5
	jmp	.L110	#
.L118:
# p_maputl.c:848: 	if (flags & PT_ADDLINES)
	.loc 1 848 12
	movl	-100(%rbp), %eax	# flags, tmp188
	andl	$1, %eax	#, _39
# p_maputl.c:848: 	if (flags & PT_ADDLINES)
	.loc 1 848 5
	testl	%eax, %eax	# _39
	je	.L111	#,
# p_maputl.c:850: 	    if (!P_BlockLinesIterator (mapx, mapy,PIT_AddLineIntercepts))
	.loc 1 850 11
	movl	-48(%rbp), %ecx	# mapy, tmp189
	movl	-52(%rbp), %eax	# mapx, tmp190
	leaq	PIT_AddLineIntercepts(%rip), %rdx	#, tmp191
	movl	%ecx, %esi	# tmp189,
	movl	%eax, %edi	# tmp190,
	call	P_BlockLinesIterator	#
# p_maputl.c:850: 	    if (!P_BlockLinesIterator (mapx, mapy,PIT_AddLineIntercepts))
	.loc 1 850 9 discriminator 1
	testl	%eax, %eax	# _40
	jne	.L111	#,
# p_maputl.c:851: 		return false;	// early out
	.loc 1 851 10
	movl	$0, %eax	#, _62
	jmp	.L112	#
.L111:
# p_maputl.c:854: 	if (flags & PT_ADDTHINGS)
	.loc 1 854 12
	movl	-100(%rbp), %eax	# flags, tmp192
	andl	$2, %eax	#, _41
# p_maputl.c:854: 	if (flags & PT_ADDTHINGS)
	.loc 1 854 5
	testl	%eax, %eax	# _41
	je	.L113	#,
# p_maputl.c:856: 	    if (!P_BlockThingsIterator (mapx, mapy,PIT_AddThingIntercepts))
	.loc 1 856 11
	movl	-48(%rbp), %ecx	# mapy, tmp193
	movl	-52(%rbp), %eax	# mapx, tmp194
	leaq	PIT_AddThingIntercepts(%rip), %rdx	#, tmp195
	movl	%ecx, %esi	# tmp193,
	movl	%eax, %edi	# tmp194,
	call	P_BlockThingsIterator	#
# p_maputl.c:856: 	    if (!P_BlockThingsIterator (mapx, mapy,PIT_AddThingIntercepts))
	.loc 1 856 9 discriminator 1
	testl	%eax, %eax	# _42
	jne	.L113	#,
# p_maputl.c:857: 		return false;	// early out
	.loc 1 857 10
	movl	$0, %eax	#, _62
	jmp	.L112	#
.L113:
# p_maputl.c:860: 	if (mapx == xt2
	.loc 1 860 5
	movl	-52(%rbp), %eax	# mapx, tmp196
	cmpl	-24(%rbp), %eax	# xt2, tmp196
	jne	.L114	#,
# p_maputl.c:861: 	    && mapy == yt2)
	.loc 1 861 6
	movl	-48(%rbp), %eax	# mapy, tmp197
	cmpl	-20(%rbp), %eax	# yt2, tmp197
	je	.L119	#,
.L114:
# p_maputl.c:866: 	if ( (yintercept >> FRACBITS) == mapy)
	.loc 1 866 19
	movl	-56(%rbp), %eax	# yintercept, tmp198
	sarl	$16, %eax	#, _43
# p_maputl.c:866: 	if ( (yintercept >> FRACBITS) == mapy)
	.loc 1 866 5
	cmpl	%eax, -48(%rbp)	# _43, mapy
	jne	.L116	#,
# p_maputl.c:868: 	    yintercept += ystep;
	.loc 1 868 17
	movl	-68(%rbp), %eax	# ystep, tmp199
	addl	%eax, -56(%rbp)	# tmp199, yintercept
# p_maputl.c:869: 	    mapx += mapxstep;
	.loc 1 869 11
	movl	-44(%rbp), %eax	# mapxstep, tmp200
	addl	%eax, -52(%rbp)	# tmp200, mapx
	jmp	.L117	#
.L116:
# p_maputl.c:871: 	else if ( (xintercept >> FRACBITS) == mapx)
	.loc 1 871 24
	movl	-60(%rbp), %eax	# xintercept, tmp201
	sarl	$16, %eax	#, _44
# p_maputl.c:871: 	else if ( (xintercept >> FRACBITS) == mapx)
	.loc 1 871 10
	cmpl	%eax, -52(%rbp)	# _44, mapx
	jne	.L117	#,
# p_maputl.c:873: 	    xintercept += xstep;
	.loc 1 873 17
	movl	-72(%rbp), %eax	# xstep, tmp202
	addl	%eax, -60(%rbp)	# tmp202, xintercept
# p_maputl.c:874: 	    mapy += mapystep;
	.loc 1 874 11
	movl	-40(%rbp), %eax	# mapystep, tmp203
	addl	%eax, -48(%rbp)	# tmp203, mapy
.L117:
# p_maputl.c:846:     for (count = 0 ; count < 64 ; count++)
	.loc 1 846 40 discriminator 2
	addl	$1, -36(%rbp)	#, count
.L110:
# p_maputl.c:846:     for (count = 0 ; count < 64 ; count++)
	.loc 1 846 28 discriminator 1
	cmpl	$63, -36(%rbp)	#, count
	jle	.L118	#,
	jmp	.L115	#
.L119:
# p_maputl.c:863: 	    break;
	.loc 1 863 6
	nop	
.L115:
# p_maputl.c:879:     return P_TraverseIntercepts ( trav, FRACUNIT );
	.loc 1 879 12
	movq	-112(%rbp), %rax	# trav, tmp204
	movl	$65536, %esi	#,
	movq	%rax, %rdi	# tmp204,
	call	P_TraverseIntercepts	#
.L112:
# p_maputl.c:880: }
	.loc 1 880 1
	movq	-8(%rbp), %rbx	#,
	leave	
	.cfi_def_cfa 7, 8
	ret	
	.cfi_endproc
.LFE20:
	.size	P_PathTraverse, .-P_PathTraverse
.Letext0:
	.file 2 "m_bbox.h"
	.file 3 "doomdef.h"
	.file 4 "m_fixed.h"
	.file 5 "tables.h"
	.file 6 "d_think.h"
	.file 7 "doomtype.h"
	.file 8 "doomdata.h"
	.file 9 "info.h"
	.file 10 "p_mobj.h"
	.file 11 "r_defs.h"
	.file 12 "d_player.h"
	.file 13 "p_pspr.h"
	.file 14 "d_ticcmd.h"
	.file 15 "r_state.h"
	.file 16 "r_main.h"
	.file 17 "p_local.h"
	.section	.note.GNU-stack,"",@progbits
	.section	.note.gnu.property,"a"
	.align 8
	.long	1f - 0f
	.long	4f - 1f
	.long	5
0:
	.string	"GNU"
1:
	.align 8
	.long	0xc0000002
	.long	3f - 2f
2:
	.long	0x3
3:
	.align 8
4:
