	.file	"p_map.c"
# GNU C17 (Ubuntu 13.3.0-6ubuntu2~24.04) version 13.3.0 (x86_64-linux-gnu)
#	compiled by GNU C version 13.3.0, GMP version 6.3.0, MPFR version 4.2.1, MPC version 1.3.1, isl version isl-0.26-GMP

# GGC heuristics: --param ggc-min-expand=100 --param ggc-min-heapsize=131072
# options passed: -mtune=generic -march=x86-64 -g -fasynchronous-unwind-tables -fstack-protector-strong -fstack-clash-protection -fcf-protection
	.text
.Ltext0:
	.file 0 "/home/astrid/Documents/enseignements/DOOM/linuxdoom-1.10" "p_map.c"
	.section	.rodata
	.align 32
	.type	rcsid, @object
	.size	rcsid, 48
rcsid:
	.string	"$Id: p_map.c,v 1.5 1997/02/03 22:45:11 b1 Exp $"
	.globl	tmbbox
	.bss
	.align 16
	.type	tmbbox, @object
	.size	tmbbox, 16
tmbbox:
	.zero	16
	.globl	tmthing
	.align 8
	.type	tmthing, @object
	.size	tmthing, 8
tmthing:
	.zero	8
	.globl	tmflags
	.align 4
	.type	tmflags, @object
	.size	tmflags, 4
tmflags:
	.zero	4
	.globl	tmx
	.align 4
	.type	tmx, @object
	.size	tmx, 4
tmx:
	.zero	4
	.globl	tmy
	.align 4
	.type	tmy, @object
	.size	tmy, 4
tmy:
	.zero	4
	.globl	floatok
	.align 4
	.type	floatok, @object
	.size	floatok, 4
floatok:
	.zero	4
	.globl	tmfloorz
	.align 4
	.type	tmfloorz, @object
	.size	tmfloorz, 4
tmfloorz:
	.zero	4
	.globl	tmceilingz
	.align 4
	.type	tmceilingz, @object
	.size	tmceilingz, 4
tmceilingz:
	.zero	4
	.globl	tmdropoffz
	.align 4
	.type	tmdropoffz, @object
	.size	tmdropoffz, 4
tmdropoffz:
	.zero	4
	.globl	ceilingline
	.align 8
	.type	ceilingline, @object
	.size	ceilingline, 8
ceilingline:
	.zero	8
	.globl	spechit
	.align 32
	.type	spechit, @object
	.size	spechit, 64
spechit:
	.zero	64
	.globl	numspechit
	.align 4
	.type	numspechit, @object
	.size	numspechit, 4
numspechit:
	.zero	4
	.text
	.globl	PIT_StompThing
	.type	PIT_StompThing, @function
PIT_StompThing:
.LFB6:
	.file 1 "p_map.c"
	.loc 1 82 1
	.cfi_startproc
	endbr64	
	pushq	%rbp	#
	.cfi_def_cfa_offset 16
	.cfi_offset 6, -16
	movq	%rsp, %rbp	#,
	.cfi_def_cfa_register 6
	subq	$32, %rsp	#,
	movq	%rdi, -24(%rbp)	# thing, thing
# p_map.c:85:     if (!(thing->flags & MF_SHOOTABLE) )
	.loc 1 85 16
	movq	-24(%rbp), %rax	# thing, tmp103
	movl	160(%rax), %eax	# thing_23(D)->flags, _1
# p_map.c:85:     if (!(thing->flags & MF_SHOOTABLE) )
	.loc 1 85 24
	andl	$4, %eax	#, _2
# p_map.c:85:     if (!(thing->flags & MF_SHOOTABLE) )
	.loc 1 85 8
	testl	%eax, %eax	# _2
	jne	.L2	#,
# p_map.c:86: 	return true;
	.loc 1 86 9
	movl	$1, %eax	#, _20
	jmp	.L3	#
.L2:
# p_map.c:88:     blockdist = thing->radius + tmthing->radius;
	.loc 1 88 22
	movq	-24(%rbp), %rax	# thing, tmp104
	movl	104(%rax), %edx	# thing_23(D)->radius, _3
# p_map.c:88:     blockdist = thing->radius + tmthing->radius;
	.loc 1 88 40
	movq	tmthing(%rip), %rax	# tmthing, tmthing.0_4
	movl	104(%rax), %eax	# tmthing.0_4->radius, _5
# p_map.c:88:     blockdist = thing->radius + tmthing->radius;
	.loc 1 88 15
	addl	%edx, %eax	# _3, tmp105
	movl	%eax, -4(%rbp)	# tmp105, blockdist
# p_map.c:90:     if ( abs(thing->x - tmx) >= blockdist
	.loc 1 90 19
	movq	-24(%rbp), %rax	# thing, tmp106
	movl	24(%rax), %eax	# thing_23(D)->x, _6
# p_map.c:90:     if ( abs(thing->x - tmx) >= blockdist
	.loc 1 90 10
	movl	tmx(%rip), %edx	# tmx, tmx.1_7
# p_map.c:90:     if ( abs(thing->x - tmx) >= blockdist
	.loc 1 90 23
	subl	%edx, %eax	# tmx.1_7, _8
# p_map.c:90:     if ( abs(thing->x - tmx) >= blockdist
	.loc 1 90 10
	movl	%eax, %edx	# _8, tmp111
	negl	%edx	# tmp111
	cmovns	%edx, %eax	# tmp111,, _9
# p_map.c:90:     if ( abs(thing->x - tmx) >= blockdist
	.loc 1 90 8
	cmpl	%eax, -4(%rbp)	# _9, blockdist
	jle	.L4	#,
# p_map.c:91: 	 || abs(thing->y - tmy) >= blockdist )
	.loc 1 91 15
	movq	-24(%rbp), %rax	# thing, tmp107
	movl	28(%rax), %eax	# thing_23(D)->y, _10
# p_map.c:91: 	 || abs(thing->y - tmy) >= blockdist )
	.loc 1 91 6
	movl	tmy(%rip), %edx	# tmy, tmy.2_11
# p_map.c:91: 	 || abs(thing->y - tmy) >= blockdist )
	.loc 1 91 19
	subl	%edx, %eax	# tmy.2_11, _12
# p_map.c:91: 	 || abs(thing->y - tmy) >= blockdist )
	.loc 1 91 6
	movl	%eax, %edx	# _12, tmp110
	negl	%edx	# tmp110
	cmovns	%edx, %eax	# tmp110,, _13
# p_map.c:91: 	 || abs(thing->y - tmy) >= blockdist )
	.loc 1 91 3
	cmpl	%eax, -4(%rbp)	# _13, blockdist
	jg	.L5	#,
.L4:
# p_map.c:94: 	return true;
	.loc 1 94 9
	movl	$1, %eax	#, _20
	jmp	.L3	#
.L5:
# p_map.c:98:     if (thing == tmthing)
	.loc 1 98 15
	movq	tmthing(%rip), %rax	# tmthing, tmthing.3_14
# p_map.c:98:     if (thing == tmthing)
	.loc 1 98 8
	cmpq	%rax, -24(%rbp)	# tmthing.3_14, thing
	jne	.L6	#,
# p_map.c:99: 	return true;
	.loc 1 99 9
	movl	$1, %eax	#, _20
	jmp	.L3	#
.L6:
# p_map.c:102:     if ( !tmthing->player && gamemap != 30)
	.loc 1 102 18
	movq	tmthing(%rip), %rax	# tmthing, tmthing.4_15
	movq	192(%rax), %rax	# tmthing.4_15->player, _16
# p_map.c:102:     if ( !tmthing->player && gamemap != 30)
	.loc 1 102 8
	testq	%rax, %rax	# _16
	jne	.L7	#,
# p_map.c:102:     if ( !tmthing->player && gamemap != 30)
	.loc 1 102 38 discriminator 1
	movl	gamemap(%rip), %eax	# gamemap, gamemap.5_17
# p_map.c:102:     if ( !tmthing->player && gamemap != 30)
	.loc 1 102 27 discriminator 1
	cmpl	$30, %eax	#, gamemap.5_17
	je	.L7	#,
# p_map.c:103: 	return false;	
	.loc 1 103 9
	movl	$0, %eax	#, _20
	jmp	.L3	#
.L7:
# p_map.c:105:     P_DamageMobj (thing, tmthing, tmthing, 10000);
	.loc 1 105 5
	movq	tmthing(%rip), %rdx	# tmthing, tmthing.6_18
	movq	tmthing(%rip), %rsi	# tmthing, tmthing.7_19
	movq	-24(%rbp), %rax	# thing, tmp108
	movl	$10000, %ecx	#,
	movq	%rax, %rdi	# tmp108,
	call	P_DamageMobj@PLT	#
# p_map.c:107:     return true;
	.loc 1 107 12
	movl	$1, %eax	#, _20
.L3:
# p_map.c:108: }
	.loc 1 108 1
	leave	
	.cfi_def_cfa 7, 8
	ret	
	.cfi_endproc
.LFE6:
	.size	PIT_StompThing, .-PIT_StompThing
	.globl	P_TeleportMove
	.type	P_TeleportMove, @function
P_TeleportMove:
.LFB7:
	.loc 1 119 1
	.cfi_startproc
	endbr64	
	pushq	%rbp	#
	.cfi_def_cfa_offset 16
	.cfi_offset 6, -16
	movq	%rsp, %rbp	#,
	.cfi_def_cfa_register 6
	subq	$48, %rsp	#,
	movq	%rdi, -40(%rbp)	# thing, thing
	movl	%esi, -44(%rbp)	# x, x
	movl	%edx, -48(%rbp)	# y, y
# p_map.c:130:     tmthing = thing;
	.loc 1 130 13
	movq	-40(%rbp), %rax	# thing, tmp123
	movq	%rax, tmthing(%rip)	# tmp123, tmthing
# p_map.c:131:     tmflags = thing->flags;
	.loc 1 131 20
	movq	-40(%rbp), %rax	# thing, tmp124
	movl	160(%rax), %eax	# thing_47(D)->flags, _1
# p_map.c:131:     tmflags = thing->flags;
	.loc 1 131 13
	movl	%eax, tmflags(%rip)	# _1, tmflags
# p_map.c:133:     tmx = x;
	.loc 1 133 9
	movl	-44(%rbp), %eax	# x, tmp125
	movl	%eax, tmx(%rip)	# tmp125, tmx
# p_map.c:134:     tmy = y;
	.loc 1 134 9
	movl	-48(%rbp), %eax	# y, tmp126
	movl	%eax, tmy(%rip)	# tmp126, tmy
# p_map.c:136:     tmbbox[BOXTOP] = y + tmthing->radius;
	.loc 1 136 33
	movq	tmthing(%rip), %rax	# tmthing, tmthing.8_2
	movl	104(%rax), %edx	# tmthing.8_2->radius, _3
# p_map.c:136:     tmbbox[BOXTOP] = y + tmthing->radius;
	.loc 1 136 24
	movl	-48(%rbp), %eax	# y, tmp127
	addl	%edx, %eax	# _3, _4
# p_map.c:136:     tmbbox[BOXTOP] = y + tmthing->radius;
	.loc 1 136 20
	movl	%eax, tmbbox(%rip)	# _4, tmbbox[0]
# p_map.c:137:     tmbbox[BOXBOTTOM] = y - tmthing->radius;
	.loc 1 137 36
	movq	tmthing(%rip), %rax	# tmthing, tmthing.9_5
	movl	104(%rax), %eax	# tmthing.9_5->radius, _6
# p_map.c:137:     tmbbox[BOXBOTTOM] = y - tmthing->radius;
	.loc 1 137 27
	movl	-48(%rbp), %edx	# y, tmp128
	subl	%eax, %edx	# _6, _7
# p_map.c:137:     tmbbox[BOXBOTTOM] = y - tmthing->radius;
	.loc 1 137 23
	movl	%edx, 4+tmbbox(%rip)	# _7, tmbbox[1]
# p_map.c:138:     tmbbox[BOXRIGHT] = x + tmthing->radius;
	.loc 1 138 35
	movq	tmthing(%rip), %rax	# tmthing, tmthing.10_8
	movl	104(%rax), %edx	# tmthing.10_8->radius, _9
# p_map.c:138:     tmbbox[BOXRIGHT] = x + tmthing->radius;
	.loc 1 138 26
	movl	-44(%rbp), %eax	# x, tmp129
	addl	%edx, %eax	# _9, _10
# p_map.c:138:     tmbbox[BOXRIGHT] = x + tmthing->radius;
	.loc 1 138 22
	movl	%eax, 12+tmbbox(%rip)	# _10, tmbbox[3]
# p_map.c:139:     tmbbox[BOXLEFT] = x - tmthing->radius;
	.loc 1 139 34
	movq	tmthing(%rip), %rax	# tmthing, tmthing.11_11
	movl	104(%rax), %eax	# tmthing.11_11->radius, _12
# p_map.c:139:     tmbbox[BOXLEFT] = x - tmthing->radius;
	.loc 1 139 25
	movl	-44(%rbp), %edx	# x, tmp130
	subl	%eax, %edx	# _12, _13
# p_map.c:139:     tmbbox[BOXLEFT] = x - tmthing->radius;
	.loc 1 139 21
	movl	%edx, 8+tmbbox(%rip)	# _13, tmbbox[2]
# p_map.c:141:     newsubsec = R_PointInSubsector (x,y);
	.loc 1 141 17
	movl	-48(%rbp), %edx	# y, tmp131
	movl	-44(%rbp), %eax	# x, tmp132
	movl	%edx, %esi	# tmp131,
	movl	%eax, %edi	# tmp132,
	call	R_PointInSubsector@PLT	#
	movq	%rax, -8(%rbp)	# tmp133, newsubsec
# p_map.c:142:     ceilingline = NULL;
	.loc 1 142 17
	movq	$0, ceilingline(%rip)	#, ceilingline
# p_map.c:148:     tmfloorz = tmdropoffz = newsubsec->sector->floorheight;
	.loc 1 148 38
	movq	-8(%rbp), %rax	# newsubsec, tmp134
	movq	(%rax), %rax	# newsubsec_59->sector, _14
# p_map.c:148:     tmfloorz = tmdropoffz = newsubsec->sector->floorheight;
	.loc 1 148 46
	movl	(%rax), %eax	# _14->floorheight, _15
# p_map.c:148:     tmfloorz = tmdropoffz = newsubsec->sector->floorheight;
	.loc 1 148 27
	movl	%eax, tmdropoffz(%rip)	# _15, tmdropoffz
# p_map.c:148:     tmfloorz = tmdropoffz = newsubsec->sector->floorheight;
	.loc 1 148 14
	movl	tmdropoffz(%rip), %eax	# tmdropoffz, tmdropoffz.12_16
	movl	%eax, tmfloorz(%rip)	# tmdropoffz.12_16, tmfloorz
# p_map.c:149:     tmceilingz = newsubsec->sector->ceilingheight;
	.loc 1 149 27
	movq	-8(%rbp), %rax	# newsubsec, tmp135
	movq	(%rax), %rax	# newsubsec_59->sector, _17
# p_map.c:149:     tmceilingz = newsubsec->sector->ceilingheight;
	.loc 1 149 35
	movl	4(%rax), %eax	# _17->ceilingheight, _18
# p_map.c:149:     tmceilingz = newsubsec->sector->ceilingheight;
	.loc 1 149 16
	movl	%eax, tmceilingz(%rip)	# _18, tmceilingz
# p_map.c:151:     validcount++;
	.loc 1 151 15
	movl	validcount(%rip), %eax	# validcount, validcount.13_19
	addl	$1, %eax	#, _20
	movl	%eax, validcount(%rip)	# _20, validcount
# p_map.c:152:     numspechit = 0;
	.loc 1 152 16
	movl	$0, numspechit(%rip)	#, numspechit
# p_map.c:155:     xl = (tmbbox[BOXLEFT] - bmaporgx - MAXRADIUS)>>MAPBLOCKSHIFT;
	.loc 1 155 17
	movl	8+tmbbox(%rip), %edx	# tmbbox[2], _21
# p_map.c:155:     xl = (tmbbox[BOXLEFT] - bmaporgx - MAXRADIUS)>>MAPBLOCKSHIFT;
	.loc 1 155 27
	movl	bmaporgx(%rip), %eax	# bmaporgx, bmaporgx.14_22
	subl	%eax, %edx	# bmaporgx.14_22, _23
# p_map.c:155:     xl = (tmbbox[BOXLEFT] - bmaporgx - MAXRADIUS)>>MAPBLOCKSHIFT;
	.loc 1 155 38
	leal	-2097152(%rdx), %eax	#, _24
# p_map.c:155:     xl = (tmbbox[BOXLEFT] - bmaporgx - MAXRADIUS)>>MAPBLOCKSHIFT;
	.loc 1 155 8
	sarl	$23, %eax	#, tmp136
	movl	%eax, -24(%rbp)	# tmp136, xl
# p_map.c:156:     xh = (tmbbox[BOXRIGHT] - bmaporgx + MAXRADIUS)>>MAPBLOCKSHIFT;
	.loc 1 156 17
	movl	12+tmbbox(%rip), %edx	# tmbbox[3], _25
# p_map.c:156:     xh = (tmbbox[BOXRIGHT] - bmaporgx + MAXRADIUS)>>MAPBLOCKSHIFT;
	.loc 1 156 28
	movl	bmaporgx(%rip), %eax	# bmaporgx, bmaporgx.15_26
	subl	%eax, %edx	# bmaporgx.15_26, _27
# p_map.c:156:     xh = (tmbbox[BOXRIGHT] - bmaporgx + MAXRADIUS)>>MAPBLOCKSHIFT;
	.loc 1 156 39
	leal	2097152(%rdx), %eax	#, _28
# p_map.c:156:     xh = (tmbbox[BOXRIGHT] - bmaporgx + MAXRADIUS)>>MAPBLOCKSHIFT;
	.loc 1 156 8
	sarl	$23, %eax	#, tmp137
	movl	%eax, -20(%rbp)	# tmp137, xh
# p_map.c:157:     yl = (tmbbox[BOXBOTTOM] - bmaporgy - MAXRADIUS)>>MAPBLOCKSHIFT;
	.loc 1 157 17
	movl	4+tmbbox(%rip), %edx	# tmbbox[1], _29
# p_map.c:157:     yl = (tmbbox[BOXBOTTOM] - bmaporgy - MAXRADIUS)>>MAPBLOCKSHIFT;
	.loc 1 157 29
	movl	bmaporgy(%rip), %eax	# bmaporgy, bmaporgy.16_30
	subl	%eax, %edx	# bmaporgy.16_30, _31
# p_map.c:157:     yl = (tmbbox[BOXBOTTOM] - bmaporgy - MAXRADIUS)>>MAPBLOCKSHIFT;
	.loc 1 157 40
	leal	-2097152(%rdx), %eax	#, _32
# p_map.c:157:     yl = (tmbbox[BOXBOTTOM] - bmaporgy - MAXRADIUS)>>MAPBLOCKSHIFT;
	.loc 1 157 8
	sarl	$23, %eax	#, tmp138
	movl	%eax, -16(%rbp)	# tmp138, yl
# p_map.c:158:     yh = (tmbbox[BOXTOP] - bmaporgy + MAXRADIUS)>>MAPBLOCKSHIFT;
	.loc 1 158 17
	movl	tmbbox(%rip), %edx	# tmbbox[0], _33
# p_map.c:158:     yh = (tmbbox[BOXTOP] - bmaporgy + MAXRADIUS)>>MAPBLOCKSHIFT;
	.loc 1 158 26
	movl	bmaporgy(%rip), %eax	# bmaporgy, bmaporgy.17_34
	subl	%eax, %edx	# bmaporgy.17_34, _35
# p_map.c:158:     yh = (tmbbox[BOXTOP] - bmaporgy + MAXRADIUS)>>MAPBLOCKSHIFT;
	.loc 1 158 37
	leal	2097152(%rdx), %eax	#, _36
# p_map.c:158:     yh = (tmbbox[BOXTOP] - bmaporgy + MAXRADIUS)>>MAPBLOCKSHIFT;
	.loc 1 158 8
	sarl	$23, %eax	#, tmp139
	movl	%eax, -12(%rbp)	# tmp139, yh
# p_map.c:160:     for (bx=xl ; bx<=xh ; bx++)
	.loc 1 160 12
	movl	-24(%rbp), %eax	# xl, tmp140
	movl	%eax, -32(%rbp)	# tmp140, bx
# p_map.c:160:     for (bx=xl ; bx<=xh ; bx++)
	.loc 1 160 5
	jmp	.L9	#
.L14:
# p_map.c:161: 	for (by=yl ; by<=yh ; by++)
	.loc 1 161 9
	movl	-16(%rbp), %eax	# yl, tmp141
	movl	%eax, -28(%rbp)	# tmp141, by
# p_map.c:161: 	for (by=yl ; by<=yh ; by++)
	.loc 1 161 2
	jmp	.L10	#
.L13:
# p_map.c:162: 	    if (!P_BlockThingsIterator(bx,by,PIT_StompThing))
	.loc 1 162 11
	movl	-28(%rbp), %ecx	# by, tmp142
	movl	-32(%rbp), %eax	# bx, tmp143
	leaq	PIT_StompThing(%rip), %rdx	#, tmp144
	movl	%ecx, %esi	# tmp142,
	movl	%eax, %edi	# tmp143,
	call	P_BlockThingsIterator@PLT	#
# p_map.c:162: 	    if (!P_BlockThingsIterator(bx,by,PIT_StompThing))
	.loc 1 162 9 discriminator 1
	testl	%eax, %eax	# _37
	jne	.L11	#,
# p_map.c:163: 		return false;
	.loc 1 163 10
	movl	$0, %eax	#, _42
	jmp	.L12	#
.L11:
# p_map.c:161: 	for (by=yl ; by<=yh ; by++)
	.loc 1 161 26 discriminator 2
	addl	$1, -28(%rbp)	#, by
.L10:
# p_map.c:161: 	for (by=yl ; by<=yh ; by++)
	.loc 1 161 17 discriminator 1
	movl	-28(%rbp), %eax	# by, tmp145
	cmpl	-12(%rbp), %eax	# yh, tmp145
	jle	.L13	#,
# p_map.c:160:     for (bx=xl ; bx<=xh ; bx++)
	.loc 1 160 29 discriminator 2
	addl	$1, -32(%rbp)	#, bx
.L9:
# p_map.c:160:     for (bx=xl ; bx<=xh ; bx++)
	.loc 1 160 20 discriminator 1
	movl	-32(%rbp), %eax	# bx, tmp146
	cmpl	-20(%rbp), %eax	# xh, tmp146
	jle	.L14	#,
# p_map.c:167:     P_UnsetThingPosition (thing);
	.loc 1 167 5
	movq	-40(%rbp), %rax	# thing, tmp147
	movq	%rax, %rdi	# tmp147,
	call	P_UnsetThingPosition@PLT	#
# p_map.c:169:     thing->floorz = tmfloorz;
	.loc 1 169 19
	movl	tmfloorz(%rip), %edx	# tmfloorz, tmfloorz.18_38
	movq	-40(%rbp), %rax	# thing, tmp148
	movl	%edx, 96(%rax)	# tmfloorz.18_38, thing_47(D)->floorz
# p_map.c:170:     thing->ceilingz = tmceilingz;	
	.loc 1 170 21
	movl	tmceilingz(%rip), %edx	# tmceilingz, tmceilingz.19_39
	movq	-40(%rbp), %rax	# thing, tmp149
	movl	%edx, 100(%rax)	# tmceilingz.19_39, thing_47(D)->ceilingz
# p_map.c:171:     thing->x = x;
	.loc 1 171 14
	movq	-40(%rbp), %rax	# thing, tmp150
	movl	-44(%rbp), %edx	# x, tmp151
	movl	%edx, 24(%rax)	# tmp151, thing_47(D)->x
# p_map.c:172:     thing->y = y;
	.loc 1 172 14
	movq	-40(%rbp), %rax	# thing, tmp152
	movl	-48(%rbp), %edx	# y, tmp153
	movl	%edx, 28(%rax)	# tmp153, thing_47(D)->y
# p_map.c:174:     P_SetThingPosition (thing);
	.loc 1 174 5
	movq	-40(%rbp), %rax	# thing, tmp154
	movq	%rax, %rdi	# tmp154,
	call	P_SetThingPosition@PLT	#
# p_map.c:176:     return true;
	.loc 1 176 12
	movl	$1, %eax	#, _42
.L12:
# p_map.c:177: }
	.loc 1 177 1
	leave	
	.cfi_def_cfa 7, 8
	ret	
	.cfi_endproc
.LFE7:
	.size	P_TeleportMove, .-P_TeleportMove
	.globl	PIT_CheckLine
	.type	PIT_CheckLine, @function
PIT_CheckLine:
.LFB8:
	.loc 1 190 1
	.cfi_startproc
	endbr64	
	pushq	%rbp	#
	.cfi_def_cfa_offset 16
	.cfi_offset 6, -16
	movq	%rsp, %rbp	#,
	.cfi_def_cfa_register 6
	subq	$16, %rsp	#,
	movq	%rdi, -8(%rbp)	# ld, ld
# p_map.c:191:     if (tmbbox[BOXRIGHT] <= ld->bbox[BOXLEFT]
	.loc 1 191 15
	movl	12+tmbbox(%rip), %edx	# tmbbox[3], _1
# p_map.c:191:     if (tmbbox[BOXRIGHT] <= ld->bbox[BOXLEFT]
	.loc 1 191 37
	movq	-8(%rbp), %rax	# ld, tmp118
	movl	44(%rax), %eax	# ld_42(D)->bbox[2], _2
# p_map.c:191:     if (tmbbox[BOXRIGHT] <= ld->bbox[BOXLEFT]
	.loc 1 191 8
	cmpl	%eax, %edx	# _2, _1
	jle	.L16	#,
# p_map.c:192: 	|| tmbbox[BOXLEFT] >= ld->bbox[BOXRIGHT]
	.loc 1 192 11
	movl	8+tmbbox(%rip), %edx	# tmbbox[2], _3
# p_map.c:192: 	|| tmbbox[BOXLEFT] >= ld->bbox[BOXRIGHT]
	.loc 1 192 32
	movq	-8(%rbp), %rax	# ld, tmp119
	movl	48(%rax), %eax	# ld_42(D)->bbox[3], _4
# p_map.c:192: 	|| tmbbox[BOXLEFT] >= ld->bbox[BOXRIGHT]
	.loc 1 192 2
	cmpl	%eax, %edx	# _4, _3
	jge	.L16	#,
# p_map.c:193: 	|| tmbbox[BOXTOP] <= ld->bbox[BOXBOTTOM]
	.loc 1 193 11
	movl	tmbbox(%rip), %edx	# tmbbox[0], _5
# p_map.c:193: 	|| tmbbox[BOXTOP] <= ld->bbox[BOXBOTTOM]
	.loc 1 193 31
	movq	-8(%rbp), %rax	# ld, tmp120
	movl	40(%rax), %eax	# ld_42(D)->bbox[1], _6
# p_map.c:193: 	|| tmbbox[BOXTOP] <= ld->bbox[BOXBOTTOM]
	.loc 1 193 2
	cmpl	%eax, %edx	# _6, _5
	jle	.L16	#,
# p_map.c:194: 	|| tmbbox[BOXBOTTOM] >= ld->bbox[BOXTOP] )
	.loc 1 194 11
	movl	4+tmbbox(%rip), %edx	# tmbbox[1], _7
# p_map.c:194: 	|| tmbbox[BOXBOTTOM] >= ld->bbox[BOXTOP] )
	.loc 1 194 34
	movq	-8(%rbp), %rax	# ld, tmp121
	movl	36(%rax), %eax	# ld_42(D)->bbox[0], _8
# p_map.c:194: 	|| tmbbox[BOXBOTTOM] >= ld->bbox[BOXTOP] )
	.loc 1 194 2
	cmpl	%eax, %edx	# _8, _7
	jl	.L17	#,
.L16:
# p_map.c:195: 	return true;
	.loc 1 195 9
	movl	$1, %eax	#, _35
	jmp	.L18	#
.L17:
# p_map.c:197:     if (P_BoxOnLineSide (tmbbox, ld) != -1)
	.loc 1 197 9
	movq	-8(%rbp), %rax	# ld, tmp122
	movq	%rax, %rsi	# tmp122,
	leaq	tmbbox(%rip), %rax	#, tmp123
	movq	%rax, %rdi	# tmp123,
	call	P_BoxOnLineSide@PLT	#
# p_map.c:197:     if (P_BoxOnLineSide (tmbbox, ld) != -1)
	.loc 1 197 8 discriminator 1
	cmpl	$-1, %eax	#, _9
	je	.L19	#,
# p_map.c:198: 	return true;
	.loc 1 198 9
	movl	$1, %eax	#, _35
	jmp	.L18	#
.L19:
# p_map.c:211:     if (!ld->backsector)
	.loc 1 211 12
	movq	-8(%rbp), %rax	# ld, tmp124
	movq	64(%rax), %rax	# ld_42(D)->backsector, _10
# p_map.c:211:     if (!ld->backsector)
	.loc 1 211 8
	testq	%rax, %rax	# _10
	jne	.L20	#,
# p_map.c:212: 	return false;		// one sided line
	.loc 1 212 9
	movl	$0, %eax	#, _35
	jmp	.L18	#
.L20:
# p_map.c:214:     if (!(tmthing->flags & MF_MISSILE) )
	.loc 1 214 18
	movq	tmthing(%rip), %rax	# tmthing, tmthing.20_11
	movl	160(%rax), %eax	# tmthing.20_11->flags, _12
# p_map.c:214:     if (!(tmthing->flags & MF_MISSILE) )
	.loc 1 214 26
	andl	$65536, %eax	#, _13
# p_map.c:214:     if (!(tmthing->flags & MF_MISSILE) )
	.loc 1 214 8
	testl	%eax, %eax	# _13
	jne	.L21	#,
# p_map.c:216: 	if ( ld->flags & ML_BLOCKING )
	.loc 1 216 9
	movq	-8(%rbp), %rax	# ld, tmp125
	movzwl	24(%rax), %eax	# ld_42(D)->flags, _14
# p_map.c:216: 	if ( ld->flags & ML_BLOCKING )
	.loc 1 216 17
	cwtl
	andl	$1, %eax	#, _16
# p_map.c:216: 	if ( ld->flags & ML_BLOCKING )
	.loc 1 216 5
	testl	%eax, %eax	# _16
	je	.L22	#,
# p_map.c:217: 	    return false;	// explicitly blocking everything
	.loc 1 217 13
	movl	$0, %eax	#, _35
	jmp	.L18	#
.L22:
# p_map.c:219: 	if ( !tmthing->player && ld->flags & ML_BLOCKMONSTERS )
	.loc 1 219 15
	movq	tmthing(%rip), %rax	# tmthing, tmthing.21_17
	movq	192(%rax), %rax	# tmthing.21_17->player, _18
# p_map.c:219: 	if ( !tmthing->player && ld->flags & ML_BLOCKMONSTERS )
	.loc 1 219 5
	testq	%rax, %rax	# _18
	jne	.L21	#,
# p_map.c:219: 	if ( !tmthing->player && ld->flags & ML_BLOCKMONSTERS )
	.loc 1 219 29 discriminator 1
	movq	-8(%rbp), %rax	# ld, tmp126
	movzwl	24(%rax), %eax	# ld_42(D)->flags, _19
# p_map.c:219: 	if ( !tmthing->player && ld->flags & ML_BLOCKMONSTERS )
	.loc 1 219 37 discriminator 1
	cwtl
	andl	$2, %eax	#, _21
# p_map.c:219: 	if ( !tmthing->player && ld->flags & ML_BLOCKMONSTERS )
	.loc 1 219 24 discriminator 1
	testl	%eax, %eax	# _21
	je	.L21	#,
# p_map.c:220: 	    return false;	// block monsters only
	.loc 1 220 13
	movl	$0, %eax	#, _35
	jmp	.L18	#
.L21:
# p_map.c:224:     P_LineOpening (ld);	
	.loc 1 224 5
	movq	-8(%rbp), %rax	# ld, tmp127
	movq	%rax, %rdi	# tmp127,
	call	P_LineOpening@PLT	#
# p_map.c:227:     if (opentop < tmceilingz)
	.loc 1 227 17
	movl	opentop(%rip), %edx	# opentop, opentop.22_22
	movl	tmceilingz(%rip), %eax	# tmceilingz, tmceilingz.23_23
# p_map.c:227:     if (opentop < tmceilingz)
	.loc 1 227 8
	cmpl	%eax, %edx	# tmceilingz.23_23, opentop.22_22
	jge	.L23	#,
# p_map.c:229: 	tmceilingz = opentop;
	.loc 1 229 13
	movl	opentop(%rip), %eax	# opentop, opentop.24_24
	movl	%eax, tmceilingz(%rip)	# opentop.24_24, tmceilingz
# p_map.c:230: 	ceilingline = ld;
	.loc 1 230 14
	movq	-8(%rbp), %rax	# ld, tmp128
	movq	%rax, ceilingline(%rip)	# tmp128, ceilingline
.L23:
# p_map.c:233:     if (openbottom > tmfloorz)
	.loc 1 233 20
	movl	openbottom(%rip), %edx	# openbottom, openbottom.25_25
	movl	tmfloorz(%rip), %eax	# tmfloorz, tmfloorz.26_26
# p_map.c:233:     if (openbottom > tmfloorz)
	.loc 1 233 8
	cmpl	%eax, %edx	# tmfloorz.26_26, openbottom.25_25
	jle	.L24	#,
# p_map.c:234: 	tmfloorz = openbottom;	
	.loc 1 234 11
	movl	openbottom(%rip), %eax	# openbottom, openbottom.27_27
	movl	%eax, tmfloorz(%rip)	# openbottom.27_27, tmfloorz
.L24:
# p_map.c:236:     if (lowfloor < tmdropoffz)
	.loc 1 236 18
	movl	lowfloor(%rip), %edx	# lowfloor, lowfloor.28_28
	movl	tmdropoffz(%rip), %eax	# tmdropoffz, tmdropoffz.29_29
# p_map.c:236:     if (lowfloor < tmdropoffz)
	.loc 1 236 8
	cmpl	%eax, %edx	# tmdropoffz.29_29, lowfloor.28_28
	jge	.L25	#,
# p_map.c:237: 	tmdropoffz = lowfloor;
	.loc 1 237 13
	movl	lowfloor(%rip), %eax	# lowfloor, lowfloor.30_30
	movl	%eax, tmdropoffz(%rip)	# lowfloor.30_30, tmdropoffz
.L25:
# p_map.c:240:     if (ld->special)
	.loc 1 240 11
	movq	-8(%rbp), %rax	# ld, tmp129
	movzwl	26(%rax), %eax	# ld_42(D)->special, _31
# p_map.c:240:     if (ld->special)
	.loc 1 240 8
	testw	%ax, %ax	# _31
	je	.L26	#,
# p_map.c:242: 	spechit[numspechit] = ld;
	.loc 1 242 9
	movl	numspechit(%rip), %eax	# numspechit, numspechit.31_32
# p_map.c:242: 	spechit[numspechit] = ld;
	.loc 1 242 22
	cltq
	leaq	0(,%rax,8), %rcx	#, tmp131
	leaq	spechit(%rip), %rdx	#, tmp132
	movq	-8(%rbp), %rax	# ld, tmp133
	movq	%rax, (%rcx,%rdx)	# tmp133, spechit[numspechit.31_32]
# p_map.c:243: 	numspechit++;
	.loc 1 243 12
	movl	numspechit(%rip), %eax	# numspechit, numspechit.32_33
	addl	$1, %eax	#, _34
	movl	%eax, numspechit(%rip)	# _34, numspechit
.L26:
# p_map.c:246:     return true;
	.loc 1 246 12
	movl	$1, %eax	#, _35
.L18:
# p_map.c:247: }
	.loc 1 247 1
	leave	
	.cfi_def_cfa 7, 8
	ret	
	.cfi_endproc
.LFE8:
	.size	PIT_CheckLine, .-PIT_CheckLine
	.globl	PIT_CheckThing
	.type	PIT_CheckThing, @function
PIT_CheckThing:
.LFB9:
	.loc 1 253 1
	.cfi_startproc
	endbr64	
	pushq	%rbp	#
	.cfi_def_cfa_offset 16
	.cfi_offset 6, -16
	movq	%rsp, %rbp	#,
	.cfi_def_cfa_register 6
	subq	$32, %rsp	#,
	movq	%rdi, -24(%rbp)	# thing, thing
# p_map.c:258:     if (!(thing->flags & (MF_SOLID|MF_SPECIAL|MF_SHOOTABLE) ))
	.loc 1 258 16
	movq	-24(%rbp), %rax	# thing, tmp179
	movl	160(%rax), %eax	# thing_100(D)->flags, _1
# p_map.c:258:     if (!(thing->flags & (MF_SOLID|MF_SPECIAL|MF_SHOOTABLE) ))
	.loc 1 258 24
	andl	$7, %eax	#, _2
# p_map.c:258:     if (!(thing->flags & (MF_SOLID|MF_SPECIAL|MF_SHOOTABLE) ))
	.loc 1 258 8
	testl	%eax, %eax	# _2
	jne	.L28	#,
# p_map.c:259: 	return true;
	.loc 1 259 9
	movl	$1, %eax	#, _96
	jmp	.L29	#
.L28:
# p_map.c:261:     blockdist = thing->radius + tmthing->radius;
	.loc 1 261 22
	movq	-24(%rbp), %rax	# thing, tmp180
	movl	104(%rax), %edx	# thing_100(D)->radius, _3
# p_map.c:261:     blockdist = thing->radius + tmthing->radius;
	.loc 1 261 40
	movq	tmthing(%rip), %rax	# tmthing, tmthing.33_4
	movl	104(%rax), %eax	# tmthing.33_4->radius, _5
# p_map.c:261:     blockdist = thing->radius + tmthing->radius;
	.loc 1 261 15
	addl	%edx, %eax	# _3, tmp181
	movl	%eax, -12(%rbp)	# tmp181, blockdist
# p_map.c:263:     if ( abs(thing->x - tmx) >= blockdist
	.loc 1 263 19
	movq	-24(%rbp), %rax	# thing, tmp182
	movl	24(%rax), %eax	# thing_100(D)->x, _6
# p_map.c:263:     if ( abs(thing->x - tmx) >= blockdist
	.loc 1 263 10
	movl	tmx(%rip), %edx	# tmx, tmx.34_7
# p_map.c:263:     if ( abs(thing->x - tmx) >= blockdist
	.loc 1 263 23
	subl	%edx, %eax	# tmx.34_7, _8
# p_map.c:263:     if ( abs(thing->x - tmx) >= blockdist
	.loc 1 263 10
	movl	%eax, %edx	# _8, tmp215
	negl	%edx	# tmp215
	cmovns	%edx, %eax	# tmp215,, _9
# p_map.c:263:     if ( abs(thing->x - tmx) >= blockdist
	.loc 1 263 8
	cmpl	%eax, -12(%rbp)	# _9, blockdist
	jle	.L30	#,
# p_map.c:264: 	 || abs(thing->y - tmy) >= blockdist )
	.loc 1 264 15
	movq	-24(%rbp), %rax	# thing, tmp183
	movl	28(%rax), %eax	# thing_100(D)->y, _10
# p_map.c:264: 	 || abs(thing->y - tmy) >= blockdist )
	.loc 1 264 6
	movl	tmy(%rip), %edx	# tmy, tmy.35_11
# p_map.c:264: 	 || abs(thing->y - tmy) >= blockdist )
	.loc 1 264 19
	subl	%edx, %eax	# tmy.35_11, _12
# p_map.c:264: 	 || abs(thing->y - tmy) >= blockdist )
	.loc 1 264 6
	movl	%eax, %edx	# _12, tmp214
	negl	%edx	# tmp214
	cmovns	%edx, %eax	# tmp214,, _13
# p_map.c:264: 	 || abs(thing->y - tmy) >= blockdist )
	.loc 1 264 3
	cmpl	%eax, -12(%rbp)	# _13, blockdist
	jg	.L31	#,
.L30:
# p_map.c:267: 	return true;	
	.loc 1 267 9
	movl	$1, %eax	#, _96
	jmp	.L29	#
.L31:
# p_map.c:271:     if (thing == tmthing)
	.loc 1 271 15
	movq	tmthing(%rip), %rax	# tmthing, tmthing.36_14
# p_map.c:271:     if (thing == tmthing)
	.loc 1 271 8
	cmpq	%rax, -24(%rbp)	# tmthing.36_14, thing
	jne	.L32	#,
# p_map.c:272: 	return true;
	.loc 1 272 9
	movl	$1, %eax	#, _96
	jmp	.L29	#
.L32:
# p_map.c:275:     if (tmthing->flags & MF_SKULLFLY)
	.loc 1 275 16
	movq	tmthing(%rip), %rax	# tmthing, tmthing.37_15
	movl	160(%rax), %eax	# tmthing.37_15->flags, _16
# p_map.c:275:     if (tmthing->flags & MF_SKULLFLY)
	.loc 1 275 24
	andl	$16777216, %eax	#, _17
# p_map.c:275:     if (tmthing->flags & MF_SKULLFLY)
	.loc 1 275 8
	testl	%eax, %eax	# _17
	je	.L33	#,
# p_map.c:277: 	damage = ((P_Random()%8)+1)*tmthing->info->damage;
	.loc 1 277 13
	call	P_Random@PLT	#
	movl	%eax, %edx	#, _18
# p_map.c:277: 	damage = ((P_Random()%8)+1)*tmthing->info->damage;
	.loc 1 277 23 discriminator 1
	movl	%edx, %eax	# _18, tmp184
	sarl	$31, %eax	#, tmp184
	shrl	$29, %eax	#, tmp185
	addl	%eax, %edx	# tmp185, tmp186
	andl	$7, %edx	#, tmp187
	subl	%eax, %edx	# tmp185, tmp188
	movl	%edx, %eax	# tmp188, _19
# p_map.c:277: 	damage = ((P_Random()%8)+1)*tmthing->info->damage;
	.loc 1 277 26 discriminator 1
	leal	1(%rax), %edx	#, _20
# p_map.c:277: 	damage = ((P_Random()%8)+1)*tmthing->info->damage;
	.loc 1 277 37 discriminator 1
	movq	tmthing(%rip), %rax	# tmthing, tmthing.38_21
	movq	136(%rax), %rax	# tmthing.38_21->info, _22
# p_map.c:277: 	damage = ((P_Random()%8)+1)*tmthing->info->damage;
	.loc 1 277 43 discriminator 1
	movl	76(%rax), %eax	# _22->damage, _23
# p_map.c:277: 	damage = ((P_Random()%8)+1)*tmthing->info->damage;
	.loc 1 277 9 discriminator 1
	imull	%edx, %eax	# _20, tmp189
	movl	%eax, -4(%rbp)	# tmp189, damage
# p_map.c:279: 	P_DamageMobj (thing, tmthing, tmthing, damage);
	.loc 1 279 2
	movq	tmthing(%rip), %rdx	# tmthing, tmthing.39_24
	movq	tmthing(%rip), %rsi	# tmthing, tmthing.40_25
	movl	-4(%rbp), %ecx	# damage, tmp190
	movq	-24(%rbp), %rax	# thing, tmp191
	movq	%rax, %rdi	# tmp191,
	call	P_DamageMobj@PLT	#
# p_map.c:281: 	tmthing->flags &= ~MF_SKULLFLY;
	.loc 1 281 9
	movq	tmthing(%rip), %rax	# tmthing, tmthing.41_26
	movl	160(%rax), %edx	# tmthing.41_26->flags, _27
	movq	tmthing(%rip), %rax	# tmthing, tmthing.42_28
# p_map.c:281: 	tmthing->flags &= ~MF_SKULLFLY;
	.loc 1 281 17
	andl	$-16777217, %edx	#, _29
	movl	%edx, 160(%rax)	# _29, tmthing.42_28->flags
# p_map.c:282: 	tmthing->momx = tmthing->momy = tmthing->momz = 0;
	.loc 1 282 41
	movq	tmthing(%rip), %rdx	# tmthing, tmthing.43_30
# p_map.c:282: 	tmthing->momx = tmthing->momy = tmthing->momz = 0;
	.loc 1 282 48
	movl	$0, 120(%rdx)	#, tmthing.43_30->momz
# p_map.c:282: 	tmthing->momx = tmthing->momy = tmthing->momz = 0;
	.loc 1 282 25
	movq	tmthing(%rip), %rax	# tmthing, tmthing.44_31
# p_map.c:282: 	tmthing->momx = tmthing->momy = tmthing->momz = 0;
	.loc 1 282 41
	movl	120(%rdx), %edx	# tmthing.43_30->momz, _32
# p_map.c:282: 	tmthing->momx = tmthing->momy = tmthing->momz = 0;
	.loc 1 282 32
	movl	%edx, 116(%rax)	# _32, tmthing.44_31->momy
# p_map.c:282: 	tmthing->momx = tmthing->momy = tmthing->momz = 0;
	.loc 1 282 9
	movq	tmthing(%rip), %rdx	# tmthing, tmthing.45_33
# p_map.c:282: 	tmthing->momx = tmthing->momy = tmthing->momz = 0;
	.loc 1 282 25
	movl	116(%rax), %eax	# tmthing.44_31->momy, _34
# p_map.c:282: 	tmthing->momx = tmthing->momy = tmthing->momz = 0;
	.loc 1 282 16
	movl	%eax, 112(%rdx)	# _34, tmthing.45_33->momx
# p_map.c:284: 	P_SetMobjState (tmthing, tmthing->info->spawnstate);
	.loc 1 284 34
	movq	tmthing(%rip), %rax	# tmthing, tmthing.46_35
	movq	136(%rax), %rax	# tmthing.46_35->info, _36
# p_map.c:284: 	P_SetMobjState (tmthing, tmthing->info->spawnstate);
	.loc 1 284 40
	movl	4(%rax), %eax	# _36->spawnstate, _37
# p_map.c:284: 	P_SetMobjState (tmthing, tmthing->info->spawnstate);
	.loc 1 284 2
	movl	%eax, %edx	# _37, _38
	movq	tmthing(%rip), %rax	# tmthing, tmthing.47_39
	movl	%edx, %esi	# _38,
	movq	%rax, %rdi	# tmthing.47_39,
	call	P_SetMobjState@PLT	#
# p_map.c:286: 	return false;		// stop moving
	.loc 1 286 9
	movl	$0, %eax	#, _96
	jmp	.L29	#
.L33:
# p_map.c:291:     if (tmthing->flags & MF_MISSILE)
	.loc 1 291 16
	movq	tmthing(%rip), %rax	# tmthing, tmthing.48_40
	movl	160(%rax), %eax	# tmthing.48_40->flags, _41
# p_map.c:291:     if (tmthing->flags & MF_MISSILE)
	.loc 1 291 24
	andl	$65536, %eax	#, _42
# p_map.c:291:     if (tmthing->flags & MF_MISSILE)
	.loc 1 291 8
	testl	%eax, %eax	# _42
	je	.L34	#,
# p_map.c:294: 	if (tmthing->z > thing->z + thing->height)
	.loc 1 294 13
	movq	tmthing(%rip), %rax	# tmthing, tmthing.49_43
	movl	32(%rax), %edx	# tmthing.49_43->z, _44
# p_map.c:294: 	if (tmthing->z > thing->z + thing->height)
	.loc 1 294 24
	movq	-24(%rbp), %rax	# thing, tmp192
	movl	32(%rax), %ecx	# thing_100(D)->z, _45
# p_map.c:294: 	if (tmthing->z > thing->z + thing->height)
	.loc 1 294 35
	movq	-24(%rbp), %rax	# thing, tmp193
	movl	108(%rax), %eax	# thing_100(D)->height, _46
# p_map.c:294: 	if (tmthing->z > thing->z + thing->height)
	.loc 1 294 28
	addl	%ecx, %eax	# _45, _47
# p_map.c:294: 	if (tmthing->z > thing->z + thing->height)
	.loc 1 294 5
	cmpl	%eax, %edx	# _47, _44
	jle	.L35	#,
# p_map.c:295: 	    return true;		// overhead
	.loc 1 295 13
	movl	$1, %eax	#, _96
	jmp	.L29	#
.L35:
# p_map.c:296: 	if (tmthing->z+tmthing->height < thing->z)
	.loc 1 296 13
	movq	tmthing(%rip), %rax	# tmthing, tmthing.50_48
	movl	32(%rax), %edx	# tmthing.50_48->z, _49
# p_map.c:296: 	if (tmthing->z+tmthing->height < thing->z)
	.loc 1 296 24
	movq	tmthing(%rip), %rax	# tmthing, tmthing.51_50
	movl	108(%rax), %eax	# tmthing.51_50->height, _51
# p_map.c:296: 	if (tmthing->z+tmthing->height < thing->z)
	.loc 1 296 16
	addl	%eax, %edx	# _51, _52
# p_map.c:296: 	if (tmthing->z+tmthing->height < thing->z)
	.loc 1 296 40
	movq	-24(%rbp), %rax	# thing, tmp194
	movl	32(%rax), %eax	# thing_100(D)->z, _53
# p_map.c:296: 	if (tmthing->z+tmthing->height < thing->z)
	.loc 1 296 5
	cmpl	%eax, %edx	# _53, _52
	jge	.L36	#,
# p_map.c:297: 	    return true;		// underneath
	.loc 1 297 13
	movl	$1, %eax	#, _96
	jmp	.L29	#
.L36:
# p_map.c:299: 	if (tmthing->target && (
	.loc 1 299 13
	movq	tmthing(%rip), %rax	# tmthing, tmthing.52_54
	movq	176(%rax), %rax	# tmthing.52_54->target, _55
# p_map.c:299: 	if (tmthing->target && (
	.loc 1 299 5
	testq	%rax, %rax	# _55
	je	.L37	#,
# p_map.c:300: 	    tmthing->target->type == thing->type || 
	.loc 1 300 13
	movq	tmthing(%rip), %rax	# tmthing, tmthing.53_56
	movq	176(%rax), %rax	# tmthing.53_56->target, _57
# p_map.c:300: 	    tmthing->target->type == thing->type || 
	.loc 1 300 21
	movl	128(%rax), %edx	# _57->type, _58
# p_map.c:300: 	    tmthing->target->type == thing->type || 
	.loc 1 300 36
	movq	-24(%rbp), %rax	# thing, tmp195
	movl	128(%rax), %eax	# thing_100(D)->type, _59
# p_map.c:299: 	if (tmthing->target && (
	.loc 1 299 22 discriminator 1
	cmpl	%eax, %edx	# _59, _58
	je	.L38	#,
# p_map.c:301: 	    (tmthing->target->type == MT_KNIGHT && thing->type == MT_BRUISER)||
	.loc 1 301 14
	movq	tmthing(%rip), %rax	# tmthing, tmthing.54_60
	movq	176(%rax), %rax	# tmthing.54_60->target, _61
# p_map.c:301: 	    (tmthing->target->type == MT_KNIGHT && thing->type == MT_BRUISER)||
	.loc 1 301 22
	movl	128(%rax), %eax	# _61->type, _62
# p_map.c:300: 	    tmthing->target->type == thing->type || 
	.loc 1 300 43
	cmpl	$17, %eax	#, _62
	jne	.L39	#,
# p_map.c:301: 	    (tmthing->target->type == MT_KNIGHT && thing->type == MT_BRUISER)||
	.loc 1 301 50
	movq	-24(%rbp), %rax	# thing, tmp196
	movl	128(%rax), %eax	# thing_100(D)->type, _63
# p_map.c:301: 	    (tmthing->target->type == MT_KNIGHT && thing->type == MT_BRUISER)||
	.loc 1 301 42
	cmpl	$15, %eax	#, _63
	je	.L38	#,
.L39:
# p_map.c:302: 	    (tmthing->target->type == MT_BRUISER && thing->type == MT_KNIGHT) ) )
	.loc 1 302 14
	movq	tmthing(%rip), %rax	# tmthing, tmthing.55_64
	movq	176(%rax), %rax	# tmthing.55_64->target, _65
# p_map.c:302: 	    (tmthing->target->type == MT_BRUISER && thing->type == MT_KNIGHT) ) )
	.loc 1 302 22
	movl	128(%rax), %eax	# _65->type, _66
# p_map.c:301: 	    (tmthing->target->type == MT_KNIGHT && thing->type == MT_BRUISER)||
	.loc 1 301 71 discriminator 1
	cmpl	$15, %eax	#, _66
	jne	.L37	#,
# p_map.c:302: 	    (tmthing->target->type == MT_BRUISER && thing->type == MT_KNIGHT) ) )
	.loc 1 302 51
	movq	-24(%rbp), %rax	# thing, tmp197
	movl	128(%rax), %eax	# thing_100(D)->type, _67
# p_map.c:302: 	    (tmthing->target->type == MT_BRUISER && thing->type == MT_KNIGHT) ) )
	.loc 1 302 43
	cmpl	$17, %eax	#, _67
	jne	.L37	#,
.L38:
# p_map.c:305: 	    if (thing == tmthing->target)
	.loc 1 305 26
	movq	tmthing(%rip), %rax	# tmthing, tmthing.56_68
	movq	176(%rax), %rax	# tmthing.56_68->target, _69
# p_map.c:305: 	    if (thing == tmthing->target)
	.loc 1 305 9
	cmpq	%rax, -24(%rbp)	# _69, thing
	jne	.L40	#,
# p_map.c:306: 		return true;
	.loc 1 306 10
	movl	$1, %eax	#, _96
	jmp	.L29	#
.L40:
# p_map.c:308: 	    if (thing->type != MT_PLAYER)
	.loc 1 308 15
	movq	-24(%rbp), %rax	# thing, tmp198
	movl	128(%rax), %eax	# thing_100(D)->type, _70
# p_map.c:308: 	    if (thing->type != MT_PLAYER)
	.loc 1 308 9
	testl	%eax, %eax	# _70
	je	.L37	#,
# p_map.c:312: 		return false;
	.loc 1 312 10
	movl	$0, %eax	#, _96
	jmp	.L29	#
.L37:
# p_map.c:316: 	if (! (thing->flags & MF_SHOOTABLE) )
	.loc 1 316 14
	movq	-24(%rbp), %rax	# thing, tmp199
	movl	160(%rax), %eax	# thing_100(D)->flags, _71
# p_map.c:316: 	if (! (thing->flags & MF_SHOOTABLE) )
	.loc 1 316 22
	andl	$4, %eax	#, _72
# p_map.c:316: 	if (! (thing->flags & MF_SHOOTABLE) )
	.loc 1 316 5
	testl	%eax, %eax	# _72
	jne	.L41	#,
# p_map.c:319: 	    return !(thing->flags & MF_SOLID);	
	.loc 1 319 20
	movq	-24(%rbp), %rax	# thing, tmp200
	movl	160(%rax), %eax	# thing_100(D)->flags, _73
# p_map.c:319: 	    return !(thing->flags & MF_SOLID);	
	.loc 1 319 28
	andl	$2, %eax	#, _74
# p_map.c:319: 	    return !(thing->flags & MF_SOLID);	
	.loc 1 319 13
	testl	%eax, %eax	# _74
	sete	%al	#, _75
	movzbl	%al, %eax	# _75, _96
	jmp	.L29	#
.L41:
# p_map.c:323: 	damage = ((P_Random()%8)+1)*tmthing->info->damage;
	.loc 1 323 13
	call	P_Random@PLT	#
	movl	%eax, %edx	#, _76
# p_map.c:323: 	damage = ((P_Random()%8)+1)*tmthing->info->damage;
	.loc 1 323 23 discriminator 1
	movl	%edx, %eax	# _76, tmp201
	sarl	$31, %eax	#, tmp201
	shrl	$29, %eax	#, tmp202
	addl	%eax, %edx	# tmp202, tmp203
	andl	$7, %edx	#, tmp204
	subl	%eax, %edx	# tmp202, tmp205
	movl	%edx, %eax	# tmp205, _77
# p_map.c:323: 	damage = ((P_Random()%8)+1)*tmthing->info->damage;
	.loc 1 323 26 discriminator 1
	leal	1(%rax), %edx	#, _78
# p_map.c:323: 	damage = ((P_Random()%8)+1)*tmthing->info->damage;
	.loc 1 323 37 discriminator 1
	movq	tmthing(%rip), %rax	# tmthing, tmthing.57_79
	movq	136(%rax), %rax	# tmthing.57_79->info, _80
# p_map.c:323: 	damage = ((P_Random()%8)+1)*tmthing->info->damage;
	.loc 1 323 43 discriminator 1
	movl	76(%rax), %eax	# _80->damage, _81
# p_map.c:323: 	damage = ((P_Random()%8)+1)*tmthing->info->damage;
	.loc 1 323 9 discriminator 1
	imull	%edx, %eax	# _78, tmp206
	movl	%eax, -4(%rbp)	# tmp206, damage
# p_map.c:324: 	P_DamageMobj (thing, tmthing, tmthing->target, damage);
	.loc 1 324 39
	movq	tmthing(%rip), %rax	# tmthing, tmthing.58_82
	movq	176(%rax), %rdx	# tmthing.58_82->target, _83
# p_map.c:324: 	P_DamageMobj (thing, tmthing, tmthing->target, damage);
	.loc 1 324 2
	movq	tmthing(%rip), %rsi	# tmthing, tmthing.59_84
	movl	-4(%rbp), %ecx	# damage, tmp207
	movq	-24(%rbp), %rax	# thing, tmp208
	movq	%rax, %rdi	# tmp208,
	call	P_DamageMobj@PLT	#
# p_map.c:327: 	return false;				
	.loc 1 327 9
	movl	$0, %eax	#, _96
	jmp	.L29	#
.L34:
# p_map.c:331:     if (thing->flags & MF_SPECIAL)
	.loc 1 331 14
	movq	-24(%rbp), %rax	# thing, tmp209
	movl	160(%rax), %eax	# thing_100(D)->flags, _85
# p_map.c:331:     if (thing->flags & MF_SPECIAL)
	.loc 1 331 22
	andl	$1, %eax	#, _86
# p_map.c:331:     if (thing->flags & MF_SPECIAL)
	.loc 1 331 8
	testl	%eax, %eax	# _86
	je	.L42	#,
# p_map.c:333: 	solid = thing->flags&MF_SOLID;
	.loc 1 333 15
	movq	-24(%rbp), %rax	# thing, tmp210
	movl	160(%rax), %eax	# thing_100(D)->flags, _87
# p_map.c:333: 	solid = thing->flags&MF_SOLID;
	.loc 1 333 22
	andl	$2, %eax	#, _88
# p_map.c:333: 	solid = thing->flags&MF_SOLID;
	.loc 1 333 8
	movl	%eax, -8(%rbp)	# _88, solid
# p_map.c:334: 	if (tmflags&MF_PICKUP)
	.loc 1 334 13
	movl	tmflags(%rip), %eax	# tmflags, tmflags.60_89
	andl	$2048, %eax	#, _90
# p_map.c:334: 	if (tmflags&MF_PICKUP)
	.loc 1 334 5
	testl	%eax, %eax	# _90
	je	.L43	#,
# p_map.c:337: 	    P_TouchSpecialThing (thing, tmthing);
	.loc 1 337 6
	movq	tmthing(%rip), %rdx	# tmthing, tmthing.61_91
	movq	-24(%rbp), %rax	# thing, tmp211
	movq	%rdx, %rsi	# tmthing.61_91,
	movq	%rax, %rdi	# tmp211,
	call	P_TouchSpecialThing@PLT	#
.L43:
# p_map.c:339: 	return !solid;
	.loc 1 339 9
	cmpl	$0, -8(%rbp)	#, solid
	sete	%al	#, _92
	movzbl	%al, %eax	# _92, _96
	jmp	.L29	#
.L42:
# p_map.c:342:     return !(thing->flags & MF_SOLID);
	.loc 1 342 19
	movq	-24(%rbp), %rax	# thing, tmp212
	movl	160(%rax), %eax	# thing_100(D)->flags, _93
# p_map.c:342:     return !(thing->flags & MF_SOLID);
	.loc 1 342 27
	andl	$2, %eax	#, _94
# p_map.c:342:     return !(thing->flags & MF_SOLID);
	.loc 1 342 12
	testl	%eax, %eax	# _94
	sete	%al	#, _95
	movzbl	%al, %eax	# _95, _96
.L29:
# p_map.c:343: }
	.loc 1 343 1
	leave	
	.cfi_def_cfa 7, 8
	ret	
	.cfi_endproc
.LFE9:
	.size	PIT_CheckThing, .-PIT_CheckThing
	.globl	P_CheckPosition
	.type	P_CheckPosition, @function
P_CheckPosition:
.LFB10:
	.loc 1 379 1
	.cfi_startproc
	endbr64	
	pushq	%rbp	#
	.cfi_def_cfa_offset 16
	.cfi_offset 6, -16
	movq	%rsp, %rbp	#,
	.cfi_def_cfa_register 6
	subq	$48, %rsp	#,
	movq	%rdi, -40(%rbp)	# thing, thing
	movl	%esi, -44(%rbp)	# x, x
	movl	%edx, -48(%rbp)	# y, y
# p_map.c:388:     tmthing = thing;
	.loc 1 388 13
	movq	-40(%rbp), %rax	# thing, tmp136
	movq	%rax, tmthing(%rip)	# tmp136, tmthing
# p_map.c:389:     tmflags = thing->flags;
	.loc 1 389 20
	movq	-40(%rbp), %rax	# thing, tmp137
	movl	160(%rax), %eax	# thing_64(D)->flags, _1
# p_map.c:389:     tmflags = thing->flags;
	.loc 1 389 13
	movl	%eax, tmflags(%rip)	# _1, tmflags
# p_map.c:391:     tmx = x;
	.loc 1 391 9
	movl	-44(%rbp), %eax	# x, tmp138
	movl	%eax, tmx(%rip)	# tmp138, tmx
# p_map.c:392:     tmy = y;
	.loc 1 392 9
	movl	-48(%rbp), %eax	# y, tmp139
	movl	%eax, tmy(%rip)	# tmp139, tmy
# p_map.c:394:     tmbbox[BOXTOP] = y + tmthing->radius;
	.loc 1 394 33
	movq	tmthing(%rip), %rax	# tmthing, tmthing.62_2
	movl	104(%rax), %edx	# tmthing.62_2->radius, _3
# p_map.c:394:     tmbbox[BOXTOP] = y + tmthing->radius;
	.loc 1 394 24
	movl	-48(%rbp), %eax	# y, tmp140
	addl	%edx, %eax	# _3, _4
# p_map.c:394:     tmbbox[BOXTOP] = y + tmthing->radius;
	.loc 1 394 20
	movl	%eax, tmbbox(%rip)	# _4, tmbbox[0]
# p_map.c:395:     tmbbox[BOXBOTTOM] = y - tmthing->radius;
	.loc 1 395 36
	movq	tmthing(%rip), %rax	# tmthing, tmthing.63_5
	movl	104(%rax), %eax	# tmthing.63_5->radius, _6
# p_map.c:395:     tmbbox[BOXBOTTOM] = y - tmthing->radius;
	.loc 1 395 27
	movl	-48(%rbp), %edx	# y, tmp141
	subl	%eax, %edx	# _6, _7
# p_map.c:395:     tmbbox[BOXBOTTOM] = y - tmthing->radius;
	.loc 1 395 23
	movl	%edx, 4+tmbbox(%rip)	# _7, tmbbox[1]
# p_map.c:396:     tmbbox[BOXRIGHT] = x + tmthing->radius;
	.loc 1 396 35
	movq	tmthing(%rip), %rax	# tmthing, tmthing.64_8
	movl	104(%rax), %edx	# tmthing.64_8->radius, _9
# p_map.c:396:     tmbbox[BOXRIGHT] = x + tmthing->radius;
	.loc 1 396 26
	movl	-44(%rbp), %eax	# x, tmp142
	addl	%edx, %eax	# _9, _10
# p_map.c:396:     tmbbox[BOXRIGHT] = x + tmthing->radius;
	.loc 1 396 22
	movl	%eax, 12+tmbbox(%rip)	# _10, tmbbox[3]
# p_map.c:397:     tmbbox[BOXLEFT] = x - tmthing->radius;
	.loc 1 397 34
	movq	tmthing(%rip), %rax	# tmthing, tmthing.65_11
	movl	104(%rax), %eax	# tmthing.65_11->radius, _12
# p_map.c:397:     tmbbox[BOXLEFT] = x - tmthing->radius;
	.loc 1 397 25
	movl	-44(%rbp), %edx	# x, tmp143
	subl	%eax, %edx	# _12, _13
# p_map.c:397:     tmbbox[BOXLEFT] = x - tmthing->radius;
	.loc 1 397 21
	movl	%edx, 8+tmbbox(%rip)	# _13, tmbbox[2]
# p_map.c:399:     newsubsec = R_PointInSubsector (x,y);
	.loc 1 399 17
	movl	-48(%rbp), %edx	# y, tmp144
	movl	-44(%rbp), %eax	# x, tmp145
	movl	%edx, %esi	# tmp144,
	movl	%eax, %edi	# tmp145,
	call	R_PointInSubsector@PLT	#
	movq	%rax, -8(%rbp)	# tmp146, newsubsec
# p_map.c:400:     ceilingline = NULL;
	.loc 1 400 17
	movq	$0, ceilingline(%rip)	#, ceilingline
# p_map.c:406:     tmfloorz = tmdropoffz = newsubsec->sector->floorheight;
	.loc 1 406 38
	movq	-8(%rbp), %rax	# newsubsec, tmp147
	movq	(%rax), %rax	# newsubsec_76->sector, _14
# p_map.c:406:     tmfloorz = tmdropoffz = newsubsec->sector->floorheight;
	.loc 1 406 46
	movl	(%rax), %eax	# _14->floorheight, _15
# p_map.c:406:     tmfloorz = tmdropoffz = newsubsec->sector->floorheight;
	.loc 1 406 27
	movl	%eax, tmdropoffz(%rip)	# _15, tmdropoffz
# p_map.c:406:     tmfloorz = tmdropoffz = newsubsec->sector->floorheight;
	.loc 1 406 14
	movl	tmdropoffz(%rip), %eax	# tmdropoffz, tmdropoffz.66_16
	movl	%eax, tmfloorz(%rip)	# tmdropoffz.66_16, tmfloorz
# p_map.c:407:     tmceilingz = newsubsec->sector->ceilingheight;
	.loc 1 407 27
	movq	-8(%rbp), %rax	# newsubsec, tmp148
	movq	(%rax), %rax	# newsubsec_76->sector, _17
# p_map.c:407:     tmceilingz = newsubsec->sector->ceilingheight;
	.loc 1 407 35
	movl	4(%rax), %eax	# _17->ceilingheight, _18
# p_map.c:407:     tmceilingz = newsubsec->sector->ceilingheight;
	.loc 1 407 16
	movl	%eax, tmceilingz(%rip)	# _18, tmceilingz
# p_map.c:409:     validcount++;
	.loc 1 409 15
	movl	validcount(%rip), %eax	# validcount, validcount.67_19
	addl	$1, %eax	#, _20
	movl	%eax, validcount(%rip)	# _20, validcount
# p_map.c:410:     numspechit = 0;
	.loc 1 410 16
	movl	$0, numspechit(%rip)	#, numspechit
# p_map.c:412:     if ( tmflags & MF_NOCLIP )
	.loc 1 412 18
	movl	tmflags(%rip), %eax	# tmflags, tmflags.68_21
	andl	$4096, %eax	#, _22
# p_map.c:412:     if ( tmflags & MF_NOCLIP )
	.loc 1 412 8
	testl	%eax, %eax	# _22
	je	.L45	#,
# p_map.c:413: 	return true;
	.loc 1 413 9
	movl	$1, %eax	#, _57
	jmp	.L46	#
.L45:
# p_map.c:420:     xl = (tmbbox[BOXLEFT] - bmaporgx - MAXRADIUS)>>MAPBLOCKSHIFT;
	.loc 1 420 17
	movl	8+tmbbox(%rip), %edx	# tmbbox[2], _23
# p_map.c:420:     xl = (tmbbox[BOXLEFT] - bmaporgx - MAXRADIUS)>>MAPBLOCKSHIFT;
	.loc 1 420 27
	movl	bmaporgx(%rip), %eax	# bmaporgx, bmaporgx.69_24
	subl	%eax, %edx	# bmaporgx.69_24, _25
# p_map.c:420:     xl = (tmbbox[BOXLEFT] - bmaporgx - MAXRADIUS)>>MAPBLOCKSHIFT;
	.loc 1 420 38
	leal	-2097152(%rdx), %eax	#, _26
# p_map.c:420:     xl = (tmbbox[BOXLEFT] - bmaporgx - MAXRADIUS)>>MAPBLOCKSHIFT;
	.loc 1 420 8
	sarl	$23, %eax	#, tmp149
	movl	%eax, -24(%rbp)	# tmp149, xl
# p_map.c:421:     xh = (tmbbox[BOXRIGHT] - bmaporgx + MAXRADIUS)>>MAPBLOCKSHIFT;
	.loc 1 421 17
	movl	12+tmbbox(%rip), %edx	# tmbbox[3], _27
# p_map.c:421:     xh = (tmbbox[BOXRIGHT] - bmaporgx + MAXRADIUS)>>MAPBLOCKSHIFT;
	.loc 1 421 28
	movl	bmaporgx(%rip), %eax	# bmaporgx, bmaporgx.70_28
	subl	%eax, %edx	# bmaporgx.70_28, _29
# p_map.c:421:     xh = (tmbbox[BOXRIGHT] - bmaporgx + MAXRADIUS)>>MAPBLOCKSHIFT;
	.loc 1 421 39
	leal	2097152(%rdx), %eax	#, _30
# p_map.c:421:     xh = (tmbbox[BOXRIGHT] - bmaporgx + MAXRADIUS)>>MAPBLOCKSHIFT;
	.loc 1 421 8
	sarl	$23, %eax	#, tmp150
	movl	%eax, -20(%rbp)	# tmp150, xh
# p_map.c:422:     yl = (tmbbox[BOXBOTTOM] - bmaporgy - MAXRADIUS)>>MAPBLOCKSHIFT;
	.loc 1 422 17
	movl	4+tmbbox(%rip), %edx	# tmbbox[1], _31
# p_map.c:422:     yl = (tmbbox[BOXBOTTOM] - bmaporgy - MAXRADIUS)>>MAPBLOCKSHIFT;
	.loc 1 422 29
	movl	bmaporgy(%rip), %eax	# bmaporgy, bmaporgy.71_32
	subl	%eax, %edx	# bmaporgy.71_32, _33
# p_map.c:422:     yl = (tmbbox[BOXBOTTOM] - bmaporgy - MAXRADIUS)>>MAPBLOCKSHIFT;
	.loc 1 422 40
	leal	-2097152(%rdx), %eax	#, _34
# p_map.c:422:     yl = (tmbbox[BOXBOTTOM] - bmaporgy - MAXRADIUS)>>MAPBLOCKSHIFT;
	.loc 1 422 8
	sarl	$23, %eax	#, tmp151
	movl	%eax, -16(%rbp)	# tmp151, yl
# p_map.c:423:     yh = (tmbbox[BOXTOP] - bmaporgy + MAXRADIUS)>>MAPBLOCKSHIFT;
	.loc 1 423 17
	movl	tmbbox(%rip), %edx	# tmbbox[0], _35
# p_map.c:423:     yh = (tmbbox[BOXTOP] - bmaporgy + MAXRADIUS)>>MAPBLOCKSHIFT;
	.loc 1 423 26
	movl	bmaporgy(%rip), %eax	# bmaporgy, bmaporgy.72_36
	subl	%eax, %edx	# bmaporgy.72_36, _37
# p_map.c:423:     yh = (tmbbox[BOXTOP] - bmaporgy + MAXRADIUS)>>MAPBLOCKSHIFT;
	.loc 1 423 37
	leal	2097152(%rdx), %eax	#, _38
# p_map.c:423:     yh = (tmbbox[BOXTOP] - bmaporgy + MAXRADIUS)>>MAPBLOCKSHIFT;
	.loc 1 423 8
	sarl	$23, %eax	#, tmp152
	movl	%eax, -12(%rbp)	# tmp152, yh
# p_map.c:425:     for (bx=xl ; bx<=xh ; bx++)
	.loc 1 425 12
	movl	-24(%rbp), %eax	# xl, tmp153
	movl	%eax, -32(%rbp)	# tmp153, bx
# p_map.c:425:     for (bx=xl ; bx<=xh ; bx++)
	.loc 1 425 5
	jmp	.L47	#
.L51:
# p_map.c:426: 	for (by=yl ; by<=yh ; by++)
	.loc 1 426 9
	movl	-16(%rbp), %eax	# yl, tmp154
	movl	%eax, -28(%rbp)	# tmp154, by
# p_map.c:426: 	for (by=yl ; by<=yh ; by++)
	.loc 1 426 2
	jmp	.L48	#
.L50:
# p_map.c:427: 	    if (!P_BlockThingsIterator(bx,by,PIT_CheckThing))
	.loc 1 427 11
	movl	-28(%rbp), %ecx	# by, tmp155
	movl	-32(%rbp), %eax	# bx, tmp156
	leaq	PIT_CheckThing(%rip), %rdx	#, tmp157
	movl	%ecx, %esi	# tmp155,
	movl	%eax, %edi	# tmp156,
	call	P_BlockThingsIterator@PLT	#
# p_map.c:427: 	    if (!P_BlockThingsIterator(bx,by,PIT_CheckThing))
	.loc 1 427 9 discriminator 1
	testl	%eax, %eax	# _39
	jne	.L49	#,
# p_map.c:428: 		return false;
	.loc 1 428 10
	movl	$0, %eax	#, _57
	jmp	.L46	#
.L49:
# p_map.c:426: 	for (by=yl ; by<=yh ; by++)
	.loc 1 426 26 discriminator 2
	addl	$1, -28(%rbp)	#, by
.L48:
# p_map.c:426: 	for (by=yl ; by<=yh ; by++)
	.loc 1 426 17 discriminator 1
	movl	-28(%rbp), %eax	# by, tmp158
	cmpl	-12(%rbp), %eax	# yh, tmp158
	jle	.L50	#,
# p_map.c:425:     for (bx=xl ; bx<=xh ; bx++)
	.loc 1 425 29 discriminator 2
	addl	$1, -32(%rbp)	#, bx
.L47:
# p_map.c:425:     for (bx=xl ; bx<=xh ; bx++)
	.loc 1 425 20 discriminator 1
	movl	-32(%rbp), %eax	# bx, tmp159
	cmpl	-20(%rbp), %eax	# xh, tmp159
	jle	.L51	#,
# p_map.c:431:     xl = (tmbbox[BOXLEFT] - bmaporgx)>>MAPBLOCKSHIFT;
	.loc 1 431 17
	movl	8+tmbbox(%rip), %edx	# tmbbox[2], _40
# p_map.c:431:     xl = (tmbbox[BOXLEFT] - bmaporgx)>>MAPBLOCKSHIFT;
	.loc 1 431 27
	movl	bmaporgx(%rip), %eax	# bmaporgx, bmaporgx.73_41
	subl	%eax, %edx	# bmaporgx.73_41, _42
# p_map.c:431:     xl = (tmbbox[BOXLEFT] - bmaporgx)>>MAPBLOCKSHIFT;
	.loc 1 431 8
	movl	%edx, %eax	# _42, _42
	sarl	$23, %eax	#, _42
	movl	%eax, -24(%rbp)	# tmp160, xl
# p_map.c:432:     xh = (tmbbox[BOXRIGHT] - bmaporgx)>>MAPBLOCKSHIFT;
	.loc 1 432 17
	movl	12+tmbbox(%rip), %edx	# tmbbox[3], _43
# p_map.c:432:     xh = (tmbbox[BOXRIGHT] - bmaporgx)>>MAPBLOCKSHIFT;
	.loc 1 432 28
	movl	bmaporgx(%rip), %eax	# bmaporgx, bmaporgx.74_44
	subl	%eax, %edx	# bmaporgx.74_44, _45
# p_map.c:432:     xh = (tmbbox[BOXRIGHT] - bmaporgx)>>MAPBLOCKSHIFT;
	.loc 1 432 8
	movl	%edx, %eax	# _45, _45
	sarl	$23, %eax	#, _45
	movl	%eax, -20(%rbp)	# tmp161, xh
# p_map.c:433:     yl = (tmbbox[BOXBOTTOM] - bmaporgy)>>MAPBLOCKSHIFT;
	.loc 1 433 17
	movl	4+tmbbox(%rip), %edx	# tmbbox[1], _46
# p_map.c:433:     yl = (tmbbox[BOXBOTTOM] - bmaporgy)>>MAPBLOCKSHIFT;
	.loc 1 433 29
	movl	bmaporgy(%rip), %eax	# bmaporgy, bmaporgy.75_47
	subl	%eax, %edx	# bmaporgy.75_47, _48
# p_map.c:433:     yl = (tmbbox[BOXBOTTOM] - bmaporgy)>>MAPBLOCKSHIFT;
	.loc 1 433 8
	movl	%edx, %eax	# _48, _48
	sarl	$23, %eax	#, _48
	movl	%eax, -16(%rbp)	# tmp162, yl
# p_map.c:434:     yh = (tmbbox[BOXTOP] - bmaporgy)>>MAPBLOCKSHIFT;
	.loc 1 434 17
	movl	tmbbox(%rip), %edx	# tmbbox[0], _49
# p_map.c:434:     yh = (tmbbox[BOXTOP] - bmaporgy)>>MAPBLOCKSHIFT;
	.loc 1 434 26
	movl	bmaporgy(%rip), %eax	# bmaporgy, bmaporgy.76_50
	subl	%eax, %edx	# bmaporgy.76_50, _51
# p_map.c:434:     yh = (tmbbox[BOXTOP] - bmaporgy)>>MAPBLOCKSHIFT;
	.loc 1 434 8
	movl	%edx, %eax	# _51, _51
	sarl	$23, %eax	#, _51
	movl	%eax, -12(%rbp)	# tmp163, yh
# p_map.c:436:     for (bx=xl ; bx<=xh ; bx++)
	.loc 1 436 12
	movl	-24(%rbp), %eax	# xl, tmp164
	movl	%eax, -32(%rbp)	# tmp164, bx
# p_map.c:436:     for (bx=xl ; bx<=xh ; bx++)
	.loc 1 436 5
	jmp	.L52	#
.L56:
# p_map.c:437: 	for (by=yl ; by<=yh ; by++)
	.loc 1 437 9
	movl	-16(%rbp), %eax	# yl, tmp165
	movl	%eax, -28(%rbp)	# tmp165, by
# p_map.c:437: 	for (by=yl ; by<=yh ; by++)
	.loc 1 437 2
	jmp	.L53	#
.L55:
# p_map.c:438: 	    if (!P_BlockLinesIterator (bx,by,PIT_CheckLine))
	.loc 1 438 11
	movl	-28(%rbp), %ecx	# by, tmp166
	movl	-32(%rbp), %eax	# bx, tmp167
	leaq	PIT_CheckLine(%rip), %rdx	#, tmp168
	movl	%ecx, %esi	# tmp166,
	movl	%eax, %edi	# tmp167,
	call	P_BlockLinesIterator@PLT	#
# p_map.c:438: 	    if (!P_BlockLinesIterator (bx,by,PIT_CheckLine))
	.loc 1 438 9 discriminator 1
	testl	%eax, %eax	# _52
	jne	.L54	#,
# p_map.c:439: 		return false;
	.loc 1 439 10
	movl	$0, %eax	#, _57
	jmp	.L46	#
.L54:
# p_map.c:437: 	for (by=yl ; by<=yh ; by++)
	.loc 1 437 26 discriminator 2
	addl	$1, -28(%rbp)	#, by
.L53:
# p_map.c:437: 	for (by=yl ; by<=yh ; by++)
	.loc 1 437 17 discriminator 1
	movl	-28(%rbp), %eax	# by, tmp169
	cmpl	-12(%rbp), %eax	# yh, tmp169
	jle	.L55	#,
# p_map.c:436:     for (bx=xl ; bx<=xh ; bx++)
	.loc 1 436 29 discriminator 2
	addl	$1, -32(%rbp)	#, bx
.L52:
# p_map.c:436:     for (bx=xl ; bx<=xh ; bx++)
	.loc 1 436 20 discriminator 1
	movl	-32(%rbp), %eax	# bx, tmp170
	cmpl	-20(%rbp), %eax	# xh, tmp170
	jle	.L56	#,
# p_map.c:441:     return true;
	.loc 1 441 12
	movl	$1, %eax	#, _57
.L46:
# p_map.c:442: }
	.loc 1 442 1
	leave	
	.cfi_def_cfa 7, 8
	ret	
	.cfi_endproc
.LFE10:
	.size	P_CheckPosition, .-P_CheckPosition
	.globl	P_TryMove
	.type	P_TryMove, @function
P_TryMove:
.LFB11:
	.loc 1 455 1
	.cfi_startproc
	endbr64	
	pushq	%rbp	#
	.cfi_def_cfa_offset 16
	.cfi_offset 6, -16
	movq	%rsp, %rbp	#,
	.cfi_def_cfa_register 6
	subq	$48, %rsp	#,
	movq	%rdi, -40(%rbp)	# thing, thing
	movl	%esi, -44(%rbp)	# x, x
	movl	%edx, -48(%rbp)	# y, y
# p_map.c:462:     floatok = false;
	.loc 1 462 13
	movl	$0, floatok(%rip)	#, floatok
# p_map.c:463:     if (!P_CheckPosition (thing, x, y))
	.loc 1 463 10
	movl	-48(%rbp), %edx	# y, tmp121
	movl	-44(%rbp), %ecx	# x, tmp122
	movq	-40(%rbp), %rax	# thing, tmp123
	movl	%ecx, %esi	# tmp122,
	movq	%rax, %rdi	# tmp123,
	call	P_CheckPosition	#
# p_map.c:463:     if (!P_CheckPosition (thing, x, y))
	.loc 1 463 8 discriminator 1
	testl	%eax, %eax	# _1
	jne	.L58	#,
# p_map.c:464: 	return false;		// solid wall or thing
	.loc 1 464 9
	movl	$0, %eax	#, _39
	jmp	.L59	#
.L58:
# p_map.c:466:     if ( !(thing->flags & MF_NOCLIP) )
	.loc 1 466 17
	movq	-40(%rbp), %rax	# thing, tmp124
	movl	160(%rax), %eax	# thing_46(D)->flags, _2
# p_map.c:466:     if ( !(thing->flags & MF_NOCLIP) )
	.loc 1 466 25
	andl	$4096, %eax	#, _3
# p_map.c:466:     if ( !(thing->flags & MF_NOCLIP) )
	.loc 1 466 8
	testl	%eax, %eax	# _3
	jne	.L60	#,
# p_map.c:468: 	if (tmceilingz - tmfloorz < thing->height)
	.loc 1 468 17
	movl	tmceilingz(%rip), %edx	# tmceilingz, tmceilingz.77_4
	movl	tmfloorz(%rip), %eax	# tmfloorz, tmfloorz.78_5
	subl	%eax, %edx	# tmfloorz.78_5, _6
# p_map.c:468: 	if (tmceilingz - tmfloorz < thing->height)
	.loc 1 468 35
	movq	-40(%rbp), %rax	# thing, tmp125
	movl	108(%rax), %eax	# thing_46(D)->height, _7
# p_map.c:468: 	if (tmceilingz - tmfloorz < thing->height)
	.loc 1 468 5
	cmpl	%eax, %edx	# _7, _6
	jge	.L61	#,
# p_map.c:469: 	    return false;	// doesn't fit
	.loc 1 469 13
	movl	$0, %eax	#, _39
	jmp	.L59	#
.L61:
# p_map.c:471: 	floatok = true;
	.loc 1 471 10
	movl	$1, floatok(%rip)	#, floatok
# p_map.c:473: 	if ( !(thing->flags&MF_TELEPORT) 
	.loc 1 473 14
	movq	-40(%rbp), %rax	# thing, tmp126
	movl	160(%rax), %eax	# thing_46(D)->flags, _8
# p_map.c:473: 	if ( !(thing->flags&MF_TELEPORT) 
	.loc 1 473 21
	andl	$32768, %eax	#, _9
# p_map.c:473: 	if ( !(thing->flags&MF_TELEPORT) 
	.loc 1 473 5
	testl	%eax, %eax	# _9
	jne	.L62	#,
# p_map.c:474: 	     &&tmceilingz - thing->z < thing->height)
	.loc 1 474 20
	movl	tmceilingz(%rip), %edx	# tmceilingz, tmceilingz.79_10
# p_map.c:474: 	     &&tmceilingz - thing->z < thing->height)
	.loc 1 474 27
	movq	-40(%rbp), %rax	# thing, tmp127
	movl	32(%rax), %eax	# thing_46(D)->z, _11
# p_map.c:474: 	     &&tmceilingz - thing->z < thing->height)
	.loc 1 474 20
	subl	%eax, %edx	# _11, _12
# p_map.c:474: 	     &&tmceilingz - thing->z < thing->height)
	.loc 1 474 38
	movq	-40(%rbp), %rax	# thing, tmp128
	movl	108(%rax), %eax	# thing_46(D)->height, _13
# p_map.c:474: 	     &&tmceilingz - thing->z < thing->height)
	.loc 1 474 7
	cmpl	%eax, %edx	# _13, _12
	jge	.L62	#,
# p_map.c:475: 	    return false;	// mobj must lower itself to fit
	.loc 1 475 13
	movl	$0, %eax	#, _39
	jmp	.L59	#
.L62:
# p_map.c:477: 	if ( !(thing->flags&MF_TELEPORT)
	.loc 1 477 14
	movq	-40(%rbp), %rax	# thing, tmp129
	movl	160(%rax), %eax	# thing_46(D)->flags, _14
# p_map.c:477: 	if ( !(thing->flags&MF_TELEPORT)
	.loc 1 477 21
	andl	$32768, %eax	#, _15
# p_map.c:477: 	if ( !(thing->flags&MF_TELEPORT)
	.loc 1 477 5
	testl	%eax, %eax	# _15
	jne	.L63	#,
# p_map.c:478: 	     && tmfloorz - thing->z > 24*FRACUNIT )
	.loc 1 478 19
	movl	tmfloorz(%rip), %edx	# tmfloorz, tmfloorz.80_16
# p_map.c:478: 	     && tmfloorz - thing->z > 24*FRACUNIT )
	.loc 1 478 26
	movq	-40(%rbp), %rax	# thing, tmp130
	movl	32(%rax), %eax	# thing_46(D)->z, _17
# p_map.c:478: 	     && tmfloorz - thing->z > 24*FRACUNIT )
	.loc 1 478 19
	subl	%eax, %edx	# _17, _18
# p_map.c:478: 	     && tmfloorz - thing->z > 24*FRACUNIT )
	.loc 1 478 7
	cmpl	$1572864, %edx	#, _18
	jle	.L63	#,
# p_map.c:479: 	    return false;	// too big a step up
	.loc 1 479 13
	movl	$0, %eax	#, _39
	jmp	.L59	#
.L63:
# p_map.c:481: 	if ( !(thing->flags&(MF_DROPOFF|MF_FLOAT))
	.loc 1 481 14
	movq	-40(%rbp), %rax	# thing, tmp131
	movl	160(%rax), %eax	# thing_46(D)->flags, _19
# p_map.c:481: 	if ( !(thing->flags&(MF_DROPOFF|MF_FLOAT))
	.loc 1 481 21
	andl	$17408, %eax	#, _20
# p_map.c:481: 	if ( !(thing->flags&(MF_DROPOFF|MF_FLOAT))
	.loc 1 481 5
	testl	%eax, %eax	# _20
	jne	.L60	#,
# p_map.c:482: 	     && tmfloorz - tmdropoffz > 24*FRACUNIT )
	.loc 1 482 19
	movl	tmfloorz(%rip), %edx	# tmfloorz, tmfloorz.81_21
	movl	tmdropoffz(%rip), %eax	# tmdropoffz, tmdropoffz.82_22
	subl	%eax, %edx	# tmdropoffz.82_22, _23
# p_map.c:482: 	     && tmfloorz - tmdropoffz > 24*FRACUNIT )
	.loc 1 482 7
	cmpl	$1572864, %edx	#, _23
	jle	.L60	#,
# p_map.c:483: 	    return false;	// don't stand over a dropoff
	.loc 1 483 13
	movl	$0, %eax	#, _39
	jmp	.L59	#
.L60:
# p_map.c:488:     P_UnsetThingPosition (thing);
	.loc 1 488 5
	movq	-40(%rbp), %rax	# thing, tmp132
	movq	%rax, %rdi	# tmp132,
	call	P_UnsetThingPosition@PLT	#
# p_map.c:490:     oldx = thing->x;
	.loc 1 490 10
	movq	-40(%rbp), %rax	# thing, tmp133
	movl	24(%rax), %eax	# thing_46(D)->x, tmp134
	movl	%eax, -24(%rbp)	# tmp134, oldx
# p_map.c:491:     oldy = thing->y;
	.loc 1 491 10
	movq	-40(%rbp), %rax	# thing, tmp135
	movl	28(%rax), %eax	# thing_46(D)->y, tmp136
	movl	%eax, -20(%rbp)	# tmp136, oldy
# p_map.c:492:     thing->floorz = tmfloorz;
	.loc 1 492 19
	movl	tmfloorz(%rip), %edx	# tmfloorz, tmfloorz.83_24
	movq	-40(%rbp), %rax	# thing, tmp137
	movl	%edx, 96(%rax)	# tmfloorz.83_24, thing_46(D)->floorz
# p_map.c:493:     thing->ceilingz = tmceilingz;	
	.loc 1 493 21
	movl	tmceilingz(%rip), %edx	# tmceilingz, tmceilingz.84_25
	movq	-40(%rbp), %rax	# thing, tmp138
	movl	%edx, 100(%rax)	# tmceilingz.84_25, thing_46(D)->ceilingz
# p_map.c:494:     thing->x = x;
	.loc 1 494 14
	movq	-40(%rbp), %rax	# thing, tmp139
	movl	-44(%rbp), %edx	# x, tmp140
	movl	%edx, 24(%rax)	# tmp140, thing_46(D)->x
# p_map.c:495:     thing->y = y;
	.loc 1 495 14
	movq	-40(%rbp), %rax	# thing, tmp141
	movl	-48(%rbp), %edx	# y, tmp142
	movl	%edx, 28(%rax)	# tmp142, thing_46(D)->y
# p_map.c:497:     P_SetThingPosition (thing);
	.loc 1 497 5
	movq	-40(%rbp), %rax	# thing, tmp143
	movq	%rax, %rdi	# tmp143,
	call	P_SetThingPosition@PLT	#
# p_map.c:500:     if (! (thing->flags&(MF_TELEPORT|MF_NOCLIP)) )
	.loc 1 500 17
	movq	-40(%rbp), %rax	# thing, tmp144
	movl	160(%rax), %eax	# thing_46(D)->flags, _26
# p_map.c:500:     if (! (thing->flags&(MF_TELEPORT|MF_NOCLIP)) )
	.loc 1 500 24
	andl	$36864, %eax	#, _27
# p_map.c:500:     if (! (thing->flags&(MF_TELEPORT|MF_NOCLIP)) )
	.loc 1 500 8
	testl	%eax, %eax	# _27
	jne	.L64	#,
# p_map.c:502: 	while (numspechit--)
	.loc 1 502 8
	jmp	.L65	#
.L67:
# p_map.c:505: 	    ld = spechit[numspechit];
	.loc 1 505 18
	movl	numspechit(%rip), %eax	# numspechit, numspechit.85_28
# p_map.c:505: 	    ld = spechit[numspechit];
	.loc 1 505 9
	cltq
	leaq	0(,%rax,8), %rdx	#, tmp146
	leaq	spechit(%rip), %rax	#, tmp147
	movq	(%rdx,%rax), %rax	# spechit[numspechit.85_28], tmp148
	movq	%rax, -8(%rbp)	# tmp148, ld
# p_map.c:506: 	    side = P_PointOnLineSide (thing->x, thing->y, ld);
	.loc 1 506 13
	movq	-40(%rbp), %rax	# thing, tmp149
	movl	28(%rax), %ecx	# thing_46(D)->y, _29
	movq	-40(%rbp), %rax	# thing, tmp150
	movl	24(%rax), %eax	# thing_46(D)->x, _30
	movq	-8(%rbp), %rdx	# ld, tmp151
	movl	%ecx, %esi	# _29,
	movl	%eax, %edi	# _30,
	call	P_PointOnLineSide@PLT	#
	movl	%eax, -16(%rbp)	# tmp152, side
# p_map.c:507: 	    oldside = P_PointOnLineSide (oldx, oldy, ld);
	.loc 1 507 16
	movq	-8(%rbp), %rdx	# ld, tmp153
	movl	-20(%rbp), %ecx	# oldy, tmp154
	movl	-24(%rbp), %eax	# oldx, tmp155
	movl	%ecx, %esi	# tmp154,
	movl	%eax, %edi	# tmp155,
	call	P_PointOnLineSide@PLT	#
	movl	%eax, -12(%rbp)	# tmp156, oldside
# p_map.c:508: 	    if (side != oldside)
	.loc 1 508 9
	movl	-16(%rbp), %eax	# side, tmp157
	cmpl	-12(%rbp), %eax	# oldside, tmp157
	je	.L65	#,
# p_map.c:510: 		if (ld->special)
	.loc 1 510 9
	movq	-8(%rbp), %rax	# ld, tmp158
	movzwl	26(%rax), %eax	# ld_64->special, _31
# p_map.c:510: 		if (ld->special)
	.loc 1 510 6
	testw	%ax, %ax	# _31
	je	.L65	#,
# p_map.c:511: 		    P_CrossSpecialLine (ld-lines, oldside, thing);
	.loc 1 511 29
	movq	lines(%rip), %rax	# lines, lines.86_32
	movq	-8(%rbp), %rdx	# ld, tmp159
	subq	%rax, %rdx	# lines.86_32, _33
	sarq	$3, %rdx	#, tmp160
	movabsq	$3353953467947191203, %rax	#, tmp162
	imulq	%rdx, %rax	# tmp160, tmp161
# p_map.c:511: 		    P_CrossSpecialLine (ld-lines, oldside, thing);
	.loc 1 511 7
	movl	%eax, %ecx	# _34, _35
	movq	-40(%rbp), %rdx	# thing, tmp163
	movl	-12(%rbp), %eax	# oldside, tmp164
	movl	%eax, %esi	# tmp164,
	movl	%ecx, %edi	# _35,
	call	P_CrossSpecialLine@PLT	#
.L65:
# p_map.c:502: 	while (numspechit--)
	.loc 1 502 19
	movl	numspechit(%rip), %eax	# numspechit, numspechit.87_36
	leal	-1(%rax), %edx	#, _38
	movl	%edx, numspechit(%rip)	# _38, numspechit
# p_map.c:502: 	while (numspechit--)
	.loc 1 502 9
	testl	%eax, %eax	# numspechit.87_36
	jne	.L67	#,
.L64:
# p_map.c:516:     return true;
	.loc 1 516 12
	movl	$1, %eax	#, _39
.L59:
# p_map.c:517: }
	.loc 1 517 1
	leave	
	.cfi_def_cfa 7, 8
	ret	
	.cfi_endproc
.LFE11:
	.size	P_TryMove, .-P_TryMove
	.globl	P_ThingHeightClip
	.type	P_ThingHeightClip, @function
P_ThingHeightClip:
.LFB12:
	.loc 1 531 1
	.cfi_startproc
	endbr64	
	pushq	%rbp	#
	.cfi_def_cfa_offset 16
	.cfi_offset 6, -16
	movq	%rsp, %rbp	#,
	.cfi_def_cfa_register 6
	subq	$32, %rsp	#,
	movq	%rdi, -24(%rbp)	# thing, thing
# p_map.c:534:     onfloor = (thing->z == thing->floorz);
	.loc 1 534 21
	movq	-24(%rbp), %rax	# thing, tmp103
	movl	32(%rax), %edx	# thing_23(D)->z, _1
# p_map.c:534:     onfloor = (thing->z == thing->floorz);
	.loc 1 534 33
	movq	-24(%rbp), %rax	# thing, tmp104
	movl	96(%rax), %eax	# thing_23(D)->floorz, _2
# p_map.c:534:     onfloor = (thing->z == thing->floorz);
	.loc 1 534 25
	cmpl	%eax, %edx	# _2, _1
	sete	%al	#, _3
# p_map.c:534:     onfloor = (thing->z == thing->floorz);
	.loc 1 534 13
	movzbl	%al, %eax	# _3, tmp105
	movl	%eax, -4(%rbp)	# tmp105, onfloor
# p_map.c:536:     P_CheckPosition (thing, thing->x, thing->y);	
	.loc 1 536 5
	movq	-24(%rbp), %rax	# thing, tmp106
	movl	28(%rax), %edx	# thing_23(D)->y, _4
	movq	-24(%rbp), %rax	# thing, tmp107
	movl	24(%rax), %ecx	# thing_23(D)->x, _5
	movq	-24(%rbp), %rax	# thing, tmp108
	movl	%ecx, %esi	# _5,
	movq	%rax, %rdi	# tmp108,
	call	P_CheckPosition	#
# p_map.c:539:     thing->floorz = tmfloorz;
	.loc 1 539 19
	movl	tmfloorz(%rip), %edx	# tmfloorz, tmfloorz.89_6
	movq	-24(%rbp), %rax	# thing, tmp109
	movl	%edx, 96(%rax)	# tmfloorz.89_6, thing_23(D)->floorz
# p_map.c:540:     thing->ceilingz = tmceilingz;
	.loc 1 540 21
	movl	tmceilingz(%rip), %edx	# tmceilingz, tmceilingz.90_7
	movq	-24(%rbp), %rax	# thing, tmp110
	movl	%edx, 100(%rax)	# tmceilingz.90_7, thing_23(D)->ceilingz
# p_map.c:542:     if (onfloor)
	.loc 1 542 8
	cmpl	$0, -4(%rbp)	#, onfloor
	je	.L69	#,
# p_map.c:545: 	thing->z = thing->floorz;
	.loc 1 545 18
	movq	-24(%rbp), %rax	# thing, tmp111
	movl	96(%rax), %edx	# thing_23(D)->floorz, _8
# p_map.c:545: 	thing->z = thing->floorz;
	.loc 1 545 11
	movq	-24(%rbp), %rax	# thing, tmp112
	movl	%edx, 32(%rax)	# _8, thing_23(D)->z
	jmp	.L70	#
.L69:
# p_map.c:550: 	if (thing->z+thing->height > thing->ceilingz)
	.loc 1 550 11
	movq	-24(%rbp), %rax	# thing, tmp113
	movl	32(%rax), %edx	# thing_23(D)->z, _9
# p_map.c:550: 	if (thing->z+thing->height > thing->ceilingz)
	.loc 1 550 20
	movq	-24(%rbp), %rax	# thing, tmp114
	movl	108(%rax), %eax	# thing_23(D)->height, _10
# p_map.c:550: 	if (thing->z+thing->height > thing->ceilingz)
	.loc 1 550 14
	addl	%eax, %edx	# _10, _11
# p_map.c:550: 	if (thing->z+thing->height > thing->ceilingz)
	.loc 1 550 36
	movq	-24(%rbp), %rax	# thing, tmp115
	movl	100(%rax), %eax	# thing_23(D)->ceilingz, _12
# p_map.c:550: 	if (thing->z+thing->height > thing->ceilingz)
	.loc 1 550 5
	cmpl	%eax, %edx	# _12, _11
	jle	.L70	#,
# p_map.c:551: 	    thing->z = thing->ceilingz - thing->height;
	.loc 1 551 22
	movq	-24(%rbp), %rax	# thing, tmp116
	movl	100(%rax), %edx	# thing_23(D)->ceilingz, _13
# p_map.c:551: 	    thing->z = thing->ceilingz - thing->height;
	.loc 1 551 40
	movq	-24(%rbp), %rax	# thing, tmp117
	movl	108(%rax), %eax	# thing_23(D)->height, _14
# p_map.c:551: 	    thing->z = thing->ceilingz - thing->height;
	.loc 1 551 33
	subl	%eax, %edx	# _14, _15
# p_map.c:551: 	    thing->z = thing->ceilingz - thing->height;
	.loc 1 551 15
	movq	-24(%rbp), %rax	# thing, tmp118
	movl	%edx, 32(%rax)	# _15, thing_23(D)->z
.L70:
# p_map.c:554:     if (thing->ceilingz - thing->floorz < thing->height)
	.loc 1 554 14
	movq	-24(%rbp), %rax	# thing, tmp119
	movl	100(%rax), %edx	# thing_23(D)->ceilingz, _16
# p_map.c:554:     if (thing->ceilingz - thing->floorz < thing->height)
	.loc 1 554 32
	movq	-24(%rbp), %rax	# thing, tmp120
	movl	96(%rax), %eax	# thing_23(D)->floorz, _17
# p_map.c:554:     if (thing->ceilingz - thing->floorz < thing->height)
	.loc 1 554 25
	subl	%eax, %edx	# _17, _18
# p_map.c:554:     if (thing->ceilingz - thing->floorz < thing->height)
	.loc 1 554 48
	movq	-24(%rbp), %rax	# thing, tmp121
	movl	108(%rax), %eax	# thing_23(D)->height, _19
# p_map.c:554:     if (thing->ceilingz - thing->floorz < thing->height)
	.loc 1 554 8
	cmpl	%eax, %edx	# _19, _18
	jge	.L71	#,
# p_map.c:555: 	return false;
	.loc 1 555 9
	movl	$0, %eax	#, _20
	jmp	.L72	#
.L71:
# p_map.c:557:     return true;
	.loc 1 557 12
	movl	$1, %eax	#, _20
.L72:
# p_map.c:558: }
	.loc 1 558 1
	leave	
	.cfi_def_cfa 7, 8
	ret	
	.cfi_endproc
.LFE12:
	.size	P_ThingHeightClip, .-P_ThingHeightClip
	.globl	bestslidefrac
	.bss
	.align 4
	.type	bestslidefrac, @object
	.size	bestslidefrac, 4
bestslidefrac:
	.zero	4
	.globl	secondslidefrac
	.align 4
	.type	secondslidefrac, @object
	.size	secondslidefrac, 4
secondslidefrac:
	.zero	4
	.globl	bestslideline
	.align 8
	.type	bestslideline, @object
	.size	bestslideline, 8
bestslideline:
	.zero	8
	.globl	secondslideline
	.align 8
	.type	secondslideline, @object
	.size	secondslideline, 8
secondslideline:
	.zero	8
	.globl	slidemo
	.align 8
	.type	slidemo, @object
	.size	slidemo, 8
slidemo:
	.zero	8
	.globl	tmxmove
	.align 4
	.type	tmxmove, @object
	.size	tmxmove, 4
tmxmove:
	.zero	4
	.globl	tmymove
	.align 4
	.type	tmymove, @object
	.size	tmymove, 4
tmymove:
	.zero	4
	.text
	.globl	P_HitSlideLine
	.type	P_HitSlideLine, @function
P_HitSlideLine:
.LFB13:
	.loc 1 585 1
	.cfi_startproc
	endbr64	
	pushq	%rbp	#
	.cfi_def_cfa_offset 16
	.cfi_offset 6, -16
	movq	%rsp, %rbp	#,
	.cfi_def_cfa_register 6
	subq	$48, %rsp	#,
	movq	%rdi, -40(%rbp)	# ld, ld
# p_map.c:596:     if (ld->slopetype == ST_HORIZONTAL)
	.loc 1 596 11
	movq	-40(%rbp), %rax	# ld, tmp107
	movl	52(%rax), %eax	# ld_30(D)->slopetype, _1
# p_map.c:596:     if (ld->slopetype == ST_HORIZONTAL)
	.loc 1 596 8
	testl	%eax, %eax	# _1
	jne	.L74	#,
# p_map.c:598: 	tmymove = 0;
	.loc 1 598 10
	movl	$0, tmymove(%rip)	#, tmymove
# p_map.c:599: 	return;
	.loc 1 599 2
	jmp	.L73	#
.L74:
# p_map.c:602:     if (ld->slopetype == ST_VERTICAL)
	.loc 1 602 11
	movq	-40(%rbp), %rax	# ld, tmp108
	movl	52(%rax), %eax	# ld_30(D)->slopetype, _2
# p_map.c:602:     if (ld->slopetype == ST_VERTICAL)
	.loc 1 602 8
	cmpl	$1, %eax	#, _2
	jne	.L76	#,
# p_map.c:604: 	tmxmove = 0;
	.loc 1 604 10
	movl	$0, tmxmove(%rip)	#, tmxmove
# p_map.c:605: 	return;
	.loc 1 605 2
	jmp	.L73	#
.L76:
# p_map.c:608:     side = P_PointOnLineSide (slidemo->x, slidemo->y, ld);
	.loc 1 608 50
	movq	slidemo(%rip), %rax	# slidemo, slidemo.91_3
# p_map.c:608:     side = P_PointOnLineSide (slidemo->x, slidemo->y, ld);
	.loc 1 608 12
	movl	28(%rax), %ecx	# slidemo.91_3->y, _4
# p_map.c:608:     side = P_PointOnLineSide (slidemo->x, slidemo->y, ld);
	.loc 1 608 38
	movq	slidemo(%rip), %rax	# slidemo, slidemo.92_5
# p_map.c:608:     side = P_PointOnLineSide (slidemo->x, slidemo->y, ld);
	.loc 1 608 12
	movl	24(%rax), %eax	# slidemo.92_5->x, _6
	movq	-40(%rbp), %rdx	# ld, tmp109
	movl	%ecx, %esi	# _4,
	movl	%eax, %edi	# _6,
	call	P_PointOnLineSide@PLT	#
	movl	%eax, -16(%rbp)	# tmp110, side
# p_map.c:610:     lineangle = R_PointToAngle2 (0,0, ld->dx, ld->dy);
	.loc 1 610 17
	movq	-40(%rbp), %rax	# ld, tmp111
	movl	20(%rax), %edx	# ld_30(D)->dy, _7
	movq	-40(%rbp), %rax	# ld, tmp112
	movl	16(%rax), %eax	# ld_30(D)->dx, _8
	movl	%edx, %ecx	# _7,
	movl	%eax, %edx	# _8,
	movl	$0, %esi	#,
	movl	$0, %edi	#,
	call	R_PointToAngle2@PLT	#
	movl	%eax, -24(%rbp)	# tmp113, lineangle
# p_map.c:612:     if (side == 1)
	.loc 1 612 8
	cmpl	$1, -16(%rbp)	#, side
	jne	.L77	#,
# p_map.c:613: 	lineangle += ANG180;
	.loc 1 613 12
	addl	$-2147483648, -24(%rbp)	#, lineangle
.L77:
# p_map.c:615:     moveangle = R_PointToAngle2 (0,0, tmxmove, tmymove);
	.loc 1 615 17
	movl	tmymove(%rip), %edx	# tmymove, tmymove.93_9
	movl	tmxmove(%rip), %eax	# tmxmove, tmxmove.94_10
	movl	%edx, %ecx	# tmymove.93_9,
	movl	%eax, %edx	# tmxmove.94_10,
	movl	$0, %esi	#,
	movl	$0, %edi	#,
	call	R_PointToAngle2@PLT	#
	movl	%eax, -12(%rbp)	# tmp114, moveangle
# p_map.c:616:     deltaangle = moveangle-lineangle;
	.loc 1 616 16
	movl	-12(%rbp), %eax	# moveangle, tmp118
	subl	-24(%rbp), %eax	# lineangle, tmp117
	movl	%eax, -20(%rbp)	# tmp117, deltaangle
# p_map.c:618:     if (deltaangle > ANG180)
	.loc 1 618 8
	cmpl	$-2147483648, -20(%rbp)	#, deltaangle
	jbe	.L78	#,
# p_map.c:619: 	deltaangle += ANG180;
	.loc 1 619 13
	addl	$-2147483648, -20(%rbp)	#, deltaangle
.L78:
# p_map.c:622:     lineangle >>= ANGLETOFINESHIFT;
	.loc 1 622 15
	shrl	$19, -24(%rbp)	#, lineangle
# p_map.c:623:     deltaangle >>= ANGLETOFINESHIFT;
	.loc 1 623 16
	shrl	$19, -20(%rbp)	#, deltaangle
# p_map.c:625:     movelen = P_AproxDistance (tmxmove, tmymove);
	.loc 1 625 15
	movl	tmymove(%rip), %edx	# tmymove, tmymove.95_11
	movl	tmxmove(%rip), %eax	# tmxmove, tmxmove.96_12
	movl	%edx, %esi	# tmymove.95_11,
	movl	%eax, %edi	# tmxmove.96_12,
	call	P_AproxDistance@PLT	#
	movl	%eax, -8(%rbp)	# tmp119, movelen
# p_map.c:626:     newlen = FixedMul (movelen, finecosine[deltaangle]);
	.loc 1 626 43
	movq	finecosine(%rip), %rax	# finecosine, finecosine.97_13
	movl	-20(%rbp), %edx	# deltaangle, _14
	salq	$2, %rdx	#, _15
	addq	%rdx, %rax	# _15, _16
# p_map.c:626:     newlen = FixedMul (movelen, finecosine[deltaangle]);
	.loc 1 626 14
	movl	(%rax), %edx	# *_16, _17
	movl	-8(%rbp), %eax	# movelen, tmp120
	movl	%edx, %esi	# _17,
	movl	%eax, %edi	# tmp120,
	call	FixedMul@PLT	#
	movl	%eax, -4(%rbp)	# tmp121, newlen
# p_map.c:628:     tmxmove = FixedMul (newlen, finecosine[lineangle]);	
	.loc 1 628 43
	movq	finecosine(%rip), %rax	# finecosine, finecosine.98_18
	movl	-24(%rbp), %edx	# lineangle, _19
	salq	$2, %rdx	#, _20
	addq	%rdx, %rax	# _20, _21
# p_map.c:628:     tmxmove = FixedMul (newlen, finecosine[lineangle]);	
	.loc 1 628 15
	movl	(%rax), %edx	# *_21, _22
	movl	-4(%rbp), %eax	# newlen, tmp122
	movl	%edx, %esi	# _22,
	movl	%eax, %edi	# tmp122,
	call	FixedMul@PLT	#
# p_map.c:628:     tmxmove = FixedMul (newlen, finecosine[lineangle]);	
	.loc 1 628 13 discriminator 1
	movl	%eax, tmxmove(%rip)	# _23, tmxmove
# p_map.c:629:     tmymove = FixedMul (newlen, finesine[lineangle]);	
	.loc 1 629 15
	movl	-24(%rbp), %eax	# lineangle, tmp123
	leaq	0(,%rax,4), %rdx	#, tmp124
	leaq	finesine(%rip), %rax	#, tmp125
	movl	(%rdx,%rax), %edx	# finesine[lineangle_40], _24
	movl	-4(%rbp), %eax	# newlen, tmp126
	movl	%edx, %esi	# _24,
	movl	%eax, %edi	# tmp126,
	call	FixedMul@PLT	#
# p_map.c:629:     tmymove = FixedMul (newlen, finesine[lineangle]);	
	.loc 1 629 13 discriminator 1
	movl	%eax, tmymove(%rip)	# _25, tmymove
.L73:
# p_map.c:630: }
	.loc 1 630 1
	leave	
	.cfi_def_cfa 7, 8
	ret	
	.cfi_endproc
.LFE13:
	.size	P_HitSlideLine, .-P_HitSlideLine
	.section	.rodata
	.align 8
.LC0:
	.string	"PTR_SlideTraverse: not a line?"
	.text
	.globl	PTR_SlideTraverse
	.type	PTR_SlideTraverse, @function
PTR_SlideTraverse:
.LFB14:
	.loc 1 637 1
	.cfi_startproc
	endbr64	
	pushq	%rbp	#
	.cfi_def_cfa_offset 16
	.cfi_offset 6, -16
	movq	%rsp, %rbp	#,
	.cfi_def_cfa_register 6
	subq	$32, %rsp	#,
	movq	%rdi, -24(%rbp)	# in, in
# p_map.c:640:     if (!in->isaline)
	.loc 1 640 12
	movq	-24(%rbp), %rax	# in, tmp111
	movl	4(%rax), %eax	# in_34(D)->isaline, _1
# p_map.c:640:     if (!in->isaline)
	.loc 1 640 8
	testl	%eax, %eax	# _1
	jne	.L80	#,
# p_map.c:641: 	I_Error ("PTR_SlideTraverse: not a line?");
	.loc 1 641 2
	leaq	.LC0(%rip), %rax	#, tmp112
	movq	%rax, %rdi	# tmp112,
	movl	$0, %eax	#,
	call	I_Error@PLT	#
.L80:
# p_map.c:643:     li = in->d.line;
	.loc 1 643 8
	movq	-24(%rbp), %rax	# in, tmp113
	movq	8(%rax), %rax	# in_34(D)->d.line, tmp114
	movq	%rax, -8(%rbp)	# tmp114, li
# p_map.c:645:     if ( ! (li->flags & ML_TWOSIDED) )
	.loc 1 645 15
	movq	-8(%rbp), %rax	# li, tmp115
	movzwl	24(%rax), %eax	# li_36->flags, _2
# p_map.c:645:     if ( ! (li->flags & ML_TWOSIDED) )
	.loc 1 645 23
	cwtl
	andl	$4, %eax	#, _4
# p_map.c:645:     if ( ! (li->flags & ML_TWOSIDED) )
	.loc 1 645 8
	testl	%eax, %eax	# _4
	jne	.L81	#,
# p_map.c:647: 	if (P_PointOnLineSide (slidemo->x, slidemo->y, li))
	.loc 1 647 44
	movq	slidemo(%rip), %rax	# slidemo, slidemo.99_5
# p_map.c:647: 	if (P_PointOnLineSide (slidemo->x, slidemo->y, li))
	.loc 1 647 6
	movl	28(%rax), %ecx	# slidemo.99_5->y, _6
# p_map.c:647: 	if (P_PointOnLineSide (slidemo->x, slidemo->y, li))
	.loc 1 647 32
	movq	slidemo(%rip), %rax	# slidemo, slidemo.100_7
# p_map.c:647: 	if (P_PointOnLineSide (slidemo->x, slidemo->y, li))
	.loc 1 647 6
	movl	24(%rax), %eax	# slidemo.100_7->x, _8
	movq	-8(%rbp), %rdx	# li, tmp116
	movl	%ecx, %esi	# _6,
	movl	%eax, %edi	# _8,
	call	P_PointOnLineSide@PLT	#
# p_map.c:647: 	if (P_PointOnLineSide (slidemo->x, slidemo->y, li))
	.loc 1 647 5 discriminator 1
	testl	%eax, %eax	# _9
	je	.L89	#,
# p_map.c:650: 	    return true;		
	.loc 1 650 13
	movl	$1, %eax	#, _28
	jmp	.L83	#
.L81:
# p_map.c:656:     P_LineOpening (li);
	.loc 1 656 5
	movq	-8(%rbp), %rax	# li, tmp117
	movq	%rax, %rdi	# tmp117,
	call	P_LineOpening@PLT	#
# p_map.c:658:     if (openrange < slidemo->height)
	.loc 1 658 28
	movq	slidemo(%rip), %rax	# slidemo, slidemo.101_10
	movl	108(%rax), %edx	# slidemo.101_10->height, _11
# p_map.c:658:     if (openrange < slidemo->height)
	.loc 1 658 19
	movl	openrange(%rip), %eax	# openrange, openrange.102_12
# p_map.c:658:     if (openrange < slidemo->height)
	.loc 1 658 8
	cmpl	%eax, %edx	# openrange.102_12, _11
	jg	.L90	#,
# p_map.c:661:     if (opentop - slidemo->z < slidemo->height)
	.loc 1 661 17
	movl	opentop(%rip), %edx	# opentop, opentop.103_13
# p_map.c:661:     if (opentop - slidemo->z < slidemo->height)
	.loc 1 661 26
	movq	slidemo(%rip), %rax	# slidemo, slidemo.104_14
	movl	32(%rax), %eax	# slidemo.104_14->z, _15
# p_map.c:661:     if (opentop - slidemo->z < slidemo->height)
	.loc 1 661 17
	subl	%eax, %edx	# _15, _16
# p_map.c:661:     if (opentop - slidemo->z < slidemo->height)
	.loc 1 661 39
	movq	slidemo(%rip), %rax	# slidemo, slidemo.105_17
	movl	108(%rax), %eax	# slidemo.105_17->height, _18
# p_map.c:661:     if (opentop - slidemo->z < slidemo->height)
	.loc 1 661 8
	cmpl	%eax, %edx	# _18, _16
	jl	.L91	#,
# p_map.c:664:     if (openbottom - slidemo->z > 24*FRACUNIT )
	.loc 1 664 20
	movl	openbottom(%rip), %edx	# openbottom, openbottom.106_19
# p_map.c:664:     if (openbottom - slidemo->z > 24*FRACUNIT )
	.loc 1 664 29
	movq	slidemo(%rip), %rax	# slidemo, slidemo.107_20
	movl	32(%rax), %eax	# slidemo.107_20->z, _21
# p_map.c:664:     if (openbottom - slidemo->z > 24*FRACUNIT )
	.loc 1 664 20
	subl	%eax, %edx	# _21, _22
# p_map.c:664:     if (openbottom - slidemo->z > 24*FRACUNIT )
	.loc 1 664 8
	cmpl	$1572864, %edx	#, _22
	jg	.L92	#,
# p_map.c:668:     return true;		
	.loc 1 668 12
	movl	$1, %eax	#, _28
	jmp	.L83	#
.L89:
# p_map.c:652: 	goto isblocking;
	.loc 1 652 2
	nop	
	jmp	.L84	#
.L90:
# p_map.c:659: 	goto isblocking;		// doesn't fit
	.loc 1 659 2
	nop	
	jmp	.L84	#
.L91:
# p_map.c:662: 	goto isblocking;		// mobj is too high
	.loc 1 662 2
	nop	
	jmp	.L84	#
.L92:
# p_map.c:665: 	goto isblocking;		// too big a step up
	.loc 1 665 2
	nop	
.L84:
# p_map.c:673:     if (in->frac < bestslidefrac)
	.loc 1 673 11
	movq	-24(%rbp), %rax	# in, tmp118
	movl	(%rax), %edx	# in_34(D)->frac, _23
# p_map.c:673:     if (in->frac < bestslidefrac)
	.loc 1 673 18
	movl	bestslidefrac(%rip), %eax	# bestslidefrac, bestslidefrac.108_24
# p_map.c:673:     if (in->frac < bestslidefrac)
	.loc 1 673 8
	cmpl	%eax, %edx	# bestslidefrac.108_24, _23
	jge	.L88	#,
# p_map.c:675: 	secondslidefrac = bestslidefrac;
	.loc 1 675 18
	movl	bestslidefrac(%rip), %eax	# bestslidefrac, bestslidefrac.109_25
	movl	%eax, secondslidefrac(%rip)	# bestslidefrac.109_25, secondslidefrac
# p_map.c:676: 	secondslideline = bestslideline;
	.loc 1 676 18
	movq	bestslideline(%rip), %rax	# bestslideline, bestslideline.110_26
	movq	%rax, secondslideline(%rip)	# bestslideline.110_26, secondslideline
# p_map.c:677: 	bestslidefrac = in->frac;
	.loc 1 677 20
	movq	-24(%rbp), %rax	# in, tmp119
	movl	(%rax), %eax	# in_34(D)->frac, _27
# p_map.c:677: 	bestslidefrac = in->frac;
	.loc 1 677 16
	movl	%eax, bestslidefrac(%rip)	# _27, bestslidefrac
# p_map.c:678: 	bestslideline = li;
	.loc 1 678 16
	movq	-8(%rbp), %rax	# li, tmp120
	movq	%rax, bestslideline(%rip)	# tmp120, bestslideline
.L88:
# p_map.c:681:     return false;	// stop
	.loc 1 681 12
	movl	$0, %eax	#, _28
.L83:
# p_map.c:682: }
	.loc 1 682 1
	leave	
	.cfi_def_cfa 7, 8
	ret	
	.cfi_endproc
.LFE14:
	.size	PTR_SlideTraverse, .-PTR_SlideTraverse
	.globl	P_SlideMove
	.type	P_SlideMove, @function
P_SlideMove:
.LFB15:
	.loc 1 696 1
	.cfi_startproc
	endbr64	
	pushq	%rbp	#
	.cfi_def_cfa_offset 16
	.cfi_offset 6, -16
	movq	%rsp, %rbp	#,
	.cfi_def_cfa_register 6
	subq	$48, %rsp	#,
	movq	%rdi, -40(%rbp)	# mo, mo
# p_map.c:705:     slidemo = mo;
	.loc 1 705 13
	movq	-40(%rbp), %rax	# mo, tmp154
	movq	%rax, slidemo(%rip)	# tmp154, slidemo
# p_map.c:706:     hitcount = 0;
	.loc 1 706 14
	movl	$0, -12(%rbp)	#, hitcount
.L94:
# p_map.c:709:     if (++hitcount == 3)
	.loc 1 709 8
	addl	$1, -12(%rbp)	#, hitcount
	cmpl	$3, -12(%rbp)	#, hitcount
	je	.L107	#,
# p_map.c:714:     if (mo->momx > 0)
	.loc 1 714 11
	movq	-40(%rbp), %rax	# mo, tmp155
	movl	112(%rax), %eax	# mo_85(D)->momx, _1
# p_map.c:714:     if (mo->momx > 0)
	.loc 1 714 8
	testl	%eax, %eax	# _1
	jle	.L97	#,
# p_map.c:716: 	leadx = mo->x + mo->radius;
	.loc 1 716 12
	movq	-40(%rbp), %rax	# mo, tmp156
	movl	24(%rax), %edx	# mo_85(D)->x, _2
# p_map.c:716: 	leadx = mo->x + mo->radius;
	.loc 1 716 20
	movq	-40(%rbp), %rax	# mo, tmp157
	movl	104(%rax), %eax	# mo_85(D)->radius, _3
# p_map.c:716: 	leadx = mo->x + mo->radius;
	.loc 1 716 8
	addl	%edx, %eax	# _2, tmp158
	movl	%eax, -28(%rbp)	# tmp158, leadx
# p_map.c:717: 	trailx = mo->x - mo->radius;
	.loc 1 717 13
	movq	-40(%rbp), %rax	# mo, tmp159
	movl	24(%rax), %edx	# mo_85(D)->x, _4
# p_map.c:717: 	trailx = mo->x - mo->radius;
	.loc 1 717 21
	movq	-40(%rbp), %rax	# mo, tmp160
	movl	104(%rax), %eax	# mo_85(D)->radius, _5
# p_map.c:717: 	trailx = mo->x - mo->radius;
	.loc 1 717 9
	subl	%eax, %edx	# _5, tmp161
	movl	%edx, -20(%rbp)	# tmp161, trailx
	jmp	.L98	#
.L97:
# p_map.c:721: 	leadx = mo->x - mo->radius;
	.loc 1 721 12
	movq	-40(%rbp), %rax	# mo, tmp162
	movl	24(%rax), %edx	# mo_85(D)->x, _6
# p_map.c:721: 	leadx = mo->x - mo->radius;
	.loc 1 721 20
	movq	-40(%rbp), %rax	# mo, tmp163
	movl	104(%rax), %eax	# mo_85(D)->radius, _7
# p_map.c:721: 	leadx = mo->x - mo->radius;
	.loc 1 721 8
	subl	%eax, %edx	# _7, tmp164
	movl	%edx, -28(%rbp)	# tmp164, leadx
# p_map.c:722: 	trailx = mo->x + mo->radius;
	.loc 1 722 13
	movq	-40(%rbp), %rax	# mo, tmp165
	movl	24(%rax), %edx	# mo_85(D)->x, _8
# p_map.c:722: 	trailx = mo->x + mo->radius;
	.loc 1 722 21
	movq	-40(%rbp), %rax	# mo, tmp166
	movl	104(%rax), %eax	# mo_85(D)->radius, _9
# p_map.c:722: 	trailx = mo->x + mo->radius;
	.loc 1 722 9
	addl	%edx, %eax	# _8, tmp167
	movl	%eax, -20(%rbp)	# tmp167, trailx
.L98:
# p_map.c:725:     if (mo->momy > 0)
	.loc 1 725 11
	movq	-40(%rbp), %rax	# mo, tmp168
	movl	116(%rax), %eax	# mo_85(D)->momy, _10
# p_map.c:725:     if (mo->momy > 0)
	.loc 1 725 8
	testl	%eax, %eax	# _10
	jle	.L99	#,
# p_map.c:727: 	leady = mo->y + mo->radius;
	.loc 1 727 12
	movq	-40(%rbp), %rax	# mo, tmp169
	movl	28(%rax), %edx	# mo_85(D)->y, _11
# p_map.c:727: 	leady = mo->y + mo->radius;
	.loc 1 727 20
	movq	-40(%rbp), %rax	# mo, tmp170
	movl	104(%rax), %eax	# mo_85(D)->radius, _12
# p_map.c:727: 	leady = mo->y + mo->radius;
	.loc 1 727 8
	addl	%edx, %eax	# _11, tmp171
	movl	%eax, -24(%rbp)	# tmp171, leady
# p_map.c:728: 	traily = mo->y - mo->radius;
	.loc 1 728 13
	movq	-40(%rbp), %rax	# mo, tmp172
	movl	28(%rax), %edx	# mo_85(D)->y, _13
# p_map.c:728: 	traily = mo->y - mo->radius;
	.loc 1 728 21
	movq	-40(%rbp), %rax	# mo, tmp173
	movl	104(%rax), %eax	# mo_85(D)->radius, _14
# p_map.c:728: 	traily = mo->y - mo->radius;
	.loc 1 728 9
	subl	%eax, %edx	# _14, tmp174
	movl	%edx, -16(%rbp)	# tmp174, traily
	jmp	.L100	#
.L99:
# p_map.c:732: 	leady = mo->y - mo->radius;
	.loc 1 732 12
	movq	-40(%rbp), %rax	# mo, tmp175
	movl	28(%rax), %edx	# mo_85(D)->y, _15
# p_map.c:732: 	leady = mo->y - mo->radius;
	.loc 1 732 20
	movq	-40(%rbp), %rax	# mo, tmp176
	movl	104(%rax), %eax	# mo_85(D)->radius, _16
# p_map.c:732: 	leady = mo->y - mo->radius;
	.loc 1 732 8
	subl	%eax, %edx	# _16, tmp177
	movl	%edx, -24(%rbp)	# tmp177, leady
# p_map.c:733: 	traily = mo->y + mo->radius;
	.loc 1 733 13
	movq	-40(%rbp), %rax	# mo, tmp178
	movl	28(%rax), %edx	# mo_85(D)->y, _17
# p_map.c:733: 	traily = mo->y + mo->radius;
	.loc 1 733 21
	movq	-40(%rbp), %rax	# mo, tmp179
	movl	104(%rax), %eax	# mo_85(D)->radius, _18
# p_map.c:733: 	traily = mo->y + mo->radius;
	.loc 1 733 9
	addl	%edx, %eax	# _17, tmp180
	movl	%eax, -16(%rbp)	# tmp180, traily
.L100:
# p_map.c:736:     bestslidefrac = FRACUNIT+1;
	.loc 1 736 19
	movl	$65537, bestslidefrac(%rip)	#, bestslidefrac
# p_map.c:738:     P_PathTraverse ( leadx, leady, leadx+mo->momx, leady+mo->momy,
	.loc 1 738 60
	movq	-40(%rbp), %rax	# mo, tmp181
	movl	116(%rax), %edx	# mo_85(D)->momy, _19
# p_map.c:738:     P_PathTraverse ( leadx, leady, leadx+mo->momx, leady+mo->momy,
	.loc 1 738 5
	movl	-24(%rbp), %eax	# leady, tmp182
	leal	(%rdx,%rax), %ecx	#, _20
# p_map.c:738:     P_PathTraverse ( leadx, leady, leadx+mo->momx, leady+mo->momy,
	.loc 1 738 44
	movq	-40(%rbp), %rax	# mo, tmp183
	movl	112(%rax), %edx	# mo_85(D)->momx, _21
# p_map.c:738:     P_PathTraverse ( leadx, leady, leadx+mo->momx, leady+mo->momy,
	.loc 1 738 5
	movl	-28(%rbp), %eax	# leadx, tmp184
	addl	%eax, %edx	# tmp184, _22
	movl	-24(%rbp), %esi	# leady, tmp185
	movl	-28(%rbp), %eax	# leadx, tmp186
	leaq	PTR_SlideTraverse(%rip), %r9	#,
	movl	$1, %r8d	#,
	movl	%eax, %edi	# tmp186,
	call	P_PathTraverse@PLT	#
# p_map.c:740:     P_PathTraverse ( trailx, leady, trailx+mo->momx, leady+mo->momy,
	.loc 1 740 62
	movq	-40(%rbp), %rax	# mo, tmp187
	movl	116(%rax), %edx	# mo_85(D)->momy, _23
# p_map.c:740:     P_PathTraverse ( trailx, leady, trailx+mo->momx, leady+mo->momy,
	.loc 1 740 5
	movl	-24(%rbp), %eax	# leady, tmp188
	leal	(%rdx,%rax), %ecx	#, _24
# p_map.c:740:     P_PathTraverse ( trailx, leady, trailx+mo->momx, leady+mo->momy,
	.loc 1 740 46
	movq	-40(%rbp), %rax	# mo, tmp189
	movl	112(%rax), %edx	# mo_85(D)->momx, _25
# p_map.c:740:     P_PathTraverse ( trailx, leady, trailx+mo->momx, leady+mo->momy,
	.loc 1 740 5
	movl	-20(%rbp), %eax	# trailx, tmp190
	addl	%eax, %edx	# tmp190, _26
	movl	-24(%rbp), %esi	# leady, tmp191
	movl	-20(%rbp), %eax	# trailx, tmp192
	leaq	PTR_SlideTraverse(%rip), %r9	#,
	movl	$1, %r8d	#,
	movl	%eax, %edi	# tmp192,
	call	P_PathTraverse@PLT	#
# p_map.c:742:     P_PathTraverse ( leadx, traily, leadx+mo->momx, traily+mo->momy,
	.loc 1 742 62
	movq	-40(%rbp), %rax	# mo, tmp193
	movl	116(%rax), %edx	# mo_85(D)->momy, _27
# p_map.c:742:     P_PathTraverse ( leadx, traily, leadx+mo->momx, traily+mo->momy,
	.loc 1 742 5
	movl	-16(%rbp), %eax	# traily, tmp194
	leal	(%rdx,%rax), %ecx	#, _28
# p_map.c:742:     P_PathTraverse ( leadx, traily, leadx+mo->momx, traily+mo->momy,
	.loc 1 742 45
	movq	-40(%rbp), %rax	# mo, tmp195
	movl	112(%rax), %edx	# mo_85(D)->momx, _29
# p_map.c:742:     P_PathTraverse ( leadx, traily, leadx+mo->momx, traily+mo->momy,
	.loc 1 742 5
	movl	-28(%rbp), %eax	# leadx, tmp196
	addl	%eax, %edx	# tmp196, _30
	movl	-16(%rbp), %esi	# traily, tmp197
	movl	-28(%rbp), %eax	# leadx, tmp198
	leaq	PTR_SlideTraverse(%rip), %r9	#,
	movl	$1, %r8d	#,
	movl	%eax, %edi	# tmp198,
	call	P_PathTraverse@PLT	#
# p_map.c:746:     if (bestslidefrac == FRACUNIT+1)
	.loc 1 746 23
	movl	bestslidefrac(%rip), %eax	# bestslidefrac, bestslidefrac.111_31
# p_map.c:746:     if (bestslidefrac == FRACUNIT+1)
	.loc 1 746 8
	cmpl	$65537, %eax	#, bestslidefrac.111_31
	jne	.L101	#,
# p_map.c:749:       stairstep:
	.loc 1 749 7
	jmp	.L96	#
.L107:
# p_map.c:710: 	goto stairstep;		// don't loop forever
	.loc 1 710 2
	nop	
	jmp	.L96	#
.L109:
# p_map.c:763: 	    goto stairstep;
	.loc 1 763 6
	nop	
.L96:
# p_map.c:750: 	if (!P_TryMove (mo, mo->x, mo->y + mo->momy))
	.loc 1 750 31
	movq	-40(%rbp), %rax	# mo, tmp199
	movl	28(%rax), %edx	# mo_85(D)->y, _32
# p_map.c:750: 	if (!P_TryMove (mo, mo->x, mo->y + mo->momy))
	.loc 1 750 39
	movq	-40(%rbp), %rax	# mo, tmp200
	movl	116(%rax), %eax	# mo_85(D)->momy, _33
# p_map.c:750: 	if (!P_TryMove (mo, mo->x, mo->y + mo->momy))
	.loc 1 750 7
	addl	%eax, %edx	# _33, _34
	movq	-40(%rbp), %rax	# mo, tmp201
	movl	24(%rax), %ecx	# mo_85(D)->x, _35
	movq	-40(%rbp), %rax	# mo, tmp202
	movl	%ecx, %esi	# _35,
	movq	%rax, %rdi	# tmp202,
	call	P_TryMove	#
# p_map.c:750: 	if (!P_TryMove (mo, mo->x, mo->y + mo->momy))
	.loc 1 750 5 discriminator 1
	testl	%eax, %eax	# _36
	jne	.L108	#,
# p_map.c:751: 	    P_TryMove (mo, mo->x + mo->momx, mo->y);
	.loc 1 751 6
	movq	-40(%rbp), %rax	# mo, tmp203
	movl	28(%rax), %edx	# mo_85(D)->y, _37
# p_map.c:751: 	    P_TryMove (mo, mo->x + mo->momx, mo->y);
	.loc 1 751 23
	movq	-40(%rbp), %rax	# mo, tmp204
	movl	24(%rax), %ecx	# mo_85(D)->x, _38
# p_map.c:751: 	    P_TryMove (mo, mo->x + mo->momx, mo->y);
	.loc 1 751 31
	movq	-40(%rbp), %rax	# mo, tmp205
	movl	112(%rax), %eax	# mo_85(D)->momx, _39
# p_map.c:751: 	    P_TryMove (mo, mo->x + mo->momx, mo->y);
	.loc 1 751 6
	addl	%eax, %ecx	# _39, _40
	movq	-40(%rbp), %rax	# mo, tmp206
	movl	%ecx, %esi	# _40,
	movq	%rax, %rdi	# tmp206,
	call	P_TryMove	#
# p_map.c:752: 	return;
	.loc 1 752 2
	jmp	.L108	#
.L101:
# p_map.c:756:     bestslidefrac -= 0x800;	
	.loc 1 756 19
	movl	bestslidefrac(%rip), %eax	# bestslidefrac, bestslidefrac.112_41
	subl	$2048, %eax	#, _42
	movl	%eax, bestslidefrac(%rip)	# _42, bestslidefrac
# p_map.c:757:     if (bestslidefrac > 0)
	.loc 1 757 23
	movl	bestslidefrac(%rip), %eax	# bestslidefrac, bestslidefrac.113_43
# p_map.c:757:     if (bestslidefrac > 0)
	.loc 1 757 8
	testl	%eax, %eax	# bestslidefrac.113_43
	jle	.L104	#,
# p_map.c:759: 	newx = FixedMul (mo->momx, bestslidefrac);
	.loc 1 759 9
	movl	bestslidefrac(%rip), %edx	# bestslidefrac, bestslidefrac.114_44
	movq	-40(%rbp), %rax	# mo, tmp207
	movl	112(%rax), %eax	# mo_85(D)->momx, _45
	movl	%edx, %esi	# bestslidefrac.114_44,
	movl	%eax, %edi	# _45,
	call	FixedMul@PLT	#
	movl	%eax, -8(%rbp)	# tmp208, newx
# p_map.c:760: 	newy = FixedMul (mo->momy, bestslidefrac);
	.loc 1 760 9
	movl	bestslidefrac(%rip), %edx	# bestslidefrac, bestslidefrac.115_46
	movq	-40(%rbp), %rax	# mo, tmp209
	movl	116(%rax), %eax	# mo_85(D)->momy, _47
	movl	%edx, %esi	# bestslidefrac.115_46,
	movl	%eax, %edi	# _47,
	call	FixedMul@PLT	#
	movl	%eax, -4(%rbp)	# tmp210, newy
# p_map.c:762: 	if (!P_TryMove (mo, mo->x+newx, mo->y+newy))
	.loc 1 762 36
	movq	-40(%rbp), %rax	# mo, tmp211
	movl	28(%rax), %edx	# mo_85(D)->y, _48
# p_map.c:762: 	if (!P_TryMove (mo, mo->x+newx, mo->y+newy))
	.loc 1 762 7
	movl	-4(%rbp), %eax	# newy, tmp212
	addl	%eax, %edx	# tmp212, _49
# p_map.c:762: 	if (!P_TryMove (mo, mo->x+newx, mo->y+newy))
	.loc 1 762 24
	movq	-40(%rbp), %rax	# mo, tmp213
	movl	24(%rax), %ecx	# mo_85(D)->x, _50
# p_map.c:762: 	if (!P_TryMove (mo, mo->x+newx, mo->y+newy))
	.loc 1 762 7
	movl	-8(%rbp), %eax	# newx, tmp214
	addl	%eax, %ecx	# tmp214, _51
	movq	-40(%rbp), %rax	# mo, tmp215
	movl	%ecx, %esi	# _51,
	movq	%rax, %rdi	# tmp215,
	call	P_TryMove	#
# p_map.c:762: 	if (!P_TryMove (mo, mo->x+newx, mo->y+newy))
	.loc 1 762 5 discriminator 1
	testl	%eax, %eax	# _52
	je	.L109	#,
.L104:
# p_map.c:768:     bestslidefrac = FRACUNIT-(bestslidefrac+0x800);
	.loc 1 768 29
	movl	bestslidefrac(%rip), %eax	# bestslidefrac, bestslidefrac.116_53
	movl	$63488, %edx	#, tmp216
	subl	%eax, %edx	# bestslidefrac.116_53, _54
# p_map.c:768:     bestslidefrac = FRACUNIT-(bestslidefrac+0x800);
	.loc 1 768 19
	movl	%edx, bestslidefrac(%rip)	# _54, bestslidefrac
# p_map.c:770:     if (bestslidefrac > FRACUNIT)
	.loc 1 770 23
	movl	bestslidefrac(%rip), %eax	# bestslidefrac, bestslidefrac.117_55
# p_map.c:770:     if (bestslidefrac > FRACUNIT)
	.loc 1 770 8
	cmpl	$65536, %eax	#, bestslidefrac.117_55
	jle	.L105	#,
# p_map.c:771: 	bestslidefrac = FRACUNIT;
	.loc 1 771 16
	movl	$65536, bestslidefrac(%rip)	#, bestslidefrac
.L105:
# p_map.c:773:     if (bestslidefrac <= 0)
	.loc 1 773 23
	movl	bestslidefrac(%rip), %eax	# bestslidefrac, bestslidefrac.118_56
# p_map.c:773:     if (bestslidefrac <= 0)
	.loc 1 773 8
	testl	%eax, %eax	# bestslidefrac.118_56
	jle	.L110	#,
# p_map.c:776:     tmxmove = FixedMul (mo->momx, bestslidefrac);
	.loc 1 776 15
	movl	bestslidefrac(%rip), %edx	# bestslidefrac, bestslidefrac.119_57
	movq	-40(%rbp), %rax	# mo, tmp217
	movl	112(%rax), %eax	# mo_85(D)->momx, _58
	movl	%edx, %esi	# bestslidefrac.119_57,
	movl	%eax, %edi	# _58,
	call	FixedMul@PLT	#
# p_map.c:776:     tmxmove = FixedMul (mo->momx, bestslidefrac);
	.loc 1 776 13 discriminator 1
	movl	%eax, tmxmove(%rip)	# _59, tmxmove
# p_map.c:777:     tmymove = FixedMul (mo->momy, bestslidefrac);
	.loc 1 777 15
	movl	bestslidefrac(%rip), %edx	# bestslidefrac, bestslidefrac.120_60
	movq	-40(%rbp), %rax	# mo, tmp218
	movl	116(%rax), %eax	# mo_85(D)->momy, _61
	movl	%edx, %esi	# bestslidefrac.120_60,
	movl	%eax, %edi	# _61,
	call	FixedMul@PLT	#
# p_map.c:777:     tmymove = FixedMul (mo->momy, bestslidefrac);
	.loc 1 777 13 discriminator 1
	movl	%eax, tmymove(%rip)	# _62, tmymove
# p_map.c:779:     P_HitSlideLine (bestslideline);	// clip the moves
	.loc 1 779 5
	movq	bestslideline(%rip), %rax	# bestslideline, bestslideline.121_63
	movq	%rax, %rdi	# bestslideline.121_63,
	call	P_HitSlideLine	#
# p_map.c:781:     mo->momx = tmxmove;
	.loc 1 781 14
	movl	tmxmove(%rip), %edx	# tmxmove, tmxmove.122_64
	movq	-40(%rbp), %rax	# mo, tmp219
	movl	%edx, 112(%rax)	# tmxmove.122_64, mo_85(D)->momx
# p_map.c:782:     mo->momy = tmymove;
	.loc 1 782 14
	movl	tmymove(%rip), %edx	# tmymove, tmymove.123_65
	movq	-40(%rbp), %rax	# mo, tmp220
	movl	%edx, 116(%rax)	# tmymove.123_65, mo_85(D)->momy
# p_map.c:784:     if (!P_TryMove (mo, mo->x+tmxmove, mo->y+tmymove))
	.loc 1 784 42
	movq	-40(%rbp), %rax	# mo, tmp221
	movl	28(%rax), %edx	# mo_85(D)->y, _66
# p_map.c:784:     if (!P_TryMove (mo, mo->x+tmxmove, mo->y+tmymove))
	.loc 1 784 10
	movl	tmymove(%rip), %eax	# tmymove, tmymove.124_67
	addl	%eax, %edx	# tmymove.124_67, _68
# p_map.c:784:     if (!P_TryMove (mo, mo->x+tmxmove, mo->y+tmymove))
	.loc 1 784 27
	movq	-40(%rbp), %rax	# mo, tmp222
	movl	24(%rax), %ecx	# mo_85(D)->x, _69
# p_map.c:784:     if (!P_TryMove (mo, mo->x+tmxmove, mo->y+tmymove))
	.loc 1 784 10
	movl	tmxmove(%rip), %eax	# tmxmove, tmxmove.125_70
	addl	%eax, %ecx	# tmxmove.125_70, _71
	movq	-40(%rbp), %rax	# mo, tmp223
	movl	%ecx, %esi	# _71,
	movq	%rax, %rdi	# tmp223,
	call	P_TryMove	#
# p_map.c:784:     if (!P_TryMove (mo, mo->x+tmxmove, mo->y+tmymove))
	.loc 1 784 8 discriminator 1
	testl	%eax, %eax	# _72
	jne	.L93	#,
# p_map.c:786: 	goto retry;
	.loc 1 786 2
	jmp	.L94	#
.L108:
# p_map.c:752: 	return;
	.loc 1 752 2
	nop	
	jmp	.L93	#
.L110:
# p_map.c:774: 	return;
	.loc 1 774 2
	nop	
.L93:
# p_map.c:788: }
	.loc 1 788 1
	leave	
	.cfi_def_cfa 7, 8
	ret	
	.cfi_endproc
.LFE15:
	.size	P_SlideMove, .-P_SlideMove
	.globl	linetarget
	.bss
	.align 8
	.type	linetarget, @object
	.size	linetarget, 8
linetarget:
	.zero	8
	.globl	shootthing
	.align 8
	.type	shootthing, @object
	.size	shootthing, 8
shootthing:
	.zero	8
	.globl	shootz
	.align 4
	.type	shootz, @object
	.size	shootz, 4
shootz:
	.zero	4
	.globl	la_damage
	.align 4
	.type	la_damage, @object
	.size	la_damage, 4
la_damage:
	.zero	4
	.globl	attackrange
	.align 4
	.type	attackrange, @object
	.size	attackrange, 4
attackrange:
	.zero	4
	.globl	aimslope
	.align 4
	.type	aimslope, @object
	.size	aimslope, 4
aimslope:
	.zero	4
	.text
	.globl	PTR_AimTraverse
	.type	PTR_AimTraverse, @function
PTR_AimTraverse:
.LFB16:
	.loc 1 817 1
	.cfi_startproc
	endbr64	
	pushq	%rbp	#
	.cfi_def_cfa_offset 16
	.cfi_offset 6, -16
	movq	%rsp, %rbp	#,
	.cfi_def_cfa_register 6
	subq	$48, %rsp	#,
	movq	%rdi, -40(%rbp)	# in, in
# p_map.c:825:     if (in->isaline)
	.loc 1 825 11
	movq	-40(%rbp), %rax	# in, tmp129
	movl	4(%rax), %eax	# in_53(D)->isaline, _1
# p_map.c:825:     if (in->isaline)
	.loc 1 825 8
	testl	%eax, %eax	# _1
	je	.L112	#,
# p_map.c:827: 	li = in->d.line;
	.loc 1 827 5
	movq	-40(%rbp), %rax	# in, tmp130
	movq	8(%rax), %rax	# in_53(D)->d.line, tmp131
	movq	%rax, -8(%rbp)	# tmp131, li
# p_map.c:829: 	if ( !(li->flags & ML_TWOSIDED) )
	.loc 1 829 11
	movq	-8(%rbp), %rax	# li, tmp132
	movzwl	24(%rax), %eax	# li_70->flags, _2
# p_map.c:829: 	if ( !(li->flags & ML_TWOSIDED) )
	.loc 1 829 19
	cwtl
	andl	$4, %eax	#, _4
# p_map.c:829: 	if ( !(li->flags & ML_TWOSIDED) )
	.loc 1 829 5
	testl	%eax, %eax	# _4
	jne	.L113	#,
# p_map.c:830: 	    return false;		// stop
	.loc 1 830 13
	movl	$0, %eax	#, _48
	jmp	.L114	#
.L113:
# p_map.c:835: 	P_LineOpening (li);
	.loc 1 835 2
	movq	-8(%rbp), %rax	# li, tmp133
	movq	%rax, %rdi	# tmp133,
	call	P_LineOpening@PLT	#
# p_map.c:837: 	if (openbottom >= opentop)
	.loc 1 837 17
	movl	openbottom(%rip), %edx	# openbottom, openbottom.126_5
	movl	opentop(%rip), %eax	# opentop, opentop.127_6
# p_map.c:837: 	if (openbottom >= opentop)
	.loc 1 837 5
	cmpl	%eax, %edx	# opentop.127_6, openbottom.126_5
	jl	.L115	#,
# p_map.c:838: 	    return false;		// stop
	.loc 1 838 13
	movl	$0, %eax	#, _48
	jmp	.L114	#
.L115:
# p_map.c:840: 	dist = FixedMul (attackrange, in->frac);
	.loc 1 840 9
	movq	-40(%rbp), %rax	# in, tmp134
	movl	(%rax), %edx	# in_53(D)->frac, _7
	movl	attackrange(%rip), %eax	# attackrange, attackrange.128_8
	movl	%edx, %esi	# _7,
	movl	%eax, %edi	# attackrange.128_8,
	call	FixedMul@PLT	#
	movl	%eax, -24(%rbp)	# tmp135, dist
# p_map.c:842: 	if (li->frontsector->floorheight != li->backsector->floorheight)
	.loc 1 842 8
	movq	-8(%rbp), %rax	# li, tmp136
	movq	56(%rax), %rax	# li_70->frontsector, _9
# p_map.c:842: 	if (li->frontsector->floorheight != li->backsector->floorheight)
	.loc 1 842 21
	movl	(%rax), %edx	# _9->floorheight, _10
# p_map.c:842: 	if (li->frontsector->floorheight != li->backsector->floorheight)
	.loc 1 842 40
	movq	-8(%rbp), %rax	# li, tmp137
	movq	64(%rax), %rax	# li_70->backsector, _11
# p_map.c:842: 	if (li->frontsector->floorheight != li->backsector->floorheight)
	.loc 1 842 52
	movl	(%rax), %eax	# _11->floorheight, _12
# p_map.c:842: 	if (li->frontsector->floorheight != li->backsector->floorheight)
	.loc 1 842 5
	cmpl	%eax, %edx	# _12, _10
	je	.L116	#,
# p_map.c:844: 	    slope = FixedDiv (openbottom - shootz , dist);
	.loc 1 844 14
	movl	openbottom(%rip), %edx	# openbottom, openbottom.129_13
	movl	shootz(%rip), %eax	# shootz, shootz.130_14
	subl	%eax, %edx	# shootz.130_14, _15
	movl	-24(%rbp), %eax	# dist, tmp138
	movl	%eax, %esi	# tmp138,
	movl	%edx, %edi	# _15,
	call	FixedDiv@PLT	#
	movl	%eax, -20(%rbp)	# tmp139, slope
# p_map.c:845: 	    if (slope > bottomslope)
	.loc 1 845 16
	movl	bottomslope(%rip), %eax	# bottomslope, bottomslope.131_16
# p_map.c:845: 	    if (slope > bottomslope)
	.loc 1 845 9
	cmpl	%eax, -20(%rbp)	# bottomslope.131_16, slope
	jle	.L116	#,
# p_map.c:846: 		bottomslope = slope;
	.loc 1 846 15
	movl	-20(%rbp), %eax	# slope, tmp140
	movl	%eax, bottomslope(%rip)	# tmp140, bottomslope
.L116:
# p_map.c:849: 	if (li->frontsector->ceilingheight != li->backsector->ceilingheight)
	.loc 1 849 8
	movq	-8(%rbp), %rax	# li, tmp141
	movq	56(%rax), %rax	# li_70->frontsector, _17
# p_map.c:849: 	if (li->frontsector->ceilingheight != li->backsector->ceilingheight)
	.loc 1 849 21
	movl	4(%rax), %edx	# _17->ceilingheight, _18
# p_map.c:849: 	if (li->frontsector->ceilingheight != li->backsector->ceilingheight)
	.loc 1 849 42
	movq	-8(%rbp), %rax	# li, tmp142
	movq	64(%rax), %rax	# li_70->backsector, _19
# p_map.c:849: 	if (li->frontsector->ceilingheight != li->backsector->ceilingheight)
	.loc 1 849 54
	movl	4(%rax), %eax	# _19->ceilingheight, _20
# p_map.c:849: 	if (li->frontsector->ceilingheight != li->backsector->ceilingheight)
	.loc 1 849 5
	cmpl	%eax, %edx	# _20, _18
	je	.L117	#,
# p_map.c:851: 	    slope = FixedDiv (opentop - shootz , dist);
	.loc 1 851 14
	movl	opentop(%rip), %edx	# opentop, opentop.132_21
	movl	shootz(%rip), %eax	# shootz, shootz.133_22
	subl	%eax, %edx	# shootz.133_22, _23
	movl	-24(%rbp), %eax	# dist, tmp143
	movl	%eax, %esi	# tmp143,
	movl	%edx, %edi	# _23,
	call	FixedDiv@PLT	#
	movl	%eax, -20(%rbp)	# tmp144, slope
# p_map.c:852: 	    if (slope < topslope)
	.loc 1 852 16
	movl	topslope(%rip), %eax	# topslope, topslope.134_24
# p_map.c:852: 	    if (slope < topslope)
	.loc 1 852 9
	cmpl	%eax, -20(%rbp)	# topslope.134_24, slope
	jge	.L117	#,
# p_map.c:853: 		topslope = slope;
	.loc 1 853 12
	movl	-20(%rbp), %eax	# slope, tmp145
	movl	%eax, topslope(%rip)	# tmp145, topslope
.L117:
# p_map.c:856: 	if (topslope <= bottomslope)
	.loc 1 856 15
	movl	topslope(%rip), %edx	# topslope, topslope.135_25
	movl	bottomslope(%rip), %eax	# bottomslope, bottomslope.136_26
# p_map.c:856: 	if (topslope <= bottomslope)
	.loc 1 856 5
	cmpl	%eax, %edx	# bottomslope.136_26, topslope.135_25
	jg	.L118	#,
# p_map.c:857: 	    return false;		// stop
	.loc 1 857 13
	movl	$0, %eax	#, _48
	jmp	.L114	#
.L118:
# p_map.c:859: 	return true;			// shot continues
	.loc 1 859 9
	movl	$1, %eax	#, _48
	jmp	.L114	#
.L112:
# p_map.c:863:     th = in->d.thing;
	.loc 1 863 8
	movq	-40(%rbp), %rax	# in, tmp146
	movq	8(%rax), %rax	# in_53(D)->d.thing, tmp147
	movq	%rax, -16(%rbp)	# tmp147, th
# p_map.c:864:     if (th == shootthing)
	.loc 1 864 12
	movq	shootthing(%rip), %rax	# shootthing, shootthing.137_27
# p_map.c:864:     if (th == shootthing)
	.loc 1 864 8
	cmpq	%rax, -16(%rbp)	# shootthing.137_27, th
	jne	.L119	#,
# p_map.c:865: 	return true;			// can't shoot self
	.loc 1 865 9
	movl	$1, %eax	#, _48
	jmp	.L114	#
.L119:
# p_map.c:867:     if (!(th->flags&MF_SHOOTABLE))
	.loc 1 867 13
	movq	-16(%rbp), %rax	# th, tmp148
	movl	160(%rax), %eax	# th_54->flags, _28
# p_map.c:867:     if (!(th->flags&MF_SHOOTABLE))
	.loc 1 867 20
	andl	$4, %eax	#, _29
# p_map.c:867:     if (!(th->flags&MF_SHOOTABLE))
	.loc 1 867 8
	testl	%eax, %eax	# _29
	jne	.L120	#,
# p_map.c:868: 	return true;			// corpse or something
	.loc 1 868 9
	movl	$1, %eax	#, _48
	jmp	.L114	#
.L120:
# p_map.c:871:     dist = FixedMul (attackrange, in->frac);
	.loc 1 871 12
	movq	-40(%rbp), %rax	# in, tmp149
	movl	(%rax), %edx	# in_53(D)->frac, _30
	movl	attackrange(%rip), %eax	# attackrange, attackrange.138_31
	movl	%edx, %esi	# _30,
	movl	%eax, %edi	# attackrange.138_31,
	call	FixedMul@PLT	#
	movl	%eax, -24(%rbp)	# tmp150, dist
# p_map.c:872:     thingtopslope = FixedDiv (th->z+th->height - shootz , dist);
	.loc 1 872 33
	movq	-16(%rbp), %rax	# th, tmp151
	movl	32(%rax), %edx	# th_54->z, _32
# p_map.c:872:     thingtopslope = FixedDiv (th->z+th->height - shootz , dist);
	.loc 1 872 39
	movq	-16(%rbp), %rax	# th, tmp152
	movl	108(%rax), %eax	# th_54->height, _33
# p_map.c:872:     thingtopslope = FixedDiv (th->z+th->height - shootz , dist);
	.loc 1 872 36
	addl	%eax, %edx	# _33, _34
# p_map.c:872:     thingtopslope = FixedDiv (th->z+th->height - shootz , dist);
	.loc 1 872 21
	movl	shootz(%rip), %eax	# shootz, shootz.139_35
	subl	%eax, %edx	# shootz.139_35, _36
	movl	-24(%rbp), %eax	# dist, tmp153
	movl	%eax, %esi	# tmp153,
	movl	%edx, %edi	# _36,
	call	FixedDiv@PLT	#
	movl	%eax, -32(%rbp)	# tmp154, thingtopslope
# p_map.c:874:     if (thingtopslope < bottomslope)
	.loc 1 874 23
	movl	bottomslope(%rip), %eax	# bottomslope, bottomslope.140_37
# p_map.c:874:     if (thingtopslope < bottomslope)
	.loc 1 874 8
	cmpl	%eax, -32(%rbp)	# bottomslope.140_37, thingtopslope
	jge	.L121	#,
# p_map.c:875: 	return true;			// shot over the thing
	.loc 1 875 9
	movl	$1, %eax	#, _48
	jmp	.L114	#
.L121:
# p_map.c:877:     thingbottomslope = FixedDiv (th->z - shootz, dist);
	.loc 1 877 36
	movq	-16(%rbp), %rax	# th, tmp155
	movl	32(%rax), %edx	# th_54->z, _38
# p_map.c:877:     thingbottomslope = FixedDiv (th->z - shootz, dist);
	.loc 1 877 24
	movl	shootz(%rip), %eax	# shootz, shootz.141_39
	subl	%eax, %edx	# shootz.141_39, _40
	movl	-24(%rbp), %eax	# dist, tmp156
	movl	%eax, %esi	# tmp156,
	movl	%edx, %edi	# _40,
	call	FixedDiv@PLT	#
	movl	%eax, -28(%rbp)	# tmp157, thingbottomslope
# p_map.c:879:     if (thingbottomslope > topslope)
	.loc 1 879 26
	movl	topslope(%rip), %eax	# topslope, topslope.142_41
# p_map.c:879:     if (thingbottomslope > topslope)
	.loc 1 879 8
	cmpl	%eax, -28(%rbp)	# topslope.142_41, thingbottomslope
	jle	.L122	#,
# p_map.c:880: 	return true;			// shot under the thing
	.loc 1 880 9
	movl	$1, %eax	#, _48
	jmp	.L114	#
.L122:
# p_map.c:883:     if (thingtopslope > topslope)
	.loc 1 883 23
	movl	topslope(%rip), %eax	# topslope, topslope.143_42
# p_map.c:883:     if (thingtopslope > topslope)
	.loc 1 883 8
	cmpl	%eax, -32(%rbp)	# topslope.143_42, thingtopslope
	jle	.L123	#,
# p_map.c:884: 	thingtopslope = topslope;
	.loc 1 884 16
	movl	topslope(%rip), %eax	# topslope, tmp158
	movl	%eax, -32(%rbp)	# tmp158, thingtopslope
.L123:
# p_map.c:886:     if (thingbottomslope < bottomslope)
	.loc 1 886 26
	movl	bottomslope(%rip), %eax	# bottomslope, bottomslope.144_43
# p_map.c:886:     if (thingbottomslope < bottomslope)
	.loc 1 886 8
	cmpl	%eax, -28(%rbp)	# bottomslope.144_43, thingbottomslope
	jge	.L124	#,
# p_map.c:887: 	thingbottomslope = bottomslope;
	.loc 1 887 19
	movl	bottomslope(%rip), %eax	# bottomslope, tmp159
	movl	%eax, -28(%rbp)	# tmp159, thingbottomslope
.L124:
# p_map.c:889:     aimslope = (thingtopslope+thingbottomslope)/2;
	.loc 1 889 30
	movl	-32(%rbp), %edx	# thingtopslope, tmp160
	movl	-28(%rbp), %eax	# thingbottomslope, tmp161
	addl	%edx, %eax	# tmp160, _44
# p_map.c:889:     aimslope = (thingtopslope+thingbottomslope)/2;
	.loc 1 889 48
	movl	%eax, %edx	# _44, tmp162
	shrl	$31, %edx	#, tmp162
	addl	%edx, %eax	# tmp162, tmp163
	sarl	%eax	# tmp164
# p_map.c:889:     aimslope = (thingtopslope+thingbottomslope)/2;
	.loc 1 889 14
	movl	%eax, aimslope(%rip)	# _45, aimslope
# p_map.c:890:     linetarget = th;
	.loc 1 890 16
	movq	-16(%rbp), %rax	# th, tmp165
	movq	%rax, linetarget(%rip)	# tmp165, linetarget
# p_map.c:892:     return false;			// don't go any farther
	.loc 1 892 12
	movl	$0, %eax	#, _48
.L114:
# p_map.c:893: }
	.loc 1 893 1
	leave	
	.cfi_def_cfa 7, 8
	ret	
	.cfi_endproc
.LFE16:
	.size	PTR_AimTraverse, .-PTR_AimTraverse
	.globl	PTR_ShootTraverse
	.type	PTR_ShootTraverse, @function
PTR_ShootTraverse:
.LFB17:
	.loc 1 900 1
	.cfi_startproc
	endbr64	
	pushq	%rbp	#
	.cfi_def_cfa_offset 16
	.cfi_offset 6, -16
	movq	%rsp, %rbp	#,
	.cfi_def_cfa_register 6
	pushq	%rbx	#
	subq	$72, %rsp	#,
	.cfi_offset 3, -24
	movq	%rdi, -72(%rbp)	# in, in
# p_map.c:915:     if (in->isaline)
	.loc 1 915 11
	movq	-72(%rbp), %rax	# in, tmp170
	movl	4(%rax), %eax	# in_96(D)->isaline, _1
# p_map.c:915:     if (in->isaline)
	.loc 1 915 8
	testl	%eax, %eax	# _1
	je	.L126	#,
# p_map.c:917: 	li = in->d.line;
	.loc 1 917 5
	movq	-72(%rbp), %rax	# in, tmp171
	movq	8(%rax), %rax	# in_96(D)->d.line, tmp172
	movq	%rax, -24(%rbp)	# tmp172, li
# p_map.c:919: 	if (li->special)
	.loc 1 919 8
	movq	-24(%rbp), %rax	# li, tmp173
	movzwl	26(%rax), %eax	# li_121->special, _2
# p_map.c:919: 	if (li->special)
	.loc 1 919 5
	testw	%ax, %ax	# _2
	je	.L127	#,
# p_map.c:920: 	    P_ShootSpecialLine (shootthing, li);
	.loc 1 920 6
	movq	shootthing(%rip), %rax	# shootthing, shootthing.145_3
	movq	-24(%rbp), %rdx	# li, tmp174
	movq	%rdx, %rsi	# tmp174,
	movq	%rax, %rdi	# shootthing.145_3,
	call	P_ShootSpecialLine@PLT	#
.L127:
# p_map.c:922: 	if ( !(li->flags & ML_TWOSIDED) )
	.loc 1 922 11
	movq	-24(%rbp), %rax	# li, tmp175
	movzwl	24(%rax), %eax	# li_121->flags, _4
# p_map.c:922: 	if ( !(li->flags & ML_TWOSIDED) )
	.loc 1 922 19
	cwtl
	andl	$4, %eax	#, _6
# p_map.c:922: 	if ( !(li->flags & ML_TWOSIDED) )
	.loc 1 922 5
	testl	%eax, %eax	# _6
	je	.L142	#,
# p_map.c:926: 	P_LineOpening (li);
	.loc 1 926 2
	movq	-24(%rbp), %rax	# li, tmp176
	movq	%rax, %rdi	# tmp176,
	call	P_LineOpening@PLT	#
# p_map.c:928: 	dist = FixedMul (attackrange, in->frac);
	.loc 1 928 9
	movq	-72(%rbp), %rax	# in, tmp177
	movl	(%rax), %edx	# in_96(D)->frac, _7
	movl	attackrange(%rip), %eax	# attackrange, attackrange.146_8
	movl	%edx, %esi	# _7,
	movl	%eax, %edi	# attackrange.146_8,
	call	FixedMul@PLT	#
	movl	%eax, -64(%rbp)	# tmp178, dist
# p_map.c:930: 	if (li->frontsector->floorheight != li->backsector->floorheight)
	.loc 1 930 8
	movq	-24(%rbp), %rax	# li, tmp179
	movq	56(%rax), %rax	# li_121->frontsector, _9
# p_map.c:930: 	if (li->frontsector->floorheight != li->backsector->floorheight)
	.loc 1 930 21
	movl	(%rax), %edx	# _9->floorheight, _10
# p_map.c:930: 	if (li->frontsector->floorheight != li->backsector->floorheight)
	.loc 1 930 40
	movq	-24(%rbp), %rax	# li, tmp180
	movq	64(%rax), %rax	# li_121->backsector, _11
# p_map.c:930: 	if (li->frontsector->floorheight != li->backsector->floorheight)
	.loc 1 930 52
	movl	(%rax), %eax	# _11->floorheight, _12
# p_map.c:930: 	if (li->frontsector->floorheight != li->backsector->floorheight)
	.loc 1 930 5
	cmpl	%eax, %edx	# _12, _10
	je	.L130	#,
# p_map.c:932: 	    slope = FixedDiv (openbottom - shootz , dist);
	.loc 1 932 14
	movl	openbottom(%rip), %edx	# openbottom, openbottom.147_13
	movl	shootz(%rip), %eax	# shootz, shootz.148_14
	subl	%eax, %edx	# shootz.148_14, _15
	movl	-64(%rbp), %eax	# dist, tmp181
	movl	%eax, %esi	# tmp181,
	movl	%edx, %edi	# _15,
	call	FixedDiv@PLT	#
	movl	%eax, -36(%rbp)	# tmp182, slope
# p_map.c:933: 	    if (slope > aimslope)
	.loc 1 933 16
	movl	aimslope(%rip), %eax	# aimslope, aimslope.149_16
# p_map.c:933: 	    if (slope > aimslope)
	.loc 1 933 9
	cmpl	%eax, -36(%rbp)	# aimslope.149_16, slope
	jg	.L143	#,
.L130:
# p_map.c:937: 	if (li->frontsector->ceilingheight != li->backsector->ceilingheight)
	.loc 1 937 8
	movq	-24(%rbp), %rax	# li, tmp183
	movq	56(%rax), %rax	# li_121->frontsector, _17
# p_map.c:937: 	if (li->frontsector->ceilingheight != li->backsector->ceilingheight)
	.loc 1 937 21
	movl	4(%rax), %edx	# _17->ceilingheight, _18
# p_map.c:937: 	if (li->frontsector->ceilingheight != li->backsector->ceilingheight)
	.loc 1 937 42
	movq	-24(%rbp), %rax	# li, tmp184
	movq	64(%rax), %rax	# li_121->backsector, _19
# p_map.c:937: 	if (li->frontsector->ceilingheight != li->backsector->ceilingheight)
	.loc 1 937 54
	movl	4(%rax), %eax	# _19->ceilingheight, _20
# p_map.c:937: 	if (li->frontsector->ceilingheight != li->backsector->ceilingheight)
	.loc 1 937 5
	cmpl	%eax, %edx	# _20, _18
	je	.L131	#,
# p_map.c:939: 	    slope = FixedDiv (opentop - shootz , dist);
	.loc 1 939 14
	movl	opentop(%rip), %edx	# opentop, opentop.150_21
	movl	shootz(%rip), %eax	# shootz, shootz.151_22
	subl	%eax, %edx	# shootz.151_22, _23
	movl	-64(%rbp), %eax	# dist, tmp185
	movl	%eax, %esi	# tmp185,
	movl	%edx, %edi	# _23,
	call	FixedDiv@PLT	#
	movl	%eax, -36(%rbp)	# tmp186, slope
# p_map.c:940: 	    if (slope < aimslope)
	.loc 1 940 16
	movl	aimslope(%rip), %eax	# aimslope, aimslope.152_24
# p_map.c:940: 	    if (slope < aimslope)
	.loc 1 940 9
	cmpl	%eax, -36(%rbp)	# aimslope.152_24, slope
	jl	.L144	#,
.L131:
# p_map.c:945: 	return true;
	.loc 1 945 9
	movl	$1, %eax	#, _87
	jmp	.L132	#
.L142:
# p_map.c:923: 	    goto hitline;
	.loc 1 923 6
	nop	
	jmp	.L129	#
.L143:
# p_map.c:934: 		goto hitline;
	.loc 1 934 3
	nop	
	jmp	.L129	#
.L144:
# p_map.c:941: 		goto hitline;
	.loc 1 941 3
	nop	
.L129:
# p_map.c:951: 	frac = in->frac - FixedDiv (4*FRACUNIT,attackrange);
	.loc 1 951 11
	movq	-72(%rbp), %rax	# in, tmp187
	movl	(%rax), %ebx	# in_96(D)->frac, _25
# p_map.c:951: 	frac = in->frac - FixedDiv (4*FRACUNIT,attackrange);
	.loc 1 951 20
	movl	attackrange(%rip), %eax	# attackrange, attackrange.153_26
	movl	%eax, %esi	# attackrange.153_26,
	movl	$262144, %edi	#,
	call	FixedDiv@PLT	#
# p_map.c:951: 	frac = in->frac - FixedDiv (4*FRACUNIT,attackrange);
	.loc 1 951 7 discriminator 1
	subl	%eax, %ebx	# _27, _25
	movl	%ebx, %edx	# _25, tmp188
	movl	%edx, -52(%rbp)	# tmp188, frac
# p_map.c:952: 	x = trace.x + FixedMul (trace.dx, frac);
	.loc 1 952 11
	movl	trace(%rip), %ebx	# trace.x, _28
# p_map.c:952: 	x = trace.x + FixedMul (trace.dx, frac);
	.loc 1 952 16
	movl	8+trace(%rip), %eax	# trace.dx, _29
	movl	-52(%rbp), %edx	# frac, tmp189
	movl	%edx, %esi	# tmp189,
	movl	%eax, %edi	# _29,
	call	FixedMul@PLT	#
# p_map.c:952: 	x = trace.x + FixedMul (trace.dx, frac);
	.loc 1 952 4 discriminator 1
	addl	%ebx, %eax	# _28, tmp190
	movl	%eax, -48(%rbp)	# tmp190, x
# p_map.c:953: 	y = trace.y + FixedMul (trace.dy, frac);
	.loc 1 953 11
	movl	4+trace(%rip), %ebx	# trace.y, _31
# p_map.c:953: 	y = trace.y + FixedMul (trace.dy, frac);
	.loc 1 953 16
	movl	12+trace(%rip), %eax	# trace.dy, _32
	movl	-52(%rbp), %edx	# frac, tmp191
	movl	%edx, %esi	# tmp191,
	movl	%eax, %edi	# _32,
	call	FixedMul@PLT	#
# p_map.c:953: 	y = trace.y + FixedMul (trace.dy, frac);
	.loc 1 953 4 discriminator 1
	addl	%ebx, %eax	# _31, tmp192
	movl	%eax, -44(%rbp)	# tmp192, y
# p_map.c:954: 	z = shootz + FixedMul (aimslope, FixedMul(frac, attackrange));
	.loc 1 954 15
	movl	attackrange(%rip), %edx	# attackrange, attackrange.154_34
	movl	-52(%rbp), %eax	# frac, tmp193
	movl	%edx, %esi	# attackrange.154_34,
	movl	%eax, %edi	# tmp193,
	call	FixedMul@PLT	#
	movl	%eax, %edx	#, _35
# p_map.c:954: 	z = shootz + FixedMul (aimslope, FixedMul(frac, attackrange));
	.loc 1 954 15 is_stmt 0 discriminator 1
	movl	aimslope(%rip), %eax	# aimslope, aimslope.155_36
	movl	%edx, %esi	# _35,
	movl	%eax, %edi	# aimslope.155_36,
	call	FixedMul@PLT	#
# p_map.c:954: 	z = shootz + FixedMul (aimslope, FixedMul(frac, attackrange));
	.loc 1 954 13 is_stmt 1 discriminator 2
	movl	shootz(%rip), %edx	# shootz, shootz.156_38
# p_map.c:954: 	z = shootz + FixedMul (aimslope, FixedMul(frac, attackrange));
	.loc 1 954 4 discriminator 2
	addl	%edx, %eax	# shootz.156_38, tmp194
	movl	%eax, -40(%rbp)	# tmp194, z
# p_map.c:956: 	if (li->frontsector->ceilingpic == skyflatnum)
	.loc 1 956 8
	movq	-24(%rbp), %rax	# li, tmp195
	movq	56(%rax), %rax	# li_121->frontsector, _39
# p_map.c:956: 	if (li->frontsector->ceilingpic == skyflatnum)
	.loc 1 956 21
	movzwl	10(%rax), %eax	# _39->ceilingpic, _40
	movswl	%ax, %edx	# _40, _41
# p_map.c:956: 	if (li->frontsector->ceilingpic == skyflatnum)
	.loc 1 956 34
	movl	skyflatnum(%rip), %eax	# skyflatnum, skyflatnum.157_42
# p_map.c:956: 	if (li->frontsector->ceilingpic == skyflatnum)
	.loc 1 956 5
	cmpl	%eax, %edx	# skyflatnum.157_42, _41
	jne	.L133	#,
# p_map.c:959: 	    if (z > li->frontsector->ceilingheight)
	.loc 1 959 16
	movq	-24(%rbp), %rax	# li, tmp196
	movq	56(%rax), %rax	# li_121->frontsector, _43
# p_map.c:959: 	    if (z > li->frontsector->ceilingheight)
	.loc 1 959 29
	movl	4(%rax), %eax	# _43->ceilingheight, _44
# p_map.c:959: 	    if (z > li->frontsector->ceilingheight)
	.loc 1 959 9
	cmpl	%eax, -40(%rbp)	# _44, z
	jle	.L134	#,
# p_map.c:960: 		return false;
	.loc 1 960 10
	movl	$0, %eax	#, _87
	jmp	.L132	#
.L134:
# p_map.c:963: 	    if	(li->backsector && li->backsector->ceilingpic == skyflatnum)
	.loc 1 963 12
	movq	-24(%rbp), %rax	# li, tmp197
	movq	64(%rax), %rax	# li_121->backsector, _45
# p_map.c:963: 	    if	(li->backsector && li->backsector->ceilingpic == skyflatnum)
	.loc 1 963 9
	testq	%rax, %rax	# _45
	je	.L133	#,
# p_map.c:963: 	    if	(li->backsector && li->backsector->ceilingpic == skyflatnum)
	.loc 1 963 30 discriminator 1
	movq	-24(%rbp), %rax	# li, tmp198
	movq	64(%rax), %rax	# li_121->backsector, _46
# p_map.c:963: 	    if	(li->backsector && li->backsector->ceilingpic == skyflatnum)
	.loc 1 963 42 discriminator 1
	movzwl	10(%rax), %eax	# _46->ceilingpic, _47
	movswl	%ax, %edx	# _47, _48
# p_map.c:963: 	    if	(li->backsector && li->backsector->ceilingpic == skyflatnum)
	.loc 1 963 55 discriminator 1
	movl	skyflatnum(%rip), %eax	# skyflatnum, skyflatnum.158_49
# p_map.c:963: 	    if	(li->backsector && li->backsector->ceilingpic == skyflatnum)
	.loc 1 963 25 discriminator 1
	cmpl	%eax, %edx	# skyflatnum.158_49, _48
	jne	.L133	#,
# p_map.c:964: 		return false;		
	.loc 1 964 10
	movl	$0, %eax	#, _87
	jmp	.L132	#
.L133:
# p_map.c:968: 	P_SpawnPuff (x,y,z);
	.loc 1 968 2
	movl	-40(%rbp), %edx	# z, tmp199
	movl	-44(%rbp), %ecx	# y, tmp200
	movl	-48(%rbp), %eax	# x, tmp201
	movl	%ecx, %esi	# tmp200,
	movl	%eax, %edi	# tmp201,
	call	P_SpawnPuff@PLT	#
# p_map.c:971: 	return false;	
	.loc 1 971 9
	movl	$0, %eax	#, _87
	jmp	.L132	#
.L126:
# p_map.c:975:     th = in->d.thing;
	.loc 1 975 8
	movq	-72(%rbp), %rax	# in, tmp202
	movq	8(%rax), %rax	# in_96(D)->d.thing, tmp203
	movq	%rax, -32(%rbp)	# tmp203, th
# p_map.c:976:     if (th == shootthing)
	.loc 1 976 12
	movq	shootthing(%rip), %rax	# shootthing, shootthing.159_50
# p_map.c:976:     if (th == shootthing)
	.loc 1 976 8
	cmpq	%rax, -32(%rbp)	# shootthing.159_50, th
	jne	.L135	#,
# p_map.c:977: 	return true;		// can't shoot self
	.loc 1 977 9
	movl	$1, %eax	#, _87
	jmp	.L132	#
.L135:
# p_map.c:979:     if (!(th->flags&MF_SHOOTABLE))
	.loc 1 979 13
	movq	-32(%rbp), %rax	# th, tmp204
	movl	160(%rax), %eax	# th_97->flags, _51
# p_map.c:979:     if (!(th->flags&MF_SHOOTABLE))
	.loc 1 979 20
	andl	$4, %eax	#, _52
# p_map.c:979:     if (!(th->flags&MF_SHOOTABLE))
	.loc 1 979 8
	testl	%eax, %eax	# _52
	jne	.L136	#,
# p_map.c:980: 	return true;		// corpse or something
	.loc 1 980 9
	movl	$1, %eax	#, _87
	jmp	.L132	#
.L136:
# p_map.c:983:     dist = FixedMul (attackrange, in->frac);
	.loc 1 983 12
	movq	-72(%rbp), %rax	# in, tmp205
	movl	(%rax), %edx	# in_96(D)->frac, _53
	movl	attackrange(%rip), %eax	# attackrange, attackrange.160_54
	movl	%edx, %esi	# _53,
	movl	%eax, %edi	# attackrange.160_54,
	call	FixedMul@PLT	#
	movl	%eax, -64(%rbp)	# tmp206, dist
# p_map.c:984:     thingtopslope = FixedDiv (th->z+th->height - shootz , dist);
	.loc 1 984 33
	movq	-32(%rbp), %rax	# th, tmp207
	movl	32(%rax), %edx	# th_97->z, _55
# p_map.c:984:     thingtopslope = FixedDiv (th->z+th->height - shootz , dist);
	.loc 1 984 39
	movq	-32(%rbp), %rax	# th, tmp208
	movl	108(%rax), %eax	# th_97->height, _56
# p_map.c:984:     thingtopslope = FixedDiv (th->z+th->height - shootz , dist);
	.loc 1 984 36
	addl	%eax, %edx	# _56, _57
# p_map.c:984:     thingtopslope = FixedDiv (th->z+th->height - shootz , dist);
	.loc 1 984 21
	movl	shootz(%rip), %eax	# shootz, shootz.161_58
	subl	%eax, %edx	# shootz.161_58, _59
	movl	-64(%rbp), %eax	# dist, tmp209
	movl	%eax, %esi	# tmp209,
	movl	%edx, %edi	# _59,
	call	FixedDiv@PLT	#
	movl	%eax, -60(%rbp)	# tmp210, thingtopslope
# p_map.c:986:     if (thingtopslope < aimslope)
	.loc 1 986 23
	movl	aimslope(%rip), %eax	# aimslope, aimslope.162_60
# p_map.c:986:     if (thingtopslope < aimslope)
	.loc 1 986 8
	cmpl	%eax, -60(%rbp)	# aimslope.162_60, thingtopslope
	jge	.L137	#,
# p_map.c:987: 	return true;		// shot over the thing
	.loc 1 987 9
	movl	$1, %eax	#, _87
	jmp	.L132	#
.L137:
# p_map.c:989:     thingbottomslope = FixedDiv (th->z - shootz, dist);
	.loc 1 989 36
	movq	-32(%rbp), %rax	# th, tmp211
	movl	32(%rax), %edx	# th_97->z, _61
# p_map.c:989:     thingbottomslope = FixedDiv (th->z - shootz, dist);
	.loc 1 989 24
	movl	shootz(%rip), %eax	# shootz, shootz.163_62
	subl	%eax, %edx	# shootz.163_62, _63
	movl	-64(%rbp), %eax	# dist, tmp212
	movl	%eax, %esi	# tmp212,
	movl	%edx, %edi	# _63,
	call	FixedDiv@PLT	#
	movl	%eax, -56(%rbp)	# tmp213, thingbottomslope
# p_map.c:991:     if (thingbottomslope > aimslope)
	.loc 1 991 26
	movl	aimslope(%rip), %eax	# aimslope, aimslope.164_64
# p_map.c:991:     if (thingbottomslope > aimslope)
	.loc 1 991 8
	cmpl	%eax, -56(%rbp)	# aimslope.164_64, thingbottomslope
	jle	.L138	#,
# p_map.c:992: 	return true;		// shot under the thing
	.loc 1 992 9
	movl	$1, %eax	#, _87
	jmp	.L132	#
.L138:
# p_map.c:997:     frac = in->frac - FixedDiv (10*FRACUNIT,attackrange);
	.loc 1 997 14
	movq	-72(%rbp), %rax	# in, tmp214
	movl	(%rax), %ebx	# in_96(D)->frac, _65
# p_map.c:997:     frac = in->frac - FixedDiv (10*FRACUNIT,attackrange);
	.loc 1 997 23
	movl	attackrange(%rip), %eax	# attackrange, attackrange.165_66
	movl	%eax, %esi	# attackrange.165_66,
	movl	$655360, %edi	#,
	call	FixedDiv@PLT	#
# p_map.c:997:     frac = in->frac - FixedDiv (10*FRACUNIT,attackrange);
	.loc 1 997 10 discriminator 1
	subl	%eax, %ebx	# _67, _65
	movl	%ebx, %edx	# _65, tmp215
	movl	%edx, -52(%rbp)	# tmp215, frac
# p_map.c:999:     x = trace.x + FixedMul (trace.dx, frac);
	.loc 1 999 14
	movl	trace(%rip), %ebx	# trace.x, _68
# p_map.c:999:     x = trace.x + FixedMul (trace.dx, frac);
	.loc 1 999 19
	movl	8+trace(%rip), %eax	# trace.dx, _69
	movl	-52(%rbp), %edx	# frac, tmp216
	movl	%edx, %esi	# tmp216,
	movl	%eax, %edi	# _69,
	call	FixedMul@PLT	#
# p_map.c:999:     x = trace.x + FixedMul (trace.dx, frac);
	.loc 1 999 7 discriminator 1
	addl	%ebx, %eax	# _68, tmp217
	movl	%eax, -48(%rbp)	# tmp217, x
# p_map.c:1000:     y = trace.y + FixedMul (trace.dy, frac);
	.loc 1 1000 14
	movl	4+trace(%rip), %ebx	# trace.y, _71
# p_map.c:1000:     y = trace.y + FixedMul (trace.dy, frac);
	.loc 1 1000 19
	movl	12+trace(%rip), %eax	# trace.dy, _72
	movl	-52(%rbp), %edx	# frac, tmp218
	movl	%edx, %esi	# tmp218,
	movl	%eax, %edi	# _72,
	call	FixedMul@PLT	#
# p_map.c:1000:     y = trace.y + FixedMul (trace.dy, frac);
	.loc 1 1000 7 discriminator 1
	addl	%ebx, %eax	# _71, tmp219
	movl	%eax, -44(%rbp)	# tmp219, y
# p_map.c:1001:     z = shootz + FixedMul (aimslope, FixedMul(frac, attackrange));
	.loc 1 1001 18
	movl	attackrange(%rip), %edx	# attackrange, attackrange.166_74
	movl	-52(%rbp), %eax	# frac, tmp220
	movl	%edx, %esi	# attackrange.166_74,
	movl	%eax, %edi	# tmp220,
	call	FixedMul@PLT	#
	movl	%eax, %edx	#, _75
# p_map.c:1001:     z = shootz + FixedMul (aimslope, FixedMul(frac, attackrange));
	.loc 1 1001 18 is_stmt 0 discriminator 1
	movl	aimslope(%rip), %eax	# aimslope, aimslope.167_76
	movl	%edx, %esi	# _75,
	movl	%eax, %edi	# aimslope.167_76,
	call	FixedMul@PLT	#
# p_map.c:1001:     z = shootz + FixedMul (aimslope, FixedMul(frac, attackrange));
	.loc 1 1001 16 is_stmt 1 discriminator 2
	movl	shootz(%rip), %edx	# shootz, shootz.168_78
# p_map.c:1001:     z = shootz + FixedMul (aimslope, FixedMul(frac, attackrange));
	.loc 1 1001 7 discriminator 2
	addl	%edx, %eax	# shootz.168_78, tmp221
	movl	%eax, -40(%rbp)	# tmp221, z
# p_map.c:1005:     if (in->d.thing->flags & MF_NOBLOOD)
	.loc 1 1005 14
	movq	-72(%rbp), %rax	# in, tmp222
	movq	8(%rax), %rax	# in_96(D)->d.thing, _79
# p_map.c:1005:     if (in->d.thing->flags & MF_NOBLOOD)
	.loc 1 1005 20
	movl	160(%rax), %eax	# _79->flags, _80
# p_map.c:1005:     if (in->d.thing->flags & MF_NOBLOOD)
	.loc 1 1005 28
	andl	$524288, %eax	#, _81
# p_map.c:1005:     if (in->d.thing->flags & MF_NOBLOOD)
	.loc 1 1005 8
	testl	%eax, %eax	# _81
	je	.L139	#,
# p_map.c:1006: 	P_SpawnPuff (x,y,z);
	.loc 1 1006 2
	movl	-40(%rbp), %edx	# z, tmp223
	movl	-44(%rbp), %ecx	# y, tmp224
	movl	-48(%rbp), %eax	# x, tmp225
	movl	%ecx, %esi	# tmp224,
	movl	%eax, %edi	# tmp225,
	call	P_SpawnPuff@PLT	#
	jmp	.L140	#
.L139:
# p_map.c:1008: 	P_SpawnBlood (x,y,z, la_damage);
	.loc 1 1008 2
	movl	la_damage(%rip), %ecx	# la_damage, la_damage.169_82
	movl	-40(%rbp), %edx	# z, tmp226
	movl	-44(%rbp), %esi	# y, tmp227
	movl	-48(%rbp), %eax	# x, tmp228
	movl	%eax, %edi	# tmp228,
	call	P_SpawnBlood@PLT	#
.L140:
# p_map.c:1010:     if (la_damage)
	.loc 1 1010 9
	movl	la_damage(%rip), %eax	# la_damage, la_damage.170_83
# p_map.c:1010:     if (la_damage)
	.loc 1 1010 8
	testl	%eax, %eax	# la_damage.170_83
	je	.L141	#,
# p_map.c:1011: 	P_DamageMobj (th, shootthing, shootthing, la_damage);
	.loc 1 1011 2
	movl	la_damage(%rip), %ecx	# la_damage, la_damage.171_84
	movq	shootthing(%rip), %rdx	# shootthing, shootthing.172_85
	movq	shootthing(%rip), %rsi	# shootthing, shootthing.173_86
	movq	-32(%rbp), %rax	# th, tmp229
	movq	%rax, %rdi	# tmp229,
	call	P_DamageMobj@PLT	#
.L141:
# p_map.c:1014:     return false;
	.loc 1 1014 12
	movl	$0, %eax	#, _87
.L132:
# p_map.c:1016: }
	.loc 1 1016 1
	movq	-8(%rbp), %rbx	#,
	leave	
	.cfi_def_cfa 7, 8
	ret	
	.cfi_endproc
.LFE17:
	.size	PTR_ShootTraverse, .-PTR_ShootTraverse
	.globl	P_AimLineAttack
	.type	P_AimLineAttack, @function
P_AimLineAttack:
.LFB18:
	.loc 1 1027 1
	.cfi_startproc
	endbr64	
	pushq	%rbp	#
	.cfi_def_cfa_offset 16
	.cfi_offset 6, -16
	movq	%rsp, %rbp	#,
	.cfi_def_cfa_register 6
	subq	$32, %rsp	#,
	movq	%rdi, -24(%rbp)	# t1, t1
	movl	%esi, -28(%rbp)	# angle, angle
	movl	%edx, -32(%rbp)	# distance, distance
# p_map.c:1031:     angle >>= ANGLETOFINESHIFT;
	.loc 1 1031 11
	shrl	$19, -28(%rbp)	#, angle
# p_map.c:1032:     shootthing = t1;
	.loc 1 1032 16
	movq	-24(%rbp), %rax	# t1, tmp104
	movq	%rax, shootthing(%rip)	# tmp104, shootthing
# p_map.c:1034:     x2 = t1->x + (distance>>FRACBITS)*finecosine[angle];
	.loc 1 1034 12
	movq	-24(%rbp), %rax	# t1, tmp105
	movl	24(%rax), %edx	# t1_25(D)->x, _1
# p_map.c:1034:     x2 = t1->x + (distance>>FRACBITS)*finecosine[angle];
	.loc 1 1034 27
	movl	-32(%rbp), %eax	# distance, tmp106
	sarl	$16, %eax	#, tmp106
	movl	%eax, %ecx	# tmp106, _2
# p_map.c:1034:     x2 = t1->x + (distance>>FRACBITS)*finecosine[angle];
	.loc 1 1034 49
	movq	finecosine(%rip), %rax	# finecosine, finecosine.174_3
	movl	-28(%rbp), %esi	# angle, _4
	salq	$2, %rsi	#, _5
	addq	%rsi, %rax	# _5, _6
	movl	(%rax), %eax	# *_6, _7
# p_map.c:1034:     x2 = t1->x + (distance>>FRACBITS)*finecosine[angle];
	.loc 1 1034 38
	imull	%ecx, %eax	# _2, _8
# p_map.c:1034:     x2 = t1->x + (distance>>FRACBITS)*finecosine[angle];
	.loc 1 1034 8
	addl	%edx, %eax	# _1, tmp107
	movl	%eax, -8(%rbp)	# tmp107, x2
# p_map.c:1035:     y2 = t1->y + (distance>>FRACBITS)*finesine[angle];
	.loc 1 1035 12
	movq	-24(%rbp), %rax	# t1, tmp108
	movl	28(%rax), %edx	# t1_25(D)->y, _9
# p_map.c:1035:     y2 = t1->y + (distance>>FRACBITS)*finesine[angle];
	.loc 1 1035 27
	movl	-32(%rbp), %eax	# distance, tmp109
	sarl	$16, %eax	#, tmp109
	movl	%eax, %ecx	# tmp109, _10
# p_map.c:1035:     y2 = t1->y + (distance>>FRACBITS)*finesine[angle];
	.loc 1 1035 47
	movl	-28(%rbp), %eax	# angle, tmp110
	leaq	0(,%rax,4), %rsi	#, tmp111
	leaq	finesine(%rip), %rax	#, tmp112
	movl	(%rsi,%rax), %eax	# finesine[angle_23], _11
# p_map.c:1035:     y2 = t1->y + (distance>>FRACBITS)*finesine[angle];
	.loc 1 1035 38
	imull	%ecx, %eax	# _10, _12
# p_map.c:1035:     y2 = t1->y + (distance>>FRACBITS)*finesine[angle];
	.loc 1 1035 8
	addl	%edx, %eax	# _9, tmp113
	movl	%eax, -4(%rbp)	# tmp113, y2
# p_map.c:1036:     shootz = t1->z + (t1->height>>1) + 8*FRACUNIT;
	.loc 1 1036 16
	movq	-24(%rbp), %rax	# t1, tmp114
	movl	32(%rax), %edx	# t1_25(D)->z, _13
# p_map.c:1036:     shootz = t1->z + (t1->height>>1) + 8*FRACUNIT;
	.loc 1 1036 25
	movq	-24(%rbp), %rax	# t1, tmp115
	movl	108(%rax), %eax	# t1_25(D)->height, _14
# p_map.c:1036:     shootz = t1->z + (t1->height>>1) + 8*FRACUNIT;
	.loc 1 1036 33
	sarl	%eax	# _15
# p_map.c:1036:     shootz = t1->z + (t1->height>>1) + 8*FRACUNIT;
	.loc 1 1036 20
	addl	%edx, %eax	# _13, _16
# p_map.c:1036:     shootz = t1->z + (t1->height>>1) + 8*FRACUNIT;
	.loc 1 1036 38
	addl	$524288, %eax	#, _17
# p_map.c:1036:     shootz = t1->z + (t1->height>>1) + 8*FRACUNIT;
	.loc 1 1036 12
	movl	%eax, shootz(%rip)	# _17, shootz
# p_map.c:1039:     topslope = 100*FRACUNIT/160;	
	.loc 1 1039 14
	movl	$40960, topslope(%rip)	#, topslope
# p_map.c:1040:     bottomslope = -100*FRACUNIT/160;
	.loc 1 1040 17
	movl	$-40960, bottomslope(%rip)	#, bottomslope
# p_map.c:1042:     attackrange = distance;
	.loc 1 1042 17
	movl	-32(%rbp), %eax	# distance, tmp116
	movl	%eax, attackrange(%rip)	# tmp116, attackrange
# p_map.c:1043:     linetarget = NULL;
	.loc 1 1043 16
	movq	$0, linetarget(%rip)	#, linetarget
# p_map.c:1045:     P_PathTraverse ( t1->x, t1->y,
	.loc 1 1045 5
	movq	-24(%rbp), %rax	# t1, tmp117
	movl	28(%rax), %esi	# t1_25(D)->y, _18
	movq	-24(%rbp), %rax	# t1, tmp118
	movl	24(%rax), %eax	# t1_25(D)->x, _19
	movl	-4(%rbp), %ecx	# y2, tmp119
	movl	-8(%rbp), %edx	# x2, tmp120
	leaq	PTR_AimTraverse(%rip), %r9	#,
	movl	$3, %r8d	#,
	movl	%eax, %edi	# _19,
	call	P_PathTraverse@PLT	#
# p_map.c:1050:     if (linetarget)
	.loc 1 1050 9
	movq	linetarget(%rip), %rax	# linetarget, linetarget.175_20
# p_map.c:1050:     if (linetarget)
	.loc 1 1050 8
	testq	%rax, %rax	# linetarget.175_20
	je	.L146	#,
# p_map.c:1051: 	return aimslope;
	.loc 1 1051 9
	movl	aimslope(%rip), %eax	# aimslope, _21
	jmp	.L147	#
.L146:
# p_map.c:1053:     return 0;
	.loc 1 1053 12
	movl	$0, %eax	#, _21
.L147:
# p_map.c:1054: }
	.loc 1 1054 1
	leave	
	.cfi_def_cfa 7, 8
	ret	
	.cfi_endproc
.LFE18:
	.size	P_AimLineAttack, .-P_AimLineAttack
	.globl	P_LineAttack
	.type	P_LineAttack, @function
P_LineAttack:
.LFB19:
	.loc 1 1069 1
	.cfi_startproc
	endbr64	
	pushq	%rbp	#
	.cfi_def_cfa_offset 16
	.cfi_offset 6, -16
	movq	%rsp, %rbp	#,
	.cfi_def_cfa_register 6
	subq	$48, %rsp	#,
	movq	%rdi, -24(%rbp)	# t1, t1
	movl	%esi, -28(%rbp)	# angle, angle
	movl	%edx, -32(%rbp)	# distance, distance
	movl	%ecx, -36(%rbp)	# slope, slope
	movl	%r8d, -40(%rbp)	# damage, damage
# p_map.c:1073:     angle >>= ANGLETOFINESHIFT;
	.loc 1 1073 11
	shrl	$19, -28(%rbp)	#, angle
# p_map.c:1074:     shootthing = t1;
	.loc 1 1074 16
	movq	-24(%rbp), %rax	# t1, tmp101
	movq	%rax, shootthing(%rip)	# tmp101, shootthing
# p_map.c:1075:     la_damage = damage;
	.loc 1 1075 15
	movl	-40(%rbp), %eax	# damage, tmp102
	movl	%eax, la_damage(%rip)	# tmp102, la_damage
# p_map.c:1076:     x2 = t1->x + (distance>>FRACBITS)*finecosine[angle];
	.loc 1 1076 12
	movq	-24(%rbp), %rax	# t1, tmp103
	movl	24(%rax), %edx	# t1_23(D)->x, _1
# p_map.c:1076:     x2 = t1->x + (distance>>FRACBITS)*finecosine[angle];
	.loc 1 1076 27
	movl	-32(%rbp), %eax	# distance, tmp104
	sarl	$16, %eax	#, tmp104
	movl	%eax, %ecx	# tmp104, _2
# p_map.c:1076:     x2 = t1->x + (distance>>FRACBITS)*finecosine[angle];
	.loc 1 1076 49
	movq	finecosine(%rip), %rax	# finecosine, finecosine.176_3
	movl	-28(%rbp), %esi	# angle, _4
	salq	$2, %rsi	#, _5
	addq	%rsi, %rax	# _5, _6
	movl	(%rax), %eax	# *_6, _7
# p_map.c:1076:     x2 = t1->x + (distance>>FRACBITS)*finecosine[angle];
	.loc 1 1076 38
	imull	%ecx, %eax	# _2, _8
# p_map.c:1076:     x2 = t1->x + (distance>>FRACBITS)*finecosine[angle];
	.loc 1 1076 8
	addl	%edx, %eax	# _1, tmp105
	movl	%eax, -8(%rbp)	# tmp105, x2
# p_map.c:1077:     y2 = t1->y + (distance>>FRACBITS)*finesine[angle];
	.loc 1 1077 12
	movq	-24(%rbp), %rax	# t1, tmp106
	movl	28(%rax), %edx	# t1_23(D)->y, _9
# p_map.c:1077:     y2 = t1->y + (distance>>FRACBITS)*finesine[angle];
	.loc 1 1077 27
	movl	-32(%rbp), %eax	# distance, tmp107
	sarl	$16, %eax	#, tmp107
	movl	%eax, %ecx	# tmp107, _10
# p_map.c:1077:     y2 = t1->y + (distance>>FRACBITS)*finesine[angle];
	.loc 1 1077 47
	movl	-28(%rbp), %eax	# angle, tmp108
	leaq	0(,%rax,4), %rsi	#, tmp109
	leaq	finesine(%rip), %rax	#, tmp110
	movl	(%rsi,%rax), %eax	# finesine[angle_21], _11
# p_map.c:1077:     y2 = t1->y + (distance>>FRACBITS)*finesine[angle];
	.loc 1 1077 38
	imull	%ecx, %eax	# _10, _12
# p_map.c:1077:     y2 = t1->y + (distance>>FRACBITS)*finesine[angle];
	.loc 1 1077 8
	addl	%edx, %eax	# _9, tmp111
	movl	%eax, -4(%rbp)	# tmp111, y2
# p_map.c:1078:     shootz = t1->z + (t1->height>>1) + 8*FRACUNIT;
	.loc 1 1078 16
	movq	-24(%rbp), %rax	# t1, tmp112
	movl	32(%rax), %edx	# t1_23(D)->z, _13
# p_map.c:1078:     shootz = t1->z + (t1->height>>1) + 8*FRACUNIT;
	.loc 1 1078 25
	movq	-24(%rbp), %rax	# t1, tmp113
	movl	108(%rax), %eax	# t1_23(D)->height, _14
# p_map.c:1078:     shootz = t1->z + (t1->height>>1) + 8*FRACUNIT;
	.loc 1 1078 33
	sarl	%eax	# _15
# p_map.c:1078:     shootz = t1->z + (t1->height>>1) + 8*FRACUNIT;
	.loc 1 1078 20
	addl	%edx, %eax	# _13, _16
# p_map.c:1078:     shootz = t1->z + (t1->height>>1) + 8*FRACUNIT;
	.loc 1 1078 38
	addl	$524288, %eax	#, _17
# p_map.c:1078:     shootz = t1->z + (t1->height>>1) + 8*FRACUNIT;
	.loc 1 1078 12
	movl	%eax, shootz(%rip)	# _17, shootz
# p_map.c:1079:     attackrange = distance;
	.loc 1 1079 17
	movl	-32(%rbp), %eax	# distance, tmp114
	movl	%eax, attackrange(%rip)	# tmp114, attackrange
# p_map.c:1080:     aimslope = slope;
	.loc 1 1080 14
	movl	-36(%rbp), %eax	# slope, tmp115
	movl	%eax, aimslope(%rip)	# tmp115, aimslope
# p_map.c:1082:     P_PathTraverse ( t1->x, t1->y,
	.loc 1 1082 5
	movq	-24(%rbp), %rax	# t1, tmp116
	movl	28(%rax), %esi	# t1_23(D)->y, _18
	movq	-24(%rbp), %rax	# t1, tmp117
	movl	24(%rax), %eax	# t1_23(D)->x, _19
	movl	-4(%rbp), %ecx	# y2, tmp118
	movl	-8(%rbp), %edx	# x2, tmp119
	leaq	PTR_ShootTraverse(%rip), %r9	#,
	movl	$3, %r8d	#,
	movl	%eax, %edi	# _19,
	call	P_PathTraverse@PLT	#
# p_map.c:1086: }
	.loc 1 1086 1
	nop	
	leave	
	.cfi_def_cfa 7, 8
	ret	
	.cfi_endproc
.LFE19:
	.size	P_LineAttack, .-P_LineAttack
	.globl	usething
	.bss
	.align 8
	.type	usething, @object
	.size	usething, 8
usething:
	.zero	8
	.text
	.globl	PTR_UseTraverse
	.type	PTR_UseTraverse, @function
PTR_UseTraverse:
.LFB20:
	.loc 1 1096 1
	.cfi_startproc
	endbr64	
	pushq	%rbp	#
	.cfi_def_cfa_offset 16
	.cfi_offset 6, -16
	movq	%rsp, %rbp	#,
	.cfi_def_cfa_register 6
	subq	$32, %rsp	#,
	movq	%rdi, -24(%rbp)	# in, in
# p_map.c:1099:     if (!in->d.line->special)
	.loc 1 1099 15
	movq	-24(%rbp), %rax	# in, tmp97
	movq	8(%rax), %rax	# in_18(D)->d.line, _1
# p_map.c:1099:     if (!in->d.line->special)
	.loc 1 1099 20
	movzwl	26(%rax), %eax	# _1->special, _2
# p_map.c:1099:     if (!in->d.line->special)
	.loc 1 1099 8
	testw	%ax, %ax	# _2
	jne	.L150	#,
# p_map.c:1101: 	P_LineOpening (in->d.line);
	.loc 1 1101 2
	movq	-24(%rbp), %rax	# in, tmp98
	movq	8(%rax), %rax	# in_18(D)->d.line, _3
	movq	%rax, %rdi	# _3,
	call	P_LineOpening@PLT	#
# p_map.c:1102: 	if (openrange <= 0)
	.loc 1 1102 16
	movl	openrange(%rip), %eax	# openrange, openrange.177_4
# p_map.c:1102: 	if (openrange <= 0)
	.loc 1 1102 5
	testl	%eax, %eax	# openrange.177_4
	jg	.L151	#,
# p_map.c:1104: 	    S_StartSound (usething, sfx_noway);
	.loc 1 1104 6
	movq	usething(%rip), %rax	# usething, usething.178_5
	movl	$81, %esi	#,
	movq	%rax, %rdi	# usething.178_5,
	call	S_StartSound@PLT	#
# p_map.c:1107: 	    return false;	
	.loc 1 1107 13
	movl	$0, %eax	#, _15
	jmp	.L152	#
.L151:
# p_map.c:1110: 	return true ;		
	.loc 1 1110 9
	movl	$1, %eax	#, _15
	jmp	.L152	#
.L150:
# p_map.c:1113:     side = 0;
	.loc 1 1113 10
	movl	$0, -4(%rbp)	#, side
# p_map.c:1114:     if (P_PointOnLineSide (usething->x, usething->y, in->d.line) == 1)
	.loc 1 1114 9
	movq	-24(%rbp), %rax	# in, tmp99
	movq	8(%rax), %rdx	# in_18(D)->d.line, _6
# p_map.c:1114:     if (P_PointOnLineSide (usething->x, usething->y, in->d.line) == 1)
	.loc 1 1114 49
	movq	usething(%rip), %rax	# usething, usething.179_7
# p_map.c:1114:     if (P_PointOnLineSide (usething->x, usething->y, in->d.line) == 1)
	.loc 1 1114 9
	movl	28(%rax), %ecx	# usething.179_7->y, _8
# p_map.c:1114:     if (P_PointOnLineSide (usething->x, usething->y, in->d.line) == 1)
	.loc 1 1114 36
	movq	usething(%rip), %rax	# usething, usething.180_9
# p_map.c:1114:     if (P_PointOnLineSide (usething->x, usething->y, in->d.line) == 1)
	.loc 1 1114 9
	movl	24(%rax), %eax	# usething.180_9->x, _10
	movl	%ecx, %esi	# _8,
	movl	%eax, %edi	# _10,
	call	P_PointOnLineSide@PLT	#
# p_map.c:1114:     if (P_PointOnLineSide (usething->x, usething->y, in->d.line) == 1)
	.loc 1 1114 8 discriminator 1
	cmpl	$1, %eax	#, _11
	jne	.L153	#,
# p_map.c:1115: 	side = 1;
	.loc 1 1115 7
	movl	$1, -4(%rbp)	#, side
.L153:
# p_map.c:1119:     P_UseSpecialLine (usething, in->d.line, side);
	.loc 1 1119 5
	movq	-24(%rbp), %rax	# in, tmp100
	movq	8(%rax), %rcx	# in_18(D)->d.line, _12
	movq	usething(%rip), %rax	# usething, usething.181_13
	movl	-4(%rbp), %edx	# side, tmp101
	movq	%rcx, %rsi	# _12,
	movq	%rax, %rdi	# usething.181_13,
	call	P_UseSpecialLine@PLT	#
# p_map.c:1122:     return false;
	.loc 1 1122 12
	movl	$0, %eax	#, _15
.L152:
# p_map.c:1123: }
	.loc 1 1123 1
	leave	
	.cfi_def_cfa 7, 8
	ret	
	.cfi_endproc
.LFE20:
	.size	PTR_UseTraverse, .-PTR_UseTraverse
	.globl	P_UseLines
	.type	P_UseLines, @function
P_UseLines:
.LFB21:
	.loc 1 1131 1
	.cfi_startproc
	endbr64	
	pushq	%rbp	#
	.cfi_def_cfa_offset 16
	.cfi_offset 6, -16
	movq	%rsp, %rbp	#,
	.cfi_def_cfa_register 6
	subq	$48, %rsp	#,
	movq	%rdi, -40(%rbp)	# player, player
# p_map.c:1138:     usething = player->mo;
	.loc 1 1138 22
	movq	-40(%rbp), %rax	# player, tmp96
	movq	(%rax), %rax	# player_16(D)->mo, _1
# p_map.c:1138:     usething = player->mo;
	.loc 1 1138 14
	movq	%rax, usething(%rip)	# _1, usething
# p_map.c:1140:     angle = player->mo->angle >> ANGLETOFINESHIFT;
	.loc 1 1140 19
	movq	-40(%rbp), %rax	# player, tmp97
	movq	(%rax), %rax	# player_16(D)->mo, _2
# p_map.c:1140:     angle = player->mo->angle >> ANGLETOFINESHIFT;
	.loc 1 1140 23
	movl	56(%rax), %eax	# _2->angle, _3
# p_map.c:1140:     angle = player->mo->angle >> ANGLETOFINESHIFT;
	.loc 1 1140 31
	shrl	$19, %eax	#, _4
# p_map.c:1140:     angle = player->mo->angle >> ANGLETOFINESHIFT;
	.loc 1 1140 11
	movl	%eax, -20(%rbp)	# _4, angle
# p_map.c:1142:     x1 = player->mo->x;
	.loc 1 1142 16
	movq	-40(%rbp), %rax	# player, tmp98
	movq	(%rax), %rax	# player_16(D)->mo, _5
# p_map.c:1142:     x1 = player->mo->x;
	.loc 1 1142 8
	movl	24(%rax), %eax	# _5->x, tmp99
	movl	%eax, -16(%rbp)	# tmp99, x1
# p_map.c:1143:     y1 = player->mo->y;
	.loc 1 1143 16
	movq	-40(%rbp), %rax	# player, tmp100
	movq	(%rax), %rax	# player_16(D)->mo, _6
# p_map.c:1143:     y1 = player->mo->y;
	.loc 1 1143 8
	movl	28(%rax), %eax	# _6->y, tmp101
	movl	%eax, -12(%rbp)	# tmp101, y1
# p_map.c:1144:     x2 = x1 + (USERANGE>>FRACBITS)*finecosine[angle];
	.loc 1 1144 46
	movq	finecosine(%rip), %rax	# finecosine, finecosine.182_7
	movl	-20(%rbp), %edx	# angle, tmp102
	movslq	%edx, %rdx	# tmp102, _8
	salq	$2, %rdx	#, _9
	addq	%rdx, %rax	# _9, _10
	movl	(%rax), %eax	# *_10, _11
# p_map.c:1144:     x2 = x1 + (USERANGE>>FRACBITS)*finecosine[angle];
	.loc 1 1144 35
	sall	$6, %eax	#, _11
	movl	%eax, %edx	# _11, _12
# p_map.c:1144:     x2 = x1 + (USERANGE>>FRACBITS)*finecosine[angle];
	.loc 1 1144 8
	movl	-16(%rbp), %eax	# x1, tmp106
	addl	%edx, %eax	# _12, tmp105
	movl	%eax, -8(%rbp)	# tmp105, x2
# p_map.c:1145:     y2 = y1 + (USERANGE>>FRACBITS)*finesine[angle];
	.loc 1 1145 44
	movl	-20(%rbp), %eax	# angle, tmp108
	cltq
	leaq	0(,%rax,4), %rdx	#, tmp109
	leaq	finesine(%rip), %rax	#, tmp110
	movl	(%rdx,%rax), %eax	# finesine[angle_18], _13
# p_map.c:1145:     y2 = y1 + (USERANGE>>FRACBITS)*finesine[angle];
	.loc 1 1145 35
	sall	$6, %eax	#, _13
	movl	%eax, %edx	# _13, _14
# p_map.c:1145:     y2 = y1 + (USERANGE>>FRACBITS)*finesine[angle];
	.loc 1 1145 8
	movl	-12(%rbp), %eax	# y1, tmp114
	addl	%edx, %eax	# _14, tmp113
	movl	%eax, -4(%rbp)	# tmp113, y2
# p_map.c:1147:     P_PathTraverse ( x1, y1, x2, y2, PT_ADDLINES, PTR_UseTraverse );
	.loc 1 1147 5
	movl	-4(%rbp), %ecx	# y2, tmp115
	movl	-8(%rbp), %edx	# x2, tmp116
	movl	-12(%rbp), %esi	# y1, tmp117
	movl	-16(%rbp), %eax	# x1, tmp118
	leaq	PTR_UseTraverse(%rip), %r9	#,
	movl	$1, %r8d	#,
	movl	%eax, %edi	# tmp118,
	call	P_PathTraverse@PLT	#
# p_map.c:1148: }
	.loc 1 1148 1
	nop	
	leave	
	.cfi_def_cfa 7, 8
	ret	
	.cfi_endproc
.LFE21:
	.size	P_UseLines, .-P_UseLines
	.globl	bombsource
	.bss
	.align 8
	.type	bombsource, @object
	.size	bombsource, 8
bombsource:
	.zero	8
	.globl	bombspot
	.align 8
	.type	bombspot, @object
	.size	bombspot, 8
bombspot:
	.zero	8
	.globl	bombdamage
	.align 4
	.type	bombdamage, @object
	.size	bombdamage, 4
bombdamage:
	.zero	4
	.text
	.globl	PIT_RadiusAttack
	.type	PIT_RadiusAttack, @function
PIT_RadiusAttack:
.LFB22:
	.loc 1 1165 1
	.cfi_startproc
	endbr64	
	pushq	%rbp	#
	.cfi_def_cfa_offset 16
	.cfi_offset 6, -16
	movq	%rsp, %rbp	#,
	.cfi_def_cfa_register 6
	subq	$32, %rsp	#,
	movq	%rdi, -24(%rbp)	# thing, thing
# p_map.c:1170:     if (!(thing->flags & MF_SHOOTABLE) )
	.loc 1 1170 16
	movq	-24(%rbp), %rax	# thing, tmp105
	movl	160(%rax), %eax	# thing_27(D)->flags, _1
# p_map.c:1170:     if (!(thing->flags & MF_SHOOTABLE) )
	.loc 1 1170 24
	andl	$4, %eax	#, _2
# p_map.c:1170:     if (!(thing->flags & MF_SHOOTABLE) )
	.loc 1 1170 8
	testl	%eax, %eax	# _2
	jne	.L156	#,
# p_map.c:1171: 	return true;
	.loc 1 1171 9
	movl	$1, %eax	#, _23
	jmp	.L157	#
.L156:
# p_map.c:1175:     if (thing->type == MT_CYBORG
	.loc 1 1175 14
	movq	-24(%rbp), %rax	# thing, tmp106
	movl	128(%rax), %eax	# thing_27(D)->type, _3
# p_map.c:1175:     if (thing->type == MT_CYBORG
	.loc 1 1175 8
	cmpl	$21, %eax	#, _3
	je	.L158	#,
# p_map.c:1176: 	|| thing->type == MT_SPIDER)
	.loc 1 1176 10
	movq	-24(%rbp), %rax	# thing, tmp107
	movl	128(%rax), %eax	# thing_27(D)->type, _4
# p_map.c:1176: 	|| thing->type == MT_SPIDER)
	.loc 1 1176 2
	cmpl	$19, %eax	#, _4
	jne	.L159	#,
.L158:
# p_map.c:1177: 	return true;	
	.loc 1 1177 9
	movl	$1, %eax	#, _23
	jmp	.L157	#
.L159:
# p_map.c:1179:     dx = abs(thing->x - bombspot->x);
	.loc 1 1179 19
	movq	-24(%rbp), %rax	# thing, tmp108
	movl	24(%rax), %ecx	# thing_27(D)->x, _5
# p_map.c:1179:     dx = abs(thing->x - bombspot->x);
	.loc 1 1179 33
	movq	bombspot(%rip), %rax	# bombspot, bombspot.183_6
	movl	24(%rax), %edx	# bombspot.183_6->x, _7
# p_map.c:1179:     dx = abs(thing->x - bombspot->x);
	.loc 1 1179 23
	movl	%ecx, %eax	# _5, _5
	subl	%edx, %eax	# _7, _5
# p_map.c:1179:     dx = abs(thing->x - bombspot->x);
	.loc 1 1179 8
	movl	%eax, %edx	# _8, tmp120
	negl	%edx	# tmp120
	cmovns	%edx, %eax	# tmp120,, tmp109
	movl	%eax, -8(%rbp)	# tmp109, dx
# p_map.c:1180:     dy = abs(thing->y - bombspot->y);
	.loc 1 1180 19
	movq	-24(%rbp), %rax	# thing, tmp110
	movl	28(%rax), %ecx	# thing_27(D)->y, _9
# p_map.c:1180:     dy = abs(thing->y - bombspot->y);
	.loc 1 1180 33
	movq	bombspot(%rip), %rax	# bombspot, bombspot.184_10
	movl	28(%rax), %edx	# bombspot.184_10->y, _11
# p_map.c:1180:     dy = abs(thing->y - bombspot->y);
	.loc 1 1180 23
	movl	%ecx, %eax	# _9, _9
	subl	%edx, %eax	# _11, _9
# p_map.c:1180:     dy = abs(thing->y - bombspot->y);
	.loc 1 1180 8
	movl	%eax, %edx	# _12, tmp121
	negl	%edx	# tmp121
	cmovns	%edx, %eax	# tmp121,, tmp111
	movl	%eax, -4(%rbp)	# tmp111, dy
# p_map.c:1182:     dist = dx>dy ? dx : dy;
	.loc 1 1182 10
	movl	-4(%rbp), %edx	# dy, tmp113
	movl	-8(%rbp), %eax	# dx, tmp122
	cmpl	%eax, %edx	# tmp122, tmp113
	cmovge	%edx, %eax	# tmp113,, tmp112
	movl	%eax, -12(%rbp)	# tmp112, dist
# p_map.c:1183:     dist = (dist - thing->radius) >> FRACBITS;
	.loc 1 1183 25
	movq	-24(%rbp), %rax	# thing, tmp114
	movl	104(%rax), %eax	# thing_27(D)->radius, _13
# p_map.c:1183:     dist = (dist - thing->radius) >> FRACBITS;
	.loc 1 1183 18
	movl	-12(%rbp), %edx	# dist, tmp115
	subl	%eax, %edx	# _13, _14
# p_map.c:1183:     dist = (dist - thing->radius) >> FRACBITS;
	.loc 1 1183 10
	movl	%edx, %eax	# _14, _14
	sarl	$16, %eax	#, _14
	movl	%eax, -12(%rbp)	# tmp116, dist
# p_map.c:1185:     if (dist < 0)
	.loc 1 1185 8
	cmpl	$0, -12(%rbp)	#, dist
	jns	.L160	#,
# p_map.c:1186: 	dist = 0;
	.loc 1 1186 7
	movl	$0, -12(%rbp)	#, dist
.L160:
# p_map.c:1188:     if (dist >= bombdamage)
	.loc 1 1188 14
	movl	bombdamage(%rip), %eax	# bombdamage, bombdamage.185_15
# p_map.c:1188:     if (dist >= bombdamage)
	.loc 1 1188 8
	cmpl	%eax, -12(%rbp)	# bombdamage.185_15, dist
	jl	.L161	#,
# p_map.c:1189: 	return true;	// out of range
	.loc 1 1189 9
	movl	$1, %eax	#, _23
	jmp	.L157	#
.L161:
# p_map.c:1191:     if ( P_CheckSight (thing, bombspot) )
	.loc 1 1191 10
	movq	bombspot(%rip), %rdx	# bombspot, bombspot.186_16
	movq	-24(%rbp), %rax	# thing, tmp117
	movq	%rdx, %rsi	# bombspot.186_16,
	movq	%rax, %rdi	# tmp117,
	call	P_CheckSight@PLT	#
# p_map.c:1191:     if ( P_CheckSight (thing, bombspot) )
	.loc 1 1191 8 discriminator 1
	testl	%eax, %eax	# _17
	je	.L162	#,
# p_map.c:1194: 	P_DamageMobj (thing, bombspot, bombsource, bombdamage - dist);
	.loc 1 1194 2
	movl	bombdamage(%rip), %eax	# bombdamage, bombdamage.187_18
	subl	-12(%rbp), %eax	# dist, bombdamage.187_18
	movl	%eax, %ecx	# bombdamage.187_18, _19
	movq	bombsource(%rip), %rdx	# bombsource, bombsource.188_20
	movq	bombspot(%rip), %rsi	# bombspot, bombspot.189_21
	movq	-24(%rbp), %rax	# thing, tmp118
	movq	%rax, %rdi	# tmp118,
	call	P_DamageMobj@PLT	#
.L162:
# p_map.c:1197:     return true;
	.loc 1 1197 12
	movl	$1, %eax	#, _23
.L157:
# p_map.c:1198: }
	.loc 1 1198 1
	leave	
	.cfi_def_cfa 7, 8
	ret	
	.cfi_endproc
.LFE22:
	.size	PIT_RadiusAttack, .-PIT_RadiusAttack
	.globl	P_RadiusAttack
	.type	P_RadiusAttack, @function
P_RadiusAttack:
.LFB23:
	.loc 1 1210 1
	.cfi_startproc
	endbr64	
	pushq	%rbp	#
	.cfi_def_cfa_offset 16
	.cfi_offset 6, -16
	movq	%rsp, %rbp	#,
	.cfi_def_cfa_register 6
	subq	$64, %rsp	#,
	movq	%rdi, -40(%rbp)	# spot, spot
	movq	%rsi, -48(%rbp)	# source, source
	movl	%edx, -52(%rbp)	# damage, damage
# p_map.c:1221:     dist = (damage+MAXRADIUS)<<FRACBITS;
	.loc 1 1221 19
	movl	-52(%rbp), %eax	# damage, tmp99
	addl	$2097152, %eax	#, _1
# p_map.c:1221:     dist = (damage+MAXRADIUS)<<FRACBITS;
	.loc 1 1221 10
	sall	$16, %eax	#, tmp100
	movl	%eax, -20(%rbp)	# tmp100, dist
# p_map.c:1222:     yh = (spot->y + dist - bmaporgy)>>MAPBLOCKSHIFT;
	.loc 1 1222 15
	movq	-40(%rbp), %rax	# spot, tmp101
	movl	28(%rax), %edx	# spot_25(D)->y, _2
# p_map.c:1222:     yh = (spot->y + dist - bmaporgy)>>MAPBLOCKSHIFT;
	.loc 1 1222 19
	movl	-20(%rbp), %eax	# dist, tmp102
	addl	%eax, %edx	# tmp102, _3
# p_map.c:1222:     yh = (spot->y + dist - bmaporgy)>>MAPBLOCKSHIFT;
	.loc 1 1222 26
	movl	bmaporgy(%rip), %eax	# bmaporgy, bmaporgy.190_4
	subl	%eax, %edx	# bmaporgy.190_4, _5
# p_map.c:1222:     yh = (spot->y + dist - bmaporgy)>>MAPBLOCKSHIFT;
	.loc 1 1222 8
	movl	%edx, %eax	# _5, _5
	sarl	$23, %eax	#, _5
	movl	%eax, -16(%rbp)	# tmp103, yh
# p_map.c:1223:     yl = (spot->y - dist - bmaporgy)>>MAPBLOCKSHIFT;
	.loc 1 1223 15
	movq	-40(%rbp), %rax	# spot, tmp104
	movl	28(%rax), %eax	# spot_25(D)->y, _6
# p_map.c:1223:     yl = (spot->y - dist - bmaporgy)>>MAPBLOCKSHIFT;
	.loc 1 1223 19
	subl	-20(%rbp), %eax	# dist, _6
	movl	%eax, %edx	# _6, _7
# p_map.c:1223:     yl = (spot->y - dist - bmaporgy)>>MAPBLOCKSHIFT;
	.loc 1 1223 26
	movl	bmaporgy(%rip), %eax	# bmaporgy, bmaporgy.191_8
	subl	%eax, %edx	# bmaporgy.191_8, _9
# p_map.c:1223:     yl = (spot->y - dist - bmaporgy)>>MAPBLOCKSHIFT;
	.loc 1 1223 8
	movl	%edx, %eax	# _9, _9
	sarl	$23, %eax	#, _9
	movl	%eax, -12(%rbp)	# tmp105, yl
# p_map.c:1224:     xh = (spot->x + dist - bmaporgx)>>MAPBLOCKSHIFT;
	.loc 1 1224 15
	movq	-40(%rbp), %rax	# spot, tmp106
	movl	24(%rax), %edx	# spot_25(D)->x, _10
# p_map.c:1224:     xh = (spot->x + dist - bmaporgx)>>MAPBLOCKSHIFT;
	.loc 1 1224 19
	movl	-20(%rbp), %eax	# dist, tmp107
	addl	%eax, %edx	# tmp107, _11
# p_map.c:1224:     xh = (spot->x + dist - bmaporgx)>>MAPBLOCKSHIFT;
	.loc 1 1224 26
	movl	bmaporgx(%rip), %eax	# bmaporgx, bmaporgx.192_12
	subl	%eax, %edx	# bmaporgx.192_12, _13
# p_map.c:1224:     xh = (spot->x + dist - bmaporgx)>>MAPBLOCKSHIFT;
	.loc 1 1224 8
	movl	%edx, %eax	# _13, _13
	sarl	$23, %eax	#, _13
	movl	%eax, -8(%rbp)	# tmp108, xh
# p_map.c:1225:     xl = (spot->x - dist - bmaporgx)>>MAPBLOCKSHIFT;
	.loc 1 1225 15
	movq	-40(%rbp), %rax	# spot, tmp109
	movl	24(%rax), %eax	# spot_25(D)->x, _14
# p_map.c:1225:     xl = (spot->x - dist - bmaporgx)>>MAPBLOCKSHIFT;
	.loc 1 1225 19
	subl	-20(%rbp), %eax	# dist, _14
	movl	%eax, %edx	# _14, _15
# p_map.c:1225:     xl = (spot->x - dist - bmaporgx)>>MAPBLOCKSHIFT;
	.loc 1 1225 26
	movl	bmaporgx(%rip), %eax	# bmaporgx, bmaporgx.193_16
	subl	%eax, %edx	# bmaporgx.193_16, _17
# p_map.c:1225:     xl = (spot->x - dist - bmaporgx)>>MAPBLOCKSHIFT;
	.loc 1 1225 8
	movl	%edx, %eax	# _17, _17
	sarl	$23, %eax	#, _17
	movl	%eax, -4(%rbp)	# tmp110, xl
# p_map.c:1226:     bombspot = spot;
	.loc 1 1226 14
	movq	-40(%rbp), %rax	# spot, tmp111
	movq	%rax, bombspot(%rip)	# tmp111, bombspot
# p_map.c:1227:     bombsource = source;
	.loc 1 1227 16
	movq	-48(%rbp), %rax	# source, tmp112
	movq	%rax, bombsource(%rip)	# tmp112, bombsource
# p_map.c:1228:     bombdamage = damage;
	.loc 1 1228 16
	movl	-52(%rbp), %eax	# damage, tmp113
	movl	%eax, bombdamage(%rip)	# tmp113, bombdamage
# p_map.c:1230:     for (y=yl ; y<=yh ; y++)
	.loc 1 1230 11
	movl	-12(%rbp), %eax	# yl, tmp114
	movl	%eax, -24(%rbp)	# tmp114, y
# p_map.c:1230:     for (y=yl ; y<=yh ; y++)
	.loc 1 1230 5
	jmp	.L164	#
.L167:
# p_map.c:1231: 	for (x=xl ; x<=xh ; x++)
	.loc 1 1231 8
	movl	-4(%rbp), %eax	# xl, tmp115
	movl	%eax, -28(%rbp)	# tmp115, x
# p_map.c:1231: 	for (x=xl ; x<=xh ; x++)
	.loc 1 1231 2
	jmp	.L165	#
.L166:
# p_map.c:1232: 	    P_BlockThingsIterator (x, y, PIT_RadiusAttack );
	.loc 1 1232 6
	movl	-24(%rbp), %ecx	# y, tmp116
	movl	-28(%rbp), %eax	# x, tmp117
	leaq	PIT_RadiusAttack(%rip), %rdx	#, tmp118
	movl	%ecx, %esi	# tmp116,
	movl	%eax, %edi	# tmp117,
	call	P_BlockThingsIterator@PLT	#
# p_map.c:1231: 	for (x=xl ; x<=xh ; x++)
	.loc 1 1231 23 discriminator 3
	addl	$1, -28(%rbp)	#, x
.L165:
# p_map.c:1231: 	for (x=xl ; x<=xh ; x++)
	.loc 1 1231 15 discriminator 1
	movl	-28(%rbp), %eax	# x, tmp119
	cmpl	-8(%rbp), %eax	# xh, tmp119
	jle	.L166	#,
# p_map.c:1230:     for (y=yl ; y<=yh ; y++)
	.loc 1 1230 26 discriminator 2
	addl	$1, -24(%rbp)	#, y
.L164:
# p_map.c:1230:     for (y=yl ; y<=yh ; y++)
	.loc 1 1230 18 discriminator 1
	movl	-24(%rbp), %eax	# y, tmp120
	cmpl	-16(%rbp), %eax	# yh, tmp120
	jle	.L167	#,
# p_map.c:1233: }
	.loc 1 1233 1
	nop	
	nop	
	leave	
	.cfi_def_cfa 7, 8
	ret	
	.cfi_endproc
.LFE23:
	.size	P_RadiusAttack, .-P_RadiusAttack
	.globl	crushchange
	.bss
	.align 4
	.type	crushchange, @object
	.size	crushchange, 4
crushchange:
	.zero	4
	.globl	nofit
	.align 4
	.type	nofit, @object
	.size	nofit, 4
nofit:
	.zero	4
	.text
	.globl	PIT_ChangeSector
	.type	PIT_ChangeSector, @function
PIT_ChangeSector:
.LFB24:
	.loc 1 1258 1
	.cfi_startproc
	endbr64	
	pushq	%rbp	#
	.cfi_def_cfa_offset 16
	.cfi_offset 6, -16
	movq	%rsp, %rbp	#,
	.cfi_def_cfa_register 6
	pushq	%rbx	#
	subq	$40, %rsp	#,
	.cfi_offset 3, -24
	movq	%rdi, -40(%rbp)	# thing, thing
# p_map.c:1261:     if (P_ThingHeightClip (thing))
	.loc 1 1261 9
	movq	-40(%rbp), %rax	# thing, tmp109
	movq	%rax, %rdi	# tmp109,
	call	P_ThingHeightClip	#
# p_map.c:1261:     if (P_ThingHeightClip (thing))
	.loc 1 1261 8 discriminator 1
	testl	%eax, %eax	# _1
	je	.L169	#,
# p_map.c:1264: 	return true;
	.loc 1 1264 9
	movl	$1, %eax	#, _26
	jmp	.L170	#
.L169:
# p_map.c:1269:     if (thing->health <= 0)
	.loc 1 1269 14
	movq	-40(%rbp), %rax	# thing, tmp110
	movl	164(%rax), %eax	# thing_30(D)->health, _2
# p_map.c:1269:     if (thing->health <= 0)
	.loc 1 1269 8
	testl	%eax, %eax	# _2
	jg	.L171	#,
# p_map.c:1271: 	P_SetMobjState (thing, S_GIBS);
	.loc 1 1271 2
	movq	-40(%rbp), %rax	# thing, tmp111
	movl	$895, %esi	#,
	movq	%rax, %rdi	# tmp111,
	call	P_SetMobjState@PLT	#
# p_map.c:1273: 	thing->flags &= ~MF_SOLID;
	.loc 1 1273 7
	movq	-40(%rbp), %rax	# thing, tmp112
	movl	160(%rax), %eax	# thing_30(D)->flags, _3
# p_map.c:1273: 	thing->flags &= ~MF_SOLID;
	.loc 1 1273 15
	andl	$-3, %eax	#, _3
	movl	%eax, %edx	# _3, _4
	movq	-40(%rbp), %rax	# thing, tmp113
	movl	%edx, 160(%rax)	# _4, thing_30(D)->flags
# p_map.c:1274: 	thing->height = 0;
	.loc 1 1274 16
	movq	-40(%rbp), %rax	# thing, tmp114
	movl	$0, 108(%rax)	#, thing_30(D)->height
# p_map.c:1275: 	thing->radius = 0;
	.loc 1 1275 16
	movq	-40(%rbp), %rax	# thing, tmp115
	movl	$0, 104(%rax)	#, thing_30(D)->radius
# p_map.c:1278: 	return true;		
	.loc 1 1278 9
	movl	$1, %eax	#, _26
	jmp	.L170	#
.L171:
# p_map.c:1282:     if (thing->flags & MF_DROPPED)
	.loc 1 1282 14
	movq	-40(%rbp), %rax	# thing, tmp116
	movl	160(%rax), %eax	# thing_30(D)->flags, _5
# p_map.c:1282:     if (thing->flags & MF_DROPPED)
	.loc 1 1282 22
	andl	$131072, %eax	#, _6
# p_map.c:1282:     if (thing->flags & MF_DROPPED)
	.loc 1 1282 8
	testl	%eax, %eax	# _6
	je	.L172	#,
# p_map.c:1284: 	P_RemoveMobj (thing);
	.loc 1 1284 2
	movq	-40(%rbp), %rax	# thing, tmp117
	movq	%rax, %rdi	# tmp117,
	call	P_RemoveMobj@PLT	#
# p_map.c:1287: 	return true;		
	.loc 1 1287 9
	movl	$1, %eax	#, _26
	jmp	.L170	#
.L172:
# p_map.c:1290:     if (! (thing->flags & MF_SHOOTABLE) )
	.loc 1 1290 17
	movq	-40(%rbp), %rax	# thing, tmp118
	movl	160(%rax), %eax	# thing_30(D)->flags, _7
# p_map.c:1290:     if (! (thing->flags & MF_SHOOTABLE) )
	.loc 1 1290 25
	andl	$4, %eax	#, _8
# p_map.c:1290:     if (! (thing->flags & MF_SHOOTABLE) )
	.loc 1 1290 8
	testl	%eax, %eax	# _8
	jne	.L173	#,
# p_map.c:1293: 	return true;			
	.loc 1 1293 9
	movl	$1, %eax	#, _26
	jmp	.L170	#
.L173:
# p_map.c:1296:     nofit = true;
	.loc 1 1296 11
	movl	$1, nofit(%rip)	#, nofit
# p_map.c:1298:     if (crushchange && !(leveltime&3) )
	.loc 1 1298 9
	movl	crushchange(%rip), %eax	# crushchange, crushchange.194_9
# p_map.c:1298:     if (crushchange && !(leveltime&3) )
	.loc 1 1298 8
	testl	%eax, %eax	# crushchange.194_9
	je	.L174	#,
# p_map.c:1298:     if (crushchange && !(leveltime&3) )
	.loc 1 1298 35 discriminator 1
	movl	leveltime(%rip), %eax	# leveltime, leveltime.195_10
	andl	$3, %eax	#, _11
# p_map.c:1298:     if (crushchange && !(leveltime&3) )
	.loc 1 1298 21 discriminator 1
	testl	%eax, %eax	# _11
	jne	.L174	#,
# p_map.c:1300: 	P_DamageMobj(thing,NULL,NULL,10);
	.loc 1 1300 2
	movq	-40(%rbp), %rax	# thing, tmp119
	movl	$10, %ecx	#,
	movl	$0, %edx	#,
	movl	$0, %esi	#,
	movq	%rax, %rdi	# tmp119,
	call	P_DamageMobj@PLT	#
# p_map.c:1305: 			  thing->z + thing->height/2, MT_BLOOD);
	.loc 1 1305 11
	movq	-40(%rbp), %rax	# thing, tmp120
	movl	32(%rax), %edx	# thing_30(D)->z, _12
# p_map.c:1305: 			  thing->z + thing->height/2, MT_BLOOD);
	.loc 1 1305 22
	movq	-40(%rbp), %rax	# thing, tmp121
	movl	108(%rax), %eax	# thing_30(D)->height, _13
# p_map.c:1305: 			  thing->z + thing->height/2, MT_BLOOD);
	.loc 1 1305 30
	movl	%eax, %ecx	# _13, tmp122
	shrl	$31, %ecx	#, tmp122
	addl	%ecx, %eax	# tmp122, tmp123
	sarl	%eax	# tmp124
# p_map.c:1303: 	mo = P_SpawnMobj (thing->x,
	.loc 1 1303 7
	addl	%eax, %edx	# _14, _15
	movq	-40(%rbp), %rax	# thing, tmp125
	movl	28(%rax), %esi	# thing_30(D)->y, _16
	movq	-40(%rbp), %rax	# thing, tmp126
	movl	24(%rax), %eax	# thing_30(D)->x, _17
	movl	$38, %ecx	#,
	movl	%eax, %edi	# _17,
	call	P_SpawnMobj@PLT	#
	movq	%rax, -24(%rbp)	# tmp127, mo
# p_map.c:1307: 	mo->momx = (P_Random() - P_Random ())<<12;
	.loc 1 1307 14
	call	P_Random@PLT	#
	movl	%eax, %ebx	#, _18
# p_map.c:1307: 	mo->momx = (P_Random() - P_Random ())<<12;
	.loc 1 1307 27 discriminator 1
	call	P_Random@PLT	#
# p_map.c:1307: 	mo->momx = (P_Random() - P_Random ())<<12;
	.loc 1 1307 25 discriminator 2
	subl	%eax, %ebx	# _19, _18
	movl	%ebx, %edx	# _18, _20
# p_map.c:1307: 	mo->momx = (P_Random() - P_Random ())<<12;
	.loc 1 1307 39 discriminator 2
	sall	$12, %edx	#, _21
# p_map.c:1307: 	mo->momx = (P_Random() - P_Random ())<<12;
	.loc 1 1307 11 discriminator 2
	movq	-24(%rbp), %rax	# mo, tmp128
	movl	%edx, 112(%rax)	# _21, mo_35->momx
# p_map.c:1308: 	mo->momy = (P_Random() - P_Random ())<<12;
	.loc 1 1308 14
	call	P_Random@PLT	#
	movl	%eax, %ebx	#, _22
# p_map.c:1308: 	mo->momy = (P_Random() - P_Random ())<<12;
	.loc 1 1308 27 discriminator 1
	call	P_Random@PLT	#
# p_map.c:1308: 	mo->momy = (P_Random() - P_Random ())<<12;
	.loc 1 1308 25 discriminator 2
	subl	%eax, %ebx	# _23, _22
	movl	%ebx, %edx	# _22, _24
# p_map.c:1308: 	mo->momy = (P_Random() - P_Random ())<<12;
	.loc 1 1308 39 discriminator 2
	sall	$12, %edx	#, _25
# p_map.c:1308: 	mo->momy = (P_Random() - P_Random ())<<12;
	.loc 1 1308 11 discriminator 2
	movq	-24(%rbp), %rax	# mo, tmp129
	movl	%edx, 116(%rax)	# _25, mo_35->momy
.L174:
# p_map.c:1312:     return true;	
	.loc 1 1312 12
	movl	$1, %eax	#, _26
.L170:
# p_map.c:1313: }
	.loc 1 1313 1
	movq	-8(%rbp), %rbx	#,
	leave	
	.cfi_def_cfa 7, 8
	ret	
	.cfi_endproc
.LFE24:
	.size	PIT_ChangeSector, .-PIT_ChangeSector
	.globl	P_ChangeSector
	.type	P_ChangeSector, @function
P_ChangeSector:
.LFB25:
	.loc 1 1324 1
	.cfi_startproc
	endbr64	
	pushq	%rbp	#
	.cfi_def_cfa_offset 16
	.cfi_offset 6, -16
	movq	%rsp, %rbp	#,
	.cfi_def_cfa_register 6
	subq	$32, %rsp	#,
	movq	%rdi, -24(%rbp)	# sector, sector
	movl	%esi, -28(%rbp)	# crunch, crunch
# p_map.c:1328:     nofit = false;
	.loc 1 1328 11
	movl	$0, nofit(%rip)	#, nofit
# p_map.c:1329:     crushchange = crunch;
	.loc 1 1329 17
	movl	-28(%rbp), %eax	# crunch, tmp86
	movl	%eax, crushchange(%rip)	# tmp86, crushchange
# p_map.c:1332:     for (x=sector->blockbox[BOXLEFT] ; x<= sector->blockbox[BOXRIGHT] ; x++)
	.loc 1 1332 11
	movq	-24(%rbp), %rax	# sector, tmp87
	movl	40(%rax), %eax	# sector_11(D)->blockbox[2], tmp88
	movl	%eax, -8(%rbp)	# tmp88, x
# p_map.c:1332:     for (x=sector->blockbox[BOXLEFT] ; x<= sector->blockbox[BOXRIGHT] ; x++)
	.loc 1 1332 5
	jmp	.L176	#
.L179:
# p_map.c:1333: 	for (y=sector->blockbox[BOXBOTTOM];y<= sector->blockbox[BOXTOP] ; y++)
	.loc 1 1333 8
	movq	-24(%rbp), %rax	# sector, tmp89
	movl	36(%rax), %eax	# sector_11(D)->blockbox[1], tmp90
	movl	%eax, -4(%rbp)	# tmp90, y
# p_map.c:1333: 	for (y=sector->blockbox[BOXBOTTOM];y<= sector->blockbox[BOXTOP] ; y++)
	.loc 1 1333 2
	jmp	.L177	#
.L178:
# p_map.c:1334: 	    P_BlockThingsIterator (x, y, PIT_ChangeSector);
	.loc 1 1334 6
	movl	-4(%rbp), %ecx	# y, tmp91
	movl	-8(%rbp), %eax	# x, tmp92
	leaq	PIT_ChangeSector(%rip), %rdx	#, tmp93
	movl	%ecx, %esi	# tmp91,
	movl	%eax, %edi	# tmp92,
	call	P_BlockThingsIterator@PLT	#
# p_map.c:1333: 	for (y=sector->blockbox[BOXBOTTOM];y<= sector->blockbox[BOXTOP] ; y++)
	.loc 1 1333 69 discriminator 3
	addl	$1, -4(%rbp)	#, y
.L177:
# p_map.c:1333: 	for (y=sector->blockbox[BOXBOTTOM];y<= sector->blockbox[BOXTOP] ; y++)
	.loc 1 1333 57 discriminator 1
	movq	-24(%rbp), %rax	# sector, tmp94
	movl	32(%rax), %eax	# sector_11(D)->blockbox[0], _1
# p_map.c:1333: 	for (y=sector->blockbox[BOXBOTTOM];y<= sector->blockbox[BOXTOP] ; y++)
	.loc 1 1333 38 discriminator 1
	cmpl	%eax, -4(%rbp)	# _1, y
	jle	.L178	#,
# p_map.c:1332:     for (x=sector->blockbox[BOXLEFT] ; x<= sector->blockbox[BOXRIGHT] ; x++)
	.loc 1 1332 74 discriminator 2
	addl	$1, -8(%rbp)	#, x
.L176:
# p_map.c:1332:     for (x=sector->blockbox[BOXLEFT] ; x<= sector->blockbox[BOXRIGHT] ; x++)
	.loc 1 1332 60 discriminator 1
	movq	-24(%rbp), %rax	# sector, tmp95
	movl	44(%rax), %eax	# sector_11(D)->blockbox[3], _2
# p_map.c:1332:     for (x=sector->blockbox[BOXLEFT] ; x<= sector->blockbox[BOXRIGHT] ; x++)
	.loc 1 1332 41 discriminator 1
	cmpl	%eax, -8(%rbp)	# _2, x
	jle	.L179	#,
# p_map.c:1337:     return nofit;
	.loc 1 1337 12
	movl	nofit(%rip), %eax	# nofit, _13
# p_map.c:1338: }
	.loc 1 1338 1
	leave	
	.cfi_def_cfa 7, 8
	ret	
	.cfi_endproc
.LFE25:
	.size	P_ChangeSector, .-P_ChangeSector
.Letext0:
	.file 2 "m_bbox.h"
	.file 3 "doomtype.h"
	.file 4 "m_fixed.h"
	.file 5 "d_ticcmd.h"
	.file 6 "doomdef.h"
	.file 7 "tables.h"
	.file 8 "d_think.h"
	.file 9 "doomdata.h"
	.file 10 "info.h"
	.file 11 "p_mobj.h"
	.file 12 "r_defs.h"
	.file 13 "d_player.h"
	.file 14 "p_pspr.h"
	.file 15 "r_state.h"
	.file 16 "r_main.h"
	.file 17 "p_local.h"
	.file 18 "doomstat.h"
	.file 19 "sounds.h"
	.file 20 "p_spec.h"
	.file 21 "s_sound.h"
	.file 22 "i_system.h"
	.file 23 "m_random.h"
	.section	.note.GNU-stack,"",@progbits
	.section	.note.gnu.property,"a"
	.align 8
	.long	1f - 0f
	.long	4f - 1f
	.long	5
0:
	.string	"GNU"
1:
	.align 8
	.long	0xc0000002
	.long	3f - 2f
2:
	.long	0x3
3:
	.align 8
4:
