	.file	"p_mobj.c"
# GNU C17 (Ubuntu 13.3.0-6ubuntu2~24.04) version 13.3.0 (x86_64-linux-gnu)
#	compiled by GNU C version 13.3.0, GMP version 6.3.0, MPFR version 4.2.1, MPC version 1.3.1, isl version isl-0.26-GMP

# GGC heuristics: --param ggc-min-expand=100 --param ggc-min-heapsize=131072
# options passed: -mtune=generic -march=x86-64 -g -fasynchronous-unwind-tables -fstack-protector-strong -fstack-clash-protection -fcf-protection
	.text
.Ltext0:
	.file 0 "/home/astrid/Documents/enseignements/DOOM/linuxdoom-1.10" "p_mobj.c"
	.section	.rodata
	.align 32
	.type	rcsid, @object
	.size	rcsid, 49
rcsid:
	.string	"$Id: p_mobj.c,v 1.5 1997/02/03 22:45:12 b1 Exp $"
	.globl	test
	.bss
	.align 4
	.type	test, @object
	.size	test, 4
test:
	.zero	4
	.text
	.globl	P_SetMobjState
	.type	P_SetMobjState, @function
P_SetMobjState:
.LFB0:
	.file 1 "p_mobj.c"
	.loc 1 57 1
	.cfi_startproc
	endbr64	
	pushq	%rbp	#
	.cfi_def_cfa_offset 16
	.cfi_offset 6, -16
	movq	%rsp, %rbp	#,
	.cfi_def_cfa_register 6
	subq	$32, %rsp	#,
	movq	%rdi, -24(%rbp)	# mobj, mobj
	movl	%esi, -28(%rbp)	# state, state
.L5:
# p_mobj.c:62: 	if (state == S_NULL)
	.loc 1 62 5
	cmpl	$0, -28(%rbp)	#, state
	jne	.L2	#,
# p_mobj.c:64: 	    mobj->state = (state_t *) S_NULL;
	.loc 1 64 18
	movq	-24(%rbp), %rax	# mobj, tmp92
	movq	$0, 152(%rax)	#, mobj_17(D)->state
# p_mobj.c:65: 	    P_RemoveMobj (mobj);
	.loc 1 65 6
	movq	-24(%rbp), %rax	# mobj, tmp93
	movq	%rax, %rdi	# tmp93,
	call	P_RemoveMobj	#
# p_mobj.c:66: 	    return false;
	.loc 1 66 13
	movl	$0, %eax	#, _10
	jmp	.L3	#
.L2:
# p_mobj.c:69: 	st = &states[state];
	.loc 1 69 5
	movl	-28(%rbp), %edx	# state, tmp94
	movq	%rdx, %rax	# tmp94, tmp95
	salq	$3, %rax	#, tmp96
	subq	%rdx, %rax	# tmp94, tmp95
	salq	$3, %rax	#, tmp97
	leaq	states(%rip), %rdx	#, tmp98
	addq	%rdx, %rax	# tmp98, tmp99
	movq	%rax, -8(%rbp)	# tmp99, st
# p_mobj.c:70: 	mobj->state = st;
	.loc 1 70 14
	movq	-24(%rbp), %rax	# mobj, tmp100
	movq	-8(%rbp), %rdx	# st, tmp101
	movq	%rdx, 152(%rax)	# tmp101, mobj_17(D)->state
# p_mobj.c:71: 	mobj->tics = st->tics;
	.loc 1 71 17
	movq	-8(%rbp), %rax	# st, tmp102
	movq	16(%rax), %rax	# st_16->tics, _1
# p_mobj.c:71: 	mobj->tics = st->tics;
	.loc 1 71 13
	movl	%eax, %edx	# _1, _2
	movq	-24(%rbp), %rax	# mobj, tmp103
	movl	%edx, 144(%rax)	# _2, mobj_17(D)->tics
# p_mobj.c:72: 	mobj->sprite = st->sprite;
	.loc 1 72 19
	movq	-8(%rbp), %rax	# st, tmp104
	movl	(%rax), %edx	# st_16->sprite, _3
# p_mobj.c:72: 	mobj->sprite = st->sprite;
	.loc 1 72 15
	movq	-24(%rbp), %rax	# mobj, tmp105
	movl	%edx, 60(%rax)	# _3, mobj_17(D)->sprite
# p_mobj.c:73: 	mobj->frame = st->frame;
	.loc 1 73 18
	movq	-8(%rbp), %rax	# st, tmp106
	movq	8(%rax), %rax	# st_16->frame, _4
# p_mobj.c:73: 	mobj->frame = st->frame;
	.loc 1 73 14
	movl	%eax, %edx	# _4, _5
	movq	-24(%rbp), %rax	# mobj, tmp107
	movl	%edx, 64(%rax)	# _5, mobj_17(D)->frame
# p_mobj.c:77: 	if (st->action.acp1)		
	.loc 1 77 16
	movq	-8(%rbp), %rax	# st, tmp108
	movq	24(%rax), %rax	# st_16->action.acp1, _6
# p_mobj.c:77: 	if (st->action.acp1)		
	.loc 1 77 5
	testq	%rax, %rax	# _6
	je	.L4	#,
# p_mobj.c:78: 	    st->action.acp1(mobj);	
	.loc 1 78 16
	movq	-8(%rbp), %rax	# st, tmp109
	movq	24(%rax), %rdx	# st_16->action.acp1, _7
# p_mobj.c:78: 	    st->action.acp1(mobj);	
	.loc 1 78 6
	movq	-24(%rbp), %rax	# mobj, tmp110
	movq	%rax, %rdi	# tmp110,
	call	*%rdx	# _7
.LVL0:
.L4:
# p_mobj.c:80: 	state = st->nextstate;
	.loc 1 80 8
	movq	-8(%rbp), %rax	# st, tmp111
	movl	32(%rax), %eax	# st_16->nextstate, tmp112
	movl	%eax, -28(%rbp)	# tmp112, state
# p_mobj.c:81:     } while (!mobj->tics);
	.loc 1 81 19
	movq	-24(%rbp), %rax	# mobj, tmp113
	movl	144(%rax), %eax	# mobj_17(D)->tics, _8
# p_mobj.c:81:     } while (!mobj->tics);
	.loc 1 81 14
	testl	%eax, %eax	# _8
	je	.L5	#,
# p_mobj.c:83:     return true;
	.loc 1 83 12
	movl	$1, %eax	#, _10
.L3:
# p_mobj.c:84: }
	.loc 1 84 1
	leave	
	.cfi_def_cfa 7, 8
	ret	
	.cfi_endproc
.LFE0:
	.size	P_SetMobjState, .-P_SetMobjState
	.globl	P_ExplodeMissile
	.type	P_ExplodeMissile, @function
P_ExplodeMissile:
.LFB1:
	.loc 1 91 1
	.cfi_startproc
	endbr64	
	pushq	%rbp	#
	.cfi_def_cfa_offset 16
	.cfi_offset 6, -16
	movq	%rsp, %rbp	#,
	.cfi_def_cfa_register 6
	subq	$16, %rsp	#,
	movq	%rdi, -8(%rbp)	# mo, mo
# p_mobj.c:92:     mo->momx = mo->momy = mo->momz = 0;
	.loc 1 92 36
	movq	-8(%rbp), %rax	# mo, tmp98
	movl	$0, 120(%rax)	#, mo_19(D)->momz
# p_mobj.c:92:     mo->momx = mo->momy = mo->momz = 0;
	.loc 1 92 29
	movq	-8(%rbp), %rax	# mo, tmp99
	movl	120(%rax), %edx	# mo_19(D)->momz, _1
# p_mobj.c:92:     mo->momx = mo->momy = mo->momz = 0;
	.loc 1 92 25
	movq	-8(%rbp), %rax	# mo, tmp100
	movl	%edx, 116(%rax)	# _1, mo_19(D)->momy
# p_mobj.c:92:     mo->momx = mo->momy = mo->momz = 0;
	.loc 1 92 18
	movq	-8(%rbp), %rax	# mo, tmp101
	movl	116(%rax), %edx	# mo_19(D)->momy, _2
# p_mobj.c:92:     mo->momx = mo->momy = mo->momz = 0;
	.loc 1 92 14
	movq	-8(%rbp), %rax	# mo, tmp102
	movl	%edx, 112(%rax)	# _2, mo_19(D)->momx
# p_mobj.c:94:     P_SetMobjState (mo, mobjinfo[mo->type].deathstate);
	.loc 1 94 36
	movq	-8(%rbp), %rax	# mo, tmp103
	movl	128(%rax), %eax	# mo_19(D)->type, _3
# p_mobj.c:94:     P_SetMobjState (mo, mobjinfo[mo->type].deathstate);
	.loc 1 94 43
	movl	%eax, %eax	# _3, tmp104
	imulq	$92, %rax, %rax	#, tmp104, tmp105
	leaq	48+mobjinfo(%rip), %rdx	#, tmp106
	movl	(%rax,%rdx), %eax	# mobjinfo[_3].deathstate, _4
# p_mobj.c:94:     P_SetMobjState (mo, mobjinfo[mo->type].deathstate);
	.loc 1 94 5
	movl	%eax, %edx	# _4, _5
	movq	-8(%rbp), %rax	# mo, tmp107
	movl	%edx, %esi	# _5,
	movq	%rax, %rdi	# tmp107,
	call	P_SetMobjState	#
# p_mobj.c:96:     mo->tics -= P_Random()&3;
	.loc 1 96 17
	call	P_Random@PLT	#
# p_mobj.c:96:     mo->tics -= P_Random()&3;
	.loc 1 96 27 discriminator 1
	andl	$3, %eax	#, _6
	movl	%eax, %ecx	# _6, _25
# p_mobj.c:96:     mo->tics -= P_Random()&3;
	.loc 1 96 7 discriminator 1
	movq	-8(%rbp), %rax	# mo, tmp108
	movl	144(%rax), %eax	# mo_19(D)->tics, _7
# p_mobj.c:96:     mo->tics -= P_Random()&3;
	.loc 1 96 14 discriminator 1
	subl	%ecx, %eax	# _25, _7
	movl	%eax, %edx	# _7, _8
	movq	-8(%rbp), %rax	# mo, tmp109
	movl	%edx, 144(%rax)	# _8, mo_19(D)->tics
# p_mobj.c:98:     if (mo->tics < 1)
	.loc 1 98 11
	movq	-8(%rbp), %rax	# mo, tmp110
	movl	144(%rax), %eax	# mo_19(D)->tics, _9
# p_mobj.c:98:     if (mo->tics < 1)
	.loc 1 98 8
	testl	%eax, %eax	# _9
	jg	.L7	#,
# p_mobj.c:99: 	mo->tics = 1;
	.loc 1 99 11
	movq	-8(%rbp), %rax	# mo, tmp111
	movl	$1, 144(%rax)	#, mo_19(D)->tics
.L7:
# p_mobj.c:101:     mo->flags &= ~MF_MISSILE;
	.loc 1 101 7
	movq	-8(%rbp), %rax	# mo, tmp112
	movl	160(%rax), %eax	# mo_19(D)->flags, _10
# p_mobj.c:101:     mo->flags &= ~MF_MISSILE;
	.loc 1 101 15
	andl	$-65537, %eax	#, _10
	movl	%eax, %edx	# _10, _11
	movq	-8(%rbp), %rax	# mo, tmp113
	movl	%edx, 160(%rax)	# _11, mo_19(D)->flags
# p_mobj.c:103:     if (mo->info->deathsound)
	.loc 1 103 11
	movq	-8(%rbp), %rax	# mo, tmp114
	movq	136(%rax), %rax	# mo_19(D)->info, _12
# p_mobj.c:103:     if (mo->info->deathsound)
	.loc 1 103 17
	movl	56(%rax), %eax	# _12->deathsound, _13
# p_mobj.c:103:     if (mo->info->deathsound)
	.loc 1 103 8
	testl	%eax, %eax	# _13
	je	.L9	#,
# p_mobj.c:104: 	S_StartSound (mo, mo->info->deathsound);
	.loc 1 104 22
	movq	-8(%rbp), %rax	# mo, tmp115
	movq	136(%rax), %rax	# mo_19(D)->info, _14
# p_mobj.c:104: 	S_StartSound (mo, mo->info->deathsound);
	.loc 1 104 2
	movl	56(%rax), %edx	# _14->deathsound, _15
	movq	-8(%rbp), %rax	# mo, tmp116
	movl	%edx, %esi	# _15,
	movq	%rax, %rdi	# tmp116,
	call	S_StartSound@PLT	#
.L9:
# p_mobj.c:105: }
	.loc 1 105 1
	nop	
	leave	
	.cfi_def_cfa 7, 8
	ret	
	.cfi_endproc
.LFE1:
	.size	P_ExplodeMissile, .-P_ExplodeMissile
	.globl	P_XYMovement
	.type	P_XYMovement, @function
P_XYMovement:
.LFB2:
	.loc 1 115 1
	.cfi_startproc
	endbr64	
	pushq	%rbp	#
	.cfi_def_cfa_offset 16
	.cfi_offset 6, -16
	movq	%rsp, %rbp	#,
	.cfi_def_cfa_register 6
	subq	$48, %rsp	#,
	movq	%rdi, -40(%rbp)	# mo, mo
# p_mobj.c:122:     if (!mo->momx && !mo->momy)
	.loc 1 122 12
	movq	-40(%rbp), %rax	# mo, tmp150
	movl	112(%rax), %eax	# mo_83(D)->momx, _1
# p_mobj.c:122:     if (!mo->momx && !mo->momy)
	.loc 1 122 8
	testl	%eax, %eax	# _1
	jne	.L11	#,
# p_mobj.c:122:     if (!mo->momx && !mo->momy)
	.loc 1 122 25 discriminator 1
	movq	-40(%rbp), %rax	# mo, tmp151
	movl	116(%rax), %eax	# mo_83(D)->momy, _2
# p_mobj.c:122:     if (!mo->momx && !mo->momy)
	.loc 1 122 19 discriminator 1
	testl	%eax, %eax	# _2
	jne	.L11	#,
# p_mobj.c:124: 	if (mo->flags & MF_SKULLFLY)
	.loc 1 124 8
	movq	-40(%rbp), %rax	# mo, tmp152
	movl	160(%rax), %eax	# mo_83(D)->flags, _3
# p_mobj.c:124: 	if (mo->flags & MF_SKULLFLY)
	.loc 1 124 16
	andl	$16777216, %eax	#, _4
# p_mobj.c:124: 	if (mo->flags & MF_SKULLFLY)
	.loc 1 124 5
	testl	%eax, %eax	# _4
	je	.L35	#,
# p_mobj.c:127: 	    mo->flags &= ~MF_SKULLFLY;
	.loc 1 127 8
	movq	-40(%rbp), %rax	# mo, tmp153
	movl	160(%rax), %eax	# mo_83(D)->flags, _5
# p_mobj.c:127: 	    mo->flags &= ~MF_SKULLFLY;
	.loc 1 127 16
	andl	$-16777217, %eax	#, _5
	movl	%eax, %edx	# _5, _6
	movq	-40(%rbp), %rax	# mo, tmp154
	movl	%edx, 160(%rax)	# _6, mo_83(D)->flags
# p_mobj.c:128: 	    mo->momx = mo->momy = mo->momz = 0;
	.loc 1 128 37
	movq	-40(%rbp), %rax	# mo, tmp155
	movl	$0, 120(%rax)	#, mo_83(D)->momz
# p_mobj.c:128: 	    mo->momx = mo->momy = mo->momz = 0;
	.loc 1 128 30
	movq	-40(%rbp), %rax	# mo, tmp156
	movl	120(%rax), %edx	# mo_83(D)->momz, _7
# p_mobj.c:128: 	    mo->momx = mo->momy = mo->momz = 0;
	.loc 1 128 26
	movq	-40(%rbp), %rax	# mo, tmp157
	movl	%edx, 116(%rax)	# _7, mo_83(D)->momy
# p_mobj.c:128: 	    mo->momx = mo->momy = mo->momz = 0;
	.loc 1 128 19
	movq	-40(%rbp), %rax	# mo, tmp158
	movl	116(%rax), %edx	# mo_83(D)->momy, _8
# p_mobj.c:128: 	    mo->momx = mo->momy = mo->momz = 0;
	.loc 1 128 15
	movq	-40(%rbp), %rax	# mo, tmp159
	movl	%edx, 112(%rax)	# _8, mo_83(D)->momx
# p_mobj.c:130: 	    P_SetMobjState (mo, mo->info->spawnstate);
	.loc 1 130 28
	movq	-40(%rbp), %rax	# mo, tmp160
	movq	136(%rax), %rax	# mo_83(D)->info, _9
# p_mobj.c:130: 	    P_SetMobjState (mo, mo->info->spawnstate);
	.loc 1 130 34
	movl	4(%rax), %eax	# _9->spawnstate, _10
# p_mobj.c:130: 	    P_SetMobjState (mo, mo->info->spawnstate);
	.loc 1 130 6
	movl	%eax, %edx	# _10, _11
	movq	-40(%rbp), %rax	# mo, tmp161
	movl	%edx, %esi	# _11,
	movq	%rax, %rdi	# tmp161,
	call	P_SetMobjState	#
# p_mobj.c:132: 	return;
	.loc 1 132 2
	jmp	.L35	#
.L11:
# p_mobj.c:135:     player = mo->player;
	.loc 1 135 12
	movq	-40(%rbp), %rax	# mo, tmp162
	movq	192(%rax), %rax	# mo_83(D)->player, tmp163
	movq	%rax, -8(%rbp)	# tmp163, player
# p_mobj.c:137:     if (mo->momx > MAXMOVE)
	.loc 1 137 11
	movq	-40(%rbp), %rax	# mo, tmp164
	movl	112(%rax), %eax	# mo_83(D)->momx, _12
# p_mobj.c:137:     if (mo->momx > MAXMOVE)
	.loc 1 137 8
	cmpl	$1966080, %eax	#, _12
	jle	.L14	#,
# p_mobj.c:138: 	mo->momx = MAXMOVE;
	.loc 1 138 11
	movq	-40(%rbp), %rax	# mo, tmp165
	movl	$1966080, 112(%rax)	#, mo_83(D)->momx
	jmp	.L15	#
.L14:
# p_mobj.c:139:     else if (mo->momx < -MAXMOVE)
	.loc 1 139 16
	movq	-40(%rbp), %rax	# mo, tmp166
	movl	112(%rax), %eax	# mo_83(D)->momx, _13
# p_mobj.c:139:     else if (mo->momx < -MAXMOVE)
	.loc 1 139 13
	cmpl	$-1966080, %eax	#, _13
	jge	.L15	#,
# p_mobj.c:140: 	mo->momx = -MAXMOVE;
	.loc 1 140 11
	movq	-40(%rbp), %rax	# mo, tmp167
	movl	$-1966080, 112(%rax)	#, mo_83(D)->momx
.L15:
# p_mobj.c:142:     if (mo->momy > MAXMOVE)
	.loc 1 142 11
	movq	-40(%rbp), %rax	# mo, tmp168
	movl	116(%rax), %eax	# mo_83(D)->momy, _14
# p_mobj.c:142:     if (mo->momy > MAXMOVE)
	.loc 1 142 8
	cmpl	$1966080, %eax	#, _14
	jle	.L16	#,
# p_mobj.c:143: 	mo->momy = MAXMOVE;
	.loc 1 143 11
	movq	-40(%rbp), %rax	# mo, tmp169
	movl	$1966080, 116(%rax)	#, mo_83(D)->momy
	jmp	.L17	#
.L16:
# p_mobj.c:144:     else if (mo->momy < -MAXMOVE)
	.loc 1 144 16
	movq	-40(%rbp), %rax	# mo, tmp170
	movl	116(%rax), %eax	# mo_83(D)->momy, _15
# p_mobj.c:144:     else if (mo->momy < -MAXMOVE)
	.loc 1 144 13
	cmpl	$-1966080, %eax	#, _15
	jge	.L17	#,
# p_mobj.c:145: 	mo->momy = -MAXMOVE;
	.loc 1 145 11
	movq	-40(%rbp), %rax	# mo, tmp171
	movl	$-1966080, 116(%rax)	#, mo_83(D)->momy
.L17:
# p_mobj.c:147:     xmove = mo->momx;
	.loc 1 147 11
	movq	-40(%rbp), %rax	# mo, tmp172
	movl	112(%rax), %eax	# mo_83(D)->momx, tmp173
	movl	%eax, -16(%rbp)	# tmp173, xmove
# p_mobj.c:148:     ymove = mo->momy;
	.loc 1 148 11
	movq	-40(%rbp), %rax	# mo, tmp174
	movl	116(%rax), %eax	# mo_83(D)->momy, tmp175
	movl	%eax, -12(%rbp)	# tmp175, ymove
.L18:
# p_mobj.c:152: 	if (xmove > MAXMOVE/2 || ymove > MAXMOVE/2)
	.loc 1 152 5
	cmpl	$983040, -16(%rbp)	#, xmove
	jg	.L19	#,
# p_mobj.c:152: 	if (xmove > MAXMOVE/2 || ymove > MAXMOVE/2)
	.loc 1 152 24 discriminator 1
	cmpl	$983040, -12(%rbp)	#, ymove
	jle	.L20	#,
.L19:
# p_mobj.c:154: 	    ptryx = mo->x + xmove/2;
	.loc 1 154 16
	movq	-40(%rbp), %rax	# mo, tmp176
	movl	24(%rax), %edx	# mo_83(D)->x, _16
# p_mobj.c:154: 	    ptryx = mo->x + xmove/2;
	.loc 1 154 27
	movl	-16(%rbp), %eax	# xmove, tmp177
	movl	%eax, %ecx	# tmp177, tmp178
	shrl	$31, %ecx	#, tmp178
	addl	%ecx, %eax	# tmp178, tmp179
	sarl	%eax	# tmp180
# p_mobj.c:154: 	    ptryx = mo->x + xmove/2;
	.loc 1 154 12
	addl	%edx, %eax	# _16, tmp181
	movl	%eax, -24(%rbp)	# tmp181, ptryx
# p_mobj.c:155: 	    ptryy = mo->y + ymove/2;
	.loc 1 155 16
	movq	-40(%rbp), %rax	# mo, tmp182
	movl	28(%rax), %edx	# mo_83(D)->y, _18
# p_mobj.c:155: 	    ptryy = mo->y + ymove/2;
	.loc 1 155 27
	movl	-12(%rbp), %eax	# ymove, tmp183
	movl	%eax, %ecx	# tmp183, tmp184
	shrl	$31, %ecx	#, tmp184
	addl	%ecx, %eax	# tmp184, tmp185
	sarl	%eax	# tmp186
# p_mobj.c:155: 	    ptryy = mo->y + ymove/2;
	.loc 1 155 12
	addl	%edx, %eax	# _18, tmp187
	movl	%eax, -20(%rbp)	# tmp187, ptryy
# p_mobj.c:156: 	    xmove >>= 1;
	.loc 1 156 12
	sarl	-16(%rbp)	# xmove
# p_mobj.c:157: 	    ymove >>= 1;
	.loc 1 157 12
	sarl	-12(%rbp)	# ymove
	jmp	.L21	#
.L20:
# p_mobj.c:161: 	    ptryx = mo->x + xmove;
	.loc 1 161 16
	movq	-40(%rbp), %rax	# mo, tmp188
	movl	24(%rax), %edx	# mo_83(D)->x, _20
# p_mobj.c:161: 	    ptryx = mo->x + xmove;
	.loc 1 161 12
	movl	-16(%rbp), %eax	# xmove, tmp192
	addl	%edx, %eax	# _20, tmp191
	movl	%eax, -24(%rbp)	# tmp191, ptryx
# p_mobj.c:162: 	    ptryy = mo->y + ymove;
	.loc 1 162 16
	movq	-40(%rbp), %rax	# mo, tmp193
	movl	28(%rax), %edx	# mo_83(D)->y, _21
# p_mobj.c:162: 	    ptryy = mo->y + ymove;
	.loc 1 162 12
	movl	-12(%rbp), %eax	# ymove, tmp197
	addl	%edx, %eax	# _21, tmp196
	movl	%eax, -20(%rbp)	# tmp196, ptryy
# p_mobj.c:163: 	    xmove = ymove = 0;
	.loc 1 163 20
	movl	$0, -12(%rbp)	#, ymove
# p_mobj.c:163: 	    xmove = ymove = 0;
	.loc 1 163 12
	movl	-12(%rbp), %eax	# ymove, tmp198
	movl	%eax, -16(%rbp)	# tmp198, xmove
.L21:
# p_mobj.c:166: 	if (!P_TryMove (mo, ptryx, ptryy))
	.loc 1 166 7
	movl	-20(%rbp), %edx	# ptryy, tmp199
	movl	-24(%rbp), %ecx	# ptryx, tmp200
	movq	-40(%rbp), %rax	# mo, tmp201
	movl	%ecx, %esi	# tmp200,
	movq	%rax, %rdi	# tmp201,
	call	P_TryMove@PLT	#
# p_mobj.c:166: 	if (!P_TryMove (mo, ptryx, ptryy))
	.loc 1 166 5 discriminator 1
	testl	%eax, %eax	# _22
	jne	.L22	#,
# p_mobj.c:169: 	    if (mo->player)
	.loc 1 169 12
	movq	-40(%rbp), %rax	# mo, tmp202
	movq	192(%rax), %rax	# mo_83(D)->player, _23
# p_mobj.c:169: 	    if (mo->player)
	.loc 1 169 9
	testq	%rax, %rax	# _23
	je	.L23	#,
# p_mobj.c:171: 		P_SlideMove (mo);
	.loc 1 171 3
	movq	-40(%rbp), %rax	# mo, tmp203
	movq	%rax, %rdi	# tmp203,
	call	P_SlideMove@PLT	#
	jmp	.L22	#
.L23:
# p_mobj.c:173: 	    else if (mo->flags & MF_MISSILE)
	.loc 1 173 17
	movq	-40(%rbp), %rax	# mo, tmp204
	movl	160(%rax), %eax	# mo_83(D)->flags, _24
# p_mobj.c:173: 	    else if (mo->flags & MF_MISSILE)
	.loc 1 173 25
	andl	$65536, %eax	#, _25
# p_mobj.c:173: 	    else if (mo->flags & MF_MISSILE)
	.loc 1 173 14
	testl	%eax, %eax	# _25
	je	.L24	#,
# p_mobj.c:176: 		if (ceilingline &&
	.loc 1 176 7
	movq	ceilingline(%rip), %rax	# ceilingline, ceilingline.0_26
# p_mobj.c:176: 		if (ceilingline &&
	.loc 1 176 6
	testq	%rax, %rax	# ceilingline.0_26
	je	.L25	#,
# p_mobj.c:177: 		    ceilingline->backsector &&
	.loc 1 177 18
	movq	ceilingline(%rip), %rax	# ceilingline, ceilingline.1_27
	movq	64(%rax), %rax	# ceilingline.1_27->backsector, _28
# p_mobj.c:176: 		if (ceilingline &&
	.loc 1 176 19 discriminator 1
	testq	%rax, %rax	# _28
	je	.L25	#,
# p_mobj.c:178: 		    ceilingline->backsector->ceilingpic == skyflatnum)
	.loc 1 178 18
	movq	ceilingline(%rip), %rax	# ceilingline, ceilingline.2_29
	movq	64(%rax), %rax	# ceilingline.2_29->backsector, _30
# p_mobj.c:178: 		    ceilingline->backsector->ceilingpic == skyflatnum)
	.loc 1 178 30
	movzwl	10(%rax), %eax	# _30->ceilingpic, _31
	movswl	%ax, %edx	# _31, _32
# p_mobj.c:178: 		    ceilingline->backsector->ceilingpic == skyflatnum)
	.loc 1 178 43
	movl	skyflatnum(%rip), %eax	# skyflatnum, skyflatnum.3_33
# p_mobj.c:177: 		    ceilingline->backsector &&
	.loc 1 177 31
	cmpl	%eax, %edx	# skyflatnum.3_33, _32
	jne	.L25	#,
# p_mobj.c:183: 		    P_RemoveMobj (mo);
	.loc 1 183 7
	movq	-40(%rbp), %rax	# mo, tmp205
	movq	%rax, %rdi	# tmp205,
	call	P_RemoveMobj	#
# p_mobj.c:184: 		    return;
	.loc 1 184 7
	jmp	.L10	#
.L25:
# p_mobj.c:186: 		P_ExplodeMissile (mo);
	.loc 1 186 3
	movq	-40(%rbp), %rax	# mo, tmp206
	movq	%rax, %rdi	# tmp206,
	call	P_ExplodeMissile	#
	jmp	.L22	#
.L24:
# p_mobj.c:189: 		mo->momx = mo->momy = 0;
	.loc 1 189 23
	movq	-40(%rbp), %rax	# mo, tmp207
	movl	$0, 116(%rax)	#, mo_83(D)->momy
# p_mobj.c:189: 		mo->momx = mo->momy = 0;
	.loc 1 189 16
	movq	-40(%rbp), %rax	# mo, tmp208
	movl	116(%rax), %edx	# mo_83(D)->momy, _34
# p_mobj.c:189: 		mo->momx = mo->momy = 0;
	.loc 1 189 12
	movq	-40(%rbp), %rax	# mo, tmp209
	movl	%edx, 112(%rax)	# _34, mo_83(D)->momx
.L22:
# p_mobj.c:191:     } while (xmove || ymove);
	.loc 1 191 20
	cmpl	$0, -16(%rbp)	#, xmove
	jne	.L18	#,
# p_mobj.c:191:     } while (xmove || ymove);
	.loc 1 191 20 is_stmt 0 discriminator 1
	cmpl	$0, -12(%rbp)	#, ymove
	jne	.L18	#,
# p_mobj.c:194:     if (player && player->cheats & CF_NOMOMENTUM)
	.loc 1 194 8 is_stmt 1
	cmpq	$0, -8(%rbp)	#, player
	je	.L27	#,
# p_mobj.c:194:     if (player && player->cheats & CF_NOMOMENTUM)
	.loc 1 194 25 discriminator 1
	movq	-8(%rbp), %rax	# player, tmp210
	movl	200(%rax), %eax	# player_89->cheats, _35
# p_mobj.c:194:     if (player && player->cheats & CF_NOMOMENTUM)
	.loc 1 194 34 discriminator 1
	andl	$4, %eax	#, _36
# p_mobj.c:194:     if (player && player->cheats & CF_NOMOMENTUM)
	.loc 1 194 16 discriminator 1
	testl	%eax, %eax	# _36
	je	.L27	#,
# p_mobj.c:197: 	mo->momx = mo->momy = 0;
	.loc 1 197 22
	movq	-40(%rbp), %rax	# mo, tmp211
	movl	$0, 116(%rax)	#, mo_83(D)->momy
# p_mobj.c:197: 	mo->momx = mo->momy = 0;
	.loc 1 197 15
	movq	-40(%rbp), %rax	# mo, tmp212
	movl	116(%rax), %edx	# mo_83(D)->momy, _37
# p_mobj.c:197: 	mo->momx = mo->momy = 0;
	.loc 1 197 11
	movq	-40(%rbp), %rax	# mo, tmp213
	movl	%edx, 112(%rax)	# _37, mo_83(D)->momx
# p_mobj.c:198: 	return;
	.loc 1 198 2
	jmp	.L10	#
.L27:
# p_mobj.c:201:     if (mo->flags & (MF_MISSILE | MF_SKULLFLY) )
	.loc 1 201 11
	movq	-40(%rbp), %rax	# mo, tmp214
	movl	160(%rax), %eax	# mo_83(D)->flags, _38
# p_mobj.c:201:     if (mo->flags & (MF_MISSILE | MF_SKULLFLY) )
	.loc 1 201 19
	andl	$16842752, %eax	#, _39
# p_mobj.c:201:     if (mo->flags & (MF_MISSILE | MF_SKULLFLY) )
	.loc 1 201 8
	testl	%eax, %eax	# _39
	jne	.L36	#,
# p_mobj.c:204:     if (mo->z > mo->floorz)
	.loc 1 204 11
	movq	-40(%rbp), %rax	# mo, tmp215
	movl	32(%rax), %edx	# mo_83(D)->z, _40
# p_mobj.c:204:     if (mo->z > mo->floorz)
	.loc 1 204 19
	movq	-40(%rbp), %rax	# mo, tmp216
	movl	96(%rax), %eax	# mo_83(D)->floorz, _41
# p_mobj.c:204:     if (mo->z > mo->floorz)
	.loc 1 204 8
	cmpl	%eax, %edx	# _41, _40
	jg	.L37	#,
# p_mobj.c:207:     if (mo->flags & MF_CORPSE)
	.loc 1 207 11
	movq	-40(%rbp), %rax	# mo, tmp217
	movl	160(%rax), %eax	# mo_83(D)->flags, _42
# p_mobj.c:207:     if (mo->flags & MF_CORPSE)
	.loc 1 207 19
	andl	$1048576, %eax	#, _43
# p_mobj.c:207:     if (mo->flags & MF_CORPSE)
	.loc 1 207 8
	testl	%eax, %eax	# _43
	je	.L30	#,
# p_mobj.c:211: 	if (mo->momx > FRACUNIT/4
	.loc 1 211 8
	movq	-40(%rbp), %rax	# mo, tmp218
	movl	112(%rax), %eax	# mo_83(D)->momx, _44
# p_mobj.c:211: 	if (mo->momx > FRACUNIT/4
	.loc 1 211 5
	cmpl	$16384, %eax	#, _44
	jg	.L31	#,
# p_mobj.c:212: 	    || mo->momx < -FRACUNIT/4
	.loc 1 212 11
	movq	-40(%rbp), %rax	# mo, tmp219
	movl	112(%rax), %eax	# mo_83(D)->momx, _45
# p_mobj.c:212: 	    || mo->momx < -FRACUNIT/4
	.loc 1 212 6
	cmpl	$-16384, %eax	#, _45
	jl	.L31	#,
# p_mobj.c:213: 	    || mo->momy > FRACUNIT/4
	.loc 1 213 11
	movq	-40(%rbp), %rax	# mo, tmp220
	movl	116(%rax), %eax	# mo_83(D)->momy, _46
# p_mobj.c:213: 	    || mo->momy > FRACUNIT/4
	.loc 1 213 6
	cmpl	$16384, %eax	#, _46
	jg	.L31	#,
# p_mobj.c:214: 	    || mo->momy < -FRACUNIT/4)
	.loc 1 214 11
	movq	-40(%rbp), %rax	# mo, tmp221
	movl	116(%rax), %eax	# mo_83(D)->momy, _47
# p_mobj.c:214: 	    || mo->momy < -FRACUNIT/4)
	.loc 1 214 6
	cmpl	$-16384, %eax	#, _47
	jge	.L30	#,
.L31:
# p_mobj.c:216: 	    if (mo->floorz != mo->subsector->sector->floorheight)
	.loc 1 216 12
	movq	-40(%rbp), %rax	# mo, tmp222
	movl	96(%rax), %edx	# mo_83(D)->floorz, _48
# p_mobj.c:216: 	    if (mo->floorz != mo->subsector->sector->floorheight)
	.loc 1 216 26
	movq	-40(%rbp), %rax	# mo, tmp223
	movq	88(%rax), %rax	# mo_83(D)->subsector, _49
# p_mobj.c:216: 	    if (mo->floorz != mo->subsector->sector->floorheight)
	.loc 1 216 37
	movq	(%rax), %rax	# _49->sector, _50
# p_mobj.c:216: 	    if (mo->floorz != mo->subsector->sector->floorheight)
	.loc 1 216 45
	movl	(%rax), %eax	# _50->floorheight, _51
# p_mobj.c:216: 	    if (mo->floorz != mo->subsector->sector->floorheight)
	.loc 1 216 9
	cmpl	%eax, %edx	# _51, _48
	jne	.L38	#,
.L30:
# p_mobj.c:221:     if (mo->momx > -STOPSPEED
	.loc 1 221 11
	movq	-40(%rbp), %rax	# mo, tmp224
	movl	112(%rax), %eax	# mo_83(D)->momx, _52
# p_mobj.c:221:     if (mo->momx > -STOPSPEED
	.loc 1 221 8
	cmpl	$-4095, %eax	#, _52
	jl	.L32	#,
# p_mobj.c:222: 	&& mo->momx < STOPSPEED
	.loc 1 222 7
	movq	-40(%rbp), %rax	# mo, tmp225
	movl	112(%rax), %eax	# mo_83(D)->momx, _53
# p_mobj.c:222: 	&& mo->momx < STOPSPEED
	.loc 1 222 2
	cmpl	$4095, %eax	#, _53
	jg	.L32	#,
# p_mobj.c:223: 	&& mo->momy > -STOPSPEED
	.loc 1 223 7
	movq	-40(%rbp), %rax	# mo, tmp226
	movl	116(%rax), %eax	# mo_83(D)->momy, _54
# p_mobj.c:223: 	&& mo->momy > -STOPSPEED
	.loc 1 223 2
	cmpl	$-4095, %eax	#, _54
	jl	.L32	#,
# p_mobj.c:224: 	&& mo->momy < STOPSPEED
	.loc 1 224 7
	movq	-40(%rbp), %rax	# mo, tmp227
	movl	116(%rax), %eax	# mo_83(D)->momy, _55
# p_mobj.c:224: 	&& mo->momy < STOPSPEED
	.loc 1 224 2
	cmpl	$4095, %eax	#, _55
	jg	.L32	#,
# p_mobj.c:225: 	&& (!player
	.loc 1 225 2
	cmpq	$0, -8(%rbp)	#, player
	je	.L33	#,
# p_mobj.c:226: 	    || (player->cmd.forwardmove== 0
	.loc 1 226 21
	movq	-8(%rbp), %rax	# player, tmp228
	movzbl	12(%rax), %eax	# player_89->cmd.forwardmove, _56
# p_mobj.c:226: 	    || (player->cmd.forwardmove== 0
	.loc 1 226 6
	testb	%al, %al	# _56
	jne	.L32	#,
# p_mobj.c:227: 		&& player->cmd.sidemove == 0 ) ) )
	.loc 1 227 17
	movq	-8(%rbp), %rax	# player, tmp229
	movzbl	13(%rax), %eax	# player_89->cmd.sidemove, _57
# p_mobj.c:227: 		&& player->cmd.sidemove == 0 ) ) )
	.loc 1 227 3
	testb	%al, %al	# _57
	jne	.L32	#,
.L33:
# p_mobj.c:230: 	if ( player&&(unsigned)((player->mo->state - states)- S_PLAY_RUN1) < 4)
	.loc 1 230 5
	cmpq	$0, -8(%rbp)	#, player
	je	.L34	#,
# p_mobj.c:230: 	if ( player&&(unsigned)((player->mo->state - states)- S_PLAY_RUN1) < 4)
	.loc 1 230 33 discriminator 1
	movq	-8(%rbp), %rax	# player, tmp230
	movq	(%rax), %rax	# player_89->mo, _58
# p_mobj.c:230: 	if ( player&&(unsigned)((player->mo->state - states)- S_PLAY_RUN1) < 4)
	.loc 1 230 37 discriminator 1
	movq	152(%rax), %rdx	# _58->state, _59
# p_mobj.c:230: 	if ( player&&(unsigned)((player->mo->state - states)- S_PLAY_RUN1) < 4)
	.loc 1 230 45 discriminator 1
	leaq	states(%rip), %rax	#, tmp231
	subq	%rax, %rdx	# tmp231, _60
	sarq	$3, %rdx	#, tmp232
	movabsq	$7905747460161236407, %rax	#, tmp234
	imulq	%rdx, %rax	# tmp232, tmp233
# p_mobj.c:230: 	if ( player&&(unsigned)((player->mo->state - states)- S_PLAY_RUN1) < 4)
	.loc 1 230 15 discriminator 1
	subl	$150, %eax	#, _63
# p_mobj.c:230: 	if ( player&&(unsigned)((player->mo->state - states)- S_PLAY_RUN1) < 4)
	.loc 1 230 13 discriminator 1
	cmpl	$3, %eax	#, _63
	ja	.L34	#,
# p_mobj.c:231: 	    P_SetMobjState (player->mo, S_PLAY);
	.loc 1 231 6
	movq	-8(%rbp), %rax	# player, tmp235
	movq	(%rax), %rax	# player_89->mo, _64
	movl	$149, %esi	#,
	movq	%rax, %rdi	# _64,
	call	P_SetMobjState	#
.L34:
# p_mobj.c:233: 	mo->momx = 0;
	.loc 1 233 11
	movq	-40(%rbp), %rax	# mo, tmp236
	movl	$0, 112(%rax)	#, mo_83(D)->momx
# p_mobj.c:234: 	mo->momy = 0;
	.loc 1 234 11
	movq	-40(%rbp), %rax	# mo, tmp237
	movl	$0, 116(%rax)	#, mo_83(D)->momy
	jmp	.L10	#
.L32:
# p_mobj.c:238: 	mo->momx = FixedMul (mo->momx, FRICTION);
	.loc 1 238 13
	movq	-40(%rbp), %rax	# mo, tmp238
	movl	112(%rax), %eax	# mo_83(D)->momx, _65
	movl	$59392, %esi	#,
	movl	%eax, %edi	# _65,
	call	FixedMul@PLT	#
# p_mobj.c:238: 	mo->momx = FixedMul (mo->momx, FRICTION);
	.loc 1 238 11 discriminator 1
	movq	-40(%rbp), %rdx	# mo, tmp239
	movl	%eax, 112(%rdx)	# _66, mo_83(D)->momx
# p_mobj.c:239: 	mo->momy = FixedMul (mo->momy, FRICTION);
	.loc 1 239 13
	movq	-40(%rbp), %rax	# mo, tmp240
	movl	116(%rax), %eax	# mo_83(D)->momy, _67
	movl	$59392, %esi	#,
	movl	%eax, %edi	# _67,
	call	FixedMul@PLT	#
# p_mobj.c:239: 	mo->momy = FixedMul (mo->momy, FRICTION);
	.loc 1 239 11 discriminator 1
	movq	-40(%rbp), %rdx	# mo, tmp241
	movl	%eax, 116(%rdx)	# _68, mo_83(D)->momy
	jmp	.L10	#
.L35:
# p_mobj.c:132: 	return;
	.loc 1 132 2
	nop	
	jmp	.L10	#
.L36:
# p_mobj.c:202: 	return; 	// no friction for missiles ever
	.loc 1 202 2
	nop	
	jmp	.L10	#
.L37:
# p_mobj.c:205: 	return;		// no friction when airborne
	.loc 1 205 2
	nop	
	jmp	.L10	#
.L38:
# p_mobj.c:217: 		return;
	.loc 1 217 3
	nop	
.L10:
# p_mobj.c:241: }
	.loc 1 241 1
	leave	
	.cfi_def_cfa 7, 8
	ret	
	.cfi_endproc
.LFE2:
	.size	P_XYMovement, .-P_XYMovement
	.globl	P_ZMovement
	.type	P_ZMovement, @function
P_ZMovement:
.LFB3:
	.loc 1 247 1
	.cfi_startproc
	endbr64	
	pushq	%rbp	#
	.cfi_def_cfa_offset 16
	.cfi_offset 6, -16
	movq	%rsp, %rbp	#,
	.cfi_def_cfa_register 6
	subq	$32, %rsp	#,
	movq	%rdi, -24(%rbp)	# mo, mo
# p_mobj.c:252:     if (mo->player && mo->z < mo->floorz)
	.loc 1 252 11
	movq	-24(%rbp), %rax	# mo, tmp165
	movq	192(%rax), %rax	# mo_94(D)->player, _1
# p_mobj.c:252:     if (mo->player && mo->z < mo->floorz)
	.loc 1 252 8
	testq	%rax, %rax	# _1
	je	.L40	#,
# p_mobj.c:252:     if (mo->player && mo->z < mo->floorz)
	.loc 1 252 25 discriminator 1
	movq	-24(%rbp), %rax	# mo, tmp166
	movl	32(%rax), %edx	# mo_94(D)->z, _2
# p_mobj.c:252:     if (mo->player && mo->z < mo->floorz)
	.loc 1 252 33 discriminator 1
	movq	-24(%rbp), %rax	# mo, tmp167
	movl	96(%rax), %eax	# mo_94(D)->floorz, _3
# p_mobj.c:252:     if (mo->player && mo->z < mo->floorz)
	.loc 1 252 20 discriminator 1
	cmpl	%eax, %edx	# _3, _2
	jge	.L40	#,
# p_mobj.c:254: 	mo->player->viewheight -= mo->floorz-mo->z;
	.loc 1 254 4
	movq	-24(%rbp), %rax	# mo, tmp168
	movq	192(%rax), %rax	# mo_94(D)->player, _4
# p_mobj.c:254: 	mo->player->viewheight -= mo->floorz-mo->z;
	.loc 1 254 12
	movl	24(%rax), %edx	# _4->viewheight, _5
# p_mobj.c:254: 	mo->player->viewheight -= mo->floorz-mo->z;
	.loc 1 254 30
	movq	-24(%rbp), %rax	# mo, tmp169
	movl	96(%rax), %ecx	# mo_94(D)->floorz, _6
# p_mobj.c:254: 	mo->player->viewheight -= mo->floorz-mo->z;
	.loc 1 254 41
	movq	-24(%rbp), %rax	# mo, tmp170
	movl	32(%rax), %eax	# mo_94(D)->z, _7
# p_mobj.c:254: 	mo->player->viewheight -= mo->floorz-mo->z;
	.loc 1 254 38
	subl	%eax, %ecx	# _7, _8
# p_mobj.c:254: 	mo->player->viewheight -= mo->floorz-mo->z;
	.loc 1 254 4
	movq	-24(%rbp), %rax	# mo, tmp171
	movq	192(%rax), %rax	# mo_94(D)->player, _9
# p_mobj.c:254: 	mo->player->viewheight -= mo->floorz-mo->z;
	.loc 1 254 25
	subl	%ecx, %edx	# _8, _10
	movl	%edx, 24(%rax)	# _10, _9->viewheight
# p_mobj.c:257: 	    = (VIEWHEIGHT - mo->player->viewheight)>>3;
	.loc 1 257 24
	movq	-24(%rbp), %rax	# mo, tmp172
	movq	192(%rax), %rax	# mo_94(D)->player, _11
# p_mobj.c:257: 	    = (VIEWHEIGHT - mo->player->viewheight)>>3;
	.loc 1 257 32
	movl	24(%rax), %eax	# _11->viewheight, _12
# p_mobj.c:257: 	    = (VIEWHEIGHT - mo->player->viewheight)>>3;
	.loc 1 257 20
	movl	$2686976, %edx	#, tmp173
	subl	%eax, %edx	# _12, _13
# p_mobj.c:256: 	mo->player->deltaviewheight
	.loc 1 256 4
	movq	-24(%rbp), %rax	# mo, tmp174
	movq	192(%rax), %rax	# mo_94(D)->player, _14
# p_mobj.c:257: 	    = (VIEWHEIGHT - mo->player->viewheight)>>3;
	.loc 1 257 45
	sarl	$3, %edx	#, _15
# p_mobj.c:257: 	    = (VIEWHEIGHT - mo->player->viewheight)>>3;
	.loc 1 257 6
	movl	%edx, 28(%rax)	# _15, _14->deltaviewheight
.L40:
# p_mobj.c:261:     mo->z += mo->momz;
	.loc 1 261 7
	movq	-24(%rbp), %rax	# mo, tmp175
	movl	32(%rax), %edx	# mo_94(D)->z, _16
# p_mobj.c:261:     mo->z += mo->momz;
	.loc 1 261 16
	movq	-24(%rbp), %rax	# mo, tmp176
	movl	120(%rax), %eax	# mo_94(D)->momz, _17
# p_mobj.c:261:     mo->z += mo->momz;
	.loc 1 261 11
	addl	%eax, %edx	# _17, _18
	movq	-24(%rbp), %rax	# mo, tmp177
	movl	%edx, 32(%rax)	# _18, mo_94(D)->z
# p_mobj.c:263:     if ( mo->flags & MF_FLOAT
	.loc 1 263 12
	movq	-24(%rbp), %rax	# mo, tmp178
	movl	160(%rax), %eax	# mo_94(D)->flags, _19
# p_mobj.c:263:     if ( mo->flags & MF_FLOAT
	.loc 1 263 20
	andl	$16384, %eax	#, _20
# p_mobj.c:263:     if ( mo->flags & MF_FLOAT
	.loc 1 263 8
	testl	%eax, %eax	# _20
	je	.L41	#,
# p_mobj.c:264: 	 && mo->target)
	.loc 1 264 8
	movq	-24(%rbp), %rax	# mo, tmp179
	movq	176(%rax), %rax	# mo_94(D)->target, _21
# p_mobj.c:264: 	 && mo->target)
	.loc 1 264 3
	testq	%rax, %rax	# _21
	je	.L41	#,
# p_mobj.c:267: 	if ( !(mo->flags & MF_SKULLFLY)
	.loc 1 267 11
	movq	-24(%rbp), %rax	# mo, tmp180
	movl	160(%rax), %eax	# mo_94(D)->flags, _22
# p_mobj.c:267: 	if ( !(mo->flags & MF_SKULLFLY)
	.loc 1 267 19
	andl	$16777216, %eax	#, _23
# p_mobj.c:267: 	if ( !(mo->flags & MF_SKULLFLY)
	.loc 1 267 5
	testl	%eax, %eax	# _23
	jne	.L41	#,
# p_mobj.c:268: 	     && !(mo->flags & MF_INFLOAT) )
	.loc 1 268 14
	movq	-24(%rbp), %rax	# mo, tmp181
	movl	160(%rax), %eax	# mo_94(D)->flags, _24
# p_mobj.c:268: 	     && !(mo->flags & MF_INFLOAT) )
	.loc 1 268 22
	andl	$2097152, %eax	#, _25
# p_mobj.c:268: 	     && !(mo->flags & MF_INFLOAT) )
	.loc 1 268 7
	testl	%eax, %eax	# _25
	jne	.L41	#,
# p_mobj.c:271: 				    mo->y - mo->target->y);
	.loc 1 271 11
	movq	-24(%rbp), %rax	# mo, tmp182
	movl	28(%rax), %edx	# mo_94(D)->y, _26
# p_mobj.c:271: 				    mo->y - mo->target->y);
	.loc 1 271 19
	movq	-24(%rbp), %rax	# mo, tmp183
	movq	176(%rax), %rax	# mo_94(D)->target, _27
# p_mobj.c:271: 				    mo->y - mo->target->y);
	.loc 1 271 27
	movl	28(%rax), %eax	# _27->y, _28
# p_mobj.c:270: 	    dist = P_AproxDistance (mo->x - mo->target->x,
	.loc 1 270 13
	subl	%eax, %edx	# _28, _29
# p_mobj.c:270: 	    dist = P_AproxDistance (mo->x - mo->target->x,
	.loc 1 270 32
	movq	-24(%rbp), %rax	# mo, tmp184
	movl	24(%rax), %esi	# mo_94(D)->x, _30
# p_mobj.c:270: 	    dist = P_AproxDistance (mo->x - mo->target->x,
	.loc 1 270 40
	movq	-24(%rbp), %rax	# mo, tmp185
	movq	176(%rax), %rax	# mo_94(D)->target, _31
# p_mobj.c:270: 	    dist = P_AproxDistance (mo->x - mo->target->x,
	.loc 1 270 48
	movl	24(%rax), %ecx	# _31->x, _32
# p_mobj.c:270: 	    dist = P_AproxDistance (mo->x - mo->target->x,
	.loc 1 270 13
	movl	%esi, %eax	# _30, _30
	subl	%ecx, %eax	# _32, _30
	movl	%edx, %esi	# _29,
	movl	%eax, %edi	# _33,
	call	P_AproxDistance@PLT	#
	movl	%eax, -8(%rbp)	# tmp186, dist
# p_mobj.c:273: 	    delta =(mo->target->z + (mo->height>>1)) - mo->z;
	.loc 1 273 16
	movq	-24(%rbp), %rax	# mo, tmp187
	movq	176(%rax), %rax	# mo_94(D)->target, _34
# p_mobj.c:273: 	    delta =(mo->target->z + (mo->height>>1)) - mo->z;
	.loc 1 273 24
	movl	32(%rax), %edx	# _34->z, _35
# p_mobj.c:273: 	    delta =(mo->target->z + (mo->height>>1)) - mo->z;
	.loc 1 273 33
	movq	-24(%rbp), %rax	# mo, tmp188
	movl	108(%rax), %eax	# mo_94(D)->height, _36
# p_mobj.c:273: 	    delta =(mo->target->z + (mo->height>>1)) - mo->z;
	.loc 1 273 41
	sarl	%eax	# _37
# p_mobj.c:273: 	    delta =(mo->target->z + (mo->height>>1)) - mo->z;
	.loc 1 273 28
	addl	%eax, %edx	# _37, _38
# p_mobj.c:273: 	    delta =(mo->target->z + (mo->height>>1)) - mo->z;
	.loc 1 273 51
	movq	-24(%rbp), %rax	# mo, tmp189
	movl	32(%rax), %eax	# mo_94(D)->z, _39
# p_mobj.c:273: 	    delta =(mo->target->z + (mo->height>>1)) - mo->z;
	.loc 1 273 12
	subl	%eax, %edx	# _39, tmp190
	movl	%edx, -4(%rbp)	# tmp190, delta
# p_mobj.c:275: 	    if (delta<0 && dist < -(delta*3) )
	.loc 1 275 9
	cmpl	$0, -4(%rbp)	#, delta
	jns	.L42	#,
# p_mobj.c:275: 	    if (delta<0 && dist < -(delta*3) )
	.loc 1 275 28 discriminator 1
	movl	-4(%rbp), %eax	# delta, tmp191
	movl	%eax, %ecx	# tmp191, tmp192
	leal	0(,%rax,4), %edx	#, tmp193
	movl	%ecx, %eax	# tmp192, tmp192
	subl	%edx, %eax	# tmp193, tmp192
# p_mobj.c:275: 	    if (delta<0 && dist < -(delta*3) )
	.loc 1 275 18 discriminator 1
	cmpl	%eax, -8(%rbp)	# _40, dist
	jge	.L42	#,
# p_mobj.c:276: 		mo->z -= FLOATSPEED;
	.loc 1 276 5
	movq	-24(%rbp), %rax	# mo, tmp194
	movl	32(%rax), %eax	# mo_94(D)->z, _41
# p_mobj.c:276: 		mo->z -= FLOATSPEED;
	.loc 1 276 9
	leal	-262144(%rax), %edx	#, _42
	movq	-24(%rbp), %rax	# mo, tmp195
	movl	%edx, 32(%rax)	# _42, mo_94(D)->z
	jmp	.L41	#
.L42:
# p_mobj.c:277: 	    else if (delta>0 && dist < (delta*3) )
	.loc 1 277 14
	cmpl	$0, -4(%rbp)	#, delta
	jle	.L41	#,
# p_mobj.c:277: 	    else if (delta>0 && dist < (delta*3) )
	.loc 1 277 39 discriminator 1
	movl	-4(%rbp), %edx	# delta, tmp196
	movl	%edx, %eax	# tmp196, tmp197
	addl	%eax, %eax	# tmp197
	addl	%edx, %eax	# tmp196, _43
# p_mobj.c:277: 	    else if (delta>0 && dist < (delta*3) )
	.loc 1 277 23 discriminator 1
	cmpl	%eax, -8(%rbp)	# _43, dist
	jge	.L41	#,
# p_mobj.c:278: 		mo->z += FLOATSPEED;			
	.loc 1 278 5
	movq	-24(%rbp), %rax	# mo, tmp198
	movl	32(%rax), %eax	# mo_94(D)->z, _44
# p_mobj.c:278: 		mo->z += FLOATSPEED;			
	.loc 1 278 9
	leal	262144(%rax), %edx	#, _45
	movq	-24(%rbp), %rax	# mo, tmp199
	movl	%edx, 32(%rax)	# _45, mo_94(D)->z
.L41:
# p_mobj.c:284:     if (mo->z <= mo->floorz)
	.loc 1 284 11
	movq	-24(%rbp), %rax	# mo, tmp200
	movl	32(%rax), %edx	# mo_94(D)->z, _46
# p_mobj.c:284:     if (mo->z <= mo->floorz)
	.loc 1 284 20
	movq	-24(%rbp), %rax	# mo, tmp201
	movl	96(%rax), %eax	# mo_94(D)->floorz, _47
# p_mobj.c:284:     if (mo->z <= mo->floorz)
	.loc 1 284 8
	cmpl	%eax, %edx	# _47, _46
	jg	.L43	#,
# p_mobj.c:291: 	if (mo->flags & MF_SKULLFLY)
	.loc 1 291 8
	movq	-24(%rbp), %rax	# mo, tmp202
	movl	160(%rax), %eax	# mo_94(D)->flags, _48
# p_mobj.c:291: 	if (mo->flags & MF_SKULLFLY)
	.loc 1 291 16
	andl	$16777216, %eax	#, _49
# p_mobj.c:291: 	if (mo->flags & MF_SKULLFLY)
	.loc 1 291 5
	testl	%eax, %eax	# _49
	je	.L44	#,
# p_mobj.c:294: 	    mo->momz = -mo->momz;
	.loc 1 294 20
	movq	-24(%rbp), %rax	# mo, tmp203
	movl	120(%rax), %eax	# mo_94(D)->momz, _50
# p_mobj.c:294: 	    mo->momz = -mo->momz;
	.loc 1 294 17
	negl	%eax	# _50
	movl	%eax, %edx	# _50, _51
# p_mobj.c:294: 	    mo->momz = -mo->momz;
	.loc 1 294 15
	movq	-24(%rbp), %rax	# mo, tmp204
	movl	%edx, 120(%rax)	# _51, mo_94(D)->momz
.L44:
# p_mobj.c:297: 	if (mo->momz < 0)
	.loc 1 297 8
	movq	-24(%rbp), %rax	# mo, tmp205
	movl	120(%rax), %eax	# mo_94(D)->momz, _52
# p_mobj.c:297: 	if (mo->momz < 0)
	.loc 1 297 5
	testl	%eax, %eax	# _52
	jns	.L45	#,
# p_mobj.c:299: 	    if (mo->player
	.loc 1 299 12
	movq	-24(%rbp), %rax	# mo, tmp206
	movq	192(%rax), %rax	# mo_94(D)->player, _53
# p_mobj.c:299: 	    if (mo->player
	.loc 1 299 9
	testq	%rax, %rax	# _53
	je	.L46	#,
# p_mobj.c:300: 		&& mo->momz < -GRAVITY*8)	
	.loc 1 300 8
	movq	-24(%rbp), %rax	# mo, tmp207
	movl	120(%rax), %eax	# mo_94(D)->momz, _54
# p_mobj.c:300: 		&& mo->momz < -GRAVITY*8)	
	.loc 1 300 3
	cmpl	$-524288, %eax	#, _54
	jge	.L46	#,
# p_mobj.c:306: 		mo->player->deltaviewheight = mo->momz>>3;
	.loc 1 306 35
	movq	-24(%rbp), %rax	# mo, tmp208
	movl	120(%rax), %edx	# mo_94(D)->momz, _55
# p_mobj.c:306: 		mo->player->deltaviewheight = mo->momz>>3;
	.loc 1 306 5
	movq	-24(%rbp), %rax	# mo, tmp209
	movq	192(%rax), %rax	# mo_94(D)->player, _56
# p_mobj.c:306: 		mo->player->deltaviewheight = mo->momz>>3;
	.loc 1 306 41
	sarl	$3, %edx	#, _57
# p_mobj.c:306: 		mo->player->deltaviewheight = mo->momz>>3;
	.loc 1 306 31
	movl	%edx, 28(%rax)	# _57, _56->deltaviewheight
# p_mobj.c:307: 		S_StartSound (mo, sfx_oof);
	.loc 1 307 3
	movq	-24(%rbp), %rax	# mo, tmp210
	movl	$34, %esi	#,
	movq	%rax, %rdi	# tmp210,
	call	S_StartSound@PLT	#
.L46:
# p_mobj.c:309: 	    mo->momz = 0;
	.loc 1 309 15
	movq	-24(%rbp), %rax	# mo, tmp211
	movl	$0, 120(%rax)	#, mo_94(D)->momz
.L45:
# p_mobj.c:311: 	mo->z = mo->floorz;
	.loc 1 311 12
	movq	-24(%rbp), %rax	# mo, tmp212
	movl	96(%rax), %edx	# mo_94(D)->floorz, _58
# p_mobj.c:311: 	mo->z = mo->floorz;
	.loc 1 311 8
	movq	-24(%rbp), %rax	# mo, tmp213
	movl	%edx, 32(%rax)	# _58, mo_94(D)->z
# p_mobj.c:313: 	if ( (mo->flags & MF_MISSILE)
	.loc 1 313 10
	movq	-24(%rbp), %rax	# mo, tmp214
	movl	160(%rax), %eax	# mo_94(D)->flags, _59
# p_mobj.c:313: 	if ( (mo->flags & MF_MISSILE)
	.loc 1 313 18
	andl	$65536, %eax	#, _60
# p_mobj.c:313: 	if ( (mo->flags & MF_MISSILE)
	.loc 1 313 5
	testl	%eax, %eax	# _60
	je	.L47	#,
# p_mobj.c:314: 	     && !(mo->flags & MF_NOCLIP) )
	.loc 1 314 14
	movq	-24(%rbp), %rax	# mo, tmp215
	movl	160(%rax), %eax	# mo_94(D)->flags, _61
# p_mobj.c:314: 	     && !(mo->flags & MF_NOCLIP) )
	.loc 1 314 22
	andl	$4096, %eax	#, _62
# p_mobj.c:314: 	     && !(mo->flags & MF_NOCLIP) )
	.loc 1 314 7
	testl	%eax, %eax	# _62
	jne	.L47	#,
# p_mobj.c:316: 	    P_ExplodeMissile (mo);
	.loc 1 316 6
	movq	-24(%rbp), %rax	# mo, tmp216
	movq	%rax, %rdi	# tmp216,
	call	P_ExplodeMissile	#
# p_mobj.c:317: 	    return;
	.loc 1 317 6
	jmp	.L39	#
.L43:
# p_mobj.c:320:     else if (! (mo->flags & MF_NOGRAVITY) )
	.loc 1 320 19
	movq	-24(%rbp), %rax	# mo, tmp217
	movl	160(%rax), %eax	# mo_94(D)->flags, _63
# p_mobj.c:320:     else if (! (mo->flags & MF_NOGRAVITY) )
	.loc 1 320 27
	andl	$512, %eax	#, _64
# p_mobj.c:320:     else if (! (mo->flags & MF_NOGRAVITY) )
	.loc 1 320 13
	testl	%eax, %eax	# _64
	jne	.L47	#,
# p_mobj.c:322: 	if (mo->momz == 0)
	.loc 1 322 8
	movq	-24(%rbp), %rax	# mo, tmp218
	movl	120(%rax), %eax	# mo_94(D)->momz, _65
# p_mobj.c:322: 	if (mo->momz == 0)
	.loc 1 322 5
	testl	%eax, %eax	# _65
	jne	.L49	#,
# p_mobj.c:323: 	    mo->momz = -GRAVITY*2;
	.loc 1 323 15
	movq	-24(%rbp), %rax	# mo, tmp219
	movl	$-131072, 120(%rax)	#, mo_94(D)->momz
	jmp	.L47	#
.L49:
# p_mobj.c:325: 	    mo->momz -= GRAVITY;
	.loc 1 325 8
	movq	-24(%rbp), %rax	# mo, tmp220
	movl	120(%rax), %eax	# mo_94(D)->momz, _66
# p_mobj.c:325: 	    mo->momz -= GRAVITY;
	.loc 1 325 15
	leal	-65536(%rax), %edx	#, _67
	movq	-24(%rbp), %rax	# mo, tmp221
	movl	%edx, 120(%rax)	# _67, mo_94(D)->momz
.L47:
# p_mobj.c:328:     if (mo->z + mo->height > mo->ceilingz)
	.loc 1 328 11
	movq	-24(%rbp), %rax	# mo, tmp222
	movl	32(%rax), %edx	# mo_94(D)->z, _68
# p_mobj.c:328:     if (mo->z + mo->height > mo->ceilingz)
	.loc 1 328 19
	movq	-24(%rbp), %rax	# mo, tmp223
	movl	108(%rax), %eax	# mo_94(D)->height, _69
# p_mobj.c:328:     if (mo->z + mo->height > mo->ceilingz)
	.loc 1 328 15
	addl	%eax, %edx	# _69, _70
# p_mobj.c:328:     if (mo->z + mo->height > mo->ceilingz)
	.loc 1 328 32
	movq	-24(%rbp), %rax	# mo, tmp224
	movl	100(%rax), %eax	# mo_94(D)->ceilingz, _71
# p_mobj.c:328:     if (mo->z + mo->height > mo->ceilingz)
	.loc 1 328 8
	cmpl	%eax, %edx	# _71, _70
	jle	.L39	#,
# p_mobj.c:331: 	if (mo->momz > 0)
	.loc 1 331 8
	movq	-24(%rbp), %rax	# mo, tmp225
	movl	120(%rax), %eax	# mo_94(D)->momz, _72
# p_mobj.c:331: 	if (mo->momz > 0)
	.loc 1 331 5
	testl	%eax, %eax	# _72
	jle	.L50	#,
# p_mobj.c:332: 	    mo->momz = 0;
	.loc 1 332 15
	movq	-24(%rbp), %rax	# mo, tmp226
	movl	$0, 120(%rax)	#, mo_94(D)->momz
.L50:
# p_mobj.c:334: 	    mo->z = mo->ceilingz - mo->height;
	.loc 1 334 16
	movq	-24(%rbp), %rax	# mo, tmp227
	movl	100(%rax), %edx	# mo_94(D)->ceilingz, _73
# p_mobj.c:334: 	    mo->z = mo->ceilingz - mo->height;
	.loc 1 334 31
	movq	-24(%rbp), %rax	# mo, tmp228
	movl	108(%rax), %eax	# mo_94(D)->height, _74
# p_mobj.c:334: 	    mo->z = mo->ceilingz - mo->height;
	.loc 1 334 27
	subl	%eax, %edx	# _74, _75
# p_mobj.c:334: 	    mo->z = mo->ceilingz - mo->height;
	.loc 1 334 12
	movq	-24(%rbp), %rax	# mo, tmp229
	movl	%edx, 32(%rax)	# _75, mo_94(D)->z
# p_mobj.c:337: 	if (mo->flags & MF_SKULLFLY)
	.loc 1 337 8
	movq	-24(%rbp), %rax	# mo, tmp230
	movl	160(%rax), %eax	# mo_94(D)->flags, _76
# p_mobj.c:337: 	if (mo->flags & MF_SKULLFLY)
	.loc 1 337 16
	andl	$16777216, %eax	#, _77
# p_mobj.c:337: 	if (mo->flags & MF_SKULLFLY)
	.loc 1 337 5
	testl	%eax, %eax	# _77
	je	.L51	#,
# p_mobj.c:339: 	    mo->momz = -mo->momz;
	.loc 1 339 20
	movq	-24(%rbp), %rax	# mo, tmp231
	movl	120(%rax), %eax	# mo_94(D)->momz, _78
# p_mobj.c:339: 	    mo->momz = -mo->momz;
	.loc 1 339 17
	negl	%eax	# _78
	movl	%eax, %edx	# _78, _79
# p_mobj.c:339: 	    mo->momz = -mo->momz;
	.loc 1 339 15
	movq	-24(%rbp), %rax	# mo, tmp232
	movl	%edx, 120(%rax)	# _79, mo_94(D)->momz
.L51:
# p_mobj.c:342: 	if ( (mo->flags & MF_MISSILE)
	.loc 1 342 10
	movq	-24(%rbp), %rax	# mo, tmp233
	movl	160(%rax), %eax	# mo_94(D)->flags, _80
# p_mobj.c:342: 	if ( (mo->flags & MF_MISSILE)
	.loc 1 342 18
	andl	$65536, %eax	#, _81
# p_mobj.c:342: 	if ( (mo->flags & MF_MISSILE)
	.loc 1 342 5
	testl	%eax, %eax	# _81
	je	.L39	#,
# p_mobj.c:343: 	     && !(mo->flags & MF_NOCLIP) )
	.loc 1 343 14
	movq	-24(%rbp), %rax	# mo, tmp234
	movl	160(%rax), %eax	# mo_94(D)->flags, _82
# p_mobj.c:343: 	     && !(mo->flags & MF_NOCLIP) )
	.loc 1 343 22
	andl	$4096, %eax	#, _83
# p_mobj.c:343: 	     && !(mo->flags & MF_NOCLIP) )
	.loc 1 343 7
	testl	%eax, %eax	# _83
	jne	.L39	#,
# p_mobj.c:345: 	    P_ExplodeMissile (mo);
	.loc 1 345 6
	movq	-24(%rbp), %rax	# mo, tmp235
	movq	%rax, %rdi	# tmp235,
	call	P_ExplodeMissile	#
# p_mobj.c:346: 	    return;
	.loc 1 346 6
	nop	
.L39:
# p_mobj.c:349: } 
	.loc 1 349 1
	leave	
	.cfi_def_cfa 7, 8
	ret	
	.cfi_endproc
.LFE3:
	.size	P_ZMovement, .-P_ZMovement
	.globl	P_NightmareRespawn
	.type	P_NightmareRespawn, @function
P_NightmareRespawn:
.LFB4:
	.loc 1 358 1
	.cfi_startproc
	endbr64	
	pushq	%rbp	#
	.cfi_def_cfa_offset 16
	.cfi_offset 6, -16
	movq	%rsp, %rbp	#,
	.cfi_def_cfa_register 6
	subq	$64, %rsp	#,
	movq	%rdi, -56(%rbp)	# mobj, mobj
# p_mobj.c:366:     x = mobj->spawnpoint.x << FRACBITS; 
	.loc 1 366 25
	movq	-56(%rbp), %rax	# mobj, tmp108
	movzwl	204(%rax), %eax	# mobj_31(D)->spawnpoint.x, _1
	cwtl
# p_mobj.c:366:     x = mobj->spawnpoint.x << FRACBITS; 
	.loc 1 366 7
	sall	$16, %eax	#, tmp109
	movl	%eax, -32(%rbp)	# tmp109, x
# p_mobj.c:367:     y = mobj->spawnpoint.y << FRACBITS; 
	.loc 1 367 25
	movq	-56(%rbp), %rax	# mobj, tmp110
	movzwl	206(%rax), %eax	# mobj_31(D)->spawnpoint.y, _3
	cwtl
# p_mobj.c:367:     y = mobj->spawnpoint.y << FRACBITS; 
	.loc 1 367 7
	sall	$16, %eax	#, tmp111
	movl	%eax, -28(%rbp)	# tmp111, y
# p_mobj.c:370:     if (!P_CheckPosition (mobj, x, y) ) 
	.loc 1 370 10
	movl	-28(%rbp), %edx	# y, tmp112
	movl	-32(%rbp), %ecx	# x, tmp113
	movq	-56(%rbp), %rax	# mobj, tmp114
	movl	%ecx, %esi	# tmp113,
	movq	%rax, %rdi	# tmp114,
	call	P_CheckPosition@PLT	#
# p_mobj.c:370:     if (!P_CheckPosition (mobj, x, y) ) 
	.loc 1 370 8 discriminator 1
	testl	%eax, %eax	# _5
	je	.L58	#,
# p_mobj.c:377: 		      mobj->subsector->sector->floorheight , MT_TFOG); 
	.loc 1 377 13
	movq	-56(%rbp), %rax	# mobj, tmp115
	movq	88(%rax), %rax	# mobj_31(D)->subsector, _6
# p_mobj.c:377: 		      mobj->subsector->sector->floorheight , MT_TFOG); 
	.loc 1 377 24
	movq	(%rax), %rax	# _6->sector, _7
# p_mobj.c:375:     mo = P_SpawnMobj (mobj->x,
	.loc 1 375 10
	movl	(%rax), %edx	# _7->floorheight, _8
	movq	-56(%rbp), %rax	# mobj, tmp116
	movl	28(%rax), %esi	# mobj_31(D)->y, _9
	movq	-56(%rbp), %rax	# mobj, tmp117
	movl	24(%rax), %eax	# mobj_31(D)->x, _10
	movl	$39, %ecx	#,
	movl	%eax, %edi	# _10,
	call	P_SpawnMobj	#
	movq	%rax, -24(%rbp)	# tmp118, mo
# p_mobj.c:379:     S_StartSound (mo, sfx_telept);
	.loc 1 379 5
	movq	-24(%rbp), %rax	# mo, tmp119
	movl	$35, %esi	#,
	movq	%rax, %rdi	# tmp119,
	call	S_StartSound@PLT	#
# p_mobj.c:382:     ss = R_PointInSubsector (x,y); 
	.loc 1 382 10
	movl	-28(%rbp), %edx	# y, tmp120
	movl	-32(%rbp), %eax	# x, tmp121
	movl	%edx, %esi	# tmp120,
	movl	%eax, %edi	# tmp121,
	call	R_PointInSubsector@PLT	#
	movq	%rax, -16(%rbp)	# tmp122, ss
# p_mobj.c:384:     mo = P_SpawnMobj (x, y, ss->sector->floorheight , MT_TFOG); 
	.loc 1 384 31
	movq	-16(%rbp), %rax	# ss, tmp123
	movq	(%rax), %rax	# ss_39->sector, _11
# p_mobj.c:384:     mo = P_SpawnMobj (x, y, ss->sector->floorheight , MT_TFOG); 
	.loc 1 384 10
	movl	(%rax), %edx	# _11->floorheight, _12
	movl	-28(%rbp), %esi	# y, tmp124
	movl	-32(%rbp), %eax	# x, tmp125
	movl	$39, %ecx	#,
	movl	%eax, %edi	# tmp125,
	call	P_SpawnMobj	#
	movq	%rax, -24(%rbp)	# tmp126, mo
# p_mobj.c:386:     S_StartSound (mo, sfx_telept);
	.loc 1 386 5
	movq	-24(%rbp), %rax	# mo, tmp127
	movl	$35, %esi	#,
	movq	%rax, %rdi	# tmp127,
	call	S_StartSound@PLT	#
# p_mobj.c:389:     mthing = &mobj->spawnpoint;
	.loc 1 389 12
	movq	-56(%rbp), %rax	# mobj, tmp131
	addq	$204, %rax	#, tmp130
	movq	%rax, -8(%rbp)	# tmp130, mthing
# p_mobj.c:392:     if (mobj->info->flags & MF_SPAWNCEILING)
	.loc 1 392 13
	movq	-56(%rbp), %rax	# mobj, tmp132
	movq	136(%rax), %rax	# mobj_31(D)->info, _13
# p_mobj.c:392:     if (mobj->info->flags & MF_SPAWNCEILING)
	.loc 1 392 19
	movl	84(%rax), %eax	# _13->flags, _14
# p_mobj.c:392:     if (mobj->info->flags & MF_SPAWNCEILING)
	.loc 1 392 27
	andl	$256, %eax	#, _15
# p_mobj.c:392:     if (mobj->info->flags & MF_SPAWNCEILING)
	.loc 1 392 8
	testl	%eax, %eax	# _15
	je	.L55	#,
# p_mobj.c:393: 	z = ONCEILINGZ;
	.loc 1 393 4
	movl	$2147483647, -36(%rbp)	#, z
	jmp	.L56	#
.L55:
# p_mobj.c:395: 	z = ONFLOORZ;
	.loc 1 395 4
	movl	$-2147483648, -36(%rbp)	#, z
.L56:
# p_mobj.c:398:     mo = P_SpawnMobj (x,y,z, mobj->type);
	.loc 1 398 10
	movq	-56(%rbp), %rax	# mobj, tmp133
	movl	128(%rax), %ecx	# mobj_31(D)->type, _16
	movl	-36(%rbp), %edx	# z, tmp134
	movl	-28(%rbp), %esi	# y, tmp135
	movl	-32(%rbp), %eax	# x, tmp136
	movl	%eax, %edi	# tmp136,
	call	P_SpawnMobj	#
	movq	%rax, -24(%rbp)	# tmp137, mo
# p_mobj.c:399:     mo->spawnpoint = mobj->spawnpoint;	
	.loc 1 399 20
	movq	-24(%rbp), %rax	# mo, tmp138
	movq	-56(%rbp), %rdx	# mobj, tmp139
	movq	204(%rdx), %rcx	# mobj_31(D)->spawnpoint, tmp140
	movq	%rcx, 204(%rax)	# tmp140, mo_47->spawnpoint
	movzwl	212(%rdx), %edx	# mobj_31(D)->spawnpoint, tmp141
	movw	%dx, 212(%rax)	# tmp141, mo_47->spawnpoint
# p_mobj.c:400:     mo->angle = ANG45 * (mthing->angle/45);
	.loc 1 400 32
	movq	-8(%rbp), %rax	# mthing, tmp142
	movzwl	4(%rax), %eax	# mthing_43->angle, _17
# p_mobj.c:400:     mo->angle = ANG45 * (mthing->angle/45);
	.loc 1 400 39
	movswl	%ax, %edx	# _17, tmp143
	imull	$11651, %edx, %edx	#, tmp143, tmp144
	shrl	$16, %edx	#, tmp145
	sarw	$3, %dx	#, tmp146
	sarw	$15, %ax	#, _17
	movl	%eax, %ecx	# _17, tmp147
	movl	%edx, %eax	# tmp146, tmp146
	subl	%ecx, %eax	# tmp147, tmp146
	cwtl
# p_mobj.c:400:     mo->angle = ANG45 * (mthing->angle/45);
	.loc 1 400 23
	sall	$29, %eax	#, _20
	movl	%eax, %edx	# _20, _21
# p_mobj.c:400:     mo->angle = ANG45 * (mthing->angle/45);
	.loc 1 400 15
	movq	-24(%rbp), %rax	# mo, tmp148
	movl	%edx, 56(%rax)	# _21, mo_47->angle
# p_mobj.c:402:     if (mthing->options & MTF_AMBUSH)
	.loc 1 402 15
	movq	-8(%rbp), %rax	# mthing, tmp149
	movzwl	8(%rax), %eax	# mthing_43->options, _22
# p_mobj.c:402:     if (mthing->options & MTF_AMBUSH)
	.loc 1 402 25
	cwtl
	andl	$8, %eax	#, _24
# p_mobj.c:402:     if (mthing->options & MTF_AMBUSH)
	.loc 1 402 8
	testl	%eax, %eax	# _24
	je	.L57	#,
# p_mobj.c:403: 	mo->flags |= MF_AMBUSH;
	.loc 1 403 4
	movq	-24(%rbp), %rax	# mo, tmp150
	movl	160(%rax), %eax	# mo_47->flags, _25
# p_mobj.c:403: 	mo->flags |= MF_AMBUSH;
	.loc 1 403 12
	orl	$32, %eax	#, _25
	movl	%eax, %edx	# _25, _26
	movq	-24(%rbp), %rax	# mo, tmp151
	movl	%edx, 160(%rax)	# _26, mo_47->flags
.L57:
# p_mobj.c:405:     mo->reactiontime = 18;
	.loc 1 405 22
	movq	-24(%rbp), %rax	# mo, tmp152
	movl	$18, 184(%rax)	#, mo_47->reactiontime
# p_mobj.c:408:     P_RemoveMobj (mobj);
	.loc 1 408 5
	movq	-56(%rbp), %rax	# mobj, tmp153
	movq	%rax, %rdi	# tmp153,
	call	P_RemoveMobj	#
	jmp	.L52	#
.L58:
# p_mobj.c:371: 	return;	// no respwan
	.loc 1 371 2
	nop	
.L52:
# p_mobj.c:409: }
	.loc 1 409 1
	leave	
	.cfi_def_cfa 7, 8
	ret	
	.cfi_endproc
.LFE4:
	.size	P_NightmareRespawn, .-P_NightmareRespawn
	.globl	P_MobjThinker
	.type	P_MobjThinker, @function
P_MobjThinker:
.LFB5:
	.loc 1 416 1
	.cfi_startproc
	endbr64	
	pushq	%rbp	#
	.cfi_def_cfa_offset 16
	.cfi_offset 6, -16
	movq	%rsp, %rbp	#,
	.cfi_def_cfa_register 6
	subq	$16, %rsp	#,
	movq	%rdi, -8(%rbp)	# mobj, mobj
# p_mobj.c:418:     if (mobj->momx
	.loc 1 418 13
	movq	-8(%rbp), %rax	# mobj, tmp107
	movl	112(%rax), %eax	# mobj_30(D)->momx, _1
# p_mobj.c:418:     if (mobj->momx
	.loc 1 418 8
	testl	%eax, %eax	# _1
	jne	.L60	#,
# p_mobj.c:419: 	|| mobj->momy
	.loc 1 419 9
	movq	-8(%rbp), %rax	# mobj, tmp108
	movl	116(%rax), %eax	# mobj_30(D)->momy, _2
# p_mobj.c:419: 	|| mobj->momy
	.loc 1 419 2
	testl	%eax, %eax	# _2
	jne	.L60	#,
# p_mobj.c:420: 	|| (mobj->flags&MF_SKULLFLY) )
	.loc 1 420 10
	movq	-8(%rbp), %rax	# mobj, tmp109
	movl	160(%rax), %eax	# mobj_30(D)->flags, _3
# p_mobj.c:420: 	|| (mobj->flags&MF_SKULLFLY) )
	.loc 1 420 17
	andl	$16777216, %eax	#, _4
# p_mobj.c:420: 	|| (mobj->flags&MF_SKULLFLY) )
	.loc 1 420 2
	testl	%eax, %eax	# _4
	je	.L61	#,
.L60:
# p_mobj.c:422: 	P_XYMovement (mobj);
	.loc 1 422 2
	movq	-8(%rbp), %rax	# mobj, tmp110
	movq	%rax, %rdi	# tmp110,
	call	P_XYMovement	#
# p_mobj.c:425: 	if (mobj->thinker.function.acv == (actionf_v) (-1))
	.loc 1 425 28
	movq	-8(%rbp), %rax	# mobj, tmp111
	movq	16(%rax), %rax	# mobj_30(D)->thinker.function.acv, _5
# p_mobj.c:425: 	if (mobj->thinker.function.acv == (actionf_v) (-1))
	.loc 1 425 5
	cmpq	$-1, %rax	#, _5
	je	.L71	#,
.L61:
# p_mobj.c:428:     if ( (mobj->z != mobj->floorz)
	.loc 1 428 15
	movq	-8(%rbp), %rax	# mobj, tmp112
	movl	32(%rax), %edx	# mobj_30(D)->z, _6
# p_mobj.c:428:     if ( (mobj->z != mobj->floorz)
	.loc 1 428 26
	movq	-8(%rbp), %rax	# mobj, tmp113
	movl	96(%rax), %eax	# mobj_30(D)->floorz, _7
# p_mobj.c:428:     if ( (mobj->z != mobj->floorz)
	.loc 1 428 8
	cmpl	%eax, %edx	# _7, _6
	jne	.L63	#,
# p_mobj.c:429: 	 || mobj->momz )
	.loc 1 429 10
	movq	-8(%rbp), %rax	# mobj, tmp114
	movl	120(%rax), %eax	# mobj_30(D)->momz, _8
# p_mobj.c:429: 	 || mobj->momz )
	.loc 1 429 3
	testl	%eax, %eax	# _8
	je	.L64	#,
.L63:
# p_mobj.c:431: 	P_ZMovement (mobj);
	.loc 1 431 2
	movq	-8(%rbp), %rax	# mobj, tmp115
	movq	%rax, %rdi	# tmp115,
	call	P_ZMovement	#
# p_mobj.c:434: 	if (mobj->thinker.function.acv == (actionf_v) (-1))
	.loc 1 434 28
	movq	-8(%rbp), %rax	# mobj, tmp116
	movq	16(%rax), %rax	# mobj_30(D)->thinker.function.acv, _9
# p_mobj.c:434: 	if (mobj->thinker.function.acv == (actionf_v) (-1))
	.loc 1 434 5
	cmpq	$-1, %rax	#, _9
	je	.L72	#,
.L64:
# p_mobj.c:441:     if (mobj->tics != -1)
	.loc 1 441 13
	movq	-8(%rbp), %rax	# mobj, tmp117
	movl	144(%rax), %eax	# mobj_30(D)->tics, _10
# p_mobj.c:441:     if (mobj->tics != -1)
	.loc 1 441 8
	cmpl	$-1, %eax	#, _10
	je	.L65	#,
# p_mobj.c:443: 	mobj->tics--;
	.loc 1 443 6
	movq	-8(%rbp), %rax	# mobj, tmp118
	movl	144(%rax), %eax	# mobj_30(D)->tics, _11
# p_mobj.c:443: 	mobj->tics--;
	.loc 1 443 12
	leal	-1(%rax), %edx	#, _12
	movq	-8(%rbp), %rax	# mobj, tmp119
	movl	%edx, 144(%rax)	# _12, mobj_30(D)->tics
# p_mobj.c:446: 	if (!mobj->tics)
	.loc 1 446 11
	movq	-8(%rbp), %rax	# mobj, tmp120
	movl	144(%rax), %eax	# mobj_30(D)->tics, _13
# p_mobj.c:446: 	if (!mobj->tics)
	.loc 1 446 5
	testl	%eax, %eax	# _13
	jne	.L59	#,
# p_mobj.c:447: 	    if (!P_SetMobjState (mobj, mobj->state->nextstate) )
	.loc 1 447 37
	movq	-8(%rbp), %rax	# mobj, tmp121
	movq	152(%rax), %rax	# mobj_30(D)->state, _14
# p_mobj.c:447: 	    if (!P_SetMobjState (mobj, mobj->state->nextstate) )
	.loc 1 447 11
	movl	32(%rax), %edx	# _14->nextstate, _15
	movq	-8(%rbp), %rax	# mobj, tmp122
	movl	%edx, %esi	# _15,
	movq	%rax, %rdi	# tmp122,
	call	P_SetMobjState	#
# p_mobj.c:447: 	    if (!P_SetMobjState (mobj, mobj->state->nextstate) )
	.loc 1 447 9 discriminator 1
	testl	%eax, %eax	# _16
	jmp	.L59	#
.L65:
# p_mobj.c:453: 	if (! (mobj->flags & MF_COUNTKILL) )
	.loc 1 453 13
	movq	-8(%rbp), %rax	# mobj, tmp123
	movl	160(%rax), %eax	# mobj_30(D)->flags, _17
# p_mobj.c:453: 	if (! (mobj->flags & MF_COUNTKILL) )
	.loc 1 453 21
	andl	$4194304, %eax	#, _18
# p_mobj.c:453: 	if (! (mobj->flags & MF_COUNTKILL) )
	.loc 1 453 5
	testl	%eax, %eax	# _18
	je	.L73	#,
# p_mobj.c:456: 	if (!respawnmonsters)
	.loc 1 456 6
	movl	respawnmonsters(%rip), %eax	# respawnmonsters, respawnmonsters.4_19
# p_mobj.c:456: 	if (!respawnmonsters)
	.loc 1 456 5
	testl	%eax, %eax	# respawnmonsters.4_19
	je	.L74	#,
# p_mobj.c:459: 	mobj->movecount++;
	.loc 1 459 6
	movq	-8(%rbp), %rax	# mobj, tmp124
	movl	172(%rax), %eax	# mobj_30(D)->movecount, _20
# p_mobj.c:459: 	mobj->movecount++;
	.loc 1 459 17
	leal	1(%rax), %edx	#, _21
	movq	-8(%rbp), %rax	# mobj, tmp125
	movl	%edx, 172(%rax)	# _21, mobj_30(D)->movecount
# p_mobj.c:461: 	if (mobj->movecount < 12*35)
	.loc 1 461 10
	movq	-8(%rbp), %rax	# mobj, tmp126
	movl	172(%rax), %eax	# mobj_30(D)->movecount, _22
# p_mobj.c:461: 	if (mobj->movecount < 12*35)
	.loc 1 461 5
	cmpl	$419, %eax	#, _22
	jle	.L75	#,
# p_mobj.c:464: 	if ( leveltime&31 )
	.loc 1 464 16
	movl	leveltime(%rip), %eax	# leveltime, leveltime.5_23
	andl	$31, %eax	#, _24
# p_mobj.c:464: 	if ( leveltime&31 )
	.loc 1 464 5
	testl	%eax, %eax	# _24
	jne	.L76	#,
# p_mobj.c:467: 	if (P_Random () > 4)
	.loc 1 467 6
	call	P_Random@PLT	#
# p_mobj.c:467: 	if (P_Random () > 4)
	.loc 1 467 5 discriminator 1
	cmpl	$4, %eax	#, _25
	jg	.L77	#,
# p_mobj.c:470: 	P_NightmareRespawn (mobj);
	.loc 1 470 2
	movq	-8(%rbp), %rax	# mobj, tmp127
	movq	%rax, %rdi	# tmp127,
	call	P_NightmareRespawn	#
	jmp	.L59	#
.L71:
# p_mobj.c:426: 	    return;		// mobj was removed
	.loc 1 426 6
	nop	
	jmp	.L59	#
.L72:
# p_mobj.c:435: 	    return;		// mobj was removed
	.loc 1 435 6
	nop	
	jmp	.L59	#
.L73:
# p_mobj.c:454: 	    return;
	.loc 1 454 6
	nop	
	jmp	.L59	#
.L74:
# p_mobj.c:457: 	    return;
	.loc 1 457 6
	nop	
	jmp	.L59	#
.L75:
# p_mobj.c:462: 	    return;
	.loc 1 462 6
	nop	
	jmp	.L59	#
.L76:
# p_mobj.c:465: 	    return;
	.loc 1 465 6
	nop	
	jmp	.L59	#
.L77:
# p_mobj.c:468: 	    return;
	.loc 1 468 6
	nop	
.L59:
# p_mobj.c:473: }
	.loc 1 473 1
	leave	
	.cfi_def_cfa 7, 8
	ret	
	.cfi_endproc
.LFE5:
	.size	P_MobjThinker, .-P_MobjThinker
	.globl	P_SpawnMobj
	.type	P_SpawnMobj, @function
P_SpawnMobj:
.LFB6:
	.loc 1 485 1
	.cfi_startproc
	endbr64	
	pushq	%rbp	#
	.cfi_def_cfa_offset 16
	.cfi_offset 6, -16
	movq	%rsp, %rbp	#,
	.cfi_def_cfa_register 6
	subq	$48, %rsp	#,
	movl	%edi, -36(%rbp)	# x, x
	movl	%esi, -40(%rbp)	# y, y
	movl	%edx, -44(%rbp)	# z, z
	movl	%ecx, -48(%rbp)	# type, type
# p_mobj.c:490:     mobj = Z_Malloc (sizeof(*mobj), PU_LEVEL, NULL);
	.loc 1 490 12
	movl	$0, %edx	#,
	movl	$50, %esi	#,
	movl	$224, %edi	#,
	call	Z_Malloc@PLT	#
	movq	%rax, -24(%rbp)	# tmp110, mobj
# p_mobj.c:491:     memset (mobj, 0, sizeof (*mobj));
	.loc 1 491 5
	movq	-24(%rbp), %rax	# mobj, tmp111
	movl	$224, %edx	#,
	movl	$0, %esi	#,
	movq	%rax, %rdi	# tmp111,
	call	memset@PLT	#
# p_mobj.c:492:     info = &mobjinfo[type];
	.loc 1 492 10
	movl	-48(%rbp), %eax	# type, tmp112
	imulq	$92, %rax, %rax	#, tmp112, tmp113
	leaq	mobjinfo(%rip), %rdx	#, tmp114
	addq	%rdx, %rax	# tmp114, tmp115
	movq	%rax, -16(%rbp)	# tmp115, info
# p_mobj.c:494:     mobj->type = type;
	.loc 1 494 16
	movq	-24(%rbp), %rax	# mobj, tmp116
	movl	-48(%rbp), %edx	# type, tmp117
	movl	%edx, 128(%rax)	# tmp117, mobj_31->type
# p_mobj.c:495:     mobj->info = info;
	.loc 1 495 16
	movq	-24(%rbp), %rax	# mobj, tmp118
	movq	-16(%rbp), %rdx	# info, tmp119
	movq	%rdx, 136(%rax)	# tmp119, mobj_31->info
# p_mobj.c:496:     mobj->x = x;
	.loc 1 496 13
	movq	-24(%rbp), %rax	# mobj, tmp120
	movl	-36(%rbp), %edx	# x, tmp121
	movl	%edx, 24(%rax)	# tmp121, mobj_31->x
# p_mobj.c:497:     mobj->y = y;
	.loc 1 497 13
	movq	-24(%rbp), %rax	# mobj, tmp122
	movl	-40(%rbp), %edx	# y, tmp123
	movl	%edx, 28(%rax)	# tmp123, mobj_31->y
# p_mobj.c:498:     mobj->radius = info->radius;
	.loc 1 498 24
	movq	-16(%rbp), %rax	# info, tmp124
	movl	64(%rax), %edx	# info_34->radius, _1
# p_mobj.c:498:     mobj->radius = info->radius;
	.loc 1 498 18
	movq	-24(%rbp), %rax	# mobj, tmp125
	movl	%edx, 104(%rax)	# _1, mobj_31->radius
# p_mobj.c:499:     mobj->height = info->height;
	.loc 1 499 24
	movq	-16(%rbp), %rax	# info, tmp126
	movl	68(%rax), %edx	# info_34->height, _2
# p_mobj.c:499:     mobj->height = info->height;
	.loc 1 499 18
	movq	-24(%rbp), %rax	# mobj, tmp127
	movl	%edx, 108(%rax)	# _2, mobj_31->height
# p_mobj.c:500:     mobj->flags = info->flags;
	.loc 1 500 23
	movq	-16(%rbp), %rax	# info, tmp128
	movl	84(%rax), %edx	# info_34->flags, _3
# p_mobj.c:500:     mobj->flags = info->flags;
	.loc 1 500 17
	movq	-24(%rbp), %rax	# mobj, tmp129
	movl	%edx, 160(%rax)	# _3, mobj_31->flags
# p_mobj.c:501:     mobj->health = info->spawnhealth;
	.loc 1 501 24
	movq	-16(%rbp), %rax	# info, tmp130
	movl	8(%rax), %edx	# info_34->spawnhealth, _4
# p_mobj.c:501:     mobj->health = info->spawnhealth;
	.loc 1 501 18
	movq	-24(%rbp), %rax	# mobj, tmp131
	movl	%edx, 164(%rax)	# _4, mobj_31->health
# p_mobj.c:503:     if (gameskill != sk_nightmare)
	.loc 1 503 19
	movl	gameskill(%rip), %eax	# gameskill, gameskill.6_5
# p_mobj.c:503:     if (gameskill != sk_nightmare)
	.loc 1 503 8
	cmpl	$4, %eax	#, gameskill.6_5
	je	.L79	#,
# p_mobj.c:504: 	mobj->reactiontime = info->reactiontime;
	.loc 1 504 27
	movq	-16(%rbp), %rax	# info, tmp132
	movl	20(%rax), %edx	# info_34->reactiontime, _6
# p_mobj.c:504: 	mobj->reactiontime = info->reactiontime;
	.loc 1 504 21
	movq	-24(%rbp), %rax	# mobj, tmp133
	movl	%edx, 184(%rax)	# _6, mobj_31->reactiontime
.L79:
# p_mobj.c:506:     mobj->lastlook = P_Random () % MAXPLAYERS;
	.loc 1 506 22
	call	P_Random@PLT	#
	movl	%eax, %edx	#, _7
# p_mobj.c:506:     mobj->lastlook = P_Random () % MAXPLAYERS;
	.loc 1 506 34 discriminator 1
	movl	%edx, %eax	# _7, tmp134
	sarl	$31, %eax	#, tmp134
	shrl	$30, %eax	#, tmp135
	addl	%eax, %edx	# tmp135, tmp136
	andl	$3, %edx	#, tmp137
	subl	%eax, %edx	# tmp135, tmp138
# p_mobj.c:506:     mobj->lastlook = P_Random () % MAXPLAYERS;
	.loc 1 506 20 discriminator 1
	movq	-24(%rbp), %rax	# mobj, tmp139
	movl	%edx, 200(%rax)	# _8, mobj_31->lastlook
# p_mobj.c:509:     st = &states[info->spawnstate];
	.loc 1 509 22
	movq	-16(%rbp), %rax	# info, tmp140
	movl	4(%rax), %eax	# info_34->spawnstate, _9
# p_mobj.c:509:     st = &states[info->spawnstate];
	.loc 1 509 8
	movslq	%eax, %rdx	# _9, tmp141
	movq	%rdx, %rax	# tmp141, tmp142
	salq	$3, %rax	#, tmp143
	subq	%rdx, %rax	# tmp141, tmp142
	salq	$3, %rax	#, tmp144
	leaq	states(%rip), %rdx	#, tmp145
	addq	%rdx, %rax	# tmp145, tmp146
	movq	%rax, -8(%rbp)	# tmp146, st
# p_mobj.c:511:     mobj->state = st;
	.loc 1 511 17
	movq	-24(%rbp), %rax	# mobj, tmp147
	movq	-8(%rbp), %rdx	# st, tmp148
	movq	%rdx, 152(%rax)	# tmp148, mobj_31->state
# p_mobj.c:512:     mobj->tics = st->tics;
	.loc 1 512 20
	movq	-8(%rbp), %rax	# st, tmp149
	movq	16(%rax), %rax	# st_48->tics, _10
# p_mobj.c:512:     mobj->tics = st->tics;
	.loc 1 512 16
	movl	%eax, %edx	# _10, _11
	movq	-24(%rbp), %rax	# mobj, tmp150
	movl	%edx, 144(%rax)	# _11, mobj_31->tics
# p_mobj.c:513:     mobj->sprite = st->sprite;
	.loc 1 513 22
	movq	-8(%rbp), %rax	# st, tmp151
	movl	(%rax), %edx	# st_48->sprite, _12
# p_mobj.c:513:     mobj->sprite = st->sprite;
	.loc 1 513 18
	movq	-24(%rbp), %rax	# mobj, tmp152
	movl	%edx, 60(%rax)	# _12, mobj_31->sprite
# p_mobj.c:514:     mobj->frame = st->frame;
	.loc 1 514 21
	movq	-8(%rbp), %rax	# st, tmp153
	movq	8(%rax), %rax	# st_48->frame, _13
# p_mobj.c:514:     mobj->frame = st->frame;
	.loc 1 514 17
	movl	%eax, %edx	# _13, _14
	movq	-24(%rbp), %rax	# mobj, tmp154
	movl	%edx, 64(%rax)	# _14, mobj_31->frame
# p_mobj.c:517:     P_SetThingPosition (mobj);
	.loc 1 517 5
	movq	-24(%rbp), %rax	# mobj, tmp155
	movq	%rax, %rdi	# tmp155,
	call	P_SetThingPosition@PLT	#
# p_mobj.c:519:     mobj->floorz = mobj->subsector->sector->floorheight;
	.loc 1 519 24
	movq	-24(%rbp), %rax	# mobj, tmp156
	movq	88(%rax), %rax	# mobj_31->subsector, _15
# p_mobj.c:519:     mobj->floorz = mobj->subsector->sector->floorheight;
	.loc 1 519 35
	movq	(%rax), %rax	# _15->sector, _16
# p_mobj.c:519:     mobj->floorz = mobj->subsector->sector->floorheight;
	.loc 1 519 43
	movl	(%rax), %edx	# _16->floorheight, _17
# p_mobj.c:519:     mobj->floorz = mobj->subsector->sector->floorheight;
	.loc 1 519 18
	movq	-24(%rbp), %rax	# mobj, tmp157
	movl	%edx, 96(%rax)	# _17, mobj_31->floorz
# p_mobj.c:520:     mobj->ceilingz = mobj->subsector->sector->ceilingheight;
	.loc 1 520 26
	movq	-24(%rbp), %rax	# mobj, tmp158
	movq	88(%rax), %rax	# mobj_31->subsector, _18
# p_mobj.c:520:     mobj->ceilingz = mobj->subsector->sector->ceilingheight;
	.loc 1 520 37
	movq	(%rax), %rax	# _18->sector, _19
# p_mobj.c:520:     mobj->ceilingz = mobj->subsector->sector->ceilingheight;
	.loc 1 520 45
	movl	4(%rax), %edx	# _19->ceilingheight, _20
# p_mobj.c:520:     mobj->ceilingz = mobj->subsector->sector->ceilingheight;
	.loc 1 520 20
	movq	-24(%rbp), %rax	# mobj, tmp159
	movl	%edx, 100(%rax)	# _20, mobj_31->ceilingz
# p_mobj.c:522:     if (z == ONFLOORZ)
	.loc 1 522 8
	cmpl	$-2147483648, -44(%rbp)	#, z
	jne	.L80	#,
# p_mobj.c:523: 	mobj->z = mobj->floorz;
	.loc 1 523 16
	movq	-24(%rbp), %rax	# mobj, tmp160
	movl	96(%rax), %edx	# mobj_31->floorz, _21
# p_mobj.c:523: 	mobj->z = mobj->floorz;
	.loc 1 523 10
	movq	-24(%rbp), %rax	# mobj, tmp161
	movl	%edx, 32(%rax)	# _21, mobj_31->z
	jmp	.L81	#
.L80:
# p_mobj.c:524:     else if (z == ONCEILINGZ)
	.loc 1 524 13
	cmpl	$2147483647, -44(%rbp)	#, z
	jne	.L82	#,
# p_mobj.c:525: 	mobj->z = mobj->ceilingz - mobj->info->height;
	.loc 1 525 16
	movq	-24(%rbp), %rax	# mobj, tmp162
	movl	100(%rax), %edx	# mobj_31->ceilingz, _22
# p_mobj.c:525: 	mobj->z = mobj->ceilingz - mobj->info->height;
	.loc 1 525 33
	movq	-24(%rbp), %rax	# mobj, tmp163
	movq	136(%rax), %rax	# mobj_31->info, _23
# p_mobj.c:525: 	mobj->z = mobj->ceilingz - mobj->info->height;
	.loc 1 525 39
	movl	68(%rax), %eax	# _23->height, _24
# p_mobj.c:525: 	mobj->z = mobj->ceilingz - mobj->info->height;
	.loc 1 525 27
	subl	%eax, %edx	# _24, _25
# p_mobj.c:525: 	mobj->z = mobj->ceilingz - mobj->info->height;
	.loc 1 525 10
	movq	-24(%rbp), %rax	# mobj, tmp164
	movl	%edx, 32(%rax)	# _25, mobj_31->z
	jmp	.L81	#
.L82:
# p_mobj.c:527: 	mobj->z = z;
	.loc 1 527 10
	movq	-24(%rbp), %rax	# mobj, tmp165
	movl	-44(%rbp), %edx	# z, tmp166
	movl	%edx, 32(%rax)	# tmp166, mobj_31->z
.L81:
# p_mobj.c:529:     mobj->thinker.function.acp1 = (actionf_p1)P_MobjThinker;
	.loc 1 529 33
	movq	-24(%rbp), %rax	# mobj, tmp167
	leaq	P_MobjThinker(%rip), %rdx	#, tmp168
	movq	%rdx, 16(%rax)	# tmp168, mobj_31->thinker.function.acp1
# p_mobj.c:531:     P_AddThinker (&mobj->thinker);
	.loc 1 531 5
	movq	-24(%rbp), %rax	# mobj, _26
	movq	%rax, %rdi	# _26,
	call	P_AddThinker@PLT	#
# p_mobj.c:533:     return mobj;
	.loc 1 533 12
	movq	-24(%rbp), %rax	# mobj, _62
# p_mobj.c:534: }
	.loc 1 534 1
	leave	
	.cfi_def_cfa 7, 8
	ret	
	.cfi_endproc
.LFE6:
	.size	P_SpawnMobj, .-P_SpawnMobj
	.globl	itemrespawnque
	.bss
	.align 32
	.type	itemrespawnque, @object
	.size	itemrespawnque, 1280
itemrespawnque:
	.zero	1280
	.globl	itemrespawntime
	.align 32
	.type	itemrespawntime, @object
	.size	itemrespawntime, 512
itemrespawntime:
	.zero	512
	.globl	iquehead
	.align 4
	.type	iquehead, @object
	.size	iquehead, 4
iquehead:
	.zero	4
	.globl	iquetail
	.align 4
	.type	iquetail, @object
	.size	iquetail, 4
iquetail:
	.zero	4
	.text
	.globl	P_RemoveMobj
	.type	P_RemoveMobj, @function
P_RemoveMobj:
.LFB7:
	.loc 1 547 1
	.cfi_startproc
	endbr64	
	pushq	%rbp	#
	.cfi_def_cfa_offset 16
	.cfi_offset 6, -16
	movq	%rsp, %rbp	#,
	.cfi_def_cfa_register 6
	subq	$16, %rsp	#,
	movq	%rdi, -8(%rbp)	# mobj, mobj
# p_mobj.c:548:     if ((mobj->flags & MF_SPECIAL)
	.loc 1 548 14
	movq	-8(%rbp), %rax	# mobj, tmp99
	movl	160(%rax), %eax	# mobj_20(D)->flags, _1
# p_mobj.c:548:     if ((mobj->flags & MF_SPECIAL)
	.loc 1 548 22
	andl	$1, %eax	#, _2
# p_mobj.c:548:     if ((mobj->flags & MF_SPECIAL)
	.loc 1 548 8
	testl	%eax, %eax	# _2
	je	.L85	#,
# p_mobj.c:549: 	&& !(mobj->flags & MF_DROPPED)
	.loc 1 549 11
	movq	-8(%rbp), %rax	# mobj, tmp100
	movl	160(%rax), %eax	# mobj_20(D)->flags, _3
# p_mobj.c:549: 	&& !(mobj->flags & MF_DROPPED)
	.loc 1 549 19
	andl	$131072, %eax	#, _4
# p_mobj.c:549: 	&& !(mobj->flags & MF_DROPPED)
	.loc 1 549 2
	testl	%eax, %eax	# _4
	jne	.L85	#,
# p_mobj.c:550: 	&& (mobj->type != MT_INV)
	.loc 1 550 10
	movq	-8(%rbp), %rax	# mobj, tmp101
	movl	128(%rax), %eax	# mobj_20(D)->type, _5
# p_mobj.c:550: 	&& (mobj->type != MT_INV)
	.loc 1 550 2
	cmpl	$56, %eax	#, _5
	je	.L85	#,
# p_mobj.c:551: 	&& (mobj->type != MT_INS))
	.loc 1 551 10
	movq	-8(%rbp), %rax	# mobj, tmp102
	movl	128(%rax), %eax	# mobj_20(D)->type, _6
# p_mobj.c:551: 	&& (mobj->type != MT_INS))
	.loc 1 551 2
	cmpl	$58, %eax	#, _6
	je	.L85	#,
# p_mobj.c:553: 	itemrespawnque[iquehead] = mobj->spawnpoint;
	.loc 1 553 16
	movl	iquehead(%rip), %eax	# iquehead, iquehead.7_7
# p_mobj.c:553: 	itemrespawnque[iquehead] = mobj->spawnpoint;
	.loc 1 553 27
	movslq	%eax, %rdx	# iquehead.7_7, tmp103
	movq	%rdx, %rax	# tmp103, tmp105
	salq	$2, %rax	#, tmp105
	addq	%rdx, %rax	# tmp103, tmp105
	addq	%rax, %rax	# tmp106
	movq	%rax, %rcx	# tmp105, tmp104
	leaq	itemrespawnque(%rip), %rdx	#, tmp107
	movq	-8(%rbp), %rax	# mobj, tmp108
	movq	204(%rax), %rsi	# mobj_20(D)->spawnpoint, tmp109
	movq	%rsi, (%rcx,%rdx)	# tmp109, itemrespawnque[iquehead.7_7]
	movzwl	212(%rax), %eax	# mobj_20(D)->spawnpoint, tmp110
	movw	%ax, 8(%rcx,%rdx)	# tmp110, itemrespawnque[iquehead.7_7]
# p_mobj.c:554: 	itemrespawntime[iquehead] = leveltime;
	.loc 1 554 17
	movl	iquehead(%rip), %edx	# iquehead, iquehead.8_8
# p_mobj.c:554: 	itemrespawntime[iquehead] = leveltime;
	.loc 1 554 28
	movl	leveltime(%rip), %eax	# leveltime, leveltime.9_9
	movslq	%edx, %rdx	# iquehead.8_8, tmp111
	leaq	0(,%rdx,4), %rcx	#, tmp112
	leaq	itemrespawntime(%rip), %rdx	#, tmp113
	movl	%eax, (%rcx,%rdx)	# leveltime.9_9, itemrespawntime[iquehead.8_8]
# p_mobj.c:555: 	iquehead = (iquehead+1)&(ITEMQUESIZE-1);
	.loc 1 555 22
	movl	iquehead(%rip), %eax	# iquehead, iquehead.10_10
	addl	$1, %eax	#, _11
# p_mobj.c:555: 	iquehead = (iquehead+1)&(ITEMQUESIZE-1);
	.loc 1 555 25
	andl	$127, %eax	#, _12
# p_mobj.c:555: 	iquehead = (iquehead+1)&(ITEMQUESIZE-1);
	.loc 1 555 11
	movl	%eax, iquehead(%rip)	# _12, iquehead
# p_mobj.c:558: 	if (iquehead == iquetail)
	.loc 1 558 15
	movl	iquehead(%rip), %edx	# iquehead, iquehead.11_13
	movl	iquetail(%rip), %eax	# iquetail, iquetail.12_14
# p_mobj.c:558: 	if (iquehead == iquetail)
	.loc 1 558 5
	cmpl	%eax, %edx	# iquetail.12_14, iquehead.11_13
	jne	.L85	#,
# p_mobj.c:559: 	    iquetail = (iquetail+1)&(ITEMQUESIZE-1);
	.loc 1 559 26
	movl	iquetail(%rip), %eax	# iquetail, iquetail.13_15
	addl	$1, %eax	#, _16
# p_mobj.c:559: 	    iquetail = (iquetail+1)&(ITEMQUESIZE-1);
	.loc 1 559 29
	andl	$127, %eax	#, _17
# p_mobj.c:559: 	    iquetail = (iquetail+1)&(ITEMQUESIZE-1);
	.loc 1 559 15
	movl	%eax, iquetail(%rip)	# _17, iquetail
.L85:
# p_mobj.c:563:     P_UnsetThingPosition (mobj);
	.loc 1 563 5
	movq	-8(%rbp), %rax	# mobj, tmp114
	movq	%rax, %rdi	# tmp114,
	call	P_UnsetThingPosition@PLT	#
# p_mobj.c:566:     S_StopSound (mobj);
	.loc 1 566 5
	movq	-8(%rbp), %rax	# mobj, tmp115
	movq	%rax, %rdi	# tmp115,
	call	S_StopSound@PLT	#
# p_mobj.c:569:     P_RemoveThinker ((thinker_t*)mobj);
	.loc 1 569 5
	movq	-8(%rbp), %rax	# mobj, tmp116
	movq	%rax, %rdi	# tmp116,
	call	P_RemoveThinker@PLT	#
# p_mobj.c:570: }
	.loc 1 570 1
	nop	
	leave	
	.cfi_def_cfa 7, 8
	ret	
	.cfi_endproc
.LFE7:
	.size	P_RemoveMobj, .-P_RemoveMobj
	.globl	P_RespawnSpecials
	.type	P_RespawnSpecials, @function
P_RespawnSpecials:
.LFB8:
	.loc 1 579 1
	.cfi_startproc
	endbr64	
	pushq	%rbp	#
	.cfi_def_cfa_offset 16
	.cfi_offset 6, -16
	movq	%rsp, %rbp	#,
	.cfi_def_cfa_register 6
	subq	$48, %rsp	#,
# p_mobj.c:591:     if (deathmatch != 2)
	.loc 1 591 20
	movl	deathmatch(%rip), %eax	# deathmatch, deathmatch.14_1
# p_mobj.c:591:     if (deathmatch != 2)
	.loc 1 591 8
	cmpl	$2, %eax	#, deathmatch.14_1
	jne	.L97	#,
# p_mobj.c:595:     if (iquehead == iquetail)
	.loc 1 595 18
	movl	iquehead(%rip), %edx	# iquehead, iquehead.15_2
	movl	iquetail(%rip), %eax	# iquetail, iquetail.16_3
# p_mobj.c:595:     if (iquehead == iquetail)
	.loc 1 595 8
	cmpl	%eax, %edx	# iquetail.16_3, iquehead.15_2
	je	.L98	#,
# p_mobj.c:599:     if (leveltime - itemrespawntime[iquetail] < 30*35)
	.loc 1 599 19
	movl	leveltime(%rip), %edx	# leveltime, leveltime.17_4
# p_mobj.c:599:     if (leveltime - itemrespawntime[iquetail] < 30*35)
	.loc 1 599 36
	movl	iquetail(%rip), %eax	# iquetail, iquetail.18_5
	cltq
	leaq	0(,%rax,4), %rcx	#, tmp111
	leaq	itemrespawntime(%rip), %rax	#, tmp112
	movl	(%rcx,%rax), %eax	# itemrespawntime[iquetail.18_5], _6
# p_mobj.c:599:     if (leveltime - itemrespawntime[iquetail] < 30*35)
	.loc 1 599 19
	subl	%eax, %edx	# _6, _7
# p_mobj.c:599:     if (leveltime - itemrespawntime[iquetail] < 30*35)
	.loc 1 599 8
	cmpl	$1049, %edx	#, _7
	jle	.L99	#,
# p_mobj.c:602:     mthing = &itemrespawnque[iquetail];
	.loc 1 602 29
	movl	iquetail(%rip), %eax	# iquetail, iquetail.19_8
# p_mobj.c:602:     mthing = &itemrespawnque[iquetail];
	.loc 1 602 12
	movslq	%eax, %rdx	# iquetail.19_8, tmp113
	movq	%rdx, %rax	# tmp113, tmp114
	salq	$2, %rax	#, tmp114
	addq	%rdx, %rax	# tmp113, tmp114
	addq	%rax, %rax	# tmp115
	leaq	itemrespawnque(%rip), %rdx	#, tmp116
	addq	%rdx, %rax	# tmp116, tmp117
	movq	%rax, -24(%rbp)	# tmp117, mthing
# p_mobj.c:604:     x = mthing->x << FRACBITS; 
	.loc 1 604 15
	movq	-24(%rbp), %rax	# mthing, tmp118
	movzwl	(%rax), %eax	# mthing_33->x, _9
	cwtl
# p_mobj.c:604:     x = mthing->x << FRACBITS; 
	.loc 1 604 7
	sall	$16, %eax	#, tmp119
	movl	%eax, -32(%rbp)	# tmp119, x
# p_mobj.c:605:     y = mthing->y << FRACBITS; 
	.loc 1 605 15
	movq	-24(%rbp), %rax	# mthing, tmp120
	movzwl	2(%rax), %eax	# mthing_33->y, _11
	cwtl
# p_mobj.c:605:     y = mthing->y << FRACBITS; 
	.loc 1 605 7
	sall	$16, %eax	#, tmp121
	movl	%eax, -28(%rbp)	# tmp121, y
# p_mobj.c:608:     ss = R_PointInSubsector (x,y); 
	.loc 1 608 10
	movl	-28(%rbp), %edx	# y, tmp122
	movl	-32(%rbp), %eax	# x, tmp123
	movl	%edx, %esi	# tmp122,
	movl	%eax, %edi	# tmp123,
	call	R_PointInSubsector@PLT	#
	movq	%rax, -16(%rbp)	# tmp124, ss
# p_mobj.c:609:     mo = P_SpawnMobj (x, y, ss->sector->floorheight , MT_IFOG); 
	.loc 1 609 31
	movq	-16(%rbp), %rax	# ss, tmp125
	movq	(%rax), %rax	# ss_37->sector, _13
# p_mobj.c:609:     mo = P_SpawnMobj (x, y, ss->sector->floorheight , MT_IFOG); 
	.loc 1 609 10
	movl	(%rax), %edx	# _13->floorheight, _14
	movl	-28(%rbp), %esi	# y, tmp126
	movl	-32(%rbp), %eax	# x, tmp127
	movl	$40, %ecx	#,
	movl	%eax, %edi	# tmp127,
	call	P_SpawnMobj	#
	movq	%rax, -8(%rbp)	# tmp128, mo
# p_mobj.c:610:     S_StartSound (mo, sfx_itmbk);
	.loc 1 610 5
	movq	-8(%rbp), %rax	# mo, tmp129
	movl	$90, %esi	#,
	movq	%rax, %rdi	# tmp129,
	call	S_StartSound@PLT	#
# p_mobj.c:613:     for (i=0 ; i< NUMMOBJTYPES ; i++)
	.loc 1 613 11
	movl	$0, -36(%rbp)	#, i
# p_mobj.c:613:     for (i=0 ; i< NUMMOBJTYPES ; i++)
	.loc 1 613 5
	jmp	.L91	#
.L94:
# p_mobj.c:615: 	if (mthing->type == mobjinfo[i].doomednum)
	.loc 1 615 12
	movq	-24(%rbp), %rax	# mthing, tmp130
	movzwl	6(%rax), %eax	# mthing_33->type, _15
	movswl	%ax, %edx	# _15, _16
# p_mobj.c:615: 	if (mthing->type == mobjinfo[i].doomednum)
	.loc 1 615 33
	movl	-36(%rbp), %eax	# i, tmp132
	cltq
	imulq	$92, %rax, %rax	#, tmp131, tmp133
	leaq	mobjinfo(%rip), %rcx	#, tmp134
	movl	(%rax,%rcx), %eax	# mobjinfo[i_30].doomednum, _17
# p_mobj.c:615: 	if (mthing->type == mobjinfo[i].doomednum)
	.loc 1 615 5
	cmpl	%eax, %edx	# _17, _16
	je	.L100	#,
# p_mobj.c:613:     for (i=0 ; i< NUMMOBJTYPES ; i++)
	.loc 1 613 35 discriminator 2
	addl	$1, -36(%rbp)	#, i
.L91:
# p_mobj.c:613:     for (i=0 ; i< NUMMOBJTYPES ; i++)
	.loc 1 613 17 discriminator 1
	cmpl	$136, -36(%rbp)	#, i
	jle	.L94	#,
	jmp	.L93	#
.L100:
# p_mobj.c:616: 	    break;
	.loc 1 616 6
	nop	
.L93:
# p_mobj.c:620:     if (mobjinfo[i].flags & MF_SPAWNCEILING)
	.loc 1 620 20
	movl	-36(%rbp), %eax	# i, tmp136
	cltq
	imulq	$92, %rax, %rax	#, tmp135, tmp137
	leaq	84+mobjinfo(%rip), %rdx	#, tmp138
	movl	(%rax,%rdx), %eax	# mobjinfo[i_30].flags, _18
# p_mobj.c:620:     if (mobjinfo[i].flags & MF_SPAWNCEILING)
	.loc 1 620 27
	andl	$256, %eax	#, _19
# p_mobj.c:620:     if (mobjinfo[i].flags & MF_SPAWNCEILING)
	.loc 1 620 8
	testl	%eax, %eax	# _19
	je	.L95	#,
# p_mobj.c:621: 	z = ONCEILINGZ;
	.loc 1 621 4
	movl	$2147483647, -40(%rbp)	#, z
	jmp	.L96	#
.L95:
# p_mobj.c:623: 	z = ONFLOORZ;
	.loc 1 623 4
	movl	$-2147483648, -40(%rbp)	#, z
.L96:
# p_mobj.c:625:     mo = P_SpawnMobj (x,y,z, i);
	.loc 1 625 10
	movl	-36(%rbp), %ecx	# i, i.20_20
	movl	-40(%rbp), %edx	# z, tmp139
	movl	-28(%rbp), %esi	# y, tmp140
	movl	-32(%rbp), %eax	# x, tmp141
	movl	%eax, %edi	# tmp141,
	call	P_SpawnMobj	#
	movq	%rax, -8(%rbp)	# tmp142, mo
# p_mobj.c:626:     mo->spawnpoint = *mthing;	
	.loc 1 626 20
	movq	-8(%rbp), %rax	# mo, tmp143
	movq	-24(%rbp), %rdx	# mthing, tmp144
	movq	(%rdx), %rcx	# *mthing_33, tmp145
	movq	%rcx, 204(%rax)	# tmp145, mo_46->spawnpoint
	movzwl	8(%rdx), %edx	# *mthing_33, tmp146
	movw	%dx, 212(%rax)	# tmp146, mo_46->spawnpoint
# p_mobj.c:627:     mo->angle = ANG45 * (mthing->angle/45);
	.loc 1 627 32
	movq	-24(%rbp), %rax	# mthing, tmp147
	movzwl	4(%rax), %eax	# mthing_33->angle, _21
# p_mobj.c:627:     mo->angle = ANG45 * (mthing->angle/45);
	.loc 1 627 39
	movswl	%ax, %edx	# _21, tmp148
	imull	$11651, %edx, %edx	#, tmp148, tmp149
	shrl	$16, %edx	#, tmp150
	sarw	$3, %dx	#, tmp151
	sarw	$15, %ax	#, _21
	movl	%eax, %ecx	# _21, tmp152
	movl	%edx, %eax	# tmp151, tmp151
	subl	%ecx, %eax	# tmp152, tmp151
	cwtl
# p_mobj.c:627:     mo->angle = ANG45 * (mthing->angle/45);
	.loc 1 627 23
	sall	$29, %eax	#, _24
	movl	%eax, %edx	# _24, _25
# p_mobj.c:627:     mo->angle = ANG45 * (mthing->angle/45);
	.loc 1 627 15
	movq	-8(%rbp), %rax	# mo, tmp153
	movl	%edx, 56(%rax)	# _25, mo_46->angle
# p_mobj.c:630:     iquetail = (iquetail+1)&(ITEMQUESIZE-1);
	.loc 1 630 25
	movl	iquetail(%rip), %eax	# iquetail, iquetail.21_26
	addl	$1, %eax	#, _27
# p_mobj.c:630:     iquetail = (iquetail+1)&(ITEMQUESIZE-1);
	.loc 1 630 28
	andl	$127, %eax	#, _28
# p_mobj.c:630:     iquetail = (iquetail+1)&(ITEMQUESIZE-1);
	.loc 1 630 14
	movl	%eax, iquetail(%rip)	# _28, iquetail
	jmp	.L86	#
.L97:
# p_mobj.c:592: 	return;	// 
	.loc 1 592 2
	nop	
	jmp	.L86	#
.L98:
# p_mobj.c:596: 	return;		
	.loc 1 596 2
	nop	
	jmp	.L86	#
.L99:
# p_mobj.c:600: 	return;			
	.loc 1 600 2
	nop	
.L86:
# p_mobj.c:631: }
	.loc 1 631 1
	leave	
	.cfi_def_cfa 7, 8
	ret	
	.cfi_endproc
.LFE8:
	.size	P_RespawnSpecials, .-P_RespawnSpecials
	.globl	P_SpawnPlayer
	.type	P_SpawnPlayer, @function
P_SpawnPlayer:
.LFB9:
	.loc 1 643 1
	.cfi_startproc
	endbr64	
	pushq	%rbp	#
	.cfi_def_cfa_offset 16
	.cfi_offset 6, -16
	movq	%rsp, %rbp	#,
	.cfi_def_cfa_register 6
	subq	$48, %rsp	#,
	movq	%rdi, -40(%rbp)	# mthing, mthing
# p_mobj.c:654:     if (!playeringame[mthing->type-1])
	.loc 1 654 29
	movq	-40(%rbp), %rax	# mthing, tmp115
	movzwl	6(%rax), %eax	# mthing_41(D)->type, _1
	cwtl
# p_mobj.c:654:     if (!playeringame[mthing->type-1])
	.loc 1 654 35
	subl	$1, %eax	#, _3
# p_mobj.c:654:     if (!playeringame[mthing->type-1])
	.loc 1 654 22
	cltq
	leaq	0(,%rax,4), %rdx	#, tmp117
	leaq	playeringame(%rip), %rax	#, tmp118
	movl	(%rdx,%rax), %eax	# playeringame[_3], _4
# p_mobj.c:654:     if (!playeringame[mthing->type-1])
	.loc 1 654 8
	testl	%eax, %eax	# _4
	je	.L109	#,
# p_mobj.c:657:     p = &players[mthing->type-1];
	.loc 1 657 24
	movq	-40(%rbp), %rax	# mthing, tmp119
	movzwl	6(%rax), %eax	# mthing_41(D)->type, _5
	cwtl
# p_mobj.c:657:     p = &players[mthing->type-1];
	.loc 1 657 30
	subl	$1, %eax	#, _7
# p_mobj.c:657:     p = &players[mthing->type-1];
	.loc 1 657 7
	movslq	%eax, %rdx	# _7, tmp120
	movq	%rdx, %rax	# tmp120, tmp121
	salq	$2, %rax	#, tmp121
	addq	%rdx, %rax	# tmp120, tmp121
	salq	$6, %rax	#, tmp122
	leaq	players(%rip), %rdx	#, tmp123
	addq	%rdx, %rax	# tmp123, tmp124
	movq	%rax, -16(%rbp)	# tmp124, p
# p_mobj.c:659:     if (p->playerstate == PST_REBORN)
	.loc 1 659 10
	movq	-16(%rbp), %rax	# p, tmp125
	movl	8(%rax), %eax	# p_42->playerstate, _8
# p_mobj.c:659:     if (p->playerstate == PST_REBORN)
	.loc 1 659 8
	cmpl	$2, %eax	#, _8
	jne	.L104	#,
# p_mobj.c:660: 	G_PlayerReborn (mthing->type-1);
	.loc 1 660 24
	movq	-40(%rbp), %rax	# mthing, tmp126
	movzwl	6(%rax), %eax	# mthing_41(D)->type, _9
	cwtl
# p_mobj.c:660: 	G_PlayerReborn (mthing->type-1);
	.loc 1 660 2
	subl	$1, %eax	#, _11
	movl	%eax, %edi	# _11,
	call	G_PlayerReborn@PLT	#
.L104:
# p_mobj.c:662:     x 		= mthing->x << FRACBITS;
	.loc 1 662 17
	movq	-40(%rbp), %rax	# mthing, tmp127
	movzwl	(%rax), %eax	# mthing_41(D)->x, _12
	cwtl
# p_mobj.c:662:     x 		= mthing->x << FRACBITS;
	.loc 1 662 9
	sall	$16, %eax	#, tmp128
	movl	%eax, -28(%rbp)	# tmp128, x
# p_mobj.c:663:     y 		= mthing->y << FRACBITS;
	.loc 1 663 17
	movq	-40(%rbp), %rax	# mthing, tmp129
	movzwl	2(%rax), %eax	# mthing_41(D)->y, _14
	cwtl
# p_mobj.c:663:     y 		= mthing->y << FRACBITS;
	.loc 1 663 9
	sall	$16, %eax	#, tmp130
	movl	%eax, -24(%rbp)	# tmp130, y
# p_mobj.c:664:     z		= ONFLOORZ;
	.loc 1 664 8
	movl	$-2147483648, -20(%rbp)	#, z
# p_mobj.c:665:     mobj	= P_SpawnMobj (x,y,z, MT_PLAYER);
	.loc 1 665 12
	movl	-20(%rbp), %edx	# z, tmp131
	movl	-24(%rbp), %esi	# y, tmp132
	movl	-28(%rbp), %eax	# x, tmp133
	movl	$0, %ecx	#,
	movl	%eax, %edi	# tmp133,
	call	P_SpawnMobj	#
	movq	%rax, -8(%rbp)	# tmp134, mobj
# p_mobj.c:668:     if (mthing->type > 1)		
	.loc 1 668 15
	movq	-40(%rbp), %rax	# mthing, tmp135
	movzwl	6(%rax), %eax	# mthing_41(D)->type, _16
# p_mobj.c:668:     if (mthing->type > 1)		
	.loc 1 668 8
	cmpw	$1, %ax	#, _16
	jle	.L105	#,
# p_mobj.c:669: 	mobj->flags |= (mthing->type-1)<<MF_TRANSSHIFT;
	.loc 1 669 6
	movq	-8(%rbp), %rax	# mobj, tmp136
	movl	160(%rax), %edx	# mobj_48->flags, _17
# p_mobj.c:669: 	mobj->flags |= (mthing->type-1)<<MF_TRANSSHIFT;
	.loc 1 669 24
	movq	-40(%rbp), %rax	# mthing, tmp137
	movzwl	6(%rax), %eax	# mthing_41(D)->type, _18
	cwtl
# p_mobj.c:669: 	mobj->flags |= (mthing->type-1)<<MF_TRANSSHIFT;
	.loc 1 669 30
	subl	$1, %eax	#, _20
# p_mobj.c:669: 	mobj->flags |= (mthing->type-1)<<MF_TRANSSHIFT;
	.loc 1 669 33
	sall	$26, %eax	#, _21
# p_mobj.c:669: 	mobj->flags |= (mthing->type-1)<<MF_TRANSSHIFT;
	.loc 1 669 14
	orl	%eax, %edx	# _21, _22
	movq	-8(%rbp), %rax	# mobj, tmp138
	movl	%edx, 160(%rax)	# _22, mobj_48->flags
.L105:
# p_mobj.c:671:     mobj->angle	= ANG45 * (mthing->angle/45);
	.loc 1 671 34
	movq	-40(%rbp), %rax	# mthing, tmp139
	movzwl	4(%rax), %eax	# mthing_41(D)->angle, _23
# p_mobj.c:671:     mobj->angle	= ANG45 * (mthing->angle/45);
	.loc 1 671 41
	movswl	%ax, %edx	# _23, tmp140
	imull	$11651, %edx, %edx	#, tmp140, tmp141
	shrl	$16, %edx	#, tmp142
	sarw	$3, %dx	#, tmp143
	sarw	$15, %ax	#, _23
	movl	%eax, %ecx	# _23, tmp144
	movl	%edx, %eax	# tmp143, tmp143
	subl	%ecx, %eax	# tmp144, tmp143
	cwtl
# p_mobj.c:671:     mobj->angle	= ANG45 * (mthing->angle/45);
	.loc 1 671 25
	sall	$29, %eax	#, _26
	movl	%eax, %edx	# _26, _27
# p_mobj.c:671:     mobj->angle	= ANG45 * (mthing->angle/45);
	.loc 1 671 17
	movq	-8(%rbp), %rax	# mobj, tmp145
	movl	%edx, 56(%rax)	# _27, mobj_48->angle
# p_mobj.c:672:     mobj->player = p;
	.loc 1 672 18
	movq	-8(%rbp), %rax	# mobj, tmp146
	movq	-16(%rbp), %rdx	# p, tmp147
	movq	%rdx, 192(%rax)	# tmp147, mobj_48->player
# p_mobj.c:673:     mobj->health = p->health;
	.loc 1 673 21
	movq	-16(%rbp), %rax	# p, tmp148
	movl	36(%rax), %edx	# p_42->health, _28
# p_mobj.c:673:     mobj->health = p->health;
	.loc 1 673 18
	movq	-8(%rbp), %rax	# mobj, tmp149
	movl	%edx, 164(%rax)	# _28, mobj_48->health
# p_mobj.c:675:     p->mo = mobj;
	.loc 1 675 11
	movq	-16(%rbp), %rax	# p, tmp150
	movq	-8(%rbp), %rdx	# mobj, tmp151
	movq	%rdx, (%rax)	# tmp151, p_42->mo
# p_mobj.c:676:     p->playerstate = PST_LIVE;	
	.loc 1 676 20
	movq	-16(%rbp), %rax	# p, tmp152
	movl	$0, 8(%rax)	#, p_42->playerstate
# p_mobj.c:677:     p->refire = 0;
	.loc 1 677 15
	movq	-16(%rbp), %rax	# p, tmp153
	movl	$0, 204(%rax)	#, p_42->refire
# p_mobj.c:678:     p->message = NULL;
	.loc 1 678 16
	movq	-16(%rbp), %rax	# p, tmp154
	movq	$0, 224(%rax)	#, p_42->message
# p_mobj.c:679:     p->damagecount = 0;
	.loc 1 679 20
	movq	-16(%rbp), %rax	# p, tmp155
	movl	$0, 232(%rax)	#, p_42->damagecount
# p_mobj.c:680:     p->bonuscount = 0;
	.loc 1 680 19
	movq	-16(%rbp), %rax	# p, tmp156
	movl	$0, 236(%rax)	#, p_42->bonuscount
# p_mobj.c:681:     p->extralight = 0;
	.loc 1 681 19
	movq	-16(%rbp), %rax	# p, tmp157
	movl	$0, 248(%rax)	#, p_42->extralight
# p_mobj.c:682:     p->fixedcolormap = 0;
	.loc 1 682 22
	movq	-16(%rbp), %rax	# p, tmp158
	movl	$0, 252(%rax)	#, p_42->fixedcolormap
# p_mobj.c:683:     p->viewheight = VIEWHEIGHT;
	.loc 1 683 19
	movq	-16(%rbp), %rax	# p, tmp159
	movl	$2686976, 24(%rax)	#, p_42->viewheight
# p_mobj.c:686:     P_SetupPsprites (p);
	.loc 1 686 5
	movq	-16(%rbp), %rax	# p, tmp160
	movq	%rax, %rdi	# tmp160,
	call	P_SetupPsprites@PLT	#
# p_mobj.c:689:     if (deathmatch)
	.loc 1 689 9
	movl	deathmatch(%rip), %eax	# deathmatch, deathmatch.22_29
# p_mobj.c:689:     if (deathmatch)
	.loc 1 689 8
	testl	%eax, %eax	# deathmatch.22_29
	je	.L106	#,
# p_mobj.c:690: 	for (i=0 ; i<NUMCARDS ; i++)
	.loc 1 690 8
	movl	$0, -32(%rbp)	#, i
# p_mobj.c:690: 	for (i=0 ; i<NUMCARDS ; i++)
	.loc 1 690 2
	jmp	.L107	#
.L108:
# p_mobj.c:691: 	    p->cards[i] = true;
	.loc 1 691 18
	movq	-16(%rbp), %rax	# p, tmp161
	movl	-32(%rbp), %edx	# i, tmp163
	movslq	%edx, %rdx	# tmp163, tmp162
	addq	$16, %rdx	#, tmp164
	movl	$1, 8(%rax,%rdx,4)	#, p_42->cards[i_34]
# p_mobj.c:690: 	for (i=0 ; i<NUMCARDS ; i++)
	.loc 1 690 27 discriminator 3
	addl	$1, -32(%rbp)	#, i
.L107:
# p_mobj.c:690: 	for (i=0 ; i<NUMCARDS ; i++)
	.loc 1 690 14 discriminator 1
	cmpl	$5, -32(%rbp)	#, i
	jle	.L108	#,
.L106:
# p_mobj.c:693:     if (mthing->type-1 == consoleplayer)
	.loc 1 693 15
	movq	-40(%rbp), %rax	# mthing, tmp165
	movzwl	6(%rax), %eax	# mthing_41(D)->type, _30
	cwtl
# p_mobj.c:693:     if (mthing->type-1 == consoleplayer)
	.loc 1 693 21
	leal	-1(%rax), %edx	#, _32
# p_mobj.c:693:     if (mthing->type-1 == consoleplayer)
	.loc 1 693 24
	movl	consoleplayer(%rip), %eax	# consoleplayer, consoleplayer.23_33
# p_mobj.c:693:     if (mthing->type-1 == consoleplayer)
	.loc 1 693 8
	cmpl	%eax, %edx	# consoleplayer.23_33, _32
	jne	.L101	#,
# p_mobj.c:696: 	ST_Start ();
	.loc 1 696 2
	call	ST_Start@PLT	#
# p_mobj.c:698: 	HU_Start ();		
	.loc 1 698 2
	call	HU_Start@PLT	#
	jmp	.L101	#
.L109:
# p_mobj.c:655: 	return;					
	.loc 1 655 2
	nop	
.L101:
# p_mobj.c:700: }
	.loc 1 700 1
	leave	
	.cfi_def_cfa 7, 8
	ret	
	.cfi_endproc
.LFE9:
	.size	P_SpawnPlayer, .-P_SpawnPlayer
	.section	.rodata
	.align 8
.LC0:
	.string	"P_SpawnMapThing: Unknown type %i at (%i, %i)"
	.text
	.globl	P_SpawnMapThing
	.type	P_SpawnMapThing, @function
P_SpawnMapThing:
.LFB10:
	.loc 1 709 1
	.cfi_startproc
	endbr64	
	pushq	%rbp	#
	.cfi_def_cfa_offset 16
	.cfi_offset 6, -16
	movq	%rsp, %rbp	#,
	.cfi_def_cfa_register 6
	subq	$48, %rsp	#,
	movq	%rdi, -40(%rbp)	# mthing, mthing
# p_mobj.c:718:     if (mthing->type == 11)
	.loc 1 718 15
	movq	-40(%rbp), %rax	# mthing, tmp148
	movzwl	6(%rax), %eax	# mthing_78(D)->type, _1
# p_mobj.c:718:     if (mthing->type == 11)
	.loc 1 718 8
	cmpw	$11, %ax	#, _1
	jne	.L111	#,
# p_mobj.c:720: 	if (deathmatch_p < &deathmatchstarts[10])
	.loc 1 720 19
	movq	deathmatch_p(%rip), %rdx	# deathmatch_p, deathmatch_p.24_2
# p_mobj.c:720: 	if (deathmatch_p < &deathmatchstarts[10])
	.loc 1 720 5
	leaq	100+deathmatchstarts(%rip), %rax	#, tmp149
	cmpq	%rax, %rdx	# tmp149, deathmatch_p.24_2
	jnb	.L134	#,
# p_mobj.c:722: 	    memcpy (deathmatch_p, mthing, sizeof(*mthing));
	.loc 1 722 6
	movq	deathmatch_p(%rip), %rax	# deathmatch_p, deathmatch_p.25_3
	movq	-40(%rbp), %rcx	# mthing, tmp150
	movl	$10, %edx	#,
	movq	%rcx, %rsi	# tmp150,
	movq	%rax, %rdi	# deathmatch_p.25_3,
	call	memcpy@PLT	#
# p_mobj.c:723: 	    deathmatch_p++;
	.loc 1 723 18
	movq	deathmatch_p(%rip), %rax	# deathmatch_p, deathmatch_p.26_4
	addq	$10, %rax	#, _5
	movq	%rax, deathmatch_p(%rip)	# _5, deathmatch_p
# p_mobj.c:725: 	return;
	.loc 1 725 2
	jmp	.L134	#
.L111:
# p_mobj.c:729:     if (mthing->type <= 4)
	.loc 1 729 15
	movq	-40(%rbp), %rax	# mthing, tmp151
	movzwl	6(%rax), %eax	# mthing_78(D)->type, _6
# p_mobj.c:729:     if (mthing->type <= 4)
	.loc 1 729 8
	cmpw	$4, %ax	#, _6
	jg	.L114	#,
# p_mobj.c:732: 	playerstarts[mthing->type-1] = *mthing;
	.loc 1 732 21
	movq	-40(%rbp), %rax	# mthing, tmp152
	movzwl	6(%rax), %eax	# mthing_78(D)->type, _7
	cwtl
# p_mobj.c:732: 	playerstarts[mthing->type-1] = *mthing;
	.loc 1 732 27
	subl	$1, %eax	#, _9
# p_mobj.c:732: 	playerstarts[mthing->type-1] = *mthing;
	.loc 1 732 31
	movslq	%eax, %rdx	# _9, tmp153
	movq	%rdx, %rax	# tmp153, tmp155
	salq	$2, %rax	#, tmp155
	addq	%rdx, %rax	# tmp153, tmp155
	addq	%rax, %rax	# tmp156
	movq	%rax, %rcx	# tmp155, tmp154
	leaq	playerstarts(%rip), %rdx	#, tmp157
	movq	-40(%rbp), %rax	# mthing, tmp158
	movq	(%rax), %rsi	# *mthing_78(D), tmp159
	movq	%rsi, (%rcx,%rdx)	# tmp159, playerstarts[_9]
	movzwl	8(%rax), %eax	# *mthing_78(D), tmp160
	movw	%ax, 8(%rcx,%rdx)	# tmp160, playerstarts[_9]
# p_mobj.c:733: 	if (!deathmatch)
	.loc 1 733 6
	movl	deathmatch(%rip), %eax	# deathmatch, deathmatch.27_10
# p_mobj.c:733: 	if (!deathmatch)
	.loc 1 733 5
	testl	%eax, %eax	# deathmatch.27_10
	jne	.L135	#,
# p_mobj.c:734: 	    P_SpawnPlayer (mthing);
	.loc 1 734 6
	movq	-40(%rbp), %rax	# mthing, tmp161
	movq	%rax, %rdi	# tmp161,
	call	P_SpawnPlayer	#
# p_mobj.c:736: 	return;
	.loc 1 736 2
	jmp	.L135	#
.L114:
# p_mobj.c:740:     if (!netgame && (mthing->options & 16) )
	.loc 1 740 9
	movl	netgame(%rip), %eax	# netgame, netgame.28_11
# p_mobj.c:740:     if (!netgame && (mthing->options & 16) )
	.loc 1 740 8
	testl	%eax, %eax	# netgame.28_11
	jne	.L116	#,
# p_mobj.c:740:     if (!netgame && (mthing->options & 16) )
	.loc 1 740 28 discriminator 1
	movq	-40(%rbp), %rax	# mthing, tmp162
	movzwl	8(%rax), %eax	# mthing_78(D)->options, _12
# p_mobj.c:740:     if (!netgame && (mthing->options & 16) )
	.loc 1 740 38 discriminator 1
	cwtl
	andl	$16, %eax	#, _14
# p_mobj.c:740:     if (!netgame && (mthing->options & 16) )
	.loc 1 740 18 discriminator 1
	testl	%eax, %eax	# _14
	jne	.L136	#,
.L116:
# p_mobj.c:743:     if (gameskill == sk_baby)
	.loc 1 743 19
	movl	gameskill(%rip), %eax	# gameskill, gameskill.29_15
# p_mobj.c:743:     if (gameskill == sk_baby)
	.loc 1 743 8
	testl	%eax, %eax	# gameskill.29_15
	jne	.L117	#,
# p_mobj.c:744: 	bit = 1;
	.loc 1 744 6
	movl	$1, -24(%rbp)	#, bit
	jmp	.L118	#
.L117:
# p_mobj.c:745:     else if (gameskill == sk_nightmare)
	.loc 1 745 24
	movl	gameskill(%rip), %eax	# gameskill, gameskill.30_16
# p_mobj.c:745:     else if (gameskill == sk_nightmare)
	.loc 1 745 13
	cmpl	$4, %eax	#, gameskill.30_16
	jne	.L119	#,
# p_mobj.c:746: 	bit = 4;
	.loc 1 746 6
	movl	$4, -24(%rbp)	#, bit
	jmp	.L118	#
.L119:
# p_mobj.c:748: 	bit = 1<<(gameskill-1);
	.loc 1 748 21
	movl	gameskill(%rip), %eax	# gameskill, gameskill.31_17
	subl	$1, %eax	#, _18
# p_mobj.c:748: 	bit = 1<<(gameskill-1);
	.loc 1 748 6
	movl	$1, %edx	#, tmp163
	movl	%eax, %ecx	# _18, tmp218
	sall	%cl, %edx	# tmp218, tmp163
	movl	%edx, %eax	# tmp163, tmp164
	movl	%eax, -24(%rbp)	# tmp164, bit
.L118:
# p_mobj.c:750:     if (!(mthing->options & bit) )
	.loc 1 750 17
	movq	-40(%rbp), %rax	# mthing, tmp165
	movzwl	8(%rax), %eax	# mthing_78(D)->options, _19
	cwtl
# p_mobj.c:750:     if (!(mthing->options & bit) )
	.loc 1 750 27
	andl	-24(%rbp), %eax	# bit, _21
# p_mobj.c:750:     if (!(mthing->options & bit) )
	.loc 1 750 8
	testl	%eax, %eax	# _21
	je	.L137	#,
# p_mobj.c:754:     for (i=0 ; i< NUMMOBJTYPES ; i++)
	.loc 1 754 11
	movl	$0, -28(%rbp)	#, i
# p_mobj.c:754:     for (i=0 ; i< NUMMOBJTYPES ; i++)
	.loc 1 754 5
	jmp	.L121	#
.L124:
# p_mobj.c:755: 	if (mthing->type == mobjinfo[i].doomednum)
	.loc 1 755 12
	movq	-40(%rbp), %rax	# mthing, tmp166
	movzwl	6(%rax), %eax	# mthing_78(D)->type, _22
	movswl	%ax, %edx	# _22, _23
# p_mobj.c:755: 	if (mthing->type == mobjinfo[i].doomednum)
	.loc 1 755 33
	movl	-28(%rbp), %eax	# i, tmp168
	cltq
	imulq	$92, %rax, %rax	#, tmp167, tmp169
	leaq	mobjinfo(%rip), %rcx	#, tmp170
	movl	(%rax,%rcx), %eax	# mobjinfo[i_67].doomednum, _24
# p_mobj.c:755: 	if (mthing->type == mobjinfo[i].doomednum)
	.loc 1 755 5
	cmpl	%eax, %edx	# _24, _23
	je	.L138	#,
# p_mobj.c:754:     for (i=0 ; i< NUMMOBJTYPES ; i++)
	.loc 1 754 35 discriminator 2
	addl	$1, -28(%rbp)	#, i
.L121:
# p_mobj.c:754:     for (i=0 ; i< NUMMOBJTYPES ; i++)
	.loc 1 754 17 discriminator 1
	cmpl	$136, -28(%rbp)	#, i
	jle	.L124	#,
	jmp	.L123	#
.L138:
# p_mobj.c:756: 	    break;
	.loc 1 756 6
	nop	
.L123:
# p_mobj.c:758:     if (i==NUMMOBJTYPES)
	.loc 1 758 8
	cmpl	$137, -28(%rbp)	#, i
	jne	.L125	#,
# p_mobj.c:761: 		 mthing->x, mthing->y);
	.loc 1 761 21
	movq	-40(%rbp), %rax	# mthing, tmp171
	movzwl	2(%rax), %eax	# mthing_78(D)->y, _25
# p_mobj.c:759: 	I_Error ("P_SpawnMapThing: Unknown type %i at (%i, %i)",
	.loc 1 759 2
	movswl	%ax, %ecx	# _25, _26
# p_mobj.c:761: 		 mthing->x, mthing->y);
	.loc 1 761 10
	movq	-40(%rbp), %rax	# mthing, tmp172
	movzwl	(%rax), %eax	# mthing_78(D)->x, _27
# p_mobj.c:759: 	I_Error ("P_SpawnMapThing: Unknown type %i at (%i, %i)",
	.loc 1 759 2
	movswl	%ax, %edx	# _27, _28
# p_mobj.c:760: 		 mthing->type,
	.loc 1 760 10
	movq	-40(%rbp), %rax	# mthing, tmp173
	movzwl	6(%rax), %eax	# mthing_78(D)->type, _29
# p_mobj.c:759: 	I_Error ("P_SpawnMapThing: Unknown type %i at (%i, %i)",
	.loc 1 759 2
	cwtl
	movl	%eax, %esi	# _30,
	leaq	.LC0(%rip), %rax	#, tmp174
	movq	%rax, %rdi	# tmp174,
	movl	$0, %eax	#,
	call	I_Error@PLT	#
.L125:
# p_mobj.c:764:     if (deathmatch && mobjinfo[i].flags & MF_NOTDMATCH)
	.loc 1 764 9
	movl	deathmatch(%rip), %eax	# deathmatch, deathmatch.32_31
# p_mobj.c:764:     if (deathmatch && mobjinfo[i].flags & MF_NOTDMATCH)
	.loc 1 764 8
	testl	%eax, %eax	# deathmatch.32_31
	je	.L126	#,
# p_mobj.c:764:     if (deathmatch && mobjinfo[i].flags & MF_NOTDMATCH)
	.loc 1 764 34 discriminator 1
	movl	-28(%rbp), %eax	# i, tmp176
	cltq
	imulq	$92, %rax, %rax	#, tmp175, tmp177
	leaq	84+mobjinfo(%rip), %rdx	#, tmp178
	movl	(%rax,%rdx), %eax	# mobjinfo[i_67].flags, _32
# p_mobj.c:764:     if (deathmatch && mobjinfo[i].flags & MF_NOTDMATCH)
	.loc 1 764 41 discriminator 1
	andl	$33554432, %eax	#, _33
# p_mobj.c:764:     if (deathmatch && mobjinfo[i].flags & MF_NOTDMATCH)
	.loc 1 764 20 discriminator 1
	testl	%eax, %eax	# _33
	jne	.L139	#,
.L126:
# p_mobj.c:768:     if (nomonsters
	.loc 1 768 9
	movl	nomonsters(%rip), %eax	# nomonsters, nomonsters.33_34
# p_mobj.c:768:     if (nomonsters
	.loc 1 768 8
	testl	%eax, %eax	# nomonsters.33_34
	je	.L127	#,
# p_mobj.c:769: 	&& ( i == MT_SKULL
	.loc 1 769 2
	cmpl	$18, -28(%rbp)	#, i
	je	.L140	#,
# p_mobj.c:770: 	     || (mobjinfo[i].flags & MF_COUNTKILL)) )
	.loc 1 770 22
	movl	-28(%rbp), %eax	# i, tmp180
	cltq
	imulq	$92, %rax, %rax	#, tmp179, tmp181
	leaq	84+mobjinfo(%rip), %rdx	#, tmp182
	movl	(%rax,%rdx), %eax	# mobjinfo[i_67].flags, _35
# p_mobj.c:770: 	     || (mobjinfo[i].flags & MF_COUNTKILL)) )
	.loc 1 770 29
	andl	$4194304, %eax	#, _36
# p_mobj.c:770: 	     || (mobjinfo[i].flags & MF_COUNTKILL)) )
	.loc 1 770 7
	testl	%eax, %eax	# _36
	jne	.L140	#,
.L127:
# p_mobj.c:776:     x = mthing->x << FRACBITS;
	.loc 1 776 15
	movq	-40(%rbp), %rax	# mthing, tmp183
	movzwl	(%rax), %eax	# mthing_78(D)->x, _37
	cwtl
# p_mobj.c:776:     x = mthing->x << FRACBITS;
	.loc 1 776 7
	sall	$16, %eax	#, tmp184
	movl	%eax, -16(%rbp)	# tmp184, x
# p_mobj.c:777:     y = mthing->y << FRACBITS;
	.loc 1 777 15
	movq	-40(%rbp), %rax	# mthing, tmp185
	movzwl	2(%rax), %eax	# mthing_78(D)->y, _39
	cwtl
# p_mobj.c:777:     y = mthing->y << FRACBITS;
	.loc 1 777 7
	sall	$16, %eax	#, tmp186
	movl	%eax, -12(%rbp)	# tmp186, y
# p_mobj.c:779:     if (mobjinfo[i].flags & MF_SPAWNCEILING)
	.loc 1 779 20
	movl	-28(%rbp), %eax	# i, tmp188
	cltq
	imulq	$92, %rax, %rax	#, tmp187, tmp189
	leaq	84+mobjinfo(%rip), %rdx	#, tmp190
	movl	(%rax,%rdx), %eax	# mobjinfo[i_67].flags, _41
# p_mobj.c:779:     if (mobjinfo[i].flags & MF_SPAWNCEILING)
	.loc 1 779 27
	andl	$256, %eax	#, _42
# p_mobj.c:779:     if (mobjinfo[i].flags & MF_SPAWNCEILING)
	.loc 1 779 8
	testl	%eax, %eax	# _42
	je	.L129	#,
# p_mobj.c:780: 	z = ONCEILINGZ;
	.loc 1 780 4
	movl	$2147483647, -20(%rbp)	#, z
	jmp	.L130	#
.L129:
# p_mobj.c:782: 	z = ONFLOORZ;
	.loc 1 782 4
	movl	$-2147483648, -20(%rbp)	#, z
.L130:
# p_mobj.c:784:     mobj = P_SpawnMobj (x,y,z, i);
	.loc 1 784 12
	movl	-28(%rbp), %ecx	# i, i.34_43
	movl	-20(%rbp), %edx	# z, tmp191
	movl	-12(%rbp), %esi	# y, tmp192
	movl	-16(%rbp), %eax	# x, tmp193
	movl	%eax, %edi	# tmp193,
	call	P_SpawnMobj	#
	movq	%rax, -8(%rbp)	# tmp194, mobj
# p_mobj.c:785:     mobj->spawnpoint = *mthing;
	.loc 1 785 22
	movq	-8(%rbp), %rax	# mobj, tmp195
	movq	-40(%rbp), %rdx	# mthing, tmp196
	movq	(%rdx), %rcx	# *mthing_78(D), tmp197
	movq	%rcx, 204(%rax)	# tmp197, mobj_90->spawnpoint
	movzwl	8(%rdx), %edx	# *mthing_78(D), tmp198
	movw	%dx, 212(%rax)	# tmp198, mobj_90->spawnpoint
# p_mobj.c:787:     if (mobj->tics > 0)
	.loc 1 787 13
	movq	-8(%rbp), %rax	# mobj, tmp199
	movl	144(%rax), %eax	# mobj_90->tics, _44
# p_mobj.c:787:     if (mobj->tics > 0)
	.loc 1 787 8
	testl	%eax, %eax	# _44
	jle	.L131	#,
# p_mobj.c:788: 	mobj->tics = 1 + (P_Random () % mobj->tics);
	.loc 1 788 20
	call	P_Random@PLT	#
# p_mobj.c:788: 	mobj->tics = 1 + (P_Random () % mobj->tics);
	.loc 1 788 38 discriminator 1
	movq	-8(%rbp), %rdx	# mobj, tmp200
	movl	144(%rdx), %edi	# mobj_90->tics, _46
# p_mobj.c:788: 	mobj->tics = 1 + (P_Random () % mobj->tics);
	.loc 1 788 32 discriminator 1
	cltd
	idivl	%edi	# _46
	movl	%edx, %ecx	# tmp201, tmp201
	movl	%ecx, %eax	# tmp201, _47
# p_mobj.c:788: 	mobj->tics = 1 + (P_Random () % mobj->tics);
	.loc 1 788 17 discriminator 1
	leal	1(%rax), %edx	#, _48
# p_mobj.c:788: 	mobj->tics = 1 + (P_Random () % mobj->tics);
	.loc 1 788 13 discriminator 1
	movq	-8(%rbp), %rax	# mobj, tmp203
	movl	%edx, 144(%rax)	# _48, mobj_90->tics
.L131:
# p_mobj.c:789:     if (mobj->flags & MF_COUNTKILL)
	.loc 1 789 13
	movq	-8(%rbp), %rax	# mobj, tmp204
	movl	160(%rax), %eax	# mobj_90->flags, _49
# p_mobj.c:789:     if (mobj->flags & MF_COUNTKILL)
	.loc 1 789 21
	andl	$4194304, %eax	#, _50
# p_mobj.c:789:     if (mobj->flags & MF_COUNTKILL)
	.loc 1 789 8
	testl	%eax, %eax	# _50
	je	.L132	#,
# p_mobj.c:790: 	totalkills++;
	.loc 1 790 12
	movl	totalkills(%rip), %eax	# totalkills, totalkills.35_51
	addl	$1, %eax	#, _52
	movl	%eax, totalkills(%rip)	# _52, totalkills
.L132:
# p_mobj.c:791:     if (mobj->flags & MF_COUNTITEM)
	.loc 1 791 13
	movq	-8(%rbp), %rax	# mobj, tmp205
	movl	160(%rax), %eax	# mobj_90->flags, _53
# p_mobj.c:791:     if (mobj->flags & MF_COUNTITEM)
	.loc 1 791 21
	andl	$8388608, %eax	#, _54
# p_mobj.c:791:     if (mobj->flags & MF_COUNTITEM)
	.loc 1 791 8
	testl	%eax, %eax	# _54
	je	.L133	#,
# p_mobj.c:792: 	totalitems++;
	.loc 1 792 12
	movl	totalitems(%rip), %eax	# totalitems, totalitems.36_55
	addl	$1, %eax	#, _56
	movl	%eax, totalitems(%rip)	# _56, totalitems
.L133:
# p_mobj.c:794:     mobj->angle = ANG45 * (mthing->angle/45);
	.loc 1 794 34
	movq	-40(%rbp), %rax	# mthing, tmp206
	movzwl	4(%rax), %eax	# mthing_78(D)->angle, _57
# p_mobj.c:794:     mobj->angle = ANG45 * (mthing->angle/45);
	.loc 1 794 41
	movswl	%ax, %edx	# _57, tmp207
	imull	$11651, %edx, %edx	#, tmp207, tmp208
	shrl	$16, %edx	#, tmp209
	sarw	$3, %dx	#, tmp210
	sarw	$15, %ax	#, _57
	movl	%eax, %ecx	# _57, tmp211
	movl	%edx, %eax	# tmp210, tmp210
	subl	%ecx, %eax	# tmp211, tmp210
	cwtl
# p_mobj.c:794:     mobj->angle = ANG45 * (mthing->angle/45);
	.loc 1 794 25
	sall	$29, %eax	#, _60
	movl	%eax, %edx	# _60, _61
# p_mobj.c:794:     mobj->angle = ANG45 * (mthing->angle/45);
	.loc 1 794 17
	movq	-8(%rbp), %rax	# mobj, tmp212
	movl	%edx, 56(%rax)	# _61, mobj_90->angle
# p_mobj.c:795:     if (mthing->options & MTF_AMBUSH)
	.loc 1 795 15
	movq	-40(%rbp), %rax	# mthing, tmp213
	movzwl	8(%rax), %eax	# mthing_78(D)->options, _62
# p_mobj.c:795:     if (mthing->options & MTF_AMBUSH)
	.loc 1 795 25
	cwtl
	andl	$8, %eax	#, _64
# p_mobj.c:795:     if (mthing->options & MTF_AMBUSH)
	.loc 1 795 8
	testl	%eax, %eax	# _64
	je	.L110	#,
# p_mobj.c:796: 	mobj->flags |= MF_AMBUSH;
	.loc 1 796 6
	movq	-8(%rbp), %rax	# mobj, tmp214
	movl	160(%rax), %eax	# mobj_90->flags, _65
# p_mobj.c:796: 	mobj->flags |= MF_AMBUSH;
	.loc 1 796 14
	orl	$32, %eax	#, _65
	movl	%eax, %edx	# _65, _66
	movq	-8(%rbp), %rax	# mobj, tmp215
	movl	%edx, 160(%rax)	# _66, mobj_90->flags
	jmp	.L110	#
.L134:
# p_mobj.c:725: 	return;
	.loc 1 725 2
	nop	
	jmp	.L110	#
.L135:
# p_mobj.c:736: 	return;
	.loc 1 736 2
	nop	
	jmp	.L110	#
.L136:
# p_mobj.c:741: 	return;
	.loc 1 741 2
	nop	
	jmp	.L110	#
.L137:
# p_mobj.c:751: 	return;
	.loc 1 751 2
	nop	
	jmp	.L110	#
.L139:
# p_mobj.c:765: 	return;
	.loc 1 765 2
	nop	
	jmp	.L110	#
.L140:
# p_mobj.c:772: 	return;
	.loc 1 772 2
	nop	
.L110:
# p_mobj.c:797: }
	.loc 1 797 1
	leave	
	.cfi_def_cfa 7, 8
	ret	
	.cfi_endproc
.LFE10:
	.size	P_SpawnMapThing, .-P_SpawnMapThing
	.globl	P_SpawnPuff
	.type	P_SpawnPuff, @function
P_SpawnPuff:
.LFB11:
	.loc 1 816 1
	.cfi_startproc
	endbr64	
	pushq	%rbp	#
	.cfi_def_cfa_offset 16
	.cfi_offset 6, -16
	movq	%rsp, %rbp	#,
	.cfi_def_cfa_register 6
	pushq	%rbx	#
	subq	$40, %rsp	#,
	.cfi_offset 3, -24
	movl	%edi, -36(%rbp)	# x, x
	movl	%esi, -40(%rbp)	# y, y
	movl	%edx, -44(%rbp)	# z, z
# p_mobj.c:819:     z += ((P_Random()-P_Random())<<10);
	.loc 1 819 12
	call	P_Random@PLT	#
	movl	%eax, %ebx	#, _1
# p_mobj.c:819:     z += ((P_Random()-P_Random())<<10);
	.loc 1 819 23 discriminator 1
	call	P_Random@PLT	#
# p_mobj.c:819:     z += ((P_Random()-P_Random())<<10);
	.loc 1 819 22 discriminator 2
	subl	%eax, %ebx	# _2, _1
	movl	%ebx, %edx	# _1, _3
# p_mobj.c:819:     z += ((P_Random()-P_Random())<<10);
	.loc 1 819 34 discriminator 2
	movl	%edx, %eax	# _3, _3
	sall	$10, %eax	#, _3
# p_mobj.c:819:     z += ((P_Random()-P_Random())<<10);
	.loc 1 819 7 discriminator 2
	addl	%eax, -44(%rbp)	# _14, z
# p_mobj.c:821:     th = P_SpawnMobj (x,y,z, MT_PUFF);
	.loc 1 821 10
	movl	-44(%rbp), %edx	# z, tmp92
	movl	-40(%rbp), %esi	# y, tmp93
	movl	-36(%rbp), %eax	# x, tmp94
	movl	$37, %ecx	#,
	movl	%eax, %edi	# tmp94,
	call	P_SpawnMobj	#
	movq	%rax, -24(%rbp)	# tmp95, th
# p_mobj.c:822:     th->momz = FRACUNIT;
	.loc 1 822 14
	movq	-24(%rbp), %rax	# th, tmp96
	movl	$65536, 120(%rax)	#, th_20->momz
# p_mobj.c:823:     th->tics -= P_Random()&3;
	.loc 1 823 17
	call	P_Random@PLT	#
# p_mobj.c:823:     th->tics -= P_Random()&3;
	.loc 1 823 27 discriminator 1
	andl	$3, %eax	#, _4
	movl	%eax, %ecx	# _4, _23
# p_mobj.c:823:     th->tics -= P_Random()&3;
	.loc 1 823 7 discriminator 1
	movq	-24(%rbp), %rax	# th, tmp97
	movl	144(%rax), %eax	# th_20->tics, _5
# p_mobj.c:823:     th->tics -= P_Random()&3;
	.loc 1 823 14 discriminator 1
	subl	%ecx, %eax	# _23, _5
	movl	%eax, %edx	# _5, _6
	movq	-24(%rbp), %rax	# th, tmp98
	movl	%edx, 144(%rax)	# _6, th_20->tics
# p_mobj.c:825:     if (th->tics < 1)
	.loc 1 825 11
	movq	-24(%rbp), %rax	# th, tmp99
	movl	144(%rax), %eax	# th_20->tics, _7
# p_mobj.c:825:     if (th->tics < 1)
	.loc 1 825 8
	testl	%eax, %eax	# _7
	jg	.L142	#,
# p_mobj.c:826: 	th->tics = 1;
	.loc 1 826 11
	movq	-24(%rbp), %rax	# th, tmp100
	movl	$1, 144(%rax)	#, th_20->tics
.L142:
# p_mobj.c:829:     if (attackrange == MELEERANGE)
	.loc 1 829 21
	movl	attackrange(%rip), %eax	# attackrange, attackrange.37_8
# p_mobj.c:829:     if (attackrange == MELEERANGE)
	.loc 1 829 8
	cmpl	$4194304, %eax	#, attackrange.37_8
	jne	.L144	#,
# p_mobj.c:830: 	P_SetMobjState (th, S_PUFF3);
	.loc 1 830 2
	movq	-24(%rbp), %rax	# th, tmp101
	movl	$95, %esi	#,
	movq	%rax, %rdi	# tmp101,
	call	P_SetMobjState	#
.L144:
# p_mobj.c:831: }
	.loc 1 831 1
	nop	
	movq	-8(%rbp), %rbx	#,
	leave	
	.cfi_def_cfa 7, 8
	ret	
	.cfi_endproc
.LFE11:
	.size	P_SpawnPuff, .-P_SpawnPuff
	.globl	P_SpawnBlood
	.type	P_SpawnBlood, @function
P_SpawnBlood:
.LFB12:
	.loc 1 844 1
	.cfi_startproc
	endbr64	
	pushq	%rbp	#
	.cfi_def_cfa_offset 16
	.cfi_offset 6, -16
	movq	%rsp, %rbp	#,
	.cfi_def_cfa_register 6
	pushq	%rbx	#
	subq	$40, %rsp	#,
	.cfi_offset 3, -24
	movl	%edi, -36(%rbp)	# x, x
	movl	%esi, -40(%rbp)	# y, y
	movl	%edx, -44(%rbp)	# z, z
	movl	%ecx, -48(%rbp)	# damage, damage
# p_mobj.c:847:     z += ((P_Random()-P_Random())<<10);
	.loc 1 847 12
	call	P_Random@PLT	#
	movl	%eax, %ebx	#, _1
# p_mobj.c:847:     z += ((P_Random()-P_Random())<<10);
	.loc 1 847 23 discriminator 1
	call	P_Random@PLT	#
# p_mobj.c:847:     z += ((P_Random()-P_Random())<<10);
	.loc 1 847 22 discriminator 2
	subl	%eax, %ebx	# _2, _1
	movl	%ebx, %edx	# _1, _3
# p_mobj.c:847:     z += ((P_Random()-P_Random())<<10);
	.loc 1 847 34 discriminator 2
	movl	%edx, %eax	# _3, _3
	sall	$10, %eax	#, _3
# p_mobj.c:847:     z += ((P_Random()-P_Random())<<10);
	.loc 1 847 7 discriminator 2
	addl	%eax, -44(%rbp)	# _13, z
# p_mobj.c:848:     th = P_SpawnMobj (x,y,z, MT_BLOOD);
	.loc 1 848 10
	movl	-44(%rbp), %edx	# z, tmp91
	movl	-40(%rbp), %esi	# y, tmp92
	movl	-36(%rbp), %eax	# x, tmp93
	movl	$38, %ecx	#,
	movl	%eax, %edi	# tmp93,
	call	P_SpawnMobj	#
	movq	%rax, -24(%rbp)	# tmp94, th
# p_mobj.c:849:     th->momz = FRACUNIT*2;
	.loc 1 849 14
	movq	-24(%rbp), %rax	# th, tmp95
	movl	$131072, 120(%rax)	#, th_19->momz
# p_mobj.c:850:     th->tics -= P_Random()&3;
	.loc 1 850 17
	call	P_Random@PLT	#
# p_mobj.c:850:     th->tics -= P_Random()&3;
	.loc 1 850 27 discriminator 1
	andl	$3, %eax	#, _4
	movl	%eax, %ecx	# _4, _22
# p_mobj.c:850:     th->tics -= P_Random()&3;
	.loc 1 850 7 discriminator 1
	movq	-24(%rbp), %rax	# th, tmp96
	movl	144(%rax), %eax	# th_19->tics, _5
# p_mobj.c:850:     th->tics -= P_Random()&3;
	.loc 1 850 14 discriminator 1
	subl	%ecx, %eax	# _22, _5
	movl	%eax, %edx	# _5, _6
	movq	-24(%rbp), %rax	# th, tmp97
	movl	%edx, 144(%rax)	# _6, th_19->tics
# p_mobj.c:852:     if (th->tics < 1)
	.loc 1 852 11
	movq	-24(%rbp), %rax	# th, tmp98
	movl	144(%rax), %eax	# th_19->tics, _7
# p_mobj.c:852:     if (th->tics < 1)
	.loc 1 852 8
	testl	%eax, %eax	# _7
	jg	.L146	#,
# p_mobj.c:853: 	th->tics = 1;
	.loc 1 853 11
	movq	-24(%rbp), %rax	# th, tmp99
	movl	$1, 144(%rax)	#, th_19->tics
.L146:
# p_mobj.c:855:     if (damage <= 12 && damage >= 9)
	.loc 1 855 8
	cmpl	$12, -48(%rbp)	#, damage
	jg	.L147	#,
# p_mobj.c:855:     if (damage <= 12 && damage >= 9)
	.loc 1 855 22 discriminator 1
	cmpl	$8, -48(%rbp)	#, damage
	jle	.L147	#,
# p_mobj.c:856: 	P_SetMobjState (th,S_BLOOD2);
	.loc 1 856 2
	movq	-24(%rbp), %rax	# th, tmp100
	movl	$91, %esi	#,
	movq	%rax, %rdi	# tmp100,
	call	P_SetMobjState	#
# p_mobj.c:859: }
	.loc 1 859 1
	jmp	.L149	#
.L147:
# p_mobj.c:857:     else if (damage < 9)
	.loc 1 857 13
	cmpl	$8, -48(%rbp)	#, damage
	jg	.L149	#,
# p_mobj.c:858: 	P_SetMobjState (th,S_BLOOD3);
	.loc 1 858 2
	movq	-24(%rbp), %rax	# th, tmp101
	movl	$92, %esi	#,
	movq	%rax, %rdi	# tmp101,
	call	P_SetMobjState	#
.L149:
# p_mobj.c:859: }
	.loc 1 859 1
	nop	
	movq	-8(%rbp), %rbx	#,
	leave	
	.cfi_def_cfa 7, 8
	ret	
	.cfi_endproc
.LFE12:
	.size	P_SpawnBlood, .-P_SpawnBlood
	.globl	P_CheckMissileSpawn
	.type	P_CheckMissileSpawn, @function
P_CheckMissileSpawn:
.LFB13:
	.loc 1 869 1
	.cfi_startproc
	endbr64	
	pushq	%rbp	#
	.cfi_def_cfa_offset 16
	.cfi_offset 6, -16
	movq	%rsp, %rbp	#,
	.cfi_def_cfa_register 6
	subq	$16, %rsp	#,
	movq	%rdi, -8(%rbp)	# th, th
# p_mobj.c:870:     th->tics -= P_Random()&3;
	.loc 1 870 17
	call	P_Random@PLT	#
# p_mobj.c:870:     th->tics -= P_Random()&3;
	.loc 1 870 27 discriminator 1
	andl	$3, %eax	#, _1
	movl	%eax, %ecx	# _1, _24
# p_mobj.c:870:     th->tics -= P_Random()&3;
	.loc 1 870 7 discriminator 1
	movq	-8(%rbp), %rax	# th, tmp102
	movl	144(%rax), %eax	# th_25(D)->tics, _2
# p_mobj.c:870:     th->tics -= P_Random()&3;
	.loc 1 870 14 discriminator 1
	subl	%ecx, %eax	# _24, _2
	movl	%eax, %edx	# _2, _3
	movq	-8(%rbp), %rax	# th, tmp103
	movl	%edx, 144(%rax)	# _3, th_25(D)->tics
# p_mobj.c:871:     if (th->tics < 1)
	.loc 1 871 11
	movq	-8(%rbp), %rax	# th, tmp104
	movl	144(%rax), %eax	# th_25(D)->tics, _4
# p_mobj.c:871:     if (th->tics < 1)
	.loc 1 871 8
	testl	%eax, %eax	# _4
	jg	.L151	#,
# p_mobj.c:872: 	th->tics = 1;
	.loc 1 872 11
	movq	-8(%rbp), %rax	# th, tmp105
	movl	$1, 144(%rax)	#, th_25(D)->tics
.L151:
# p_mobj.c:876:     th->x += (th->momx>>1);
	.loc 1 876 7
	movq	-8(%rbp), %rax	# th, tmp106
	movl	24(%rax), %edx	# th_25(D)->x, _5
# p_mobj.c:876:     th->x += (th->momx>>1);
	.loc 1 876 17
	movq	-8(%rbp), %rax	# th, tmp107
	movl	112(%rax), %eax	# th_25(D)->momx, _6
# p_mobj.c:876:     th->x += (th->momx>>1);
	.loc 1 876 23
	sarl	%eax	# _7
# p_mobj.c:876:     th->x += (th->momx>>1);
	.loc 1 876 11
	addl	%eax, %edx	# _7, _8
	movq	-8(%rbp), %rax	# th, tmp108
	movl	%edx, 24(%rax)	# _8, th_25(D)->x
# p_mobj.c:877:     th->y += (th->momy>>1);
	.loc 1 877 7
	movq	-8(%rbp), %rax	# th, tmp109
	movl	28(%rax), %edx	# th_25(D)->y, _9
# p_mobj.c:877:     th->y += (th->momy>>1);
	.loc 1 877 17
	movq	-8(%rbp), %rax	# th, tmp110
	movl	116(%rax), %eax	# th_25(D)->momy, _10
# p_mobj.c:877:     th->y += (th->momy>>1);
	.loc 1 877 23
	sarl	%eax	# _11
# p_mobj.c:877:     th->y += (th->momy>>1);
	.loc 1 877 11
	addl	%eax, %edx	# _11, _12
	movq	-8(%rbp), %rax	# th, tmp111
	movl	%edx, 28(%rax)	# _12, th_25(D)->y
# p_mobj.c:878:     th->z += (th->momz>>1);
	.loc 1 878 7
	movq	-8(%rbp), %rax	# th, tmp112
	movl	32(%rax), %edx	# th_25(D)->z, _13
# p_mobj.c:878:     th->z += (th->momz>>1);
	.loc 1 878 17
	movq	-8(%rbp), %rax	# th, tmp113
	movl	120(%rax), %eax	# th_25(D)->momz, _14
# p_mobj.c:878:     th->z += (th->momz>>1);
	.loc 1 878 23
	sarl	%eax	# _15
# p_mobj.c:878:     th->z += (th->momz>>1);
	.loc 1 878 11
	addl	%eax, %edx	# _15, _16
	movq	-8(%rbp), %rax	# th, tmp114
	movl	%edx, 32(%rax)	# _16, th_25(D)->z
# p_mobj.c:880:     if (!P_TryMove (th, th->x, th->y))
	.loc 1 880 10
	movq	-8(%rbp), %rax	# th, tmp115
	movl	28(%rax), %edx	# th_25(D)->y, _17
	movq	-8(%rbp), %rax	# th, tmp116
	movl	24(%rax), %ecx	# th_25(D)->x, _18
	movq	-8(%rbp), %rax	# th, tmp117
	movl	%ecx, %esi	# _18,
	movq	%rax, %rdi	# tmp117,
	call	P_TryMove@PLT	#
# p_mobj.c:880:     if (!P_TryMove (th, th->x, th->y))
	.loc 1 880 8 discriminator 1
	testl	%eax, %eax	# _19
	jne	.L153	#,
# p_mobj.c:881: 	P_ExplodeMissile (th);
	.loc 1 881 2
	movq	-8(%rbp), %rax	# th, tmp118
	movq	%rax, %rdi	# tmp118,
	call	P_ExplodeMissile	#
.L153:
# p_mobj.c:882: }
	.loc 1 882 1
	nop	
	leave	
	.cfi_def_cfa 7, 8
	ret	
	.cfi_endproc
.LFE13:
	.size	P_CheckMissileSpawn, .-P_CheckMissileSpawn
	.globl	P_SpawnMissile
	.type	P_SpawnMissile, @function
P_SpawnMissile:
.LFB14:
	.loc 1 893 1
	.cfi_startproc
	endbr64	
	pushq	%rbp	#
	.cfi_def_cfa_offset 16
	.cfi_offset 6, -16
	movq	%rsp, %rbp	#,
	.cfi_def_cfa_register 6
	pushq	%rbx	#
	subq	$56, %rsp	#,
	.cfi_offset 3, -24
	movq	%rdi, -40(%rbp)	# source, source
	movq	%rsi, -48(%rbp)	# dest, dest
	movl	%edx, -52(%rbp)	# type, type
# p_mobj.c:900: 		      source->z + 4*8*FRACUNIT, type);
	.loc 1 900 15
	movq	-40(%rbp), %rax	# source, tmp127
	movl	32(%rax), %eax	# source_48(D)->z, _1
# p_mobj.c:898:     th = P_SpawnMobj (source->x,
	.loc 1 898 10
	leal	2097152(%rax), %edi	#, _2
	movq	-40(%rbp), %rax	# source, tmp128
	movl	28(%rax), %esi	# source_48(D)->y, _3
	movq	-40(%rbp), %rax	# source, tmp129
	movl	24(%rax), %eax	# source_48(D)->x, _4
	movl	-52(%rbp), %edx	# type, tmp130
	movl	%edx, %ecx	# tmp130,
	movl	%edi, %edx	# _2,
	movl	%eax, %edi	# _4,
	call	P_SpawnMobj	#
	movq	%rax, -24(%rbp)	# tmp131, th
# p_mobj.c:902:     if (th->info->seesound)
	.loc 1 902 11
	movq	-24(%rbp), %rax	# th, tmp132
	movq	136(%rax), %rax	# th_51->info, _5
# p_mobj.c:902:     if (th->info->seesound)
	.loc 1 902 17
	movl	16(%rax), %eax	# _5->seesound, _6
# p_mobj.c:902:     if (th->info->seesound)
	.loc 1 902 8
	testl	%eax, %eax	# _6
	je	.L155	#,
# p_mobj.c:903: 	S_StartSound (th, th->info->seesound);
	.loc 1 903 22
	movq	-24(%rbp), %rax	# th, tmp133
	movq	136(%rax), %rax	# th_51->info, _7
# p_mobj.c:903: 	S_StartSound (th, th->info->seesound);
	.loc 1 903 2
	movl	16(%rax), %edx	# _7->seesound, _8
	movq	-24(%rbp), %rax	# th, tmp134
	movl	%edx, %esi	# _8,
	movq	%rax, %rdi	# tmp134,
	call	S_StartSound@PLT	#
.L155:
# p_mobj.c:905:     th->target = source;	// where it came from
	.loc 1 905 16
	movq	-24(%rbp), %rax	# th, tmp135
	movq	-40(%rbp), %rdx	# source, tmp136
	movq	%rdx, 176(%rax)	# tmp136, th_51->target
# p_mobj.c:906:     an = R_PointToAngle2 (source->x, source->y, dest->x, dest->y);	
	.loc 1 906 10
	movq	-48(%rbp), %rax	# dest, tmp137
	movl	28(%rax), %ecx	# dest_54(D)->y, _9
	movq	-48(%rbp), %rax	# dest, tmp138
	movl	24(%rax), %edx	# dest_54(D)->x, _10
	movq	-40(%rbp), %rax	# source, tmp139
	movl	28(%rax), %esi	# source_48(D)->y, _11
	movq	-40(%rbp), %rax	# source, tmp140
	movl	24(%rax), %eax	# source_48(D)->x, _12
	movl	%eax, %edi	# _12,
	call	R_PointToAngle2@PLT	#
	movl	%eax, -32(%rbp)	# tmp141, an
# p_mobj.c:909:     if (dest->flags & MF_SHADOW)
	.loc 1 909 13
	movq	-48(%rbp), %rax	# dest, tmp142
	movl	160(%rax), %eax	# dest_54(D)->flags, _13
# p_mobj.c:909:     if (dest->flags & MF_SHADOW)
	.loc 1 909 21
	andl	$262144, %eax	#, _14
# p_mobj.c:909:     if (dest->flags & MF_SHADOW)
	.loc 1 909 8
	testl	%eax, %eax	# _14
	je	.L156	#,
# p_mobj.c:910: 	an += (P_Random()-P_Random())<<20;	
	.loc 1 910 9
	call	P_Random@PLT	#
	movl	%eax, %ebx	#, _15
# p_mobj.c:910: 	an += (P_Random()-P_Random())<<20;	
	.loc 1 910 20 discriminator 1
	call	P_Random@PLT	#
# p_mobj.c:910: 	an += (P_Random()-P_Random())<<20;	
	.loc 1 910 19 discriminator 2
	subl	%eax, %ebx	# _16, _15
	movl	%ebx, %edx	# _15, _17
# p_mobj.c:910: 	an += (P_Random()-P_Random())<<20;	
	.loc 1 910 31 discriminator 2
	movl	%edx, %eax	# _17, _17
	sall	$20, %eax	#, _17
# p_mobj.c:910: 	an += (P_Random()-P_Random())<<20;	
	.loc 1 910 5 discriminator 2
	addl	%eax, -32(%rbp)	# _18, an
.L156:
# p_mobj.c:912:     th->angle = an;
	.loc 1 912 15
	movq	-24(%rbp), %rax	# th, tmp143
	movl	-32(%rbp), %edx	# an, tmp144
	movl	%edx, 56(%rax)	# tmp144, th_51->angle
# p_mobj.c:913:     an >>= ANGLETOFINESHIFT;
	.loc 1 913 8
	shrl	$19, -32(%rbp)	#, an
# p_mobj.c:914:     th->momx = FixedMul (th->info->speed, finecosine[an]);
	.loc 1 914 53
	movq	finecosine(%rip), %rax	# finecosine, finecosine.38_19
	movl	-32(%rbp), %edx	# an, _20
	salq	$2, %rdx	#, _21
	addq	%rdx, %rax	# _21, _22
# p_mobj.c:914:     th->momx = FixedMul (th->info->speed, finecosine[an]);
	.loc 1 914 16
	movl	(%rax), %edx	# *_22, _23
# p_mobj.c:914:     th->momx = FixedMul (th->info->speed, finecosine[an]);
	.loc 1 914 28
	movq	-24(%rbp), %rax	# th, tmp145
	movq	136(%rax), %rax	# th_51->info, _24
# p_mobj.c:914:     th->momx = FixedMul (th->info->speed, finecosine[an]);
	.loc 1 914 16
	movl	60(%rax), %eax	# _24->speed, _25
	movl	%edx, %esi	# _23,
	movl	%eax, %edi	# _25,
	call	FixedMul@PLT	#
# p_mobj.c:914:     th->momx = FixedMul (th->info->speed, finecosine[an]);
	.loc 1 914 14 discriminator 1
	movq	-24(%rbp), %rdx	# th, tmp146
	movl	%eax, 112(%rdx)	# _26, th_51->momx
# p_mobj.c:915:     th->momy = FixedMul (th->info->speed, finesine[an]);
	.loc 1 915 16
	movl	-32(%rbp), %eax	# an, tmp147
	leaq	0(,%rax,4), %rdx	#, tmp148
	leaq	finesine(%rip), %rax	#, tmp149
	movl	(%rdx,%rax), %edx	# finesine[an_62], _27
# p_mobj.c:915:     th->momy = FixedMul (th->info->speed, finesine[an]);
	.loc 1 915 28
	movq	-24(%rbp), %rax	# th, tmp150
	movq	136(%rax), %rax	# th_51->info, _28
# p_mobj.c:915:     th->momy = FixedMul (th->info->speed, finesine[an]);
	.loc 1 915 16
	movl	60(%rax), %eax	# _28->speed, _29
	movl	%edx, %esi	# _27,
	movl	%eax, %edi	# _29,
	call	FixedMul@PLT	#
# p_mobj.c:915:     th->momy = FixedMul (th->info->speed, finesine[an]);
	.loc 1 915 14 discriminator 1
	movq	-24(%rbp), %rdx	# th, tmp151
	movl	%eax, 116(%rdx)	# _30, th_51->momy
# p_mobj.c:917:     dist = P_AproxDistance (dest->x - source->x, dest->y - source->y);
	.loc 1 917 54
	movq	-48(%rbp), %rax	# dest, tmp152
	movl	28(%rax), %edx	# dest_54(D)->y, _31
# p_mobj.c:917:     dist = P_AproxDistance (dest->x - source->x, dest->y - source->y);
	.loc 1 917 66
	movq	-40(%rbp), %rax	# source, tmp153
	movl	28(%rax), %eax	# source_48(D)->y, _32
# p_mobj.c:917:     dist = P_AproxDistance (dest->x - source->x, dest->y - source->y);
	.loc 1 917 12
	subl	%eax, %edx	# _32, _33
# p_mobj.c:917:     dist = P_AproxDistance (dest->x - source->x, dest->y - source->y);
	.loc 1 917 33
	movq	-48(%rbp), %rax	# dest, tmp154
	movl	24(%rax), %esi	# dest_54(D)->x, _34
# p_mobj.c:917:     dist = P_AproxDistance (dest->x - source->x, dest->y - source->y);
	.loc 1 917 45
	movq	-40(%rbp), %rax	# source, tmp155
	movl	24(%rax), %ecx	# source_48(D)->x, _35
# p_mobj.c:917:     dist = P_AproxDistance (dest->x - source->x, dest->y - source->y);
	.loc 1 917 12
	movl	%esi, %eax	# _34, _34
	subl	%ecx, %eax	# _35, _34
	movl	%edx, %esi	# _33,
	movl	%eax, %edi	# _36,
	call	P_AproxDistance@PLT	#
	movl	%eax, -28(%rbp)	# tmp156, dist
# p_mobj.c:918:     dist = dist / th->info->speed;
	.loc 1 918 21
	movq	-24(%rbp), %rax	# th, tmp157
	movq	136(%rax), %rax	# th_51->info, _37
# p_mobj.c:918:     dist = dist / th->info->speed;
	.loc 1 918 27
	movl	60(%rax), %ebx	# _37->speed, _38
# p_mobj.c:918:     dist = dist / th->info->speed;
	.loc 1 918 10
	movl	-28(%rbp), %eax	# dist, tmp160
	cltd
	idivl	%ebx	# _38
	movl	%eax, -28(%rbp)	# tmp158, dist
# p_mobj.c:920:     if (dist < 1)
	.loc 1 920 8
	cmpl	$0, -28(%rbp)	#, dist
	jg	.L157	#,
# p_mobj.c:921: 	dist = 1;
	.loc 1 921 7
	movl	$1, -28(%rbp)	#, dist
.L157:
# p_mobj.c:923:     th->momz = (dest->z - source->z) / dist;
	.loc 1 923 21
	movq	-48(%rbp), %rax	# dest, tmp161
	movl	32(%rax), %edx	# dest_54(D)->z, _39
# p_mobj.c:923:     th->momz = (dest->z - source->z) / dist;
	.loc 1 923 33
	movq	-40(%rbp), %rax	# source, tmp162
	movl	32(%rax), %eax	# source_48(D)->z, _40
# p_mobj.c:923:     th->momz = (dest->z - source->z) / dist;
	.loc 1 923 25
	subl	%eax, %edx	# _40, _41
# p_mobj.c:923:     th->momz = (dest->z - source->z) / dist;
	.loc 1 923 38
	movl	%edx, %eax	# _41, _41
	cltd
	idivl	-28(%rbp)	# dist
	movl	%eax, %edx	# tmp163, _42
# p_mobj.c:923:     th->momz = (dest->z - source->z) / dist;
	.loc 1 923 14
	movq	-24(%rbp), %rax	# th, tmp165
	movl	%edx, 120(%rax)	# _42, th_51->momz
# p_mobj.c:924:     P_CheckMissileSpawn (th);
	.loc 1 924 5
	movq	-24(%rbp), %rax	# th, tmp166
	movq	%rax, %rdi	# tmp166,
	call	P_CheckMissileSpawn	#
# p_mobj.c:926:     return th;
	.loc 1 926 12
	movq	-24(%rbp), %rax	# th, _73
# p_mobj.c:927: }
	.loc 1 927 1
	movq	-8(%rbp), %rbx	#,
	leave	
	.cfi_def_cfa 7, 8
	ret	
	.cfi_endproc
.LFE14:
	.size	P_SpawnMissile, .-P_SpawnMissile
	.globl	P_SpawnPlayerMissile
	.type	P_SpawnPlayerMissile, @function
P_SpawnPlayerMissile:
.LFB15:
	.loc 1 938 1
	.cfi_startproc
	endbr64	
	pushq	%rbp	#
	.cfi_def_cfa_offset 16
	.cfi_offset 6, -16
	movq	%rsp, %rbp	#,
	.cfi_def_cfa_register 6
	subq	$48, %rsp	#,
	movq	%rdi, -40(%rbp)	# source, source
	movl	%esi, -44(%rbp)	# type, type
# p_mobj.c:948:     an = source->angle;
	.loc 1 948 8
	movq	-40(%rbp), %rax	# source, tmp107
	movl	56(%rax), %eax	# source_34(D)->angle, tmp108
	movl	%eax, -28(%rbp)	# tmp108, an
# p_mobj.c:949:     slope = P_AimLineAttack (source, an, 16*64*FRACUNIT);
	.loc 1 949 13
	movl	-28(%rbp), %ecx	# an, tmp109
	movq	-40(%rbp), %rax	# source, tmp110
	movl	$67108864, %edx	#,
	movl	%ecx, %esi	# tmp109,
	movq	%rax, %rdi	# tmp110,
	call	P_AimLineAttack@PLT	#
	movl	%eax, -24(%rbp)	# tmp111, slope
# p_mobj.c:951:     if (!linetarget)
	.loc 1 951 9
	movq	linetarget(%rip), %rax	# linetarget, linetarget.39_1
# p_mobj.c:951:     if (!linetarget)
	.loc 1 951 8
	testq	%rax, %rax	# linetarget.39_1
	jne	.L160	#,
# p_mobj.c:953: 	an += 1<<26;
	.loc 1 953 5
	addl	$67108864, -28(%rbp)	#, an
# p_mobj.c:954: 	slope = P_AimLineAttack (source, an, 16*64*FRACUNIT);
	.loc 1 954 10
	movl	-28(%rbp), %ecx	# an, tmp112
	movq	-40(%rbp), %rax	# source, tmp113
	movl	$67108864, %edx	#,
	movl	%ecx, %esi	# tmp112,
	movq	%rax, %rdi	# tmp113,
	call	P_AimLineAttack@PLT	#
	movl	%eax, -24(%rbp)	# tmp114, slope
# p_mobj.c:956: 	if (!linetarget)
	.loc 1 956 6
	movq	linetarget(%rip), %rax	# linetarget, linetarget.40_2
# p_mobj.c:956: 	if (!linetarget)
	.loc 1 956 5
	testq	%rax, %rax	# linetarget.40_2
	jne	.L161	#,
# p_mobj.c:958: 	    an -= 2<<26;
	.loc 1 958 9
	subl	$134217728, -28(%rbp)	#, an
# p_mobj.c:959: 	    slope = P_AimLineAttack (source, an, 16*64*FRACUNIT);
	.loc 1 959 14
	movl	-28(%rbp), %ecx	# an, tmp115
	movq	-40(%rbp), %rax	# source, tmp116
	movl	$67108864, %edx	#,
	movl	%ecx, %esi	# tmp115,
	movq	%rax, %rdi	# tmp116,
	call	P_AimLineAttack@PLT	#
	movl	%eax, -24(%rbp)	# tmp117, slope
.L161:
# p_mobj.c:962: 	if (!linetarget)
	.loc 1 962 6
	movq	linetarget(%rip), %rax	# linetarget, linetarget.41_3
# p_mobj.c:962: 	if (!linetarget)
	.loc 1 962 5
	testq	%rax, %rax	# linetarget.41_3
	jne	.L160	#,
# p_mobj.c:964: 	    an = source->angle;
	.loc 1 964 9
	movq	-40(%rbp), %rax	# source, tmp118
	movl	56(%rax), %eax	# source_34(D)->angle, tmp119
	movl	%eax, -28(%rbp)	# tmp119, an
# p_mobj.c:965: 	    slope = 0;
	.loc 1 965 12
	movl	$0, -24(%rbp)	#, slope
.L160:
# p_mobj.c:969:     x = source->x;
	.loc 1 969 7
	movq	-40(%rbp), %rax	# source, tmp120
	movl	24(%rax), %eax	# source_34(D)->x, tmp121
	movl	%eax, -20(%rbp)	# tmp121, x
# p_mobj.c:970:     y = source->y;
	.loc 1 970 7
	movq	-40(%rbp), %rax	# source, tmp122
	movl	28(%rax), %eax	# source_34(D)->y, tmp123
	movl	%eax, -16(%rbp)	# tmp123, y
# p_mobj.c:971:     z = source->z + 4*8*FRACUNIT;
	.loc 1 971 15
	movq	-40(%rbp), %rax	# source, tmp124
	movl	32(%rax), %eax	# source_34(D)->z, _4
# p_mobj.c:971:     z = source->z + 4*8*FRACUNIT;
	.loc 1 971 7
	addl	$2097152, %eax	#, tmp125
	movl	%eax, -12(%rbp)	# tmp125, z
# p_mobj.c:973:     th = P_SpawnMobj (x,y,z, type);
	.loc 1 973 10
	movl	-44(%rbp), %ecx	# type, tmp126
	movl	-12(%rbp), %edx	# z, tmp127
	movl	-16(%rbp), %esi	# y, tmp128
	movl	-20(%rbp), %eax	# x, tmp129
	movl	%eax, %edi	# tmp129,
	call	P_SpawnMobj	#
	movq	%rax, -8(%rbp)	# tmp130, th
# p_mobj.c:975:     if (th->info->seesound)
	.loc 1 975 11
	movq	-8(%rbp), %rax	# th, tmp131
	movq	136(%rax), %rax	# th_51->info, _5
# p_mobj.c:975:     if (th->info->seesound)
	.loc 1 975 17
	movl	16(%rax), %eax	# _5->seesound, _6
# p_mobj.c:975:     if (th->info->seesound)
	.loc 1 975 8
	testl	%eax, %eax	# _6
	je	.L162	#,
# p_mobj.c:976: 	S_StartSound (th, th->info->seesound);
	.loc 1 976 22
	movq	-8(%rbp), %rax	# th, tmp132
	movq	136(%rax), %rax	# th_51->info, _7
# p_mobj.c:976: 	S_StartSound (th, th->info->seesound);
	.loc 1 976 2
	movl	16(%rax), %edx	# _7->seesound, _8
	movq	-8(%rbp), %rax	# th, tmp133
	movl	%edx, %esi	# _8,
	movq	%rax, %rdi	# tmp133,
	call	S_StartSound@PLT	#
.L162:
# p_mobj.c:978:     th->target = source;
	.loc 1 978 16
	movq	-8(%rbp), %rax	# th, tmp134
	movq	-40(%rbp), %rdx	# source, tmp135
	movq	%rdx, 176(%rax)	# tmp135, th_51->target
# p_mobj.c:979:     th->angle = an;
	.loc 1 979 15
	movq	-8(%rbp), %rax	# th, tmp136
	movl	-28(%rbp), %edx	# an, tmp137
	movl	%edx, 56(%rax)	# tmp137, th_51->angle
# p_mobj.c:981: 			 finecosine[an>>ANGLETOFINESHIFT]);
	.loc 1 981 15
	movq	finecosine(%rip), %rax	# finecosine, finecosine.42_9
# p_mobj.c:981: 			 finecosine[an>>ANGLETOFINESHIFT]);
	.loc 1 981 18
	movl	-28(%rbp), %edx	# an, tmp138
	shrl	$19, %edx	#, _10
	movl	%edx, %edx	# _10, _11
# p_mobj.c:981: 			 finecosine[an>>ANGLETOFINESHIFT]);
	.loc 1 981 15
	salq	$2, %rdx	#, _12
	addq	%rdx, %rax	# _12, _13
# p_mobj.c:980:     th->momx = FixedMul( th->info->speed,
	.loc 1 980 16
	movl	(%rax), %edx	# *_13, _14
# p_mobj.c:980:     th->momx = FixedMul( th->info->speed,
	.loc 1 980 28
	movq	-8(%rbp), %rax	# th, tmp139
	movq	136(%rax), %rax	# th_51->info, _15
# p_mobj.c:980:     th->momx = FixedMul( th->info->speed,
	.loc 1 980 16
	movl	60(%rax), %eax	# _15->speed, _16
	movl	%edx, %esi	# _14,
	movl	%eax, %edi	# _16,
	call	FixedMul@PLT	#
# p_mobj.c:980:     th->momx = FixedMul( th->info->speed,
	.loc 1 980 14 discriminator 1
	movq	-8(%rbp), %rdx	# th, tmp140
	movl	%eax, 112(%rdx)	# _17, th_51->momx
# p_mobj.c:983: 			 finesine[an>>ANGLETOFINESHIFT]);
	.loc 1 983 16
	movl	-28(%rbp), %eax	# an, tmp141
	shrl	$19, %eax	#, _18
# p_mobj.c:982:     th->momy = FixedMul( th->info->speed,
	.loc 1 982 16
	movl	%eax, %eax	# _18, tmp142
	leaq	0(,%rax,4), %rdx	#, tmp143
	leaq	finesine(%rip), %rax	#, tmp144
	movl	(%rdx,%rax), %edx	# finesine[_18], _19
# p_mobj.c:982:     th->momy = FixedMul( th->info->speed,
	.loc 1 982 28
	movq	-8(%rbp), %rax	# th, tmp145
	movq	136(%rax), %rax	# th_51->info, _20
# p_mobj.c:982:     th->momy = FixedMul( th->info->speed,
	.loc 1 982 16
	movl	60(%rax), %eax	# _20->speed, _21
	movl	%edx, %esi	# _19,
	movl	%eax, %edi	# _21,
	call	FixedMul@PLT	#
# p_mobj.c:982:     th->momy = FixedMul( th->info->speed,
	.loc 1 982 14 discriminator 1
	movq	-8(%rbp), %rdx	# th, tmp146
	movl	%eax, 116(%rdx)	# _22, th_51->momy
# p_mobj.c:984:     th->momz = FixedMul( th->info->speed, slope);
	.loc 1 984 28
	movq	-8(%rbp), %rax	# th, tmp147
	movq	136(%rax), %rax	# th_51->info, _23
# p_mobj.c:984:     th->momz = FixedMul( th->info->speed, slope);
	.loc 1 984 16
	movl	60(%rax), %eax	# _23->speed, _24
	movl	-24(%rbp), %edx	# slope, tmp148
	movl	%edx, %esi	# tmp148,
	movl	%eax, %edi	# _24,
	call	FixedMul@PLT	#
# p_mobj.c:984:     th->momz = FixedMul( th->info->speed, slope);
	.loc 1 984 14 discriminator 1
	movq	-8(%rbp), %rdx	# th, tmp149
	movl	%eax, 120(%rdx)	# _25, th_51->momz
# p_mobj.c:986:     P_CheckMissileSpawn (th);
	.loc 1 986 5
	movq	-8(%rbp), %rax	# th, tmp150
	movq	%rax, %rdi	# tmp150,
	call	P_CheckMissileSpawn	#
# p_mobj.c:987: }
	.loc 1 987 1
	nop	
	leave	
	.cfi_def_cfa 7, 8
	ret	
	.cfi_endproc
.LFE15:
	.size	P_SpawnPlayerMissile, .-P_SpawnPlayerMissile
.Letext0:
	.file 2 "doomtype.h"
	.file 3 "d_ticcmd.h"
	.file 4 "/usr/lib/gcc/x86_64-linux-gnu/13/include/stddef.h"
	.file 5 "doomdef.h"
	.file 6 "m_fixed.h"
	.file 7 "tables.h"
	.file 8 "d_think.h"
	.file 9 "doomdata.h"
	.file 10 "info.h"
	.file 11 "p_mobj.h"
	.file 12 "r_defs.h"
	.file 13 "d_player.h"
	.file 14 "p_pspr.h"
	.file 15 "p_local.h"
	.file 16 "sounds.h"
	.file 17 "doomstat.h"
	.file 18 "r_main.h"
	.file 19 "/usr/include/string.h"
	.file 20 "hu_stuff.h"
	.file 21 "st_stuff.h"
	.file 22 "i_system.h"
	.file 23 "s_sound.h"
	.file 24 "z_zone.h"
	.file 25 "m_random.h"
	.section	.note.GNU-stack,"",@progbits
	.section	.note.gnu.property,"a"
	.align 8
	.long	1f - 0f
	.long	4f - 1f
	.long	5
0:
	.string	"GNU"
1:
	.align 8
	.long	0xc0000002
	.long	3f - 2f
2:
	.long	0x3
3:
	.align 8
4:
