	.file	"p_saveg.c"
# GNU C17 (Ubuntu 13.3.0-6ubuntu2~24.04) version 13.3.0 (x86_64-linux-gnu)
#	compiled by GNU C version 13.3.0, GMP version 6.3.0, MPFR version 4.2.1, MPC version 1.3.1, isl version isl-0.26-GMP

# GGC heuristics: --param ggc-min-expand=100 --param ggc-min-heapsize=131072
# options passed: -mtune=generic -march=x86-64 -g -fasynchronous-unwind-tables -fstack-protector-strong -fstack-clash-protection -fcf-protection
	.text
.Ltext0:
	.file 0 "/home/astrid/Documents/enseignements/DOOM/linuxdoom-1.10" "p_saveg.c"
	.section	.rodata
	.align 32
	.type	rcsid, @object
	.size	rcsid, 49
rcsid:
	.string	"$Id: p_tick.c,v 1.4 1997/02/03 16:47:55 b1 Exp $"
	.globl	save_p
	.bss
	.align 8
	.type	save_p, @object
	.size	save_p, 8
save_p:
	.zero	8
	.text
	.globl	P_ArchivePlayers
	.type	P_ArchivePlayers, @function
P_ArchivePlayers:
.LFB0:
	.file 1 "p_saveg.c"
	.loc 1 48 1
	.cfi_startproc
	endbr64	
	pushq	%rbp	#
	.cfi_def_cfa_offset 16
	.cfi_offset 6, -16
	movq	%rsp, %rbp	#,
	.cfi_def_cfa_register 6
	subq	$16, %rsp	#,
# p_saveg.c:53:     for (i=0 ; i<MAXPLAYERS ; i++)
	.loc 1 53 11
	movl	$0, -16(%rbp)	#, i
# p_saveg.c:53:     for (i=0 ; i<MAXPLAYERS ; i++)
	.loc 1 53 5
	jmp	.L2	#
.L8:
# p_saveg.c:55: 	if (!playeringame[i])
	.loc 1 55 19
	movl	-16(%rbp), %eax	# i, tmp101
	cltq
	leaq	0(,%rax,4), %rdx	#, tmp102
	leaq	playeringame(%rip), %rax	#, tmp103
	movl	(%rdx,%rax), %eax	# playeringame[i_19], _1
# p_saveg.c:55: 	if (!playeringame[i])
	.loc 1 55 5
	testl	%eax, %eax	# _1
	je	.L9	#,
# p_saveg.c:58: 	PADSAVEP();
	.loc 1 58 2
	movq	save_p(%rip), %rax	# save_p, save_p.0_2
	movq	save_p(%rip), %rdx	# save_p, save_p.1_3
	andl	$3, %edx	#, _6
	movl	$4, %ecx	#, tmp104
	subl	%edx, %ecx	# _6, _7
	movslq	%ecx, %rdx	# _7, _8
	andl	$3, %edx	#, _9
	addq	%rdx, %rax	# _9, _10
	movq	%rax, save_p(%rip)	# _10, save_p
# p_saveg.c:60: 	dest = (player_t *)save_p;
	.loc 1 60 7
	movq	save_p(%rip), %rax	# save_p, tmp105
	movq	%rax, -8(%rbp)	# tmp105, dest
# p_saveg.c:61: 	memcpy (dest,&players[i],sizeof(player_t));
	.loc 1 61 15
	movl	-16(%rbp), %eax	# i, tmp107
	movslq	%eax, %rdx	# tmp107, tmp106
	movq	%rdx, %rax	# tmp106, tmp108
	salq	$2, %rax	#, tmp108
	addq	%rdx, %rax	# tmp106, tmp108
	salq	$6, %rax	#, tmp109
	leaq	players(%rip), %rdx	#, tmp110
	leaq	(%rax,%rdx), %rcx	#, _11
# p_saveg.c:61: 	memcpy (dest,&players[i],sizeof(player_t));
	.loc 1 61 2
	movq	-8(%rbp), %rax	# dest, tmp111
	movl	$320, %edx	#,
	movq	%rcx, %rsi	# _11,
	movq	%rax, %rdi	# tmp111,
	call	memcpy@PLT	#
# p_saveg.c:62: 	save_p += sizeof(player_t);
	.loc 1 62 9
	movq	save_p(%rip), %rax	# save_p, save_p.3_12
	addq	$320, %rax	#, _13
	movq	%rax, save_p(%rip)	# _13, save_p
# p_saveg.c:63: 	for (j=0 ; j<NUMPSPRITES ; j++)
	.loc 1 63 8
	movl	$0, -12(%rbp)	#, j
# p_saveg.c:63: 	for (j=0 ; j<NUMPSPRITES ; j++)
	.loc 1 63 2
	jmp	.L5	#
.L7:
# p_saveg.c:65: 	    if (dest->psprites[j].state)
	.loc 1 65 27
	movq	-8(%rbp), %rcx	# dest, tmp112
	movl	-12(%rbp), %eax	# j, tmp114
	movslq	%eax, %rdx	# tmp114, tmp113
	movq	%rdx, %rax	# tmp113, tmp115
	addq	%rax, %rax	# tmp115
	addq	%rdx, %rax	# tmp113, tmp115
	salq	$3, %rax	#, tmp116
	addq	%rcx, %rax	# tmp112, tmp117
	addq	$264, %rax	#, tmp118
	movq	(%rax), %rax	# dest_28->psprites[j_20].state, _14
# p_saveg.c:65: 	    if (dest->psprites[j].state)
	.loc 1 65 9
	testq	%rax, %rax	# _14
	je	.L6	#,
# p_saveg.c:68: 		    = (state_t *)(dest->psprites[j].state-states);
	.loc 1 68 38
	movq	-8(%rbp), %rcx	# dest, tmp119
	movl	-12(%rbp), %eax	# j, tmp121
	movslq	%eax, %rdx	# tmp121, tmp120
	movq	%rdx, %rax	# tmp120, tmp122
	addq	%rax, %rax	# tmp122
	addq	%rdx, %rax	# tmp120, tmp122
	salq	$3, %rax	#, tmp123
	addq	%rcx, %rax	# tmp119, tmp124
	addq	$264, %rax	#, tmp125
	movq	(%rax), %rdx	# dest_28->psprites[j_20].state, _15
# p_saveg.c:68: 		    = (state_t *)(dest->psprites[j].state-states);
	.loc 1 68 44
	leaq	states(%rip), %rax	#, tmp126
	subq	%rax, %rdx	# tmp126, _16
	sarq	$3, %rdx	#, tmp127
	movabsq	$7905747460161236407, %rax	#, tmp129
	imulq	%rdx, %rax	# tmp127, tmp128
# p_saveg.c:68: 		    = (state_t *)(dest->psprites[j].state-states);
	.loc 1 68 9
	movq	%rax, %rsi	# _17, _18
# p_saveg.c:68: 		    = (state_t *)(dest->psprites[j].state-states);
	.loc 1 68 7
	movq	-8(%rbp), %rcx	# dest, tmp130
	movl	-12(%rbp), %eax	# j, tmp132
	movslq	%eax, %rdx	# tmp132, tmp131
	movq	%rdx, %rax	# tmp131, tmp133
	addq	%rax, %rax	# tmp133
	addq	%rdx, %rax	# tmp131, tmp133
	salq	$3, %rax	#, tmp134
	addq	%rcx, %rax	# tmp130, tmp135
	addq	$264, %rax	#, tmp136
	movq	%rsi, (%rax)	# _18, dest_28->psprites[j_20].state
.L6:
# p_saveg.c:63: 	for (j=0 ; j<NUMPSPRITES ; j++)
	.loc 1 63 30 discriminator 2
	addl	$1, -12(%rbp)	#, j
.L5:
# p_saveg.c:63: 	for (j=0 ; j<NUMPSPRITES ; j++)
	.loc 1 63 14 discriminator 1
	cmpl	$1, -12(%rbp)	#, j
	jle	.L7	#,
	jmp	.L4	#
.L9:
# p_saveg.c:56: 	    continue;
	.loc 1 56 6
	nop	
.L4:
# p_saveg.c:53:     for (i=0 ; i<MAXPLAYERS ; i++)
	.loc 1 53 32 discriminator 2
	addl	$1, -16(%rbp)	#, i
.L2:
# p_saveg.c:53:     for (i=0 ; i<MAXPLAYERS ; i++)
	.loc 1 53 17 discriminator 1
	cmpl	$3, -16(%rbp)	#, i
	jle	.L8	#,
# p_saveg.c:72: }
	.loc 1 72 1
	nop	
	nop	
	leave	
	.cfi_def_cfa 7, 8
	ret	
	.cfi_endproc
.LFE0:
	.size	P_ArchivePlayers, .-P_ArchivePlayers
	.globl	P_UnArchivePlayers
	.type	P_UnArchivePlayers, @function
P_UnArchivePlayers:
.LFB1:
	.loc 1 80 1
	.cfi_startproc
	endbr64	
	pushq	%rbp	#
	.cfi_def_cfa_offset 16
	.cfi_offset 6, -16
	movq	%rsp, %rbp	#,
	.cfi_def_cfa_register 6
	subq	$16, %rsp	#,
# p_saveg.c:84:     for (i=0 ; i<MAXPLAYERS ; i++)
	.loc 1 84 11
	movl	$0, -8(%rbp)	#, i
# p_saveg.c:84:     for (i=0 ; i<MAXPLAYERS ; i++)
	.loc 1 84 5
	jmp	.L11	#
.L17:
# p_saveg.c:86: 	if (!playeringame[i])
	.loc 1 86 19
	movl	-8(%rbp), %eax	# i, tmp102
	cltq
	leaq	0(,%rax,4), %rdx	#, tmp103
	leaq	playeringame(%rip), %rax	#, tmp104
	movl	(%rdx,%rax), %eax	# playeringame[i_20], _1
# p_saveg.c:86: 	if (!playeringame[i])
	.loc 1 86 5
	testl	%eax, %eax	# _1
	je	.L18	#,
# p_saveg.c:89: 	PADSAVEP();
	.loc 1 89 2
	movq	save_p(%rip), %rax	# save_p, save_p.4_2
	movq	save_p(%rip), %rdx	# save_p, save_p.5_3
	andl	$3, %edx	#, _6
	movl	$4, %ecx	#, tmp105
	subl	%edx, %ecx	# _6, _7
	movslq	%ecx, %rdx	# _7, _8
	andl	$3, %edx	#, _9
	addq	%rdx, %rax	# _9, _10
	movq	%rax, save_p(%rip)	# _10, save_p
# p_saveg.c:91: 	memcpy (&players[i],save_p, sizeof(player_t));
	.loc 1 91 2
	movq	save_p(%rip), %rcx	# save_p, save_p.7_11
# p_saveg.c:91: 	memcpy (&players[i],save_p, sizeof(player_t));
	.loc 1 91 10
	movl	-8(%rbp), %eax	# i, tmp107
	movslq	%eax, %rdx	# tmp107, tmp106
	movq	%rdx, %rax	# tmp106, tmp108
	salq	$2, %rax	#, tmp108
	addq	%rdx, %rax	# tmp106, tmp108
	salq	$6, %rax	#, tmp109
	leaq	players(%rip), %rdx	#, tmp110
	addq	%rdx, %rax	# tmp110, _12
# p_saveg.c:91: 	memcpy (&players[i],save_p, sizeof(player_t));
	.loc 1 91 2
	movl	$320, %edx	#,
	movq	%rcx, %rsi	# save_p.7_11,
	movq	%rax, %rdi	# _12,
	call	memcpy@PLT	#
# p_saveg.c:92: 	save_p += sizeof(player_t);
	.loc 1 92 9
	movq	save_p(%rip), %rax	# save_p, save_p.8_13
	addq	$320, %rax	#, _14
	movq	%rax, save_p(%rip)	# _14, save_p
# p_saveg.c:95: 	players[i].mo = NULL;	
	.loc 1 95 16
	movl	-8(%rbp), %eax	# i, tmp112
	movslq	%eax, %rdx	# tmp112, tmp111
	movq	%rdx, %rax	# tmp111, tmp114
	salq	$2, %rax	#, tmp114
	addq	%rdx, %rax	# tmp111, tmp114
	salq	$6, %rax	#, tmp115
	movq	%rax, %rdx	# tmp114, tmp113
	leaq	players(%rip), %rax	#, tmp116
	movq	$0, (%rdx,%rax)	#, players[i_20].mo
# p_saveg.c:96: 	players[i].message = NULL;
	.loc 1 96 21
	movl	-8(%rbp), %eax	# i, tmp118
	movslq	%eax, %rdx	# tmp118, tmp117
	movq	%rdx, %rax	# tmp117, tmp120
	salq	$2, %rax	#, tmp120
	addq	%rdx, %rax	# tmp117, tmp120
	salq	$6, %rax	#, tmp121
	movq	%rax, %rdx	# tmp120, tmp119
	leaq	224+players(%rip), %rax	#, tmp122
	movq	$0, (%rdx,%rax)	#, players[i_20].message
# p_saveg.c:97: 	players[i].attacker = NULL;
	.loc 1 97 22
	movl	-8(%rbp), %eax	# i, tmp124
	movslq	%eax, %rdx	# tmp124, tmp123
	movq	%rdx, %rax	# tmp123, tmp126
	salq	$2, %rax	#, tmp126
	addq	%rdx, %rax	# tmp123, tmp126
	salq	$6, %rax	#, tmp127
	movq	%rax, %rdx	# tmp126, tmp125
	leaq	240+players(%rip), %rax	#, tmp128
	movq	$0, (%rdx,%rax)	#, players[i_20].attacker
# p_saveg.c:99: 	for (j=0 ; j<NUMPSPRITES ; j++)
	.loc 1 99 8
	movl	$0, -4(%rbp)	#, j
# p_saveg.c:99: 	for (j=0 ; j<NUMPSPRITES ; j++)
	.loc 1 99 2
	jmp	.L14	#
.L16:
# p_saveg.c:101: 	    if (players[i]. psprites[j].state)
	.loc 1 101 33
	movl	-4(%rbp), %eax	# j, tmp130
	cltq
	movl	-8(%rbp), %edx	# i, tmp132
	movslq	%edx, %rcx	# tmp132, tmp131
	movq	%rax, %rdx	# tmp129, tmp133
	addq	%rdx, %rdx	# tmp133
	addq	%rax, %rdx	# tmp129, tmp133
	leaq	0(,%rdx,8), %rax	#, tmp134
	movq	%rax, %rdx	# tmp134, tmp133
	movq	%rcx, %rax	# tmp131, tmp135
	salq	$2, %rax	#, tmp135
	addq	%rcx, %rax	# tmp131, tmp135
	salq	$6, %rax	#, tmp136
	addq	%rax, %rdx	# tmp135, tmp137
	leaq	264+players(%rip), %rax	#, tmp139
	addq	%rdx, %rax	# tmp137, tmp138
	movq	(%rax), %rax	# players[i_20].psprites[j_21].state, _15
# p_saveg.c:101: 	    if (players[i]. psprites[j].state)
	.loc 1 101 9
	testq	%rax, %rax	# _15
	je	.L15	#,
# p_saveg.c:104: 		    = &states[ (int)players[i].psprites[j].state ];
	.loc 1 104 45
	movl	-4(%rbp), %eax	# j, tmp141
	cltq
	movl	-8(%rbp), %edx	# i, tmp143
	movslq	%edx, %rcx	# tmp143, tmp142
	movq	%rax, %rdx	# tmp140, tmp144
	addq	%rdx, %rdx	# tmp144
	addq	%rax, %rdx	# tmp140, tmp144
	leaq	0(,%rdx,8), %rax	#, tmp145
	movq	%rax, %rdx	# tmp145, tmp144
	movq	%rcx, %rax	# tmp142, tmp146
	salq	$2, %rax	#, tmp146
	addq	%rcx, %rax	# tmp142, tmp146
	salq	$6, %rax	#, tmp147
	addq	%rax, %rdx	# tmp146, tmp148
	leaq	264+players(%rip), %rax	#, tmp150
	addq	%rdx, %rax	# tmp148, tmp149
	movq	(%rax), %rax	# players[i_20].psprites[j_21].state, _16
# p_saveg.c:104: 		    = &states[ (int)players[i].psprites[j].state ];
	.loc 1 104 9
	movslq	%eax, %rdx	# _18, tmp151
	movq	%rdx, %rax	# tmp151, tmp152
	salq	$3, %rax	#, tmp153
	subq	%rdx, %rax	# tmp151, tmp152
	salq	$3, %rax	#, tmp154
	leaq	states(%rip), %rdx	#, tmp155
	leaq	(%rax,%rdx), %rsi	#, _19
# p_saveg.c:104: 		    = &states[ (int)players[i].psprites[j].state ];
	.loc 1 104 7
	movl	-4(%rbp), %eax	# j, tmp157
	cltq
	movl	-8(%rbp), %edx	# i, tmp159
	movslq	%edx, %rcx	# tmp159, tmp158
	movq	%rax, %rdx	# tmp156, tmp160
	addq	%rdx, %rdx	# tmp160
	addq	%rax, %rdx	# tmp156, tmp160
	leaq	0(,%rdx,8), %rax	#, tmp161
	movq	%rax, %rdx	# tmp161, tmp160
	movq	%rcx, %rax	# tmp158, tmp162
	salq	$2, %rax	#, tmp162
	addq	%rcx, %rax	# tmp158, tmp162
	salq	$6, %rax	#, tmp163
	addq	%rax, %rdx	# tmp162, tmp164
	leaq	264+players(%rip), %rax	#, tmp166
	addq	%rdx, %rax	# tmp164, tmp165
	movq	%rsi, (%rax)	# _19, players[i_20].psprites[j_21].state
.L15:
# p_saveg.c:99: 	for (j=0 ; j<NUMPSPRITES ; j++)
	.loc 1 99 30 discriminator 2
	addl	$1, -4(%rbp)	#, j
.L14:
# p_saveg.c:99: 	for (j=0 ; j<NUMPSPRITES ; j++)
	.loc 1 99 14 discriminator 1
	cmpl	$1, -4(%rbp)	#, j
	jle	.L16	#,
	jmp	.L13	#
.L18:
# p_saveg.c:87: 	    continue;
	.loc 1 87 6
	nop	
.L13:
# p_saveg.c:84:     for (i=0 ; i<MAXPLAYERS ; i++)
	.loc 1 84 32 discriminator 2
	addl	$1, -8(%rbp)	#, i
.L11:
# p_saveg.c:84:     for (i=0 ; i<MAXPLAYERS ; i++)
	.loc 1 84 17 discriminator 1
	cmpl	$3, -8(%rbp)	#, i
	jle	.L17	#,
# p_saveg.c:108: }
	.loc 1 108 1
	nop	
	nop	
	leave	
	.cfi_def_cfa 7, 8
	ret	
	.cfi_endproc
.LFE1:
	.size	P_UnArchivePlayers, .-P_UnArchivePlayers
	.globl	P_ArchiveWorld
	.type	P_ArchiveWorld, @function
P_ArchiveWorld:
.LFB2:
	.loc 1 115 1
	.cfi_startproc
	endbr64	
	pushq	%rbp	#
	.cfi_def_cfa_offset 16
	.cfi_offset 6, -16
	movq	%rsp, %rbp	#,
	.cfi_def_cfa_register 6
# p_saveg.c:123:     put = (short *)save_p;
	.loc 1 123 9
	movq	save_p(%rip), %rax	# save_p, tmp127
	movq	%rax, -16(%rbp)	# tmp127, put
# p_saveg.c:126:     for (i=0, sec = sectors ; i<numsectors ; i++,sec++)
	.loc 1 126 11
	movl	$0, -40(%rbp)	#, i
# p_saveg.c:126:     for (i=0, sec = sectors ; i<numsectors ; i++,sec++)
	.loc 1 126 19
	movq	sectors(%rip), %rax	# sectors, tmp128
	movq	%rax, -32(%rbp)	# tmp128, sec
# p_saveg.c:126:     for (i=0, sec = sectors ; i<numsectors ; i++,sec++)
	.loc 1 126 5
	jmp	.L20	#
.L21:
# p_saveg.c:128: 	*put++ = sec->floorheight >> FRACBITS;
	.loc 1 128 14
	movq	-32(%rbp), %rax	# sec, tmp129
	movl	(%rax), %eax	# sec_49->floorheight, _1
# p_saveg.c:128: 	*put++ = sec->floorheight >> FRACBITS;
	.loc 1 128 28
	sarl	$16, %eax	#, _1
	movl	%eax, %ecx	# _1, _2
# p_saveg.c:128: 	*put++ = sec->floorheight >> FRACBITS;
	.loc 1 128 6
	movq	-16(%rbp), %rax	# put, put.9_3
	leaq	2(%rax), %rdx	#, tmp130
	movq	%rdx, -16(%rbp)	# tmp130, put
# p_saveg.c:128: 	*put++ = sec->floorheight >> FRACBITS;
	.loc 1 128 9
	movl	%ecx, %edx	# _2, _4
	movw	%dx, (%rax)	# _4, *put.9_3
# p_saveg.c:129: 	*put++ = sec->ceilingheight >> FRACBITS;
	.loc 1 129 14
	movq	-32(%rbp), %rax	# sec, tmp131
	movl	4(%rax), %eax	# sec_49->ceilingheight, _5
# p_saveg.c:129: 	*put++ = sec->ceilingheight >> FRACBITS;
	.loc 1 129 30
	sarl	$16, %eax	#, _5
	movl	%eax, %ecx	# _5, _6
# p_saveg.c:129: 	*put++ = sec->ceilingheight >> FRACBITS;
	.loc 1 129 6
	movq	-16(%rbp), %rax	# put, put.10_7
	leaq	2(%rax), %rdx	#, tmp132
	movq	%rdx, -16(%rbp)	# tmp132, put
# p_saveg.c:129: 	*put++ = sec->ceilingheight >> FRACBITS;
	.loc 1 129 9
	movl	%ecx, %edx	# _6, _8
	movw	%dx, (%rax)	# _8, *put.10_7
# p_saveg.c:130: 	*put++ = sec->floorpic;
	.loc 1 130 6
	movq	-16(%rbp), %rax	# put, put.11_9
	leaq	2(%rax), %rdx	#, tmp133
	movq	%rdx, -16(%rbp)	# tmp133, put
# p_saveg.c:130: 	*put++ = sec->floorpic;
	.loc 1 130 14
	movq	-32(%rbp), %rdx	# sec, tmp134
	movzwl	8(%rdx), %edx	# sec_49->floorpic, _10
# p_saveg.c:130: 	*put++ = sec->floorpic;
	.loc 1 130 9
	movw	%dx, (%rax)	# _10, *put.11_9
# p_saveg.c:131: 	*put++ = sec->ceilingpic;
	.loc 1 131 6
	movq	-16(%rbp), %rax	# put, put.12_11
	leaq	2(%rax), %rdx	#, tmp135
	movq	%rdx, -16(%rbp)	# tmp135, put
# p_saveg.c:131: 	*put++ = sec->ceilingpic;
	.loc 1 131 14
	movq	-32(%rbp), %rdx	# sec, tmp136
	movzwl	10(%rdx), %edx	# sec_49->ceilingpic, _12
# p_saveg.c:131: 	*put++ = sec->ceilingpic;
	.loc 1 131 9
	movw	%dx, (%rax)	# _12, *put.12_11
# p_saveg.c:132: 	*put++ = sec->lightlevel;
	.loc 1 132 6
	movq	-16(%rbp), %rax	# put, put.13_13
	leaq	2(%rax), %rdx	#, tmp137
	movq	%rdx, -16(%rbp)	# tmp137, put
# p_saveg.c:132: 	*put++ = sec->lightlevel;
	.loc 1 132 14
	movq	-32(%rbp), %rdx	# sec, tmp138
	movzwl	12(%rdx), %edx	# sec_49->lightlevel, _14
# p_saveg.c:132: 	*put++ = sec->lightlevel;
	.loc 1 132 9
	movw	%dx, (%rax)	# _14, *put.13_13
# p_saveg.c:133: 	*put++ = sec->special;		// needed?
	.loc 1 133 6
	movq	-16(%rbp), %rax	# put, put.14_15
	leaq	2(%rax), %rdx	#, tmp139
	movq	%rdx, -16(%rbp)	# tmp139, put
# p_saveg.c:133: 	*put++ = sec->special;		// needed?
	.loc 1 133 14
	movq	-32(%rbp), %rdx	# sec, tmp140
	movzwl	14(%rdx), %edx	# sec_49->special, _16
# p_saveg.c:133: 	*put++ = sec->special;		// needed?
	.loc 1 133 9
	movw	%dx, (%rax)	# _16, *put.14_15
# p_saveg.c:134: 	*put++ = sec->tag;		// needed?
	.loc 1 134 6
	movq	-16(%rbp), %rax	# put, put.15_17
	leaq	2(%rax), %rdx	#, tmp141
	movq	%rdx, -16(%rbp)	# tmp141, put
# p_saveg.c:134: 	*put++ = sec->tag;		// needed?
	.loc 1 134 14
	movq	-32(%rbp), %rdx	# sec, tmp142
	movzwl	16(%rdx), %edx	# sec_49->tag, _18
# p_saveg.c:134: 	*put++ = sec->tag;		// needed?
	.loc 1 134 9
	movw	%dx, (%rax)	# _18, *put.15_17
# p_saveg.c:126:     for (i=0, sec = sectors ; i<numsectors ; i++,sec++)
	.loc 1 126 47 discriminator 3
	addl	$1, -40(%rbp)	#, i
# p_saveg.c:126:     for (i=0, sec = sectors ; i<numsectors ; i++,sec++)
	.loc 1 126 53 discriminator 3
	subq	$-128, -32(%rbp)	#, sec
.L20:
# p_saveg.c:126:     for (i=0, sec = sectors ; i<numsectors ; i++,sec++)
	.loc 1 126 32 discriminator 1
	movl	numsectors(%rip), %eax	# numsectors, numsectors.16_19
	cmpl	%eax, -40(%rbp)	# numsectors.16_19, i
	jl	.L21	#,
# p_saveg.c:139:     for (i=0, li = lines ; i<numlines ; i++,li++)
	.loc 1 139 11
	movl	$0, -40(%rbp)	#, i
# p_saveg.c:139:     for (i=0, li = lines ; i<numlines ; i++,li++)
	.loc 1 139 18
	movq	lines(%rip), %rax	# lines, tmp143
	movq	%rax, -24(%rbp)	# tmp143, li
# p_saveg.c:139:     for (i=0, li = lines ; i<numlines ; i++,li++)
	.loc 1 139 5
	jmp	.L22	#
.L27:
# p_saveg.c:141: 	*put++ = li->flags;
	.loc 1 141 6
	movq	-16(%rbp), %rax	# put, put.17_20
	leaq	2(%rax), %rdx	#, tmp144
	movq	%rdx, -16(%rbp)	# tmp144, put
# p_saveg.c:141: 	*put++ = li->flags;
	.loc 1 141 13
	movq	-24(%rbp), %rdx	# li, tmp145
	movzwl	24(%rdx), %edx	# li_50->flags, _21
# p_saveg.c:141: 	*put++ = li->flags;
	.loc 1 141 9
	movw	%dx, (%rax)	# _21, *put.17_20
# p_saveg.c:142: 	*put++ = li->special;
	.loc 1 142 6
	movq	-16(%rbp), %rax	# put, put.18_22
	leaq	2(%rax), %rdx	#, tmp146
	movq	%rdx, -16(%rbp)	# tmp146, put
# p_saveg.c:142: 	*put++ = li->special;
	.loc 1 142 13
	movq	-24(%rbp), %rdx	# li, tmp147
	movzwl	26(%rdx), %edx	# li_50->special, _23
# p_saveg.c:142: 	*put++ = li->special;
	.loc 1 142 9
	movw	%dx, (%rax)	# _23, *put.18_22
# p_saveg.c:143: 	*put++ = li->tag;
	.loc 1 143 6
	movq	-16(%rbp), %rax	# put, put.19_24
	leaq	2(%rax), %rdx	#, tmp148
	movq	%rdx, -16(%rbp)	# tmp148, put
# p_saveg.c:143: 	*put++ = li->tag;
	.loc 1 143 13
	movq	-24(%rbp), %rdx	# li, tmp149
	movzwl	28(%rdx), %edx	# li_50->tag, _25
# p_saveg.c:143: 	*put++ = li->tag;
	.loc 1 143 9
	movw	%dx, (%rax)	# _25, *put.19_24
# p_saveg.c:144: 	for (j=0 ; j<2 ; j++)
	.loc 1 144 8
	movl	$0, -36(%rbp)	#, j
# p_saveg.c:144: 	for (j=0 ; j<2 ; j++)
	.loc 1 144 2
	jmp	.L23	#
.L26:
# p_saveg.c:146: 	    if (li->sidenum[j] == -1)
	.loc 1 146 21
	movq	-24(%rbp), %rax	# li, tmp150
	movl	-36(%rbp), %edx	# j, tmp152
	movslq	%edx, %rdx	# tmp152, tmp151
	addq	$8, %rdx	#, tmp153
	movzwl	14(%rax,%rdx,2), %eax	# li_50->sidenum[j_48], _26
# p_saveg.c:146: 	    if (li->sidenum[j] == -1)
	.loc 1 146 9
	cmpw	$-1, %ax	#, _26
	je	.L28	#,
# p_saveg.c:149: 	    si = &sides[li->sidenum[j]];
	.loc 1 149 11
	movq	sides(%rip), %rcx	# sides, sides.20_27
# p_saveg.c:149: 	    si = &sides[li->sidenum[j]];
	.loc 1 149 29
	movq	-24(%rbp), %rax	# li, tmp154
	movl	-36(%rbp), %edx	# j, tmp156
	movslq	%edx, %rdx	# tmp156, tmp155
	addq	$8, %rdx	#, tmp157
	movzwl	14(%rax,%rdx,2), %eax	# li_50->sidenum[j_48], _28
	movswq	%ax, %rdx	# _28, _29
# p_saveg.c:149: 	    si = &sides[li->sidenum[j]];
	.loc 1 149 17
	movq	%rdx, %rax	# _29, tmp158
	addq	%rax, %rax	# tmp158
	addq	%rdx, %rax	# _29, tmp158
	salq	$3, %rax	#, tmp159
# p_saveg.c:149: 	    si = &sides[li->sidenum[j]];
	.loc 1 149 9
	addq	%rcx, %rax	# sides.20_27, tmp160
	movq	%rax, -8(%rbp)	# tmp160, si
# p_saveg.c:151: 	    *put++ = si->textureoffset >> FRACBITS;
	.loc 1 151 17
	movq	-8(%rbp), %rax	# si, tmp161
	movl	(%rax), %eax	# si_75->textureoffset, _31
# p_saveg.c:151: 	    *put++ = si->textureoffset >> FRACBITS;
	.loc 1 151 33
	sarl	$16, %eax	#, _31
	movl	%eax, %ecx	# _31, _32
# p_saveg.c:151: 	    *put++ = si->textureoffset >> FRACBITS;
	.loc 1 151 10
	movq	-16(%rbp), %rax	# put, put.21_33
	leaq	2(%rax), %rdx	#, tmp162
	movq	%rdx, -16(%rbp)	# tmp162, put
# p_saveg.c:151: 	    *put++ = si->textureoffset >> FRACBITS;
	.loc 1 151 13
	movl	%ecx, %edx	# _32, _34
	movw	%dx, (%rax)	# _34, *put.21_33
# p_saveg.c:152: 	    *put++ = si->rowoffset >> FRACBITS;
	.loc 1 152 17
	movq	-8(%rbp), %rax	# si, tmp163
	movl	4(%rax), %eax	# si_75->rowoffset, _35
# p_saveg.c:152: 	    *put++ = si->rowoffset >> FRACBITS;
	.loc 1 152 29
	sarl	$16, %eax	#, _35
	movl	%eax, %ecx	# _35, _36
# p_saveg.c:152: 	    *put++ = si->rowoffset >> FRACBITS;
	.loc 1 152 10
	movq	-16(%rbp), %rax	# put, put.22_37
	leaq	2(%rax), %rdx	#, tmp164
	movq	%rdx, -16(%rbp)	# tmp164, put
# p_saveg.c:152: 	    *put++ = si->rowoffset >> FRACBITS;
	.loc 1 152 13
	movl	%ecx, %edx	# _36, _38
	movw	%dx, (%rax)	# _38, *put.22_37
# p_saveg.c:153: 	    *put++ = si->toptexture;
	.loc 1 153 10
	movq	-16(%rbp), %rax	# put, put.23_39
	leaq	2(%rax), %rdx	#, tmp165
	movq	%rdx, -16(%rbp)	# tmp165, put
# p_saveg.c:153: 	    *put++ = si->toptexture;
	.loc 1 153 17
	movq	-8(%rbp), %rdx	# si, tmp166
	movzwl	8(%rdx), %edx	# si_75->toptexture, _40
# p_saveg.c:153: 	    *put++ = si->toptexture;
	.loc 1 153 13
	movw	%dx, (%rax)	# _40, *put.23_39
# p_saveg.c:154: 	    *put++ = si->bottomtexture;
	.loc 1 154 10
	movq	-16(%rbp), %rax	# put, put.24_41
	leaq	2(%rax), %rdx	#, tmp167
	movq	%rdx, -16(%rbp)	# tmp167, put
# p_saveg.c:154: 	    *put++ = si->bottomtexture;
	.loc 1 154 17
	movq	-8(%rbp), %rdx	# si, tmp168
	movzwl	10(%rdx), %edx	# si_75->bottomtexture, _42
# p_saveg.c:154: 	    *put++ = si->bottomtexture;
	.loc 1 154 13
	movw	%dx, (%rax)	# _42, *put.24_41
# p_saveg.c:155: 	    *put++ = si->midtexture;	
	.loc 1 155 10
	movq	-16(%rbp), %rax	# put, put.25_43
	leaq	2(%rax), %rdx	#, tmp169
	movq	%rdx, -16(%rbp)	# tmp169, put
# p_saveg.c:155: 	    *put++ = si->midtexture;	
	.loc 1 155 17
	movq	-8(%rbp), %rdx	# si, tmp170
	movzwl	12(%rdx), %edx	# si_75->midtexture, _44
# p_saveg.c:155: 	    *put++ = si->midtexture;	
	.loc 1 155 13
	movw	%dx, (%rax)	# _44, *put.25_43
	jmp	.L25	#
.L28:
# p_saveg.c:147: 		continue;
	.loc 1 147 3
	nop	
.L25:
# p_saveg.c:144: 	for (j=0 ; j<2 ; j++)
	.loc 1 144 20 discriminator 2
	addl	$1, -36(%rbp)	#, j
.L23:
# p_saveg.c:144: 	for (j=0 ; j<2 ; j++)
	.loc 1 144 14 discriminator 1
	cmpl	$1, -36(%rbp)	#, j
	jle	.L26	#,
# p_saveg.c:139:     for (i=0, li = lines ; i<numlines ; i++,li++)
	.loc 1 139 42 discriminator 2
	addl	$1, -40(%rbp)	#, i
# p_saveg.c:139:     for (i=0, li = lines ; i<numlines ; i++,li++)
	.loc 1 139 47 discriminator 2
	addq	$88, -24(%rbp)	#, li
.L22:
# p_saveg.c:139:     for (i=0, li = lines ; i<numlines ; i++,li++)
	.loc 1 139 29 discriminator 1
	movl	numlines(%rip), %eax	# numlines, numlines.26_45
	cmpl	%eax, -40(%rbp)	# numlines.26_45, i
	jl	.L27	#,
# p_saveg.c:159:     save_p = (byte *)put;
	.loc 1 159 12
	movq	-16(%rbp), %rax	# put, tmp171
	movq	%rax, save_p(%rip)	# tmp171, save_p
# p_saveg.c:160: }
	.loc 1 160 1
	nop	
	popq	%rbp	#
	.cfi_def_cfa 7, 8
	ret	
	.cfi_endproc
.LFE2:
	.size	P_ArchiveWorld, .-P_ArchiveWorld
	.globl	P_UnArchiveWorld
	.type	P_UnArchiveWorld, @function
P_UnArchiveWorld:
.LFB3:
	.loc 1 168 1
	.cfi_startproc
	endbr64	
	pushq	%rbp	#
	.cfi_def_cfa_offset 16
	.cfi_offset 6, -16
	movq	%rsp, %rbp	#,
	.cfi_def_cfa_register 6
# p_saveg.c:176:     get = (short *)save_p;
	.loc 1 176 9
	movq	save_p(%rip), %rax	# save_p, tmp127
	movq	%rax, -16(%rbp)	# tmp127, get
# p_saveg.c:179:     for (i=0, sec = sectors ; i<numsectors ; i++,sec++)
	.loc 1 179 11
	movl	$0, -40(%rbp)	#, i
# p_saveg.c:179:     for (i=0, sec = sectors ; i<numsectors ; i++,sec++)
	.loc 1 179 19
	movq	sectors(%rip), %rax	# sectors, tmp128
	movq	%rax, -32(%rbp)	# tmp128, sec
# p_saveg.c:179:     for (i=0, sec = sectors ; i<numsectors ; i++,sec++)
	.loc 1 179 5
	jmp	.L30	#
.L31:
# p_saveg.c:181: 	sec->floorheight = *get++ << FRACBITS;
	.loc 1 181 25
	movq	-16(%rbp), %rax	# get, get.27_1
	leaq	2(%rax), %rdx	#, tmp129
	movq	%rdx, -16(%rbp)	# tmp129, get
# p_saveg.c:181: 	sec->floorheight = *get++ << FRACBITS;
	.loc 1 181 21
	movzwl	(%rax), %eax	# *get.27_1, _2
	cwtl
# p_saveg.c:181: 	sec->floorheight = *get++ << FRACBITS;
	.loc 1 181 28
	sall	$16, %eax	#, _3
	movl	%eax, %edx	# _3, _4
# p_saveg.c:181: 	sec->floorheight = *get++ << FRACBITS;
	.loc 1 181 19
	movq	-32(%rbp), %rax	# sec, tmp130
	movl	%edx, (%rax)	# _4, sec_49->floorheight
# p_saveg.c:182: 	sec->ceilingheight = *get++ << FRACBITS;
	.loc 1 182 27
	movq	-16(%rbp), %rax	# get, get.28_5
	leaq	2(%rax), %rdx	#, tmp131
	movq	%rdx, -16(%rbp)	# tmp131, get
# p_saveg.c:182: 	sec->ceilingheight = *get++ << FRACBITS;
	.loc 1 182 23
	movzwl	(%rax), %eax	# *get.28_5, _6
	cwtl
# p_saveg.c:182: 	sec->ceilingheight = *get++ << FRACBITS;
	.loc 1 182 30
	sall	$16, %eax	#, _7
	movl	%eax, %edx	# _7, _8
# p_saveg.c:182: 	sec->ceilingheight = *get++ << FRACBITS;
	.loc 1 182 21
	movq	-32(%rbp), %rax	# sec, tmp132
	movl	%edx, 4(%rax)	# _8, sec_49->ceilingheight
# p_saveg.c:183: 	sec->floorpic = *get++;
	.loc 1 183 22
	movq	-16(%rbp), %rax	# get, get.29_9
	leaq	2(%rax), %rdx	#, tmp133
	movq	%rdx, -16(%rbp)	# tmp133, get
# p_saveg.c:183: 	sec->floorpic = *get++;
	.loc 1 183 18
	movzwl	(%rax), %edx	# *get.29_9, _10
# p_saveg.c:183: 	sec->floorpic = *get++;
	.loc 1 183 16
	movq	-32(%rbp), %rax	# sec, tmp134
	movw	%dx, 8(%rax)	# _10, sec_49->floorpic
# p_saveg.c:184: 	sec->ceilingpic = *get++;
	.loc 1 184 24
	movq	-16(%rbp), %rax	# get, get.30_11
	leaq	2(%rax), %rdx	#, tmp135
	movq	%rdx, -16(%rbp)	# tmp135, get
# p_saveg.c:184: 	sec->ceilingpic = *get++;
	.loc 1 184 20
	movzwl	(%rax), %edx	# *get.30_11, _12
# p_saveg.c:184: 	sec->ceilingpic = *get++;
	.loc 1 184 18
	movq	-32(%rbp), %rax	# sec, tmp136
	movw	%dx, 10(%rax)	# _12, sec_49->ceilingpic
# p_saveg.c:185: 	sec->lightlevel = *get++;
	.loc 1 185 24
	movq	-16(%rbp), %rax	# get, get.31_13
	leaq	2(%rax), %rdx	#, tmp137
	movq	%rdx, -16(%rbp)	# tmp137, get
# p_saveg.c:185: 	sec->lightlevel = *get++;
	.loc 1 185 20
	movzwl	(%rax), %edx	# *get.31_13, _14
# p_saveg.c:185: 	sec->lightlevel = *get++;
	.loc 1 185 18
	movq	-32(%rbp), %rax	# sec, tmp138
	movw	%dx, 12(%rax)	# _14, sec_49->lightlevel
# p_saveg.c:186: 	sec->special = *get++;		// needed?
	.loc 1 186 21
	movq	-16(%rbp), %rax	# get, get.32_15
	leaq	2(%rax), %rdx	#, tmp139
	movq	%rdx, -16(%rbp)	# tmp139, get
# p_saveg.c:186: 	sec->special = *get++;		// needed?
	.loc 1 186 17
	movzwl	(%rax), %edx	# *get.32_15, _16
# p_saveg.c:186: 	sec->special = *get++;		// needed?
	.loc 1 186 15
	movq	-32(%rbp), %rax	# sec, tmp140
	movw	%dx, 14(%rax)	# _16, sec_49->special
# p_saveg.c:187: 	sec->tag = *get++;		// needed?
	.loc 1 187 17
	movq	-16(%rbp), %rax	# get, get.33_17
	leaq	2(%rax), %rdx	#, tmp141
	movq	%rdx, -16(%rbp)	# tmp141, get
# p_saveg.c:187: 	sec->tag = *get++;		// needed?
	.loc 1 187 13
	movzwl	(%rax), %edx	# *get.33_17, _18
# p_saveg.c:187: 	sec->tag = *get++;		// needed?
	.loc 1 187 11
	movq	-32(%rbp), %rax	# sec, tmp142
	movw	%dx, 16(%rax)	# _18, sec_49->tag
# p_saveg.c:188: 	sec->specialdata = 0;
	.loc 1 188 19
	movq	-32(%rbp), %rax	# sec, tmp143
	movq	$0, 104(%rax)	#, sec_49->specialdata
# p_saveg.c:189: 	sec->soundtarget = 0;
	.loc 1 189 19
	movq	-32(%rbp), %rax	# sec, tmp144
	movq	$0, 24(%rax)	#, sec_49->soundtarget
# p_saveg.c:179:     for (i=0, sec = sectors ; i<numsectors ; i++,sec++)
	.loc 1 179 47 discriminator 3
	addl	$1, -40(%rbp)	#, i
# p_saveg.c:179:     for (i=0, sec = sectors ; i<numsectors ; i++,sec++)
	.loc 1 179 53 discriminator 3
	subq	$-128, -32(%rbp)	#, sec
.L30:
# p_saveg.c:179:     for (i=0, sec = sectors ; i<numsectors ; i++,sec++)
	.loc 1 179 32 discriminator 1
	movl	numsectors(%rip), %eax	# numsectors, numsectors.34_19
	cmpl	%eax, -40(%rbp)	# numsectors.34_19, i
	jl	.L31	#,
# p_saveg.c:193:     for (i=0, li = lines ; i<numlines ; i++,li++)
	.loc 1 193 11
	movl	$0, -40(%rbp)	#, i
# p_saveg.c:193:     for (i=0, li = lines ; i<numlines ; i++,li++)
	.loc 1 193 18
	movq	lines(%rip), %rax	# lines, tmp145
	movq	%rax, -24(%rbp)	# tmp145, li
# p_saveg.c:193:     for (i=0, li = lines ; i<numlines ; i++,li++)
	.loc 1 193 5
	jmp	.L32	#
.L37:
# p_saveg.c:195: 	li->flags = *get++;
	.loc 1 195 18
	movq	-16(%rbp), %rax	# get, get.35_20
	leaq	2(%rax), %rdx	#, tmp146
	movq	%rdx, -16(%rbp)	# tmp146, get
# p_saveg.c:195: 	li->flags = *get++;
	.loc 1 195 14
	movzwl	(%rax), %edx	# *get.35_20, _21
# p_saveg.c:195: 	li->flags = *get++;
	.loc 1 195 12
	movq	-24(%rbp), %rax	# li, tmp147
	movw	%dx, 24(%rax)	# _21, li_50->flags
# p_saveg.c:196: 	li->special = *get++;
	.loc 1 196 20
	movq	-16(%rbp), %rax	# get, get.36_22
	leaq	2(%rax), %rdx	#, tmp148
	movq	%rdx, -16(%rbp)	# tmp148, get
# p_saveg.c:196: 	li->special = *get++;
	.loc 1 196 16
	movzwl	(%rax), %edx	# *get.36_22, _23
# p_saveg.c:196: 	li->special = *get++;
	.loc 1 196 14
	movq	-24(%rbp), %rax	# li, tmp149
	movw	%dx, 26(%rax)	# _23, li_50->special
# p_saveg.c:197: 	li->tag = *get++;
	.loc 1 197 16
	movq	-16(%rbp), %rax	# get, get.37_24
	leaq	2(%rax), %rdx	#, tmp150
	movq	%rdx, -16(%rbp)	# tmp150, get
# p_saveg.c:197: 	li->tag = *get++;
	.loc 1 197 12
	movzwl	(%rax), %edx	# *get.37_24, _25
# p_saveg.c:197: 	li->tag = *get++;
	.loc 1 197 10
	movq	-24(%rbp), %rax	# li, tmp151
	movw	%dx, 28(%rax)	# _25, li_50->tag
# p_saveg.c:198: 	for (j=0 ; j<2 ; j++)
	.loc 1 198 8
	movl	$0, -36(%rbp)	#, j
# p_saveg.c:198: 	for (j=0 ; j<2 ; j++)
	.loc 1 198 2
	jmp	.L33	#
.L36:
# p_saveg.c:200: 	    if (li->sidenum[j] == -1)
	.loc 1 200 21
	movq	-24(%rbp), %rax	# li, tmp152
	movl	-36(%rbp), %edx	# j, tmp154
	movslq	%edx, %rdx	# tmp154, tmp153
	addq	$8, %rdx	#, tmp155
	movzwl	14(%rax,%rdx,2), %eax	# li_50->sidenum[j_48], _26
# p_saveg.c:200: 	    if (li->sidenum[j] == -1)
	.loc 1 200 9
	cmpw	$-1, %ax	#, _26
	je	.L38	#,
# p_saveg.c:202: 	    si = &sides[li->sidenum[j]];
	.loc 1 202 11
	movq	sides(%rip), %rcx	# sides, sides.38_27
# p_saveg.c:202: 	    si = &sides[li->sidenum[j]];
	.loc 1 202 29
	movq	-24(%rbp), %rax	# li, tmp156
	movl	-36(%rbp), %edx	# j, tmp158
	movslq	%edx, %rdx	# tmp158, tmp157
	addq	$8, %rdx	#, tmp159
	movzwl	14(%rax,%rdx,2), %eax	# li_50->sidenum[j_48], _28
	movswq	%ax, %rdx	# _28, _29
# p_saveg.c:202: 	    si = &sides[li->sidenum[j]];
	.loc 1 202 17
	movq	%rdx, %rax	# _29, tmp160
	addq	%rax, %rax	# tmp160
	addq	%rdx, %rax	# _29, tmp160
	salq	$3, %rax	#, tmp161
# p_saveg.c:202: 	    si = &sides[li->sidenum[j]];
	.loc 1 202 9
	addq	%rcx, %rax	# sides.38_27, tmp162
	movq	%rax, -8(%rbp)	# tmp162, si
# p_saveg.c:203: 	    si->textureoffset = *get++ << FRACBITS;
	.loc 1 203 30
	movq	-16(%rbp), %rax	# get, get.39_31
	leaq	2(%rax), %rdx	#, tmp163
	movq	%rdx, -16(%rbp)	# tmp163, get
# p_saveg.c:203: 	    si->textureoffset = *get++ << FRACBITS;
	.loc 1 203 26
	movzwl	(%rax), %eax	# *get.39_31, _32
	cwtl
# p_saveg.c:203: 	    si->textureoffset = *get++ << FRACBITS;
	.loc 1 203 33
	sall	$16, %eax	#, _33
	movl	%eax, %edx	# _33, _34
# p_saveg.c:203: 	    si->textureoffset = *get++ << FRACBITS;
	.loc 1 203 24
	movq	-8(%rbp), %rax	# si, tmp164
	movl	%edx, (%rax)	# _34, si_75->textureoffset
# p_saveg.c:204: 	    si->rowoffset = *get++ << FRACBITS;
	.loc 1 204 26
	movq	-16(%rbp), %rax	# get, get.40_35
	leaq	2(%rax), %rdx	#, tmp165
	movq	%rdx, -16(%rbp)	# tmp165, get
# p_saveg.c:204: 	    si->rowoffset = *get++ << FRACBITS;
	.loc 1 204 22
	movzwl	(%rax), %eax	# *get.40_35, _36
	cwtl
# p_saveg.c:204: 	    si->rowoffset = *get++ << FRACBITS;
	.loc 1 204 29
	sall	$16, %eax	#, _37
	movl	%eax, %edx	# _37, _38
# p_saveg.c:204: 	    si->rowoffset = *get++ << FRACBITS;
	.loc 1 204 20
	movq	-8(%rbp), %rax	# si, tmp166
	movl	%edx, 4(%rax)	# _38, si_75->rowoffset
# p_saveg.c:205: 	    si->toptexture = *get++;
	.loc 1 205 27
	movq	-16(%rbp), %rax	# get, get.41_39
	leaq	2(%rax), %rdx	#, tmp167
	movq	%rdx, -16(%rbp)	# tmp167, get
# p_saveg.c:205: 	    si->toptexture = *get++;
	.loc 1 205 23
	movzwl	(%rax), %edx	# *get.41_39, _40
# p_saveg.c:205: 	    si->toptexture = *get++;
	.loc 1 205 21
	movq	-8(%rbp), %rax	# si, tmp168
	movw	%dx, 8(%rax)	# _40, si_75->toptexture
# p_saveg.c:206: 	    si->bottomtexture = *get++;
	.loc 1 206 30
	movq	-16(%rbp), %rax	# get, get.42_41
	leaq	2(%rax), %rdx	#, tmp169
	movq	%rdx, -16(%rbp)	# tmp169, get
# p_saveg.c:206: 	    si->bottomtexture = *get++;
	.loc 1 206 26
	movzwl	(%rax), %edx	# *get.42_41, _42
# p_saveg.c:206: 	    si->bottomtexture = *get++;
	.loc 1 206 24
	movq	-8(%rbp), %rax	# si, tmp170
	movw	%dx, 10(%rax)	# _42, si_75->bottomtexture
# p_saveg.c:207: 	    si->midtexture = *get++;
	.loc 1 207 27
	movq	-16(%rbp), %rax	# get, get.43_43
	leaq	2(%rax), %rdx	#, tmp171
	movq	%rdx, -16(%rbp)	# tmp171, get
# p_saveg.c:207: 	    si->midtexture = *get++;
	.loc 1 207 23
	movzwl	(%rax), %edx	# *get.43_43, _44
# p_saveg.c:207: 	    si->midtexture = *get++;
	.loc 1 207 21
	movq	-8(%rbp), %rax	# si, tmp172
	movw	%dx, 12(%rax)	# _44, si_75->midtexture
	jmp	.L35	#
.L38:
# p_saveg.c:201: 		continue;
	.loc 1 201 3
	nop	
.L35:
# p_saveg.c:198: 	for (j=0 ; j<2 ; j++)
	.loc 1 198 20 discriminator 2
	addl	$1, -36(%rbp)	#, j
.L33:
# p_saveg.c:198: 	for (j=0 ; j<2 ; j++)
	.loc 1 198 14 discriminator 1
	cmpl	$1, -36(%rbp)	#, j
	jle	.L36	#,
# p_saveg.c:193:     for (i=0, li = lines ; i<numlines ; i++,li++)
	.loc 1 193 42 discriminator 2
	addl	$1, -40(%rbp)	#, i
# p_saveg.c:193:     for (i=0, li = lines ; i<numlines ; i++,li++)
	.loc 1 193 47 discriminator 2
	addq	$88, -24(%rbp)	#, li
.L32:
# p_saveg.c:193:     for (i=0, li = lines ; i<numlines ; i++,li++)
	.loc 1 193 29 discriminator 1
	movl	numlines(%rip), %eax	# numlines, numlines.44_45
	cmpl	%eax, -40(%rbp)	# numlines.44_45, i
	jl	.L37	#,
# p_saveg.c:210:     save_p = (byte *)get;	
	.loc 1 210 12
	movq	-16(%rbp), %rax	# get, tmp173
	movq	%rax, save_p(%rip)	# tmp173, save_p
# p_saveg.c:211: }
	.loc 1 211 1
	nop	
	popq	%rbp	#
	.cfi_def_cfa 7, 8
	ret	
	.cfi_endproc
.LFE3:
	.size	P_UnArchiveWorld, .-P_UnArchiveWorld
	.globl	P_ArchiveThinkers
	.type	P_ArchiveThinkers, @function
P_ArchiveThinkers:
.LFB4:
	.loc 1 233 1
	.cfi_startproc
	endbr64	
	pushq	%rbp	#
	.cfi_def_cfa_offset 16
	.cfi_offset 6, -16
	movq	%rsp, %rbp	#,
	.cfi_def_cfa_register 6
	subq	$16, %rsp	#,
# p_saveg.c:238:     for (th = thinkercap.next ; th != &thinkercap ; th=th->next)
	.loc 1 238 13
	movq	8+thinkercap(%rip), %rax	# thinkercap.next, tmp108
	movq	%rax, -16(%rbp)	# tmp108, th
# p_saveg.c:238:     for (th = thinkercap.next ; th != &thinkercap ; th=th->next)
	.loc 1 238 5
	jmp	.L40	#
.L43:
# p_saveg.c:240: 	if (th->function.acp1 == (actionf_p1)P_MobjThinker)
	.loc 1 240 18
	movq	-16(%rbp), %rax	# th, tmp109
	movq	16(%rax), %rax	# th_29->function.acp1, _1
# p_saveg.c:240: 	if (th->function.acp1 == (actionf_p1)P_MobjThinker)
	.loc 1 240 5
	movq	P_MobjThinker@GOTPCREL(%rip), %rdx	#, tmp111
	cmpq	%rdx, %rax	# tmp110, _1
	jne	.L41	#,
# p_saveg.c:242: 	    *save_p++ = tc_mobj;
	.loc 1 242 13
	movq	save_p(%rip), %rax	# save_p, save_p.45_2
	leaq	1(%rax), %rdx	#, _4
	movq	%rdx, save_p(%rip)	# _4, save_p
# p_saveg.c:242: 	    *save_p++ = tc_mobj;
	.loc 1 242 16
	movb	$1, (%rax)	#, *save_p.46_3
# p_saveg.c:243: 	    PADSAVEP();
	.loc 1 243 6
	movq	save_p(%rip), %rax	# save_p, save_p.47_5
	movq	save_p(%rip), %rdx	# save_p, save_p.48_6
	andl	$3, %edx	#, _9
	movl	$4, %ecx	#, tmp112
	subl	%edx, %ecx	# _9, _10
	movslq	%ecx, %rdx	# _10, _11
	andl	$3, %edx	#, _12
	addq	%rdx, %rax	# _12, _13
	movq	%rax, save_p(%rip)	# _13, save_p
# p_saveg.c:244: 	    mobj = (mobj_t *)save_p;
	.loc 1 244 11
	movq	save_p(%rip), %rax	# save_p, tmp113
	movq	%rax, -8(%rbp)	# tmp113, mobj
# p_saveg.c:245: 	    memcpy (mobj, th, sizeof(*mobj));
	.loc 1 245 6
	movq	-16(%rbp), %rcx	# th, tmp114
	movq	-8(%rbp), %rax	# mobj, tmp115
	movl	$224, %edx	#,
	movq	%rcx, %rsi	# tmp114,
	movq	%rax, %rdi	# tmp115,
	call	memcpy@PLT	#
# p_saveg.c:246: 	    save_p += sizeof(*mobj);
	.loc 1 246 13
	movq	save_p(%rip), %rax	# save_p, save_p.50_14
	addq	$224, %rax	#, _15
	movq	%rax, save_p(%rip)	# _15, save_p
# p_saveg.c:247: 	    mobj->state = (state_t *)(mobj->state - states);
	.loc 1 247 36
	movq	-8(%rbp), %rax	# mobj, tmp116
	movq	152(%rax), %rdx	# mobj_40->state, _16
# p_saveg.c:247: 	    mobj->state = (state_t *)(mobj->state - states);
	.loc 1 247 44
	leaq	states(%rip), %rax	#, tmp117
	subq	%rax, %rdx	# tmp117, _17
	sarq	$3, %rdx	#, tmp118
	movabsq	$7905747460161236407, %rax	#, tmp120
	imulq	%rdx, %rax	# tmp118, tmp119
# p_saveg.c:247: 	    mobj->state = (state_t *)(mobj->state - states);
	.loc 1 247 20
	movq	%rax, %rdx	# _18, _19
# p_saveg.c:247: 	    mobj->state = (state_t *)(mobj->state - states);
	.loc 1 247 18
	movq	-8(%rbp), %rax	# mobj, tmp121
	movq	%rdx, 152(%rax)	# _19, mobj_40->state
# p_saveg.c:249: 	    if (mobj->player)
	.loc 1 249 14
	movq	-8(%rbp), %rax	# mobj, tmp122
	movq	192(%rax), %rax	# mobj_40->player, _20
# p_saveg.c:249: 	    if (mobj->player)
	.loc 1 249 9
	testq	%rax, %rax	# _20
	je	.L44	#,
# p_saveg.c:250: 		mobj->player = (player_t *)((mobj->player-players) + 1);
	.loc 1 250 36
	movq	-8(%rbp), %rax	# mobj, tmp123
	movq	192(%rax), %rdx	# mobj_40->player, _21
# p_saveg.c:250: 		mobj->player = (player_t *)((mobj->player-players) + 1);
	.loc 1 250 44
	leaq	players(%rip), %rax	#, tmp124
	subq	%rax, %rdx	# tmp124, _22
	sarq	$6, %rdx	#, tmp125
	movabsq	$-3689348814741910323, %rax	#, tmp127
	imulq	%rdx, %rax	# tmp125, tmp126
# p_saveg.c:250: 		mobj->player = (player_t *)((mobj->player-players) + 1);
	.loc 1 250 54
	addq	$1, %rax	#, _24
# p_saveg.c:250: 		mobj->player = (player_t *)((mobj->player-players) + 1);
	.loc 1 250 18
	movq	%rax, %rdx	# _24, _25
# p_saveg.c:250: 		mobj->player = (player_t *)((mobj->player-players) + 1);
	.loc 1 250 16
	movq	-8(%rbp), %rax	# mobj, tmp128
	movq	%rdx, 192(%rax)	# _25, mobj_40->player
.L44:
# p_saveg.c:251: 	    continue;
	.loc 1 251 6
	nop	
.L41:
# p_saveg.c:238:     for (th = thinkercap.next ; th != &thinkercap ; th=th->next)
	.loc 1 238 55 discriminator 2
	movq	-16(%rbp), %rax	# th, tmp129
	movq	8(%rax), %rax	# th_29->next, tmp130
	movq	%rax, -16(%rbp)	# tmp130, th
.L40:
# p_saveg.c:238:     for (th = thinkercap.next ; th != &thinkercap ; th=th->next)
	.loc 1 238 36 discriminator 1
	leaq	thinkercap(%rip), %rax	#, tmp131
	cmpq	%rax, -16(%rbp)	# tmp131, th
	jne	.L43	#,
# p_saveg.c:258:     *save_p++ = tc_end;	
	.loc 1 258 12
	movq	save_p(%rip), %rax	# save_p, save_p.51_26
	leaq	1(%rax), %rdx	#, _28
	movq	%rdx, save_p(%rip)	# _28, save_p
# p_saveg.c:258:     *save_p++ = tc_end;	
	.loc 1 258 15
	movb	$0, (%rax)	#, *save_p.52_27
# p_saveg.c:259: }
	.loc 1 259 1
	nop	
	leave	
	.cfi_def_cfa 7, 8
	ret	
	.cfi_endproc
.LFE4:
	.size	P_ArchiveThinkers, .-P_ArchiveThinkers
	.section	.rodata
.LC0:
	.string	"Unknown tclass %i in savegame"
	.text
	.globl	P_UnArchiveThinkers
	.type	P_UnArchiveThinkers, @function
P_UnArchiveThinkers:
.LFB5:
	.loc 1 267 1
	.cfi_startproc
	endbr64	
	pushq	%rbp	#
	.cfi_def_cfa_offset 16
	.cfi_offset 6, -16
	movq	%rsp, %rbp	#,
	.cfi_def_cfa_register 6
	subq	$32, %rsp	#,
# p_saveg.c:274:     currentthinker = thinkercap.next;
	.loc 1 274 20
	movq	8+thinkercap(%rip), %rax	# thinkercap.next, tmp119
	movq	%rax, -24(%rbp)	# tmp119, currentthinker
# p_saveg.c:275:     while (currentthinker != &thinkercap)
	.loc 1 275 11
	jmp	.L46	#
.L49:
# p_saveg.c:277: 	next = currentthinker->next;
	.loc 1 277 7
	movq	-24(%rbp), %rax	# currentthinker, tmp120
	movq	8(%rax), %rax	# currentthinker_39->next, tmp121
	movq	%rax, -8(%rbp)	# tmp121, next
# p_saveg.c:279: 	if (currentthinker->function.acp1 == (actionf_p1)P_MobjThinker)
	.loc 1 279 30
	movq	-24(%rbp), %rax	# currentthinker, tmp122
	movq	16(%rax), %rax	# currentthinker_39->function.acp1, _1
# p_saveg.c:279: 	if (currentthinker->function.acp1 == (actionf_p1)P_MobjThinker)
	.loc 1 279 5
	movq	P_MobjThinker@GOTPCREL(%rip), %rdx	#, tmp124
	cmpq	%rdx, %rax	# tmp123, _1
	jne	.L47	#,
# p_saveg.c:280: 	    P_RemoveMobj ((mobj_t *)currentthinker);
	.loc 1 280 6
	movq	-24(%rbp), %rax	# currentthinker, tmp125
	movq	%rax, %rdi	# tmp125,
	call	P_RemoveMobj@PLT	#
	jmp	.L48	#
.L47:
# p_saveg.c:282: 	    Z_Free (currentthinker);
	.loc 1 282 6
	movq	-24(%rbp), %rax	# currentthinker, tmp126
	movq	%rax, %rdi	# tmp126,
	call	Z_Free@PLT	#
.L48:
# p_saveg.c:284: 	currentthinker = next;
	.loc 1 284 17
	movq	-8(%rbp), %rax	# next, tmp127
	movq	%rax, -24(%rbp)	# tmp127, currentthinker
.L46:
# p_saveg.c:275:     while (currentthinker != &thinkercap)
	.loc 1 275 27
	leaq	thinkercap(%rip), %rax	#, tmp128
	cmpq	%rax, -24(%rbp)	# tmp128, currentthinker
	jne	.L49	#,
# p_saveg.c:286:     P_InitThinkers ();
	.loc 1 286 5
	call	P_InitThinkers@PLT	#
.L56:
# p_saveg.c:291: 	tclass = *save_p++;
	.loc 1 291 18
	movq	save_p(%rip), %rax	# save_p, save_p.53_2
	leaq	1(%rax), %rdx	#, _4
	movq	%rdx, save_p(%rip)	# _4, save_p
# p_saveg.c:291: 	tclass = *save_p++;
	.loc 1 291 9
	movzbl	(%rax), %eax	# *save_p.54_3, tmp129
	movb	%al, -25(%rbp)	# tmp129, tclass
# p_saveg.c:292: 	switch (tclass)
	.loc 1 292 2
	movzbl	-25(%rbp), %eax	# tclass, _5
	testl	%eax, %eax	# _5
	je	.L58	#,
	cmpl	$1, %eax	#, _5
	jne	.L57	#,
# p_saveg.c:298: 	    PADSAVEP();
	.loc 1 298 6
	movq	save_p(%rip), %rax	# save_p, save_p.55_6
	movq	save_p(%rip), %rdx	# save_p, save_p.56_7
	andl	$3, %edx	#, _10
	movl	$4, %ecx	#, tmp130
	subl	%edx, %ecx	# _10, _11
	movslq	%ecx, %rdx	# _11, _12
	andl	$3, %edx	#, _13
	addq	%rdx, %rax	# _13, _14
	movq	%rax, save_p(%rip)	# _14, save_p
# p_saveg.c:299: 	    mobj = Z_Malloc (sizeof(*mobj), PU_LEVEL, NULL);
	.loc 1 299 13
	movl	$0, %edx	#,
	movl	$50, %esi	#,
	movl	$224, %edi	#,
	call	Z_Malloc@PLT	#
	movq	%rax, -16(%rbp)	# tmp131, mobj
# p_saveg.c:300: 	    memcpy (mobj, save_p, sizeof(*mobj));
	.loc 1 300 6
	movq	save_p(%rip), %rcx	# save_p, save_p.58_15
	movq	-16(%rbp), %rax	# mobj, tmp132
	movl	$224, %edx	#,
	movq	%rcx, %rsi	# save_p.58_15,
	movq	%rax, %rdi	# tmp132,
	call	memcpy@PLT	#
# p_saveg.c:301: 	    save_p += sizeof(*mobj);
	.loc 1 301 13
	movq	save_p(%rip), %rax	# save_p, save_p.59_16
	addq	$224, %rax	#, _17
	movq	%rax, save_p(%rip)	# _17, save_p
# p_saveg.c:302: 	    mobj->state = &states[(int)mobj->state];
	.loc 1 302 37
	movq	-16(%rbp), %rax	# mobj, tmp133
	movq	152(%rax), %rax	# mobj_52->state, _18
# p_saveg.c:302: 	    mobj->state = &states[(int)mobj->state];
	.loc 1 302 20
	movslq	%eax, %rdx	# _20, tmp134
	movq	%rdx, %rax	# tmp134, tmp135
	salq	$3, %rax	#, tmp136
	subq	%rdx, %rax	# tmp134, tmp135
	salq	$3, %rax	#, tmp137
	leaq	states(%rip), %rdx	#, tmp138
	addq	%rax, %rdx	# tmp135, _21
# p_saveg.c:302: 	    mobj->state = &states[(int)mobj->state];
	.loc 1 302 18
	movq	-16(%rbp), %rax	# mobj, tmp139
	movq	%rdx, 152(%rax)	# _21, mobj_52->state
# p_saveg.c:303: 	    mobj->target = NULL;
	.loc 1 303 19
	movq	-16(%rbp), %rax	# mobj, tmp140
	movq	$0, 176(%rax)	#, mobj_52->target
# p_saveg.c:304: 	    if (mobj->player)
	.loc 1 304 14
	movq	-16(%rbp), %rax	# mobj, tmp141
	movq	192(%rax), %rax	# mobj_52->player, _22
# p_saveg.c:304: 	    if (mobj->player)
	.loc 1 304 9
	testq	%rax, %rax	# _22
	je	.L54	#,
# p_saveg.c:306: 		mobj->player = &players[(int)mobj->player-1];
	.loc 1 306 36
	movq	-16(%rbp), %rax	# mobj, tmp142
	movq	192(%rax), %rax	# mobj_52->player, _23
# p_saveg.c:306: 		mobj->player = &players[(int)mobj->player-1];
	.loc 1 306 44
	subl	$1, %eax	#, _26
# p_saveg.c:306: 		mobj->player = &players[(int)mobj->player-1];
	.loc 1 306 18
	movslq	%eax, %rdx	# _26, tmp143
	movq	%rdx, %rax	# tmp143, tmp144
	salq	$2, %rax	#, tmp144
	addq	%rdx, %rax	# tmp143, tmp144
	salq	$6, %rax	#, tmp145
	leaq	players(%rip), %rdx	#, tmp146
	addq	%rax, %rdx	# tmp144, _27
# p_saveg.c:306: 		mobj->player = &players[(int)mobj->player-1];
	.loc 1 306 16
	movq	-16(%rbp), %rax	# mobj, tmp147
	movq	%rdx, 192(%rax)	# _27, mobj_52->player
# p_saveg.c:307: 		mobj->player->mo = mobj;
	.loc 1 307 7
	movq	-16(%rbp), %rax	# mobj, tmp148
	movq	192(%rax), %rax	# mobj_52->player, _28
# p_saveg.c:307: 		mobj->player->mo = mobj;
	.loc 1 307 20
	movq	-16(%rbp), %rdx	# mobj, tmp149
	movq	%rdx, (%rax)	# tmp149, _28->mo
.L54:
# p_saveg.c:309: 	    P_SetThingPosition (mobj);
	.loc 1 309 6
	movq	-16(%rbp), %rax	# mobj, tmp150
	movq	%rax, %rdi	# tmp150,
	call	P_SetThingPosition@PLT	#
# p_saveg.c:310: 	    mobj->info = &mobjinfo[mobj->type];
	.loc 1 310 33
	movq	-16(%rbp), %rax	# mobj, tmp151
	movl	128(%rax), %eax	# mobj_52->type, _29
# p_saveg.c:310: 	    mobj->info = &mobjinfo[mobj->type];
	.loc 1 310 19
	movl	%eax, %eax	# _29, tmp152
	imulq	$92, %rax, %rax	#, tmp152, tmp153
	leaq	mobjinfo(%rip), %rdx	#, tmp154
	addq	%rax, %rdx	# tmp153, _30
# p_saveg.c:310: 	    mobj->info = &mobjinfo[mobj->type];
	.loc 1 310 17
	movq	-16(%rbp), %rax	# mobj, tmp155
	movq	%rdx, 136(%rax)	# _30, mobj_52->info
# p_saveg.c:311: 	    mobj->floorz = mobj->subsector->sector->floorheight;
	.loc 1 311 25
	movq	-16(%rbp), %rax	# mobj, tmp156
	movq	88(%rax), %rax	# mobj_52->subsector, _31
# p_saveg.c:311: 	    mobj->floorz = mobj->subsector->sector->floorheight;
	.loc 1 311 36
	movq	(%rax), %rax	# _31->sector, _32
# p_saveg.c:311: 	    mobj->floorz = mobj->subsector->sector->floorheight;
	.loc 1 311 44
	movl	(%rax), %edx	# _32->floorheight, _33
# p_saveg.c:311: 	    mobj->floorz = mobj->subsector->sector->floorheight;
	.loc 1 311 19
	movq	-16(%rbp), %rax	# mobj, tmp157
	movl	%edx, 96(%rax)	# _33, mobj_52->floorz
# p_saveg.c:312: 	    mobj->ceilingz = mobj->subsector->sector->ceilingheight;
	.loc 1 312 27
	movq	-16(%rbp), %rax	# mobj, tmp158
	movq	88(%rax), %rax	# mobj_52->subsector, _34
# p_saveg.c:312: 	    mobj->ceilingz = mobj->subsector->sector->ceilingheight;
	.loc 1 312 38
	movq	(%rax), %rax	# _34->sector, _35
# p_saveg.c:312: 	    mobj->ceilingz = mobj->subsector->sector->ceilingheight;
	.loc 1 312 46
	movl	4(%rax), %edx	# _35->ceilingheight, _36
# p_saveg.c:312: 	    mobj->ceilingz = mobj->subsector->sector->ceilingheight;
	.loc 1 312 21
	movq	-16(%rbp), %rax	# mobj, tmp159
	movl	%edx, 100(%rax)	# _36, mobj_52->ceilingz
# p_saveg.c:313: 	    mobj->thinker.function.acp1 = (actionf_p1)P_MobjThinker;
	.loc 1 313 34
	movq	-16(%rbp), %rax	# mobj, tmp160
	movq	P_MobjThinker@GOTPCREL(%rip), %rdx	#, tmp162
	movq	%rdx, 16(%rax)	# tmp161, mobj_52->thinker.function.acp1
# p_saveg.c:314: 	    P_AddThinker (&mobj->thinker);
	.loc 1 314 6
	movq	-16(%rbp), %rax	# mobj, _37
	movq	%rax, %rdi	# _37,
	call	P_AddThinker@PLT	#
# p_saveg.c:315: 	    break;
	.loc 1 315 6
	jmp	.L55	#
.L57:
# p_saveg.c:318: 	    I_Error ("Unknown tclass %i in savegame",tclass);
	.loc 1 318 6
	movzbl	-25(%rbp), %eax	# tclass, _38
	movl	%eax, %esi	# _38,
	leaq	.LC0(%rip), %rax	#, tmp163
	movq	%rax, %rdi	# tmp163,
	movl	$0, %eax	#,
	call	I_Error@PLT	#
.L55:
# p_saveg.c:291: 	tclass = *save_p++;
	.loc 1 291 9
	jmp	.L56	#
.L58:
# p_saveg.c:295: 	    return; 	// end of list
	.loc 1 295 6
	nop	
# p_saveg.c:323: }
	.loc 1 323 1
	leave	
	.cfi_def_cfa 7, 8
	ret	
	.cfi_endproc
.LFE5:
	.size	P_UnArchiveThinkers, .-P_UnArchiveThinkers
	.globl	specials_e
	.bss
	.align 4
	.type	specials_e, @object
	.size	specials_e, 4
specials_e:
	.zero	4
	.text
	.globl	P_ArchiveSpecials
	.type	P_ArchiveSpecials, @function
P_ArchiveSpecials:
.LFB6:
	.loc 1 356 1
	.cfi_startproc
	endbr64	
	pushq	%rbp	#
	.cfi_def_cfa_offset 16
	.cfi_offset 6, -16
	movq	%rsp, %rbp	#,
	.cfi_def_cfa_register 6
	subq	$80, %rsp	#,
# p_saveg.c:368:     for (th = thinkercap.next ; th != &thinkercap ; th=th->next)
	.loc 1 368 13
	movq	8+thinkercap(%rip), %rax	# thinkercap.next, tmp237
	movq	%rax, -64(%rbp)	# tmp237, th
# p_saveg.c:368:     for (th = thinkercap.next ; th != &thinkercap ; th=th->next)
	.loc 1 368 5
	jmp	.L60	#
.L74:
# p_saveg.c:370: 	if (th->function.acv == (actionf_v)NULL)
	.loc 1 370 18
	movq	-64(%rbp), %rax	# th, tmp238
	movq	16(%rax), %rax	# th_165->function.acv, _1
# p_saveg.c:370: 	if (th->function.acv == (actionf_v)NULL)
	.loc 1 370 5
	testq	%rax, %rax	# _1
	jne	.L61	#,
# p_saveg.c:372: 	    for (i = 0; i < MAXCEILINGS;i++)
	.loc 1 372 13
	movl	$0, -68(%rbp)	#, i
# p_saveg.c:372: 	    for (i = 0; i < MAXCEILINGS;i++)
	.loc 1 372 6
	jmp	.L62	#
.L65:
# p_saveg.c:373: 		if (activeceilings[i] == (ceiling_t *)th)
	.loc 1 373 21
	movl	-68(%rbp), %eax	# i, tmp240
	cltq
	leaq	0(,%rax,8), %rdx	#, tmp241
	leaq	activeceilings(%rip), %rax	#, tmp242
	movq	(%rdx,%rax), %rax	# activeceilings[i_166], _2
# p_saveg.c:373: 		if (activeceilings[i] == (ceiling_t *)th)
	.loc 1 373 6
	cmpq	%rax, -64(%rbp)	# _2, th
	je	.L75	#,
# p_saveg.c:372: 	    for (i = 0; i < MAXCEILINGS;i++)
	.loc 1 372 35 discriminator 2
	addl	$1, -68(%rbp)	#, i
.L62:
# p_saveg.c:372: 	    for (i = 0; i < MAXCEILINGS;i++)
	.loc 1 372 20 discriminator 1
	cmpl	$29, -68(%rbp)	#, i
	jle	.L65	#,
	jmp	.L64	#
.L75:
# p_saveg.c:374: 		    break;
	.loc 1 374 7
	nop	
.L64:
# p_saveg.c:376: 	    if (i<MAXCEILINGS)
	.loc 1 376 9
	cmpl	$29, -68(%rbp)	#, i
	jg	.L76	#,
# p_saveg.c:378: 		*save_p++ = tc_ceiling;
	.loc 1 378 10
	movq	save_p(%rip), %rax	# save_p, save_p.60_3
	leaq	1(%rax), %rdx	#, _5
	movq	%rdx, save_p(%rip)	# _5, save_p
# p_saveg.c:378: 		*save_p++ = tc_ceiling;
	.loc 1 378 13
	movb	$0, (%rax)	#, *save_p.61_4
# p_saveg.c:379: 		PADSAVEP();
	.loc 1 379 3
	movq	save_p(%rip), %rax	# save_p, save_p.62_6
	movq	save_p(%rip), %rdx	# save_p, save_p.63_7
	andl	$3, %edx	#, _10
	movl	$4, %ecx	#, tmp243
	subl	%edx, %ecx	# _10, _11
	movslq	%ecx, %rdx	# _11, _12
	andl	$3, %edx	#, _13
	addq	%rdx, %rax	# _13, _14
	movq	%rax, save_p(%rip)	# _14, save_p
# p_saveg.c:380: 		ceiling = (ceiling_t *)save_p;
	.loc 1 380 11
	movq	save_p(%rip), %rax	# save_p, tmp244
	movq	%rax, -8(%rbp)	# tmp244, ceiling
# p_saveg.c:381: 		memcpy (ceiling, th, sizeof(*ceiling));
	.loc 1 381 3
	movq	-64(%rbp), %rcx	# th, tmp245
	movq	-8(%rbp), %rax	# ceiling, tmp246
	movl	$72, %edx	#,
	movq	%rcx, %rsi	# tmp245,
	movq	%rax, %rdi	# tmp246,
	call	memcpy@PLT	#
# p_saveg.c:382: 		save_p += sizeof(*ceiling);
	.loc 1 382 10
	movq	save_p(%rip), %rax	# save_p, save_p.65_15
	addq	$72, %rax	#, _16
	movq	%rax, save_p(%rip)	# _16, save_p
# p_saveg.c:383: 		ceiling->sector = (sector_t *)(ceiling->sector - sectors);
	.loc 1 383 41
	movq	-8(%rbp), %rax	# ceiling, tmp247
	movq	32(%rax), %rdx	# ceiling_228->sector, _17
# p_saveg.c:383: 		ceiling->sector = (sector_t *)(ceiling->sector - sectors);
	.loc 1 383 50
	movq	sectors(%rip), %rax	# sectors, sectors.66_18
	subq	%rax, %rdx	# sectors.66_18, _19
	movq	%rdx, %rax	# _19, _19
	sarq	$7, %rax	#, _19
# p_saveg.c:383: 		ceiling->sector = (sector_t *)(ceiling->sector - sectors);
	.loc 1 383 21
	movq	%rax, %rdx	# _20, _21
# p_saveg.c:383: 		ceiling->sector = (sector_t *)(ceiling->sector - sectors);
	.loc 1 383 19
	movq	-8(%rbp), %rax	# ceiling, tmp249
	movq	%rdx, 32(%rax)	# _21, ceiling_228->sector
# p_saveg.c:385: 	    continue;
	.loc 1 385 6
	jmp	.L76	#
.L61:
# p_saveg.c:388: 	if (th->function.acp1 == (actionf_p1)T_MoveCeiling)
	.loc 1 388 18
	movq	-64(%rbp), %rax	# th, tmp250
	movq	16(%rax), %rax	# th_165->function.acp1, _22
# p_saveg.c:388: 	if (th->function.acp1 == (actionf_p1)T_MoveCeiling)
	.loc 1 388 5
	movq	T_MoveCeiling@GOTPCREL(%rip), %rdx	#, tmp252
	cmpq	%rdx, %rax	# tmp251, _22
	jne	.L68	#,
# p_saveg.c:390: 	    *save_p++ = tc_ceiling;
	.loc 1 390 13
	movq	save_p(%rip), %rax	# save_p, save_p.67_23
	leaq	1(%rax), %rdx	#, _25
	movq	%rdx, save_p(%rip)	# _25, save_p
# p_saveg.c:390: 	    *save_p++ = tc_ceiling;
	.loc 1 390 16
	movb	$0, (%rax)	#, *save_p.68_24
# p_saveg.c:391: 	    PADSAVEP();
	.loc 1 391 6
	movq	save_p(%rip), %rax	# save_p, save_p.69_26
	movq	save_p(%rip), %rdx	# save_p, save_p.70_27
	andl	$3, %edx	#, _30
	movl	$4, %ecx	#, tmp253
	subl	%edx, %ecx	# _30, _31
	movslq	%ecx, %rdx	# _31, _32
	andl	$3, %edx	#, _33
	addq	%rdx, %rax	# _33, _34
	movq	%rax, save_p(%rip)	# _34, save_p
# p_saveg.c:392: 	    ceiling = (ceiling_t *)save_p;
	.loc 1 392 14
	movq	save_p(%rip), %rax	# save_p, tmp254
	movq	%rax, -8(%rbp)	# tmp254, ceiling
# p_saveg.c:393: 	    memcpy (ceiling, th, sizeof(*ceiling));
	.loc 1 393 6
	movq	-64(%rbp), %rcx	# th, tmp255
	movq	-8(%rbp), %rax	# ceiling, tmp256
	movl	$72, %edx	#,
	movq	%rcx, %rsi	# tmp255,
	movq	%rax, %rdi	# tmp256,
	call	memcpy@PLT	#
# p_saveg.c:394: 	    save_p += sizeof(*ceiling);
	.loc 1 394 13
	movq	save_p(%rip), %rax	# save_p, save_p.72_35
	addq	$72, %rax	#, _36
	movq	%rax, save_p(%rip)	# _36, save_p
# p_saveg.c:395: 	    ceiling->sector = (sector_t *)(ceiling->sector - sectors);
	.loc 1 395 44
	movq	-8(%rbp), %rax	# ceiling, tmp257
	movq	32(%rax), %rdx	# ceiling_219->sector, _37
# p_saveg.c:395: 	    ceiling->sector = (sector_t *)(ceiling->sector - sectors);
	.loc 1 395 53
	movq	sectors(%rip), %rax	# sectors, sectors.73_38
	subq	%rax, %rdx	# sectors.73_38, _39
	movq	%rdx, %rax	# _39, _39
	sarq	$7, %rax	#, _39
# p_saveg.c:395: 	    ceiling->sector = (sector_t *)(ceiling->sector - sectors);
	.loc 1 395 24
	movq	%rax, %rdx	# _40, _41
# p_saveg.c:395: 	    ceiling->sector = (sector_t *)(ceiling->sector - sectors);
	.loc 1 395 22
	movq	-8(%rbp), %rax	# ceiling, tmp259
	movq	%rdx, 32(%rax)	# _41, ceiling_219->sector
# p_saveg.c:396: 	    continue;
	.loc 1 396 6
	jmp	.L67	#
.L68:
# p_saveg.c:399: 	if (th->function.acp1 == (actionf_p1)T_VerticalDoor)
	.loc 1 399 18
	movq	-64(%rbp), %rax	# th, tmp260
	movq	16(%rax), %rax	# th_165->function.acp1, _42
# p_saveg.c:399: 	if (th->function.acp1 == (actionf_p1)T_VerticalDoor)
	.loc 1 399 5
	movq	T_VerticalDoor@GOTPCREL(%rip), %rdx	#, tmp262
	cmpq	%rdx, %rax	# tmp261, _42
	jne	.L69	#,
# p_saveg.c:401: 	    *save_p++ = tc_door;
	.loc 1 401 13
	movq	save_p(%rip), %rax	# save_p, save_p.74_43
	leaq	1(%rax), %rdx	#, _45
	movq	%rdx, save_p(%rip)	# _45, save_p
# p_saveg.c:401: 	    *save_p++ = tc_door;
	.loc 1 401 16
	movb	$1, (%rax)	#, *save_p.75_44
# p_saveg.c:402: 	    PADSAVEP();
	.loc 1 402 6
	movq	save_p(%rip), %rax	# save_p, save_p.76_46
	movq	save_p(%rip), %rdx	# save_p, save_p.77_47
	andl	$3, %edx	#, _50
	movl	$4, %ecx	#, tmp263
	subl	%edx, %ecx	# _50, _51
	movslq	%ecx, %rdx	# _51, _52
	andl	$3, %edx	#, _53
	addq	%rdx, %rax	# _53, _54
	movq	%rax, save_p(%rip)	# _54, save_p
# p_saveg.c:403: 	    door = (vldoor_t *)save_p;
	.loc 1 403 11
	movq	save_p(%rip), %rax	# save_p, tmp264
	movq	%rax, -16(%rbp)	# tmp264, door
# p_saveg.c:404: 	    memcpy (door, th, sizeof(*door));
	.loc 1 404 6
	movq	-64(%rbp), %rcx	# th, tmp265
	movq	-16(%rbp), %rax	# door, tmp266
	movl	$64, %edx	#,
	movq	%rcx, %rsi	# tmp265,
	movq	%rax, %rdi	# tmp266,
	call	memcpy@PLT	#
# p_saveg.c:405: 	    save_p += sizeof(*door);
	.loc 1 405 13
	movq	save_p(%rip), %rax	# save_p, save_p.79_55
	addq	$64, %rax	#, _56
	movq	%rax, save_p(%rip)	# _56, save_p
# p_saveg.c:406: 	    door->sector = (sector_t *)(door->sector - sectors);
	.loc 1 406 38
	movq	-16(%rbp), %rax	# door, tmp267
	movq	32(%rax), %rdx	# door_212->sector, _57
# p_saveg.c:406: 	    door->sector = (sector_t *)(door->sector - sectors);
	.loc 1 406 47
	movq	sectors(%rip), %rax	# sectors, sectors.80_58
	subq	%rax, %rdx	# sectors.80_58, _59
	movq	%rdx, %rax	# _59, _59
	sarq	$7, %rax	#, _59
# p_saveg.c:406: 	    door->sector = (sector_t *)(door->sector - sectors);
	.loc 1 406 21
	movq	%rax, %rdx	# _60, _61
# p_saveg.c:406: 	    door->sector = (sector_t *)(door->sector - sectors);
	.loc 1 406 19
	movq	-16(%rbp), %rax	# door, tmp269
	movq	%rdx, 32(%rax)	# _61, door_212->sector
# p_saveg.c:407: 	    continue;
	.loc 1 407 6
	jmp	.L67	#
.L69:
# p_saveg.c:410: 	if (th->function.acp1 == (actionf_p1)T_MoveFloor)
	.loc 1 410 18
	movq	-64(%rbp), %rax	# th, tmp270
	movq	16(%rax), %rax	# th_165->function.acp1, _62
# p_saveg.c:410: 	if (th->function.acp1 == (actionf_p1)T_MoveFloor)
	.loc 1 410 5
	movq	T_MoveFloor@GOTPCREL(%rip), %rdx	#, tmp272
	cmpq	%rdx, %rax	# tmp271, _62
	jne	.L70	#,
# p_saveg.c:412: 	    *save_p++ = tc_floor;
	.loc 1 412 13
	movq	save_p(%rip), %rax	# save_p, save_p.81_63
	leaq	1(%rax), %rdx	#, _65
	movq	%rdx, save_p(%rip)	# _65, save_p
# p_saveg.c:412: 	    *save_p++ = tc_floor;
	.loc 1 412 16
	movb	$2, (%rax)	#, *save_p.82_64
# p_saveg.c:413: 	    PADSAVEP();
	.loc 1 413 6
	movq	save_p(%rip), %rax	# save_p, save_p.83_66
	movq	save_p(%rip), %rdx	# save_p, save_p.84_67
	andl	$3, %edx	#, _70
	movl	$4, %ecx	#, tmp273
	subl	%edx, %ecx	# _70, _71
	movslq	%ecx, %rdx	# _71, _72
	andl	$3, %edx	#, _73
	addq	%rdx, %rax	# _73, _74
	movq	%rax, save_p(%rip)	# _74, save_p
# p_saveg.c:414: 	    floor = (floormove_t *)save_p;
	.loc 1 414 12
	movq	save_p(%rip), %rax	# save_p, tmp274
	movq	%rax, -24(%rbp)	# tmp274, floor
# p_saveg.c:415: 	    memcpy (floor, th, sizeof(*floor));
	.loc 1 415 6
	movq	-64(%rbp), %rcx	# th, tmp275
	movq	-24(%rbp), %rax	# floor, tmp276
	movl	$64, %edx	#,
	movq	%rcx, %rsi	# tmp275,
	movq	%rax, %rdi	# tmp276,
	call	memcpy@PLT	#
# p_saveg.c:416: 	    save_p += sizeof(*floor);
	.loc 1 416 13
	movq	save_p(%rip), %rax	# save_p, save_p.86_75
	addq	$64, %rax	#, _76
	movq	%rax, save_p(%rip)	# _76, save_p
# p_saveg.c:417: 	    floor->sector = (sector_t *)(floor->sector - sectors);
	.loc 1 417 40
	movq	-24(%rbp), %rax	# floor, tmp277
	movq	32(%rax), %rdx	# floor_205->sector, _77
# p_saveg.c:417: 	    floor->sector = (sector_t *)(floor->sector - sectors);
	.loc 1 417 49
	movq	sectors(%rip), %rax	# sectors, sectors.87_78
	subq	%rax, %rdx	# sectors.87_78, _79
	movq	%rdx, %rax	# _79, _79
	sarq	$7, %rax	#, _79
# p_saveg.c:417: 	    floor->sector = (sector_t *)(floor->sector - sectors);
	.loc 1 417 22
	movq	%rax, %rdx	# _80, _81
# p_saveg.c:417: 	    floor->sector = (sector_t *)(floor->sector - sectors);
	.loc 1 417 20
	movq	-24(%rbp), %rax	# floor, tmp279
	movq	%rdx, 32(%rax)	# _81, floor_205->sector
# p_saveg.c:418: 	    continue;
	.loc 1 418 6
	jmp	.L67	#
.L70:
# p_saveg.c:421: 	if (th->function.acp1 == (actionf_p1)T_PlatRaise)
	.loc 1 421 18
	movq	-64(%rbp), %rax	# th, tmp280
	movq	16(%rax), %rax	# th_165->function.acp1, _82
# p_saveg.c:421: 	if (th->function.acp1 == (actionf_p1)T_PlatRaise)
	.loc 1 421 5
	movq	T_PlatRaise@GOTPCREL(%rip), %rdx	#, tmp282
	cmpq	%rdx, %rax	# tmp281, _82
	jne	.L71	#,
# p_saveg.c:423: 	    *save_p++ = tc_plat;
	.loc 1 423 13
	movq	save_p(%rip), %rax	# save_p, save_p.88_83
	leaq	1(%rax), %rdx	#, _85
	movq	%rdx, save_p(%rip)	# _85, save_p
# p_saveg.c:423: 	    *save_p++ = tc_plat;
	.loc 1 423 16
	movb	$3, (%rax)	#, *save_p.89_84
# p_saveg.c:424: 	    PADSAVEP();
	.loc 1 424 6
	movq	save_p(%rip), %rax	# save_p, save_p.90_86
	movq	save_p(%rip), %rdx	# save_p, save_p.91_87
	andl	$3, %edx	#, _90
	movl	$4, %ecx	#, tmp283
	subl	%edx, %ecx	# _90, _91
	movslq	%ecx, %rdx	# _91, _92
	andl	$3, %edx	#, _93
	addq	%rdx, %rax	# _93, _94
	movq	%rax, save_p(%rip)	# _94, save_p
# p_saveg.c:425: 	    plat = (plat_t *)save_p;
	.loc 1 425 11
	movq	save_p(%rip), %rax	# save_p, tmp284
	movq	%rax, -32(%rbp)	# tmp284, plat
# p_saveg.c:426: 	    memcpy (plat, th, sizeof(*plat));
	.loc 1 426 6
	movq	-64(%rbp), %rcx	# th, tmp285
	movq	-32(%rbp), %rax	# plat, tmp286
	movl	$72, %edx	#,
	movq	%rcx, %rsi	# tmp285,
	movq	%rax, %rdi	# tmp286,
	call	memcpy@PLT	#
# p_saveg.c:427: 	    save_p += sizeof(*plat);
	.loc 1 427 13
	movq	save_p(%rip), %rax	# save_p, save_p.93_95
	addq	$72, %rax	#, _96
	movq	%rax, save_p(%rip)	# _96, save_p
# p_saveg.c:428: 	    plat->sector = (sector_t *)(plat->sector - sectors);
	.loc 1 428 38
	movq	-32(%rbp), %rax	# plat, tmp287
	movq	24(%rax), %rdx	# plat_198->sector, _97
# p_saveg.c:428: 	    plat->sector = (sector_t *)(plat->sector - sectors);
	.loc 1 428 47
	movq	sectors(%rip), %rax	# sectors, sectors.94_98
	subq	%rax, %rdx	# sectors.94_98, _99
	movq	%rdx, %rax	# _99, _99
	sarq	$7, %rax	#, _99
# p_saveg.c:428: 	    plat->sector = (sector_t *)(plat->sector - sectors);
	.loc 1 428 21
	movq	%rax, %rdx	# _100, _101
# p_saveg.c:428: 	    plat->sector = (sector_t *)(plat->sector - sectors);
	.loc 1 428 19
	movq	-32(%rbp), %rax	# plat, tmp289
	movq	%rdx, 24(%rax)	# _101, plat_198->sector
# p_saveg.c:429: 	    continue;
	.loc 1 429 6
	jmp	.L67	#
.L71:
# p_saveg.c:432: 	if (th->function.acp1 == (actionf_p1)T_LightFlash)
	.loc 1 432 18
	movq	-64(%rbp), %rax	# th, tmp290
	movq	16(%rax), %rax	# th_165->function.acp1, _102
# p_saveg.c:432: 	if (th->function.acp1 == (actionf_p1)T_LightFlash)
	.loc 1 432 5
	movq	T_LightFlash@GOTPCREL(%rip), %rdx	#, tmp292
	cmpq	%rdx, %rax	# tmp291, _102
	jne	.L72	#,
# p_saveg.c:434: 	    *save_p++ = tc_flash;
	.loc 1 434 13
	movq	save_p(%rip), %rax	# save_p, save_p.95_103
	leaq	1(%rax), %rdx	#, _105
	movq	%rdx, save_p(%rip)	# _105, save_p
# p_saveg.c:434: 	    *save_p++ = tc_flash;
	.loc 1 434 16
	movb	$4, (%rax)	#, *save_p.96_104
# p_saveg.c:435: 	    PADSAVEP();
	.loc 1 435 6
	movq	save_p(%rip), %rax	# save_p, save_p.97_106
	movq	save_p(%rip), %rdx	# save_p, save_p.98_107
	andl	$3, %edx	#, _110
	movl	$4, %ecx	#, tmp293
	subl	%edx, %ecx	# _110, _111
	movslq	%ecx, %rdx	# _111, _112
	andl	$3, %edx	#, _113
	addq	%rdx, %rax	# _113, _114
	movq	%rax, save_p(%rip)	# _114, save_p
# p_saveg.c:436: 	    flash = (lightflash_t *)save_p;
	.loc 1 436 12
	movq	save_p(%rip), %rax	# save_p, tmp294
	movq	%rax, -40(%rbp)	# tmp294, flash
# p_saveg.c:437: 	    memcpy (flash, th, sizeof(*flash));
	.loc 1 437 6
	movq	-64(%rbp), %rcx	# th, tmp295
	movq	-40(%rbp), %rax	# flash, tmp296
	movl	$56, %edx	#,
	movq	%rcx, %rsi	# tmp295,
	movq	%rax, %rdi	# tmp296,
	call	memcpy@PLT	#
# p_saveg.c:438: 	    save_p += sizeof(*flash);
	.loc 1 438 13
	movq	save_p(%rip), %rax	# save_p, save_p.100_115
	addq	$56, %rax	#, _116
	movq	%rax, save_p(%rip)	# _116, save_p
# p_saveg.c:439: 	    flash->sector = (sector_t *)(flash->sector - sectors);
	.loc 1 439 40
	movq	-40(%rbp), %rax	# flash, tmp297
	movq	24(%rax), %rdx	# flash_191->sector, _117
# p_saveg.c:439: 	    flash->sector = (sector_t *)(flash->sector - sectors);
	.loc 1 439 49
	movq	sectors(%rip), %rax	# sectors, sectors.101_118
	subq	%rax, %rdx	# sectors.101_118, _119
	movq	%rdx, %rax	# _119, _119
	sarq	$7, %rax	#, _119
# p_saveg.c:439: 	    flash->sector = (sector_t *)(flash->sector - sectors);
	.loc 1 439 22
	movq	%rax, %rdx	# _120, _121
# p_saveg.c:439: 	    flash->sector = (sector_t *)(flash->sector - sectors);
	.loc 1 439 20
	movq	-40(%rbp), %rax	# flash, tmp299
	movq	%rdx, 24(%rax)	# _121, flash_191->sector
# p_saveg.c:440: 	    continue;
	.loc 1 440 6
	jmp	.L67	#
.L72:
# p_saveg.c:443: 	if (th->function.acp1 == (actionf_p1)T_StrobeFlash)
	.loc 1 443 18
	movq	-64(%rbp), %rax	# th, tmp300
	movq	16(%rax), %rax	# th_165->function.acp1, _122
# p_saveg.c:443: 	if (th->function.acp1 == (actionf_p1)T_StrobeFlash)
	.loc 1 443 5
	movq	T_StrobeFlash@GOTPCREL(%rip), %rdx	#, tmp302
	cmpq	%rdx, %rax	# tmp301, _122
	jne	.L73	#,
# p_saveg.c:445: 	    *save_p++ = tc_strobe;
	.loc 1 445 13
	movq	save_p(%rip), %rax	# save_p, save_p.102_123
	leaq	1(%rax), %rdx	#, _125
	movq	%rdx, save_p(%rip)	# _125, save_p
# p_saveg.c:445: 	    *save_p++ = tc_strobe;
	.loc 1 445 16
	movb	$5, (%rax)	#, *save_p.103_124
# p_saveg.c:446: 	    PADSAVEP();
	.loc 1 446 6
	movq	save_p(%rip), %rax	# save_p, save_p.104_126
	movq	save_p(%rip), %rdx	# save_p, save_p.105_127
	andl	$3, %edx	#, _130
	movl	$4, %ecx	#, tmp303
	subl	%edx, %ecx	# _130, _131
	movslq	%ecx, %rdx	# _131, _132
	andl	$3, %edx	#, _133
	addq	%rdx, %rax	# _133, _134
	movq	%rax, save_p(%rip)	# _134, save_p
# p_saveg.c:447: 	    strobe = (strobe_t *)save_p;
	.loc 1 447 13
	movq	save_p(%rip), %rax	# save_p, tmp304
	movq	%rax, -48(%rbp)	# tmp304, strobe
# p_saveg.c:448: 	    memcpy (strobe, th, sizeof(*strobe));
	.loc 1 448 6
	movq	-64(%rbp), %rcx	# th, tmp305
	movq	-48(%rbp), %rax	# strobe, tmp306
	movl	$56, %edx	#,
	movq	%rcx, %rsi	# tmp305,
	movq	%rax, %rdi	# tmp306,
	call	memcpy@PLT	#
# p_saveg.c:449: 	    save_p += sizeof(*strobe);
	.loc 1 449 13
	movq	save_p(%rip), %rax	# save_p, save_p.107_135
	addq	$56, %rax	#, _136
	movq	%rax, save_p(%rip)	# _136, save_p
# p_saveg.c:450: 	    strobe->sector = (sector_t *)(strobe->sector - sectors);
	.loc 1 450 42
	movq	-48(%rbp), %rax	# strobe, tmp307
	movq	24(%rax), %rdx	# strobe_184->sector, _137
# p_saveg.c:450: 	    strobe->sector = (sector_t *)(strobe->sector - sectors);
	.loc 1 450 51
	movq	sectors(%rip), %rax	# sectors, sectors.108_138
	subq	%rax, %rdx	# sectors.108_138, _139
	movq	%rdx, %rax	# _139, _139
	sarq	$7, %rax	#, _139
# p_saveg.c:450: 	    strobe->sector = (sector_t *)(strobe->sector - sectors);
	.loc 1 450 23
	movq	%rax, %rdx	# _140, _141
# p_saveg.c:450: 	    strobe->sector = (sector_t *)(strobe->sector - sectors);
	.loc 1 450 21
	movq	-48(%rbp), %rax	# strobe, tmp309
	movq	%rdx, 24(%rax)	# _141, strobe_184->sector
# p_saveg.c:451: 	    continue;
	.loc 1 451 6
	jmp	.L67	#
.L73:
# p_saveg.c:454: 	if (th->function.acp1 == (actionf_p1)T_Glow)
	.loc 1 454 18
	movq	-64(%rbp), %rax	# th, tmp310
	movq	16(%rax), %rax	# th_165->function.acp1, _142
# p_saveg.c:454: 	if (th->function.acp1 == (actionf_p1)T_Glow)
	.loc 1 454 5
	movq	T_Glow@GOTPCREL(%rip), %rdx	#, tmp312
	cmpq	%rdx, %rax	# tmp311, _142
	jne	.L67	#,
# p_saveg.c:456: 	    *save_p++ = tc_glow;
	.loc 1 456 13
	movq	save_p(%rip), %rax	# save_p, save_p.109_143
	leaq	1(%rax), %rdx	#, _145
	movq	%rdx, save_p(%rip)	# _145, save_p
# p_saveg.c:456: 	    *save_p++ = tc_glow;
	.loc 1 456 16
	movb	$6, (%rax)	#, *save_p.110_144
# p_saveg.c:457: 	    PADSAVEP();
	.loc 1 457 6
	movq	save_p(%rip), %rax	# save_p, save_p.111_146
	movq	save_p(%rip), %rdx	# save_p, save_p.112_147
	andl	$3, %edx	#, _150
	movl	$4, %ecx	#, tmp313
	subl	%edx, %ecx	# _150, _151
	movslq	%ecx, %rdx	# _151, _152
	andl	$3, %edx	#, _153
	addq	%rdx, %rax	# _153, _154
	movq	%rax, save_p(%rip)	# _154, save_p
# p_saveg.c:458: 	    glow = (glow_t *)save_p;
	.loc 1 458 11
	movq	save_p(%rip), %rax	# save_p, tmp314
	movq	%rax, -56(%rbp)	# tmp314, glow
# p_saveg.c:459: 	    memcpy (glow, th, sizeof(*glow));
	.loc 1 459 6
	movq	-64(%rbp), %rcx	# th, tmp315
	movq	-56(%rbp), %rax	# glow, tmp316
	movl	$48, %edx	#,
	movq	%rcx, %rsi	# tmp315,
	movq	%rax, %rdi	# tmp316,
	call	memcpy@PLT	#
# p_saveg.c:460: 	    save_p += sizeof(*glow);
	.loc 1 460 13
	movq	save_p(%rip), %rax	# save_p, save_p.114_155
	addq	$48, %rax	#, _156
	movq	%rax, save_p(%rip)	# _156, save_p
# p_saveg.c:461: 	    glow->sector = (sector_t *)(glow->sector - sectors);
	.loc 1 461 38
	movq	-56(%rbp), %rax	# glow, tmp317
	movq	24(%rax), %rdx	# glow_177->sector, _157
# p_saveg.c:461: 	    glow->sector = (sector_t *)(glow->sector - sectors);
	.loc 1 461 47
	movq	sectors(%rip), %rax	# sectors, sectors.115_158
	subq	%rax, %rdx	# sectors.115_158, _159
	movq	%rdx, %rax	# _159, _159
	sarq	$7, %rax	#, _159
# p_saveg.c:461: 	    glow->sector = (sector_t *)(glow->sector - sectors);
	.loc 1 461 21
	movq	%rax, %rdx	# _160, _161
# p_saveg.c:461: 	    glow->sector = (sector_t *)(glow->sector - sectors);
	.loc 1 461 19
	movq	-56(%rbp), %rax	# glow, tmp319
	movq	%rdx, 24(%rax)	# _161, glow_177->sector
# p_saveg.c:462: 	    continue;
	.loc 1 462 6
	jmp	.L67	#
.L76:
# p_saveg.c:385: 	    continue;
	.loc 1 385 6
	nop	
.L67:
# p_saveg.c:368:     for (th = thinkercap.next ; th != &thinkercap ; th=th->next)
	.loc 1 368 55 discriminator 2
	movq	-64(%rbp), %rax	# th, tmp320
	movq	8(%rax), %rax	# th_165->next, tmp321
	movq	%rax, -64(%rbp)	# tmp321, th
.L60:
# p_saveg.c:368:     for (th = thinkercap.next ; th != &thinkercap ; th=th->next)
	.loc 1 368 36 discriminator 1
	leaq	thinkercap(%rip), %rax	#, tmp322
	cmpq	%rax, -64(%rbp)	# tmp322, th
	jne	.L74	#,
# p_saveg.c:467:     *save_p++ = tc_endspecials;	
	.loc 1 467 12
	movq	save_p(%rip), %rax	# save_p, save_p.116_162
	leaq	1(%rax), %rdx	#, _164
	movq	%rdx, save_p(%rip)	# _164, save_p
# p_saveg.c:467:     *save_p++ = tc_endspecials;	
	.loc 1 467 15
	movb	$7, (%rax)	#, *save_p.117_163
# p_saveg.c:469: }
	.loc 1 469 1
	nop	
	leave	
	.cfi_def_cfa 7, 8
	ret	
	.cfi_endproc
.LFE6:
	.size	P_ArchiveSpecials, .-P_ArchiveSpecials
	.section	.rodata
	.align 8
.LC1:
	.string	"P_UnarchiveSpecials:Unknown tclass %i in savegame"
	.text
	.globl	P_UnArchiveSpecials
	.type	P_UnArchiveSpecials, @function
P_UnArchiveSpecials:
.LFB7:
	.loc 1 476 1
	.cfi_startproc
	endbr64	
	pushq	%rbp	#
	.cfi_def_cfa_offset 16
	.cfi_offset 6, -16
	movq	%rsp, %rbp	#,
	.cfi_def_cfa_register 6
	subq	$64, %rsp	#,
.L92:
# p_saveg.c:490: 	tclass = *save_p++;
	.loc 1 490 18
	movq	save_p(%rip), %rax	# save_p, save_p.118_1
	leaq	1(%rax), %rdx	#, _3
	movq	%rdx, save_p(%rip)	# _3, save_p
# p_saveg.c:490: 	tclass = *save_p++;
	.loc 1 490 9
	movzbl	(%rax), %eax	# *save_p.119_2, tmp232
	movb	%al, -57(%rbp)	# tmp232, tclass
# p_saveg.c:491: 	switch (tclass)
	.loc 1 491 2
	movzbl	-57(%rbp), %eax	# tclass, _4
	cmpl	$7, %eax	#, _4
	ja	.L78	#,
	movl	%eax, %eax	# _4, tmp233
	leaq	0(,%rax,4), %rdx	#, tmp234
	leaq	.L80(%rip), %rax	#, tmp235
	movl	(%rdx,%rax), %eax	#, tmp236
	cltq
	leaq	.L80(%rip), %rdx	#, tmp239
	addq	%rdx, %rax	# tmp239, tmp238
	notrack jmp	*%rax	# tmp238
	.section	.rodata
	.align 4
	.align 4
.L80:
	.long	.L87-.L80
	.long	.L86-.L80
	.long	.L85-.L80
	.long	.L84-.L80
	.long	.L83-.L80
	.long	.L82-.L80
	.long	.L81-.L80
	.long	.L93-.L80
	.text
.L87:
# p_saveg.c:497: 	    PADSAVEP();
	.loc 1 497 6
	movq	save_p(%rip), %rax	# save_p, save_p.120_5
	movq	save_p(%rip), %rdx	# save_p, save_p.121_6
	andl	$3, %edx	#, _9
	movl	$4, %ecx	#, tmp240
	subl	%edx, %ecx	# _9, _10
	movslq	%ecx, %rdx	# _10, _11
	andl	$3, %edx	#, _12
	addq	%rdx, %rax	# _12, _13
	movq	%rax, save_p(%rip)	# _13, save_p
# p_saveg.c:498: 	    ceiling = Z_Malloc (sizeof(*ceiling), PU_LEVEL, NULL);
	.loc 1 498 16
	movl	$0, %edx	#,
	movl	$50, %esi	#,
	movl	$72, %edi	#,
	call	Z_Malloc@PLT	#
	movq	%rax, -8(%rbp)	# tmp241, ceiling
# p_saveg.c:499: 	    memcpy (ceiling, save_p, sizeof(*ceiling));
	.loc 1 499 6
	movq	save_p(%rip), %rcx	# save_p, save_p.123_14
	movq	-8(%rbp), %rax	# ceiling, tmp242
	movl	$72, %edx	#,
	movq	%rcx, %rsi	# save_p.123_14,
	movq	%rax, %rdi	# tmp242,
	call	memcpy@PLT	#
# p_saveg.c:500: 	    save_p += sizeof(*ceiling);
	.loc 1 500 13
	movq	save_p(%rip), %rax	# save_p, save_p.124_15
	addq	$72, %rax	#, _16
	movq	%rax, save_p(%rip)	# _16, save_p
# p_saveg.c:501: 	    ceiling->sector = &sectors[(int)ceiling->sector];
	.loc 1 501 24
	movq	sectors(%rip), %rdx	# sectors, sectors.125_17
# p_saveg.c:501: 	    ceiling->sector = &sectors[(int)ceiling->sector];
	.loc 1 501 45
	movq	-8(%rbp), %rax	# ceiling, tmp243
	movq	32(%rax), %rax	# ceiling_213->sector, _18
# p_saveg.c:501: 	    ceiling->sector = &sectors[(int)ceiling->sector];
	.loc 1 501 33
	cltq
# p_saveg.c:501: 	    ceiling->sector = &sectors[(int)ceiling->sector];
	.loc 1 501 32
	salq	$7, %rax	#, _22
# p_saveg.c:501: 	    ceiling->sector = &sectors[(int)ceiling->sector];
	.loc 1 501 24
	addq	%rax, %rdx	# _22, _23
# p_saveg.c:501: 	    ceiling->sector = &sectors[(int)ceiling->sector];
	.loc 1 501 22
	movq	-8(%rbp), %rax	# ceiling, tmp244
	movq	%rdx, 32(%rax)	# _23, ceiling_213->sector
# p_saveg.c:502: 	    ceiling->sector->specialdata = ceiling;
	.loc 1 502 13
	movq	-8(%rbp), %rax	# ceiling, tmp245
	movq	32(%rax), %rax	# ceiling_213->sector, _24
# p_saveg.c:502: 	    ceiling->sector->specialdata = ceiling;
	.loc 1 502 35
	movq	-8(%rbp), %rdx	# ceiling, tmp246
	movq	%rdx, 104(%rax)	# tmp246, _24->specialdata
# p_saveg.c:504: 	    if (ceiling->thinker.function.acp1)
	.loc 1 504 35
	movq	-8(%rbp), %rax	# ceiling, tmp247
	movq	16(%rax), %rax	# ceiling_213->thinker.function.acp1, _25
# p_saveg.c:504: 	    if (ceiling->thinker.function.acp1)
	.loc 1 504 9
	testq	%rax, %rax	# _25
	je	.L89	#,
# p_saveg.c:505: 		ceiling->thinker.function.acp1 = (actionf_p1)T_MoveCeiling;
	.loc 1 505 34
	movq	-8(%rbp), %rax	# ceiling, tmp248
	movq	T_MoveCeiling@GOTPCREL(%rip), %rdx	#, tmp250
	movq	%rdx, 16(%rax)	# tmp249, ceiling_213->thinker.function.acp1
.L89:
# p_saveg.c:507: 	    P_AddThinker (&ceiling->thinker);
	.loc 1 507 6
	movq	-8(%rbp), %rax	# ceiling, _26
	movq	%rax, %rdi	# _26,
	call	P_AddThinker@PLT	#
# p_saveg.c:508: 	    P_AddActiveCeiling(ceiling);
	.loc 1 508 6
	movq	-8(%rbp), %rax	# ceiling, tmp251
	movq	%rax, %rdi	# tmp251,
	call	P_AddActiveCeiling@PLT	#
# p_saveg.c:509: 	    break;
	.loc 1 509 6
	jmp	.L90	#
.L86:
# p_saveg.c:512: 	    PADSAVEP();
	.loc 1 512 6
	movq	save_p(%rip), %rax	# save_p, save_p.126_27
	movq	save_p(%rip), %rdx	# save_p, save_p.127_28
	andl	$3, %edx	#, _31
	movl	$4, %ecx	#, tmp252
	subl	%edx, %ecx	# _31, _32
	movslq	%ecx, %rdx	# _32, _33
	andl	$3, %edx	#, _34
	addq	%rdx, %rax	# _34, _35
	movq	%rax, save_p(%rip)	# _35, save_p
# p_saveg.c:513: 	    door = Z_Malloc (sizeof(*door), PU_LEVEL, NULL);
	.loc 1 513 13
	movl	$0, %edx	#,
	movl	$50, %esi	#,
	movl	$64, %edi	#,
	call	Z_Malloc@PLT	#
	movq	%rax, -16(%rbp)	# tmp253, door
# p_saveg.c:514: 	    memcpy (door, save_p, sizeof(*door));
	.loc 1 514 6
	movq	save_p(%rip), %rcx	# save_p, save_p.129_36
	movq	-16(%rbp), %rax	# door, tmp254
	movl	$64, %edx	#,
	movq	%rcx, %rsi	# save_p.129_36,
	movq	%rax, %rdi	# tmp254,
	call	memcpy@PLT	#
# p_saveg.c:515: 	    save_p += sizeof(*door);
	.loc 1 515 13
	movq	save_p(%rip), %rax	# save_p, save_p.130_37
	addq	$64, %rax	#, _38
	movq	%rax, save_p(%rip)	# _38, save_p
# p_saveg.c:516: 	    door->sector = &sectors[(int)door->sector];
	.loc 1 516 21
	movq	sectors(%rip), %rdx	# sectors, sectors.131_39
# p_saveg.c:516: 	    door->sector = &sectors[(int)door->sector];
	.loc 1 516 39
	movq	-16(%rbp), %rax	# door, tmp255
	movq	32(%rax), %rax	# door_204->sector, _40
# p_saveg.c:516: 	    door->sector = &sectors[(int)door->sector];
	.loc 1 516 30
	cltq
# p_saveg.c:516: 	    door->sector = &sectors[(int)door->sector];
	.loc 1 516 29
	salq	$7, %rax	#, _44
# p_saveg.c:516: 	    door->sector = &sectors[(int)door->sector];
	.loc 1 516 21
	addq	%rax, %rdx	# _44, _45
# p_saveg.c:516: 	    door->sector = &sectors[(int)door->sector];
	.loc 1 516 19
	movq	-16(%rbp), %rax	# door, tmp256
	movq	%rdx, 32(%rax)	# _45, door_204->sector
# p_saveg.c:517: 	    door->sector->specialdata = door;
	.loc 1 517 10
	movq	-16(%rbp), %rax	# door, tmp257
	movq	32(%rax), %rax	# door_204->sector, _46
# p_saveg.c:517: 	    door->sector->specialdata = door;
	.loc 1 517 32
	movq	-16(%rbp), %rdx	# door, tmp258
	movq	%rdx, 104(%rax)	# tmp258, _46->specialdata
# p_saveg.c:518: 	    door->thinker.function.acp1 = (actionf_p1)T_VerticalDoor;
	.loc 1 518 34
	movq	-16(%rbp), %rax	# door, tmp259
	movq	T_VerticalDoor@GOTPCREL(%rip), %rdx	#, tmp261
	movq	%rdx, 16(%rax)	# tmp260, door_204->thinker.function.acp1
# p_saveg.c:519: 	    P_AddThinker (&door->thinker);
	.loc 1 519 6
	movq	-16(%rbp), %rax	# door, _47
	movq	%rax, %rdi	# _47,
	call	P_AddThinker@PLT	#
# p_saveg.c:520: 	    break;
	.loc 1 520 6
	jmp	.L90	#
.L85:
# p_saveg.c:523: 	    PADSAVEP();
	.loc 1 523 6
	movq	save_p(%rip), %rax	# save_p, save_p.132_48
	movq	save_p(%rip), %rdx	# save_p, save_p.133_49
	andl	$3, %edx	#, _52
	movl	$4, %ecx	#, tmp262
	subl	%edx, %ecx	# _52, _53
	movslq	%ecx, %rdx	# _53, _54
	andl	$3, %edx	#, _55
	addq	%rdx, %rax	# _55, _56
	movq	%rax, save_p(%rip)	# _56, save_p
# p_saveg.c:524: 	    floor = Z_Malloc (sizeof(*floor), PU_LEVEL, NULL);
	.loc 1 524 14
	movl	$0, %edx	#,
	movl	$50, %esi	#,
	movl	$64, %edi	#,
	call	Z_Malloc@PLT	#
	movq	%rax, -24(%rbp)	# tmp263, floor
# p_saveg.c:525: 	    memcpy (floor, save_p, sizeof(*floor));
	.loc 1 525 6
	movq	save_p(%rip), %rcx	# save_p, save_p.135_57
	movq	-24(%rbp), %rax	# floor, tmp264
	movl	$64, %edx	#,
	movq	%rcx, %rsi	# save_p.135_57,
	movq	%rax, %rdi	# tmp264,
	call	memcpy@PLT	#
# p_saveg.c:526: 	    save_p += sizeof(*floor);
	.loc 1 526 13
	movq	save_p(%rip), %rax	# save_p, save_p.136_58
	addq	$64, %rax	#, _59
	movq	%rax, save_p(%rip)	# _59, save_p
# p_saveg.c:527: 	    floor->sector = &sectors[(int)floor->sector];
	.loc 1 527 22
	movq	sectors(%rip), %rdx	# sectors, sectors.137_60
# p_saveg.c:527: 	    floor->sector = &sectors[(int)floor->sector];
	.loc 1 527 41
	movq	-24(%rbp), %rax	# floor, tmp265
	movq	32(%rax), %rax	# floor_195->sector, _61
# p_saveg.c:527: 	    floor->sector = &sectors[(int)floor->sector];
	.loc 1 527 31
	cltq
# p_saveg.c:527: 	    floor->sector = &sectors[(int)floor->sector];
	.loc 1 527 30
	salq	$7, %rax	#, _65
# p_saveg.c:527: 	    floor->sector = &sectors[(int)floor->sector];
	.loc 1 527 22
	addq	%rax, %rdx	# _65, _66
# p_saveg.c:527: 	    floor->sector = &sectors[(int)floor->sector];
	.loc 1 527 20
	movq	-24(%rbp), %rax	# floor, tmp266
	movq	%rdx, 32(%rax)	# _66, floor_195->sector
# p_saveg.c:528: 	    floor->sector->specialdata = floor;
	.loc 1 528 11
	movq	-24(%rbp), %rax	# floor, tmp267
	movq	32(%rax), %rax	# floor_195->sector, _67
# p_saveg.c:528: 	    floor->sector->specialdata = floor;
	.loc 1 528 33
	movq	-24(%rbp), %rdx	# floor, tmp268
	movq	%rdx, 104(%rax)	# tmp268, _67->specialdata
# p_saveg.c:529: 	    floor->thinker.function.acp1 = (actionf_p1)T_MoveFloor;
	.loc 1 529 35
	movq	-24(%rbp), %rax	# floor, tmp269
	movq	T_MoveFloor@GOTPCREL(%rip), %rdx	#, tmp271
	movq	%rdx, 16(%rax)	# tmp270, floor_195->thinker.function.acp1
# p_saveg.c:530: 	    P_AddThinker (&floor->thinker);
	.loc 1 530 6
	movq	-24(%rbp), %rax	# floor, _68
	movq	%rax, %rdi	# _68,
	call	P_AddThinker@PLT	#
# p_saveg.c:531: 	    break;
	.loc 1 531 6
	jmp	.L90	#
.L84:
# p_saveg.c:534: 	    PADSAVEP();
	.loc 1 534 6
	movq	save_p(%rip), %rax	# save_p, save_p.138_69
	movq	save_p(%rip), %rdx	# save_p, save_p.139_70
	andl	$3, %edx	#, _73
	movl	$4, %ecx	#, tmp272
	subl	%edx, %ecx	# _73, _74
	movslq	%ecx, %rdx	# _74, _75
	andl	$3, %edx	#, _76
	addq	%rdx, %rax	# _76, _77
	movq	%rax, save_p(%rip)	# _77, save_p
# p_saveg.c:535: 	    plat = Z_Malloc (sizeof(*plat), PU_LEVEL, NULL);
	.loc 1 535 13
	movl	$0, %edx	#,
	movl	$50, %esi	#,
	movl	$72, %edi	#,
	call	Z_Malloc@PLT	#
	movq	%rax, -32(%rbp)	# tmp273, plat
# p_saveg.c:536: 	    memcpy (plat, save_p, sizeof(*plat));
	.loc 1 536 6
	movq	save_p(%rip), %rcx	# save_p, save_p.141_78
	movq	-32(%rbp), %rax	# plat, tmp274
	movl	$72, %edx	#,
	movq	%rcx, %rsi	# save_p.141_78,
	movq	%rax, %rdi	# tmp274,
	call	memcpy@PLT	#
# p_saveg.c:537: 	    save_p += sizeof(*plat);
	.loc 1 537 13
	movq	save_p(%rip), %rax	# save_p, save_p.142_79
	addq	$72, %rax	#, _80
	movq	%rax, save_p(%rip)	# _80, save_p
# p_saveg.c:538: 	    plat->sector = &sectors[(int)plat->sector];
	.loc 1 538 21
	movq	sectors(%rip), %rdx	# sectors, sectors.143_81
# p_saveg.c:538: 	    plat->sector = &sectors[(int)plat->sector];
	.loc 1 538 39
	movq	-32(%rbp), %rax	# plat, tmp275
	movq	24(%rax), %rax	# plat_185->sector, _82
# p_saveg.c:538: 	    plat->sector = &sectors[(int)plat->sector];
	.loc 1 538 30
	cltq
# p_saveg.c:538: 	    plat->sector = &sectors[(int)plat->sector];
	.loc 1 538 29
	salq	$7, %rax	#, _86
# p_saveg.c:538: 	    plat->sector = &sectors[(int)plat->sector];
	.loc 1 538 21
	addq	%rax, %rdx	# _86, _87
# p_saveg.c:538: 	    plat->sector = &sectors[(int)plat->sector];
	.loc 1 538 19
	movq	-32(%rbp), %rax	# plat, tmp276
	movq	%rdx, 24(%rax)	# _87, plat_185->sector
# p_saveg.c:539: 	    plat->sector->specialdata = plat;
	.loc 1 539 10
	movq	-32(%rbp), %rax	# plat, tmp277
	movq	24(%rax), %rax	# plat_185->sector, _88
# p_saveg.c:539: 	    plat->sector->specialdata = plat;
	.loc 1 539 32
	movq	-32(%rbp), %rdx	# plat, tmp278
	movq	%rdx, 104(%rax)	# tmp278, _88->specialdata
# p_saveg.c:541: 	    if (plat->thinker.function.acp1)
	.loc 1 541 32
	movq	-32(%rbp), %rax	# plat, tmp279
	movq	16(%rax), %rax	# plat_185->thinker.function.acp1, _89
# p_saveg.c:541: 	    if (plat->thinker.function.acp1)
	.loc 1 541 9
	testq	%rax, %rax	# _89
	je	.L91	#,
# p_saveg.c:542: 		plat->thinker.function.acp1 = (actionf_p1)T_PlatRaise;
	.loc 1 542 31
	movq	-32(%rbp), %rax	# plat, tmp280
	movq	T_PlatRaise@GOTPCREL(%rip), %rdx	#, tmp282
	movq	%rdx, 16(%rax)	# tmp281, plat_185->thinker.function.acp1
.L91:
# p_saveg.c:544: 	    P_AddThinker (&plat->thinker);
	.loc 1 544 6
	movq	-32(%rbp), %rax	# plat, _90
	movq	%rax, %rdi	# _90,
	call	P_AddThinker@PLT	#
# p_saveg.c:545: 	    P_AddActivePlat(plat);
	.loc 1 545 6
	movq	-32(%rbp), %rax	# plat, tmp283
	movq	%rax, %rdi	# tmp283,
	call	P_AddActivePlat@PLT	#
# p_saveg.c:546: 	    break;
	.loc 1 546 6
	jmp	.L90	#
.L83:
# p_saveg.c:549: 	    PADSAVEP();
	.loc 1 549 6
	movq	save_p(%rip), %rax	# save_p, save_p.144_91
	movq	save_p(%rip), %rdx	# save_p, save_p.145_92
	andl	$3, %edx	#, _95
	movl	$4, %ecx	#, tmp284
	subl	%edx, %ecx	# _95, _96
	movslq	%ecx, %rdx	# _96, _97
	andl	$3, %edx	#, _98
	addq	%rdx, %rax	# _98, _99
	movq	%rax, save_p(%rip)	# _99, save_p
# p_saveg.c:550: 	    flash = Z_Malloc (sizeof(*flash), PU_LEVEL, NULL);
	.loc 1 550 14
	movl	$0, %edx	#,
	movl	$50, %esi	#,
	movl	$56, %edi	#,
	call	Z_Malloc@PLT	#
	movq	%rax, -40(%rbp)	# tmp285, flash
# p_saveg.c:551: 	    memcpy (flash, save_p, sizeof(*flash));
	.loc 1 551 6
	movq	save_p(%rip), %rcx	# save_p, save_p.147_100
	movq	-40(%rbp), %rax	# flash, tmp286
	movl	$56, %edx	#,
	movq	%rcx, %rsi	# save_p.147_100,
	movq	%rax, %rdi	# tmp286,
	call	memcpy@PLT	#
# p_saveg.c:552: 	    save_p += sizeof(*flash);
	.loc 1 552 13
	movq	save_p(%rip), %rax	# save_p, save_p.148_101
	addq	$56, %rax	#, _102
	movq	%rax, save_p(%rip)	# _102, save_p
# p_saveg.c:553: 	    flash->sector = &sectors[(int)flash->sector];
	.loc 1 553 22
	movq	sectors(%rip), %rdx	# sectors, sectors.149_103
# p_saveg.c:553: 	    flash->sector = &sectors[(int)flash->sector];
	.loc 1 553 41
	movq	-40(%rbp), %rax	# flash, tmp287
	movq	24(%rax), %rax	# flash_177->sector, _104
# p_saveg.c:553: 	    flash->sector = &sectors[(int)flash->sector];
	.loc 1 553 31
	cltq
# p_saveg.c:553: 	    flash->sector = &sectors[(int)flash->sector];
	.loc 1 553 30
	salq	$7, %rax	#, _108
# p_saveg.c:553: 	    flash->sector = &sectors[(int)flash->sector];
	.loc 1 553 22
	addq	%rax, %rdx	# _108, _109
# p_saveg.c:553: 	    flash->sector = &sectors[(int)flash->sector];
	.loc 1 553 20
	movq	-40(%rbp), %rax	# flash, tmp288
	movq	%rdx, 24(%rax)	# _109, flash_177->sector
# p_saveg.c:554: 	    flash->thinker.function.acp1 = (actionf_p1)T_LightFlash;
	.loc 1 554 35
	movq	-40(%rbp), %rax	# flash, tmp289
	movq	T_LightFlash@GOTPCREL(%rip), %rdx	#, tmp291
	movq	%rdx, 16(%rax)	# tmp290, flash_177->thinker.function.acp1
# p_saveg.c:555: 	    P_AddThinker (&flash->thinker);
	.loc 1 555 6
	movq	-40(%rbp), %rax	# flash, _110
	movq	%rax, %rdi	# _110,
	call	P_AddThinker@PLT	#
# p_saveg.c:556: 	    break;
	.loc 1 556 6
	jmp	.L90	#
.L82:
# p_saveg.c:559: 	    PADSAVEP();
	.loc 1 559 6
	movq	save_p(%rip), %rax	# save_p, save_p.150_111
	movq	save_p(%rip), %rdx	# save_p, save_p.151_112
	andl	$3, %edx	#, _115
	movl	$4, %ecx	#, tmp292
	subl	%edx, %ecx	# _115, _116
	movslq	%ecx, %rdx	# _116, _117
	andl	$3, %edx	#, _118
	addq	%rdx, %rax	# _118, _119
	movq	%rax, save_p(%rip)	# _119, save_p
# p_saveg.c:560: 	    strobe = Z_Malloc (sizeof(*strobe), PU_LEVEL, NULL);
	.loc 1 560 15
	movl	$0, %edx	#,
	movl	$50, %esi	#,
	movl	$56, %edi	#,
	call	Z_Malloc@PLT	#
	movq	%rax, -48(%rbp)	# tmp293, strobe
# p_saveg.c:561: 	    memcpy (strobe, save_p, sizeof(*strobe));
	.loc 1 561 6
	movq	save_p(%rip), %rcx	# save_p, save_p.153_120
	movq	-48(%rbp), %rax	# strobe, tmp294
	movl	$56, %edx	#,
	movq	%rcx, %rsi	# save_p.153_120,
	movq	%rax, %rdi	# tmp294,
	call	memcpy@PLT	#
# p_saveg.c:562: 	    save_p += sizeof(*strobe);
	.loc 1 562 13
	movq	save_p(%rip), %rax	# save_p, save_p.154_121
	addq	$56, %rax	#, _122
	movq	%rax, save_p(%rip)	# _122, save_p
# p_saveg.c:563: 	    strobe->sector = &sectors[(int)strobe->sector];
	.loc 1 563 23
	movq	sectors(%rip), %rdx	# sectors, sectors.155_123
# p_saveg.c:563: 	    strobe->sector = &sectors[(int)strobe->sector];
	.loc 1 563 43
	movq	-48(%rbp), %rax	# strobe, tmp295
	movq	24(%rax), %rax	# strobe_169->sector, _124
# p_saveg.c:563: 	    strobe->sector = &sectors[(int)strobe->sector];
	.loc 1 563 32
	cltq
# p_saveg.c:563: 	    strobe->sector = &sectors[(int)strobe->sector];
	.loc 1 563 31
	salq	$7, %rax	#, _128
# p_saveg.c:563: 	    strobe->sector = &sectors[(int)strobe->sector];
	.loc 1 563 23
	addq	%rax, %rdx	# _128, _129
# p_saveg.c:563: 	    strobe->sector = &sectors[(int)strobe->sector];
	.loc 1 563 21
	movq	-48(%rbp), %rax	# strobe, tmp296
	movq	%rdx, 24(%rax)	# _129, strobe_169->sector
# p_saveg.c:564: 	    strobe->thinker.function.acp1 = (actionf_p1)T_StrobeFlash;
	.loc 1 564 36
	movq	-48(%rbp), %rax	# strobe, tmp297
	movq	T_StrobeFlash@GOTPCREL(%rip), %rdx	#, tmp299
	movq	%rdx, 16(%rax)	# tmp298, strobe_169->thinker.function.acp1
# p_saveg.c:565: 	    P_AddThinker (&strobe->thinker);
	.loc 1 565 6
	movq	-48(%rbp), %rax	# strobe, _130
	movq	%rax, %rdi	# _130,
	call	P_AddThinker@PLT	#
# p_saveg.c:566: 	    break;
	.loc 1 566 6
	jmp	.L90	#
.L81:
# p_saveg.c:569: 	    PADSAVEP();
	.loc 1 569 6
	movq	save_p(%rip), %rax	# save_p, save_p.156_131
	movq	save_p(%rip), %rdx	# save_p, save_p.157_132
	andl	$3, %edx	#, _135
	movl	$4, %ecx	#, tmp300
	subl	%edx, %ecx	# _135, _136
	movslq	%ecx, %rdx	# _136, _137
	andl	$3, %edx	#, _138
	addq	%rdx, %rax	# _138, _139
	movq	%rax, save_p(%rip)	# _139, save_p
# p_saveg.c:570: 	    glow = Z_Malloc (sizeof(*glow), PU_LEVEL, NULL);
	.loc 1 570 13
	movl	$0, %edx	#,
	movl	$50, %esi	#,
	movl	$48, %edi	#,
	call	Z_Malloc@PLT	#
	movq	%rax, -56(%rbp)	# tmp301, glow
# p_saveg.c:571: 	    memcpy (glow, save_p, sizeof(*glow));
	.loc 1 571 6
	movq	save_p(%rip), %rcx	# save_p, save_p.159_140
	movq	-56(%rbp), %rax	# glow, tmp302
	movl	$48, %edx	#,
	movq	%rcx, %rsi	# save_p.159_140,
	movq	%rax, %rdi	# tmp302,
	call	memcpy@PLT	#
# p_saveg.c:572: 	    save_p += sizeof(*glow);
	.loc 1 572 13
	movq	save_p(%rip), %rax	# save_p, save_p.160_141
	addq	$48, %rax	#, _142
	movq	%rax, save_p(%rip)	# _142, save_p
# p_saveg.c:573: 	    glow->sector = &sectors[(int)glow->sector];
	.loc 1 573 21
	movq	sectors(%rip), %rdx	# sectors, sectors.161_143
# p_saveg.c:573: 	    glow->sector = &sectors[(int)glow->sector];
	.loc 1 573 39
	movq	-56(%rbp), %rax	# glow, tmp303
	movq	24(%rax), %rax	# glow_161->sector, _144
# p_saveg.c:573: 	    glow->sector = &sectors[(int)glow->sector];
	.loc 1 573 30
	cltq
# p_saveg.c:573: 	    glow->sector = &sectors[(int)glow->sector];
	.loc 1 573 29
	salq	$7, %rax	#, _148
# p_saveg.c:573: 	    glow->sector = &sectors[(int)glow->sector];
	.loc 1 573 21
	addq	%rax, %rdx	# _148, _149
# p_saveg.c:573: 	    glow->sector = &sectors[(int)glow->sector];
	.loc 1 573 19
	movq	-56(%rbp), %rax	# glow, tmp304
	movq	%rdx, 24(%rax)	# _149, glow_161->sector
# p_saveg.c:574: 	    glow->thinker.function.acp1 = (actionf_p1)T_Glow;
	.loc 1 574 34
	movq	-56(%rbp), %rax	# glow, tmp305
	movq	T_Glow@GOTPCREL(%rip), %rdx	#, tmp307
	movq	%rdx, 16(%rax)	# tmp306, glow_161->thinker.function.acp1
# p_saveg.c:575: 	    P_AddThinker (&glow->thinker);
	.loc 1 575 6
	movq	-56(%rbp), %rax	# glow, _150
	movq	%rax, %rdi	# _150,
	call	P_AddThinker@PLT	#
# p_saveg.c:576: 	    break;
	.loc 1 576 6
	jmp	.L90	#
.L78:
# p_saveg.c:579: 	    I_Error ("P_UnarchiveSpecials:Unknown tclass %i "
	.loc 1 579 6
	movzbl	-57(%rbp), %eax	# tclass, _151
	movl	%eax, %esi	# _151,
	leaq	.LC1(%rip), %rax	#, tmp308
	movq	%rax, %rdi	# tmp308,
	movl	$0, %eax	#,
	call	I_Error@PLT	#
.L90:
# p_saveg.c:490: 	tclass = *save_p++;
	.loc 1 490 9
	jmp	.L92	#
.L93:
# p_saveg.c:494: 	    return;	// end of list
	.loc 1 494 6
	nop	
# p_saveg.c:585: }
	.loc 1 585 1
	leave	
	.cfi_def_cfa 7, 8
	ret	
	.cfi_endproc
.LFE7:
	.size	P_UnArchiveSpecials, .-P_UnArchiveSpecials
.Letext0:
	.file 2 "doomtype.h"
	.file 3 "d_ticcmd.h"
	.file 4 "/usr/lib/gcc/x86_64-linux-gnu/13/include/stddef.h"
	.file 5 "m_fixed.h"
	.file 6 "tables.h"
	.file 7 "doomdef.h"
	.file 8 "d_think.h"
	.file 9 "doomdata.h"
	.file 10 "info.h"
	.file 11 "p_mobj.h"
	.file 12 "r_defs.h"
	.file 13 "d_player.h"
	.file 14 "p_pspr.h"
	.file 15 "r_state.h"
	.file 16 "p_local.h"
	.file 17 "p_spec.h"
	.file 18 "doomstat.h"
	.file 19 "i_system.h"
	.file 20 "z_zone.h"
	.file 21 "/usr/include/string.h"
	.section	.note.GNU-stack,"",@progbits
	.section	.note.gnu.property,"a"
	.align 8
	.long	1f - 0f
	.long	4f - 1f
	.long	5
0:
	.string	"GNU"
1:
	.align 8
	.long	0xc0000002
	.long	3f - 2f
2:
	.long	0x3
3:
	.align 8
4:
