	.file	"p_setup.c"
# GNU C17 (Ubuntu 13.3.0-6ubuntu2~24.04) version 13.3.0 (x86_64-linux-gnu)
#	compiled by GNU C version 13.3.0, GMP version 6.3.0, MPFR version 4.2.1, MPC version 1.3.1, isl version isl-0.26-GMP

# GGC heuristics: --param ggc-min-expand=100 --param ggc-min-heapsize=131072
# options passed: -mtune=generic -march=x86-64 -g -fasynchronous-unwind-tables -fstack-protector-strong -fstack-clash-protection -fcf-protection
	.text
.Ltext0:
	.file 0 "/home/astrid/Documents/enseignements/DOOM/linuxdoom-1.10" "p_setup.c"
	.section	.rodata
	.align 32
	.type	rcsid, @object
	.size	rcsid, 50
rcsid:
	.string	"$Id: p_setup.c,v 1.5 1997/02/03 22:45:12 b1 Exp $"
	.globl	numvertexes
	.bss
	.align 4
	.type	numvertexes, @object
	.size	numvertexes, 4
numvertexes:
	.zero	4
	.globl	vertexes
	.align 8
	.type	vertexes, @object
	.size	vertexes, 8
vertexes:
	.zero	8
	.globl	numsegs
	.align 4
	.type	numsegs, @object
	.size	numsegs, 4
numsegs:
	.zero	4
	.globl	segs
	.align 8
	.type	segs, @object
	.size	segs, 8
segs:
	.zero	8
	.globl	numsectors
	.align 4
	.type	numsectors, @object
	.size	numsectors, 4
numsectors:
	.zero	4
	.globl	sectors
	.align 8
	.type	sectors, @object
	.size	sectors, 8
sectors:
	.zero	8
	.globl	numsubsectors
	.align 4
	.type	numsubsectors, @object
	.size	numsubsectors, 4
numsubsectors:
	.zero	4
	.globl	subsectors
	.align 8
	.type	subsectors, @object
	.size	subsectors, 8
subsectors:
	.zero	8
	.globl	numnodes
	.align 4
	.type	numnodes, @object
	.size	numnodes, 4
numnodes:
	.zero	4
	.globl	nodes
	.align 8
	.type	nodes, @object
	.size	nodes, 8
nodes:
	.zero	8
	.globl	numlines
	.align 4
	.type	numlines, @object
	.size	numlines, 4
numlines:
	.zero	4
	.globl	lines
	.align 8
	.type	lines, @object
	.size	lines, 8
lines:
	.zero	8
	.globl	numsides
	.align 4
	.type	numsides, @object
	.size	numsides, 4
numsides:
	.zero	4
	.globl	sides
	.align 8
	.type	sides, @object
	.size	sides, 8
sides:
	.zero	8
	.globl	bmapwidth
	.align 4
	.type	bmapwidth, @object
	.size	bmapwidth, 4
bmapwidth:
	.zero	4
	.globl	bmapheight
	.align 4
	.type	bmapheight, @object
	.size	bmapheight, 4
bmapheight:
	.zero	4
	.globl	blockmap
	.align 8
	.type	blockmap, @object
	.size	blockmap, 8
blockmap:
	.zero	8
	.globl	blockmaplump
	.align 8
	.type	blockmaplump, @object
	.size	blockmaplump, 8
blockmaplump:
	.zero	8
	.globl	bmaporgx
	.align 4
	.type	bmaporgx, @object
	.size	bmaporgx, 4
bmaporgx:
	.zero	4
	.globl	bmaporgy
	.align 4
	.type	bmaporgy, @object
	.size	bmaporgy, 4
bmaporgy:
	.zero	4
	.globl	blocklinks
	.align 8
	.type	blocklinks, @object
	.size	blocklinks, 8
blocklinks:
	.zero	8
	.globl	rejectmatrix
	.align 8
	.type	rejectmatrix, @object
	.size	rejectmatrix, 8
rejectmatrix:
	.zero	8
	.globl	deathmatchstarts
	.align 32
	.type	deathmatchstarts, @object
	.size	deathmatchstarts, 100
deathmatchstarts:
	.zero	100
	.globl	deathmatch_p
	.align 8
	.type	deathmatch_p, @object
	.size	deathmatch_p, 8
deathmatch_p:
	.zero	8
	.globl	playerstarts
	.align 32
	.type	playerstarts, @object
	.size	playerstarts, 40
playerstarts:
	.zero	40
	.text
	.globl	P_LoadVertexes
	.type	P_LoadVertexes, @function
P_LoadVertexes:
.LFB0:
	.file 1 "p_setup.c"
	.loc 1 123 1
	.cfi_startproc
	endbr64	
	pushq	%rbp	#
	.cfi_def_cfa_offset 16
	.cfi_offset 6, -16
	movq	%rsp, %rbp	#,
	.cfi_def_cfa_register 6
	subq	$48, %rsp	#,
	movl	%edi, -36(%rbp)	# lump, lump
# p_setup.c:131:     numvertexes = W_LumpLength (lump) / sizeof(mapvertex_t);
	.loc 1 131 19
	movl	-36(%rbp), %eax	# lump, tmp99
	movl	%eax, %edi	# tmp99,
	call	W_LumpLength@PLT	#
# p_setup.c:131:     numvertexes = W_LumpLength (lump) / sizeof(mapvertex_t);
	.loc 1 131 19 is_stmt 0 discriminator 1
	cltq
# p_setup.c:131:     numvertexes = W_LumpLength (lump) / sizeof(mapvertex_t);
	.loc 1 131 39 is_stmt 1 discriminator 1
	shrq	$2, %rax	#, _3
# p_setup.c:131:     numvertexes = W_LumpLength (lump) / sizeof(mapvertex_t);
	.loc 1 131 17 discriminator 1
	movl	%eax, numvertexes(%rip)	# _4, numvertexes
# p_setup.c:134:     vertexes = Z_Malloc (numvertexes*sizeof(vertex_t),PU_LEVEL,0);	
	.loc 1 134 16
	movl	numvertexes(%rip), %eax	# numvertexes, numvertexes.0_5
	cltq
	sall	$3, %eax	#, _8
	movl	$0, %edx	#,
	movl	$50, %esi	#,
	movl	%eax, %edi	# _9,
	call	Z_Malloc@PLT	#
# p_setup.c:134:     vertexes = Z_Malloc (numvertexes*sizeof(vertex_t),PU_LEVEL,0);	
	.loc 1 134 14 discriminator 1
	movq	%rax, vertexes(%rip)	# _10, vertexes
# p_setup.c:137:     data = W_CacheLumpNum (lump,PU_STATIC);
	.loc 1 137 12
	movl	-36(%rbp), %eax	# lump, tmp100
	movl	$1, %esi	#,
	movl	%eax, %edi	# tmp100,
	call	W_CacheLumpNum@PLT	#
	movq	%rax, -8(%rbp)	# tmp101, data
# p_setup.c:139:     ml = (mapvertex_t *)data;
	.loc 1 139 8
	movq	-8(%rbp), %rax	# data, tmp102
	movq	%rax, -24(%rbp)	# tmp102, ml
# p_setup.c:140:     li = vertexes;
	.loc 1 140 8
	movq	vertexes(%rip), %rax	# vertexes, tmp103
	movq	%rax, -16(%rbp)	# tmp103, li
# p_setup.c:144:     for (i=0 ; i<numvertexes ; i++, li++, ml++)
	.loc 1 144 11
	movl	$0, -28(%rbp)	#, i
# p_setup.c:144:     for (i=0 ; i<numvertexes ; i++, li++, ml++)
	.loc 1 144 5
	jmp	.L2	#
.L3:
# p_setup.c:146: 	li->x = SHORT(ml->x)<<FRACBITS;
	.loc 1 146 10
	movq	-24(%rbp), %rax	# ml, tmp104
	movzwl	(%rax), %eax	# ml_19->x, _11
	cwtl
# p_setup.c:146: 	li->x = SHORT(ml->x)<<FRACBITS;
	.loc 1 146 22
	sall	$16, %eax	#, _12
	movl	%eax, %edx	# _12, _13
# p_setup.c:146: 	li->x = SHORT(ml->x)<<FRACBITS;
	.loc 1 146 8
	movq	-16(%rbp), %rax	# li, tmp105
	movl	%edx, (%rax)	# _13, li_20->x
# p_setup.c:147: 	li->y = SHORT(ml->y)<<FRACBITS;
	.loc 1 147 10
	movq	-24(%rbp), %rax	# ml, tmp106
	movzwl	2(%rax), %eax	# ml_19->y, _14
	cwtl
# p_setup.c:147: 	li->y = SHORT(ml->y)<<FRACBITS;
	.loc 1 147 22
	sall	$16, %eax	#, _15
	movl	%eax, %edx	# _15, _16
# p_setup.c:147: 	li->y = SHORT(ml->y)<<FRACBITS;
	.loc 1 147 8
	movq	-16(%rbp), %rax	# li, tmp107
	movl	%edx, 4(%rax)	# _16, li_20->y
# p_setup.c:144:     for (i=0 ; i<numvertexes ; i++, li++, ml++)
	.loc 1 144 33 discriminator 3
	addl	$1, -28(%rbp)	#, i
# p_setup.c:144:     for (i=0 ; i<numvertexes ; i++, li++, ml++)
	.loc 1 144 39 discriminator 3
	addq	$8, -16(%rbp)	#, li
# p_setup.c:144:     for (i=0 ; i<numvertexes ; i++, li++, ml++)
	.loc 1 144 45 discriminator 3
	addq	$4, -24(%rbp)	#, ml
.L2:
# p_setup.c:144:     for (i=0 ; i<numvertexes ; i++, li++, ml++)
	.loc 1 144 17 discriminator 1
	movl	numvertexes(%rip), %eax	# numvertexes, numvertexes.1_17
	cmpl	%eax, -28(%rbp)	# numvertexes.1_17, i
	jl	.L3	#,
# p_setup.c:151:     Z_Free (data);
	.loc 1 151 5
	movq	-8(%rbp), %rax	# data, tmp108
	movq	%rax, %rdi	# tmp108,
	call	Z_Free@PLT	#
# p_setup.c:152: }
	.loc 1 152 1
	nop	
	leave	
	.cfi_def_cfa 7, 8
	ret	
	.cfi_endproc
.LFE0:
	.size	P_LoadVertexes, .-P_LoadVertexes
	.globl	P_LoadSegs
	.type	P_LoadSegs, @function
P_LoadSegs:
.LFB1:
	.loc 1 160 1
	.cfi_startproc
	endbr64	
	pushq	%rbp	#
	.cfi_def_cfa_offset 16
	.cfi_offset 6, -16
	movq	%rsp, %rbp	#,
	.cfi_def_cfa_register 6
	subq	$64, %rsp	#,
	movl	%edi, -52(%rbp)	# lump, lump
# p_setup.c:169:     numsegs = W_LumpLength (lump) / sizeof(mapseg_t);
	.loc 1 169 15
	movl	-52(%rbp), %eax	# lump, tmp139
	movl	%eax, %edi	# tmp139,
	call	W_LumpLength@PLT	#
# p_setup.c:169:     numsegs = W_LumpLength (lump) / sizeof(mapseg_t);
	.loc 1 169 15 is_stmt 0 discriminator 1
	cltq
# p_setup.c:169:     numsegs = W_LumpLength (lump) / sizeof(mapseg_t);
	.loc 1 169 35 is_stmt 1 discriminator 1
	movabsq	$-6148914691236517205, %rdx	#, tmp141
	mulq	%rdx	# tmp141
	movq	%rdx, %rax	# tmp140, tmp140
	shrq	$3, %rax	#, tmp140
# p_setup.c:169:     numsegs = W_LumpLength (lump) / sizeof(mapseg_t);
	.loc 1 169 13 discriminator 1
	movl	%eax, numsegs(%rip)	# _4, numsegs
# p_setup.c:170:     segs = Z_Malloc (numsegs*sizeof(seg_t),PU_LEVEL,0);	
	.loc 1 170 12
	movl	numsegs(%rip), %eax	# numsegs, numsegs.2_5
	cltq
	imull	$56, %eax, %eax	#, _7, _8
	movl	$0, %edx	#,
	movl	$50, %esi	#,
	movl	%eax, %edi	# _9,
	call	Z_Malloc@PLT	#
# p_setup.c:170:     segs = Z_Malloc (numsegs*sizeof(seg_t),PU_LEVEL,0);	
	.loc 1 170 10 discriminator 1
	movq	%rax, segs(%rip)	# _10, segs
# p_setup.c:171:     memset (segs, 0, numsegs*sizeof(seg_t));
	.loc 1 171 5
	movl	numsegs(%rip), %eax	# numsegs, numsegs.3_11
	movslq	%eax, %rdx	# numsegs.3_11, _12
	movq	%rdx, %rax	# _12, tmp142
	salq	$3, %rax	#, tmp143
	subq	%rdx, %rax	# _12, tmp142
	salq	$3, %rax	#, tmp144
	movq	%rax, %rdx	# tmp142, _13
	movq	segs(%rip), %rax	# segs, segs.4_14
	movl	$0, %esi	#,
	movq	%rax, %rdi	# segs.4_14,
	call	memset@PLT	#
# p_setup.c:172:     data = W_CacheLumpNum (lump,PU_STATIC);
	.loc 1 172 12
	movl	-52(%rbp), %eax	# lump, tmp145
	movl	$1, %esi	#,
	movl	%eax, %edi	# tmp145,
	call	W_CacheLumpNum@PLT	#
	movq	%rax, -16(%rbp)	# tmp146, data
# p_setup.c:174:     ml = (mapseg_t *)data;
	.loc 1 174 8
	movq	-16(%rbp), %rax	# data, tmp147
	movq	%rax, -32(%rbp)	# tmp147, ml
# p_setup.c:175:     li = segs;
	.loc 1 175 8
	movq	segs(%rip), %rax	# segs, tmp148
	movq	%rax, -24(%rbp)	# tmp148, li
# p_setup.c:176:     for (i=0 ; i<numsegs ; i++, li++, ml++)
	.loc 1 176 11
	movl	$0, -44(%rbp)	#, i
# p_setup.c:176:     for (i=0 ; i<numsegs ; i++, li++, ml++)
	.loc 1 176 5
	jmp	.L5	#
.L8:
# p_setup.c:178: 	li->v1 = &vertexes[SHORT(ml->v1)];
	.loc 1 178 11
	movq	vertexes(%rip), %rdx	# vertexes, vertexes.5_15
# p_setup.c:178: 	li->v1 = &vertexes[SHORT(ml->v1)];
	.loc 1 178 21
	movq	-32(%rbp), %rax	# ml, tmp149
	movzwl	(%rax), %eax	# ml_59->v1, _16
	movswq	%ax, %rax	# _16, _17
# p_setup.c:178: 	li->v1 = &vertexes[SHORT(ml->v1)];
	.loc 1 178 20
	salq	$3, %rax	#, _18
# p_setup.c:178: 	li->v1 = &vertexes[SHORT(ml->v1)];
	.loc 1 178 11
	addq	%rax, %rdx	# _18, _19
# p_setup.c:178: 	li->v1 = &vertexes[SHORT(ml->v1)];
	.loc 1 178 9
	movq	-24(%rbp), %rax	# li, tmp150
	movq	%rdx, (%rax)	# _19, li_60->v1
# p_setup.c:179: 	li->v2 = &vertexes[SHORT(ml->v2)];
	.loc 1 179 11
	movq	vertexes(%rip), %rdx	# vertexes, vertexes.6_20
# p_setup.c:179: 	li->v2 = &vertexes[SHORT(ml->v2)];
	.loc 1 179 21
	movq	-32(%rbp), %rax	# ml, tmp151
	movzwl	2(%rax), %eax	# ml_59->v2, _21
	movswq	%ax, %rax	# _21, _22
# p_setup.c:179: 	li->v2 = &vertexes[SHORT(ml->v2)];
	.loc 1 179 20
	salq	$3, %rax	#, _23
# p_setup.c:179: 	li->v2 = &vertexes[SHORT(ml->v2)];
	.loc 1 179 11
	addq	%rax, %rdx	# _23, _24
# p_setup.c:179: 	li->v2 = &vertexes[SHORT(ml->v2)];
	.loc 1 179 9
	movq	-24(%rbp), %rax	# li, tmp152
	movq	%rdx, 8(%rax)	# _24, li_60->v2
# p_setup.c:181: 	li->angle = (SHORT(ml->angle))<<16;
	.loc 1 181 15
	movq	-32(%rbp), %rax	# ml, tmp153
	movzwl	4(%rax), %eax	# ml_59->angle, _25
# p_setup.c:181: 	li->angle = (SHORT(ml->angle))<<16;
	.loc 1 181 32
	cwtl
	sall	$16, %eax	#, _26
	movl	%eax, %edx	# _26, _27
# p_setup.c:181: 	li->angle = (SHORT(ml->angle))<<16;
	.loc 1 181 12
	movq	-24(%rbp), %rax	# li, tmp154
	movl	%edx, 20(%rax)	# _27, li_60->angle
# p_setup.c:182: 	li->offset = (SHORT(ml->offset))<<16;
	.loc 1 182 16
	movq	-32(%rbp), %rax	# ml, tmp155
	movzwl	10(%rax), %eax	# ml_59->offset, _28
	cwtl
# p_setup.c:182: 	li->offset = (SHORT(ml->offset))<<16;
	.loc 1 182 34
	sall	$16, %eax	#, _29
	movl	%eax, %edx	# _29, _30
# p_setup.c:182: 	li->offset = (SHORT(ml->offset))<<16;
	.loc 1 182 13
	movq	-24(%rbp), %rax	# li, tmp156
	movl	%edx, 16(%rax)	# _30, li_60->offset
# p_setup.c:183: 	linedef = SHORT(ml->linedef);
	.loc 1 183 12
	movq	-32(%rbp), %rax	# ml, tmp157
	movzwl	6(%rax), %eax	# ml_59->linedef, _31
# p_setup.c:183: 	linedef = SHORT(ml->linedef);
	.loc 1 183 10
	cwtl
	movl	%eax, -40(%rbp)	# tmp158, linedef
# p_setup.c:184: 	ldef = &lines[linedef];
	.loc 1 184 9
	movq	lines(%rip), %rcx	# lines, lines.7_32
# p_setup.c:184: 	ldef = &lines[linedef];
	.loc 1 184 15
	movl	-40(%rbp), %eax	# linedef, tmp159
	movslq	%eax, %rdx	# tmp159, _33
	movq	%rdx, %rax	# _33, tmp160
	salq	$2, %rax	#, tmp160
	addq	%rdx, %rax	# _33, tmp160
	addq	%rax, %rax	# tmp160
	addq	%rdx, %rax	# _33, tmp160
	salq	$3, %rax	#, tmp161
# p_setup.c:184: 	ldef = &lines[linedef];
	.loc 1 184 7
	addq	%rcx, %rax	# lines.7_32, tmp162
	movq	%rax, -8(%rbp)	# tmp162, ldef
# p_setup.c:185: 	li->linedef = ldef;
	.loc 1 185 14
	movq	-24(%rbp), %rax	# li, tmp163
	movq	-8(%rbp), %rdx	# ldef, tmp164
	movq	%rdx, 32(%rax)	# tmp164, li_60->linedef
# p_setup.c:186: 	side = SHORT(ml->side);
	.loc 1 186 9
	movq	-32(%rbp), %rax	# ml, tmp165
	movzwl	8(%rax), %eax	# ml_59->side, _35
# p_setup.c:186: 	side = SHORT(ml->side);
	.loc 1 186 7
	cwtl
	movl	%eax, -36(%rbp)	# tmp166, side
# p_setup.c:187: 	li->sidedef = &sides[ldef->sidenum[side]];
	.loc 1 187 16
	movq	sides(%rip), %rcx	# sides, sides.8_36
# p_setup.c:187: 	li->sidedef = &sides[ldef->sidenum[side]];
	.loc 1 187 36
	movq	-8(%rbp), %rax	# ldef, tmp167
	movl	-36(%rbp), %edx	# side, tmp169
	movslq	%edx, %rdx	# tmp169, tmp168
	addq	$8, %rdx	#, tmp170
	movzwl	14(%rax,%rdx,2), %eax	# ldef_81->sidenum[side_83], _37
	movswq	%ax, %rdx	# _37, _38
# p_setup.c:187: 	li->sidedef = &sides[ldef->sidenum[side]];
	.loc 1 187 22
	movq	%rdx, %rax	# _38, tmp171
	addq	%rax, %rax	# tmp171
	addq	%rdx, %rax	# _38, tmp171
	salq	$3, %rax	#, tmp172
# p_setup.c:187: 	li->sidedef = &sides[ldef->sidenum[side]];
	.loc 1 187 16
	leaq	(%rcx,%rax), %rdx	#, _40
# p_setup.c:187: 	li->sidedef = &sides[ldef->sidenum[side]];
	.loc 1 187 14
	movq	-24(%rbp), %rax	# li, tmp173
	movq	%rdx, 24(%rax)	# _40, li_60->sidedef
# p_setup.c:188: 	li->frontsector = sides[ldef->sidenum[side]].sector;
	.loc 1 188 25
	movq	sides(%rip), %rcx	# sides, sides.9_41
# p_setup.c:188: 	li->frontsector = sides[ldef->sidenum[side]].sector;
	.loc 1 188 39
	movq	-8(%rbp), %rax	# ldef, tmp174
	movl	-36(%rbp), %edx	# side, tmp176
	movslq	%edx, %rdx	# tmp176, tmp175
	addq	$8, %rdx	#, tmp177
	movzwl	14(%rax,%rdx,2), %eax	# ldef_81->sidenum[side_83], _42
	movswq	%ax, %rdx	# _42, _43
# p_setup.c:188: 	li->frontsector = sides[ldef->sidenum[side]].sector;
	.loc 1 188 25
	movq	%rdx, %rax	# _43, tmp178
	addq	%rax, %rax	# tmp178
	addq	%rdx, %rax	# _43, tmp178
	salq	$3, %rax	#, tmp179
	addq	%rcx, %rax	# sides.9_41, _45
# p_setup.c:188: 	li->frontsector = sides[ldef->sidenum[side]].sector;
	.loc 1 188 46
	movq	16(%rax), %rdx	# _45->sector, _46
# p_setup.c:188: 	li->frontsector = sides[ldef->sidenum[side]].sector;
	.loc 1 188 18
	movq	-24(%rbp), %rax	# li, tmp180
	movq	%rdx, 40(%rax)	# _46, li_60->frontsector
# p_setup.c:189: 	if (ldef-> flags & ML_TWOSIDED)
	.loc 1 189 10
	movq	-8(%rbp), %rax	# ldef, tmp181
	movzwl	24(%rax), %eax	# ldef_81->flags, _47
# p_setup.c:189: 	if (ldef-> flags & ML_TWOSIDED)
	.loc 1 189 19
	cwtl
	andl	$4, %eax	#, _49
# p_setup.c:189: 	if (ldef-> flags & ML_TWOSIDED)
	.loc 1 189 5
	testl	%eax, %eax	# _49
	je	.L6	#,
# p_setup.c:190: 	    li->backsector = sides[ldef->sidenum[side^1]].sector;
	.loc 1 190 28
	movq	sides(%rip), %rcx	# sides, sides.10_50
# p_setup.c:190: 	    li->backsector = sides[ldef->sidenum[side^1]].sector;
	.loc 1 190 47
	movl	-36(%rbp), %eax	# side, tmp182
	xorl	$1, %eax	#, tmp182
	movl	%eax, %edx	# tmp182, _51
# p_setup.c:190: 	    li->backsector = sides[ldef->sidenum[side^1]].sector;
	.loc 1 190 42
	movq	-8(%rbp), %rax	# ldef, tmp183
	movslq	%edx, %rdx	# _51, tmp184
	addq	$8, %rdx	#, tmp185
	movzwl	14(%rax,%rdx,2), %eax	# ldef_81->sidenum[_51], _52
	movswq	%ax, %rdx	# _52, _53
# p_setup.c:190: 	    li->backsector = sides[ldef->sidenum[side^1]].sector;
	.loc 1 190 28
	movq	%rdx, %rax	# _53, tmp186
	addq	%rax, %rax	# tmp186
	addq	%rdx, %rax	# _53, tmp186
	salq	$3, %rax	#, tmp187
	addq	%rcx, %rax	# sides.10_50, _55
# p_setup.c:190: 	    li->backsector = sides[ldef->sidenum[side^1]].sector;
	.loc 1 190 51
	movq	16(%rax), %rdx	# _55->sector, _56
# p_setup.c:190: 	    li->backsector = sides[ldef->sidenum[side^1]].sector;
	.loc 1 190 21
	movq	-24(%rbp), %rax	# li, tmp188
	movq	%rdx, 48(%rax)	# _56, li_60->backsector
	jmp	.L7	#
.L6:
# p_setup.c:192: 	    li->backsector = 0;
	.loc 1 192 21
	movq	-24(%rbp), %rax	# li, tmp189
	movq	$0, 48(%rax)	#, li_60->backsector
.L7:
# p_setup.c:176:     for (i=0 ; i<numsegs ; i++, li++, ml++)
	.loc 1 176 29 discriminator 2
	addl	$1, -44(%rbp)	#, i
# p_setup.c:176:     for (i=0 ; i<numsegs ; i++, li++, ml++)
	.loc 1 176 35 discriminator 2
	addq	$56, -24(%rbp)	#, li
# p_setup.c:176:     for (i=0 ; i<numsegs ; i++, li++, ml++)
	.loc 1 176 41 discriminator 2
	addq	$12, -32(%rbp)	#, ml
.L5:
# p_setup.c:176:     for (i=0 ; i<numsegs ; i++, li++, ml++)
	.loc 1 176 17 discriminator 1
	movl	numsegs(%rip), %eax	# numsegs, numsegs.11_57
	cmpl	%eax, -44(%rbp)	# numsegs.11_57, i
	jl	.L8	#,
# p_setup.c:195:     Z_Free (data);
	.loc 1 195 5
	movq	-16(%rbp), %rax	# data, tmp190
	movq	%rax, %rdi	# tmp190,
	call	Z_Free@PLT	#
# p_setup.c:196: }
	.loc 1 196 1
	nop	
	leave	
	.cfi_def_cfa 7, 8
	ret	
	.cfi_endproc
.LFE1:
	.size	P_LoadSegs, .-P_LoadSegs
	.globl	P_LoadSubsectors
	.type	P_LoadSubsectors, @function
P_LoadSubsectors:
.LFB2:
	.loc 1 203 1
	.cfi_startproc
	endbr64	
	pushq	%rbp	#
	.cfi_def_cfa_offset 16
	.cfi_offset 6, -16
	movq	%rsp, %rbp	#,
	.cfi_def_cfa_register 6
	subq	$48, %rsp	#,
	movl	%edi, -36(%rbp)	# lump, lump
# p_setup.c:209:     numsubsectors = W_LumpLength (lump) / sizeof(mapsubsector_t);
	.loc 1 209 21
	movl	-36(%rbp), %eax	# lump, tmp99
	movl	%eax, %edi	# tmp99,
	call	W_LumpLength@PLT	#
# p_setup.c:209:     numsubsectors = W_LumpLength (lump) / sizeof(mapsubsector_t);
	.loc 1 209 21 is_stmt 0 discriminator 1
	cltq
# p_setup.c:209:     numsubsectors = W_LumpLength (lump) / sizeof(mapsubsector_t);
	.loc 1 209 41 is_stmt 1 discriminator 1
	shrq	$2, %rax	#, _3
# p_setup.c:209:     numsubsectors = W_LumpLength (lump) / sizeof(mapsubsector_t);
	.loc 1 209 19 discriminator 1
	movl	%eax, numsubsectors(%rip)	# _4, numsubsectors
# p_setup.c:210:     subsectors = Z_Malloc (numsubsectors*sizeof(subsector_t),PU_LEVEL,0);	
	.loc 1 210 18
	movl	numsubsectors(%rip), %eax	# numsubsectors, numsubsectors.12_5
	cltq
	sall	$4, %eax	#, _8
	movl	$0, %edx	#,
	movl	$50, %esi	#,
	movl	%eax, %edi	# _9,
	call	Z_Malloc@PLT	#
# p_setup.c:210:     subsectors = Z_Malloc (numsubsectors*sizeof(subsector_t),PU_LEVEL,0);	
	.loc 1 210 16 discriminator 1
	movq	%rax, subsectors(%rip)	# _10, subsectors
# p_setup.c:211:     data = W_CacheLumpNum (lump,PU_STATIC);
	.loc 1 211 12
	movl	-36(%rbp), %eax	# lump, tmp100
	movl	$1, %esi	#,
	movl	%eax, %edi	# tmp100,
	call	W_CacheLumpNum@PLT	#
	movq	%rax, -8(%rbp)	# tmp101, data
# p_setup.c:213:     ms = (mapsubsector_t *)data;
	.loc 1 213 8
	movq	-8(%rbp), %rax	# data, tmp102
	movq	%rax, -24(%rbp)	# tmp102, ms
# p_setup.c:214:     memset (subsectors,0, numsubsectors*sizeof(subsector_t));
	.loc 1 214 5
	movl	numsubsectors(%rip), %eax	# numsubsectors, numsubsectors.13_11
	cltq
	salq	$4, %rax	#, _12
	movq	%rax, %rdx	# _12, _13
	movq	subsectors(%rip), %rax	# subsectors, subsectors.14_14
	movl	$0, %esi	#,
	movq	%rax, %rdi	# subsectors.14_14,
	call	memset@PLT	#
# p_setup.c:215:     ss = subsectors;
	.loc 1 215 8
	movq	subsectors(%rip), %rax	# subsectors, tmp103
	movq	%rax, -16(%rbp)	# tmp103, ss
# p_setup.c:217:     for (i=0 ; i<numsubsectors ; i++, ss++, ms++)
	.loc 1 217 11
	movl	$0, -28(%rbp)	#, i
# p_setup.c:217:     for (i=0 ; i<numsubsectors ; i++, ss++, ms++)
	.loc 1 217 5
	jmp	.L10	#
.L11:
# p_setup.c:219: 	ss->numlines = SHORT(ms->numsegs);
	.loc 1 219 17
	movq	-24(%rbp), %rax	# ms, tmp104
	movzwl	(%rax), %edx	# ms_19->numsegs, _15
# p_setup.c:219: 	ss->numlines = SHORT(ms->numsegs);
	.loc 1 219 15
	movq	-16(%rbp), %rax	# ss, tmp105
	movw	%dx, 8(%rax)	# _15, ss_20->numlines
# p_setup.c:220: 	ss->firstline = SHORT(ms->firstseg);
	.loc 1 220 18
	movq	-24(%rbp), %rax	# ms, tmp106
	movzwl	2(%rax), %edx	# ms_19->firstseg, _16
# p_setup.c:220: 	ss->firstline = SHORT(ms->firstseg);
	.loc 1 220 16
	movq	-16(%rbp), %rax	# ss, tmp107
	movw	%dx, 10(%rax)	# _16, ss_20->firstline
# p_setup.c:217:     for (i=0 ; i<numsubsectors ; i++, ss++, ms++)
	.loc 1 217 35 discriminator 3
	addl	$1, -28(%rbp)	#, i
# p_setup.c:217:     for (i=0 ; i<numsubsectors ; i++, ss++, ms++)
	.loc 1 217 41 discriminator 3
	addq	$16, -16(%rbp)	#, ss
# p_setup.c:217:     for (i=0 ; i<numsubsectors ; i++, ss++, ms++)
	.loc 1 217 47 discriminator 3
	addq	$4, -24(%rbp)	#, ms
.L10:
# p_setup.c:217:     for (i=0 ; i<numsubsectors ; i++, ss++, ms++)
	.loc 1 217 17 discriminator 1
	movl	numsubsectors(%rip), %eax	# numsubsectors, numsubsectors.15_17
	cmpl	%eax, -28(%rbp)	# numsubsectors.15_17, i
	jl	.L11	#,
# p_setup.c:223:     Z_Free (data);
	.loc 1 223 5
	movq	-8(%rbp), %rax	# data, tmp108
	movq	%rax, %rdi	# tmp108,
	call	Z_Free@PLT	#
# p_setup.c:224: }
	.loc 1 224 1
	nop	
	leave	
	.cfi_def_cfa 7, 8
	ret	
	.cfi_endproc
.LFE2:
	.size	P_LoadSubsectors, .-P_LoadSubsectors
	.globl	P_LoadSectors
	.type	P_LoadSectors, @function
P_LoadSectors:
.LFB3:
	.loc 1 232 1
	.cfi_startproc
	endbr64	
	pushq	%rbp	#
	.cfi_def_cfa_offset 16
	.cfi_offset 6, -16
	movq	%rsp, %rbp	#,
	.cfi_def_cfa_register 6
	subq	$48, %rsp	#,
	movl	%edi, -36(%rbp)	# lump, lump
# p_setup.c:238:     numsectors = W_LumpLength (lump) / sizeof(mapsector_t);
	.loc 1 238 18
	movl	-36(%rbp), %eax	# lump, tmp112
	movl	%eax, %edi	# tmp112,
	call	W_LumpLength@PLT	#
# p_setup.c:238:     numsectors = W_LumpLength (lump) / sizeof(mapsector_t);
	.loc 1 238 18 is_stmt 0 discriminator 1
	cltq
# p_setup.c:238:     numsectors = W_LumpLength (lump) / sizeof(mapsector_t);
	.loc 1 238 38 is_stmt 1 discriminator 1
	movabsq	$5675921253449092805, %rdx	#, tmp114
	mulq	%rdx	# tmp114
	movq	%rdx, %rax	# tmp113, tmp113
	shrq	$3, %rax	#, tmp113
# p_setup.c:238:     numsectors = W_LumpLength (lump) / sizeof(mapsector_t);
	.loc 1 238 16 discriminator 1
	movl	%eax, numsectors(%rip)	# _4, numsectors
# p_setup.c:239:     sectors = Z_Malloc (numsectors*sizeof(sector_t),PU_LEVEL,0);	
	.loc 1 239 15
	movl	numsectors(%rip), %eax	# numsectors, numsectors.16_5
	cltq
	sall	$7, %eax	#, _8
	movl	$0, %edx	#,
	movl	$50, %esi	#,
	movl	%eax, %edi	# _9,
	call	Z_Malloc@PLT	#
# p_setup.c:239:     sectors = Z_Malloc (numsectors*sizeof(sector_t),PU_LEVEL,0);	
	.loc 1 239 13 discriminator 1
	movq	%rax, sectors(%rip)	# _10, sectors
# p_setup.c:240:     memset (sectors, 0, numsectors*sizeof(sector_t));
	.loc 1 240 5
	movl	numsectors(%rip), %eax	# numsectors, numsectors.17_11
	cltq
	salq	$7, %rax	#, _12
	movq	%rax, %rdx	# _12, _13
	movq	sectors(%rip), %rax	# sectors, sectors.18_14
	movl	$0, %esi	#,
	movq	%rax, %rdi	# sectors.18_14,
	call	memset@PLT	#
# p_setup.c:241:     data = W_CacheLumpNum (lump,PU_STATIC);
	.loc 1 241 12
	movl	-36(%rbp), %eax	# lump, tmp115
	movl	$1, %esi	#,
	movl	%eax, %edi	# tmp115,
	call	W_CacheLumpNum@PLT	#
	movq	%rax, -8(%rbp)	# tmp116, data
# p_setup.c:243:     ms = (mapsector_t *)data;
	.loc 1 243 8
	movq	-8(%rbp), %rax	# data, tmp117
	movq	%rax, -24(%rbp)	# tmp117, ms
# p_setup.c:244:     ss = sectors;
	.loc 1 244 8
	movq	sectors(%rip), %rax	# sectors, tmp118
	movq	%rax, -16(%rbp)	# tmp118, ss
# p_setup.c:245:     for (i=0 ; i<numsectors ; i++, ss++, ms++)
	.loc 1 245 11
	movl	$0, -28(%rbp)	#, i
# p_setup.c:245:     for (i=0 ; i<numsectors ; i++, ss++, ms++)
	.loc 1 245 5
	jmp	.L13	#
.L14:
# p_setup.c:247: 	ss->floorheight = SHORT(ms->floorheight)<<FRACBITS;
	.loc 1 247 20
	movq	-24(%rbp), %rax	# ms, tmp119
	movzwl	(%rax), %eax	# ms_32->floorheight, _15
	cwtl
# p_setup.c:247: 	ss->floorheight = SHORT(ms->floorheight)<<FRACBITS;
	.loc 1 247 42
	sall	$16, %eax	#, _16
	movl	%eax, %edx	# _16, _17
# p_setup.c:247: 	ss->floorheight = SHORT(ms->floorheight)<<FRACBITS;
	.loc 1 247 18
	movq	-16(%rbp), %rax	# ss, tmp120
	movl	%edx, (%rax)	# _17, ss_33->floorheight
# p_setup.c:248: 	ss->ceilingheight = SHORT(ms->ceilingheight)<<FRACBITS;
	.loc 1 248 22
	movq	-24(%rbp), %rax	# ms, tmp121
	movzwl	2(%rax), %eax	# ms_32->ceilingheight, _18
	cwtl
# p_setup.c:248: 	ss->ceilingheight = SHORT(ms->ceilingheight)<<FRACBITS;
	.loc 1 248 46
	sall	$16, %eax	#, _19
	movl	%eax, %edx	# _19, _20
# p_setup.c:248: 	ss->ceilingheight = SHORT(ms->ceilingheight)<<FRACBITS;
	.loc 1 248 20
	movq	-16(%rbp), %rax	# ss, tmp122
	movl	%edx, 4(%rax)	# _20, ss_33->ceilingheight
# p_setup.c:249: 	ss->floorpic = R_FlatNumForName(ms->floorpic);
	.loc 1 249 36
	movq	-24(%rbp), %rax	# ms, tmp123
	addq	$4, %rax	#, _21
# p_setup.c:249: 	ss->floorpic = R_FlatNumForName(ms->floorpic);
	.loc 1 249 17
	movq	%rax, %rdi	# _21,
	call	R_FlatNumForName@PLT	#
# p_setup.c:249: 	ss->floorpic = R_FlatNumForName(ms->floorpic);
	.loc 1 249 15 discriminator 1
	movl	%eax, %edx	# _22, _23
	movq	-16(%rbp), %rax	# ss, tmp124
	movw	%dx, 8(%rax)	# _23, ss_33->floorpic
# p_setup.c:250: 	ss->ceilingpic = R_FlatNumForName(ms->ceilingpic);
	.loc 1 250 38
	movq	-24(%rbp), %rax	# ms, tmp125
	addq	$12, %rax	#, _24
# p_setup.c:250: 	ss->ceilingpic = R_FlatNumForName(ms->ceilingpic);
	.loc 1 250 19
	movq	%rax, %rdi	# _24,
	call	R_FlatNumForName@PLT	#
# p_setup.c:250: 	ss->ceilingpic = R_FlatNumForName(ms->ceilingpic);
	.loc 1 250 17 discriminator 1
	movl	%eax, %edx	# _25, _26
	movq	-16(%rbp), %rax	# ss, tmp126
	movw	%dx, 10(%rax)	# _26, ss_33->ceilingpic
# p_setup.c:251: 	ss->lightlevel = SHORT(ms->lightlevel);
	.loc 1 251 19
	movq	-24(%rbp), %rax	# ms, tmp127
	movzwl	20(%rax), %edx	# ms_32->lightlevel, _27
# p_setup.c:251: 	ss->lightlevel = SHORT(ms->lightlevel);
	.loc 1 251 17
	movq	-16(%rbp), %rax	# ss, tmp128
	movw	%dx, 12(%rax)	# _27, ss_33->lightlevel
# p_setup.c:252: 	ss->special = SHORT(ms->special);
	.loc 1 252 16
	movq	-24(%rbp), %rax	# ms, tmp129
	movzwl	22(%rax), %edx	# ms_32->special, _28
# p_setup.c:252: 	ss->special = SHORT(ms->special);
	.loc 1 252 14
	movq	-16(%rbp), %rax	# ss, tmp130
	movw	%dx, 14(%rax)	# _28, ss_33->special
# p_setup.c:253: 	ss->tag = SHORT(ms->tag);
	.loc 1 253 12
	movq	-24(%rbp), %rax	# ms, tmp131
	movzwl	24(%rax), %edx	# ms_32->tag, _29
# p_setup.c:253: 	ss->tag = SHORT(ms->tag);
	.loc 1 253 10
	movq	-16(%rbp), %rax	# ss, tmp132
	movw	%dx, 16(%rax)	# _29, ss_33->tag
# p_setup.c:254: 	ss->thinglist = NULL;
	.loc 1 254 16
	movq	-16(%rbp), %rax	# ss, tmp133
	movq	$0, 96(%rax)	#, ss_33->thinglist
# p_setup.c:245:     for (i=0 ; i<numsectors ; i++, ss++, ms++)
	.loc 1 245 32 discriminator 3
	addl	$1, -28(%rbp)	#, i
# p_setup.c:245:     for (i=0 ; i<numsectors ; i++, ss++, ms++)
	.loc 1 245 38 discriminator 3
	subq	$-128, -16(%rbp)	#, ss
# p_setup.c:245:     for (i=0 ; i<numsectors ; i++, ss++, ms++)
	.loc 1 245 44 discriminator 3
	addq	$26, -24(%rbp)	#, ms
.L13:
# p_setup.c:245:     for (i=0 ; i<numsectors ; i++, ss++, ms++)
	.loc 1 245 17 discriminator 1
	movl	numsectors(%rip), %eax	# numsectors, numsectors.19_30
	cmpl	%eax, -28(%rbp)	# numsectors.19_30, i
	jl	.L14	#,
# p_setup.c:257:     Z_Free (data);
	.loc 1 257 5
	movq	-8(%rbp), %rax	# data, tmp134
	movq	%rax, %rdi	# tmp134,
	call	Z_Free@PLT	#
# p_setup.c:258: }
	.loc 1 258 1
	nop	
	leave	
	.cfi_def_cfa 7, 8
	ret	
	.cfi_endproc
.LFE3:
	.size	P_LoadSectors, .-P_LoadSectors
	.globl	P_LoadNodes
	.type	P_LoadNodes, @function
P_LoadNodes:
.LFB4:
	.loc 1 265 1
	.cfi_startproc
	endbr64	
	pushq	%rbp	#
	.cfi_def_cfa_offset 16
	.cfi_offset 6, -16
	movq	%rsp, %rbp	#,
	.cfi_def_cfa_register 6
	subq	$64, %rsp	#,
	movl	%edi, -52(%rbp)	# lump, lump
# p_setup.c:273:     numnodes = W_LumpLength (lump) / sizeof(mapnode_t);
	.loc 1 273 16
	movl	-52(%rbp), %eax	# lump, tmp109
	movl	%eax, %edi	# tmp109,
	call	W_LumpLength@PLT	#
# p_setup.c:273:     numnodes = W_LumpLength (lump) / sizeof(mapnode_t);
	.loc 1 273 16 is_stmt 0 discriminator 1
	cltq
# p_setup.c:273:     numnodes = W_LumpLength (lump) / sizeof(mapnode_t);
	.loc 1 273 36 is_stmt 1 discriminator 1
	shrq	$2, %rax	#, tmp110
	movabsq	$5270498306774157605, %rdx	#, tmp112
	mulq	%rdx	# tmp112
	movq	%rdx, %rax	# tmp111, tmp111
	shrq	%rax	# tmp111
# p_setup.c:273:     numnodes = W_LumpLength (lump) / sizeof(mapnode_t);
	.loc 1 273 14 discriminator 1
	movl	%eax, numnodes(%rip)	# _4, numnodes
# p_setup.c:274:     nodes = Z_Malloc (numnodes*sizeof(node_t),PU_LEVEL,0);	
	.loc 1 274 13
	movl	numnodes(%rip), %eax	# numnodes, numnodes.20_5
	cltq
	imull	$52, %eax, %eax	#, _7, _8
	movl	$0, %edx	#,
	movl	$50, %esi	#,
	movl	%eax, %edi	# _9,
	call	Z_Malloc@PLT	#
# p_setup.c:274:     nodes = Z_Malloc (numnodes*sizeof(node_t),PU_LEVEL,0);	
	.loc 1 274 11 discriminator 1
	movq	%rax, nodes(%rip)	# _10, nodes
# p_setup.c:275:     data = W_CacheLumpNum (lump,PU_STATIC);
	.loc 1 275 12
	movl	-52(%rbp), %eax	# lump, tmp113
	movl	$1, %esi	#,
	movl	%eax, %edi	# tmp113,
	call	W_CacheLumpNum@PLT	#
	movq	%rax, -8(%rbp)	# tmp114, data
# p_setup.c:277:     mn = (mapnode_t *)data;
	.loc 1 277 8
	movq	-8(%rbp), %rax	# data, tmp115
	movq	%rax, -24(%rbp)	# tmp115, mn
# p_setup.c:278:     no = nodes;
	.loc 1 278 8
	movq	nodes(%rip), %rax	# nodes, tmp116
	movq	%rax, -16(%rbp)	# tmp116, no
# p_setup.c:280:     for (i=0 ; i<numnodes ; i++, no++, mn++)
	.loc 1 280 11
	movl	$0, -36(%rbp)	#, i
# p_setup.c:280:     for (i=0 ; i<numnodes ; i++, no++, mn++)
	.loc 1 280 5
	jmp	.L16	#
.L21:
# p_setup.c:282: 	no->x = SHORT(mn->x)<<FRACBITS;
	.loc 1 282 10
	movq	-24(%rbp), %rax	# mn, tmp117
	movzwl	(%rax), %eax	# mn_31->x, _11
	cwtl
# p_setup.c:282: 	no->x = SHORT(mn->x)<<FRACBITS;
	.loc 1 282 22
	sall	$16, %eax	#, _12
	movl	%eax, %edx	# _12, _13
# p_setup.c:282: 	no->x = SHORT(mn->x)<<FRACBITS;
	.loc 1 282 8
	movq	-16(%rbp), %rax	# no, tmp118
	movl	%edx, (%rax)	# _13, no_32->x
# p_setup.c:283: 	no->y = SHORT(mn->y)<<FRACBITS;
	.loc 1 283 10
	movq	-24(%rbp), %rax	# mn, tmp119
	movzwl	2(%rax), %eax	# mn_31->y, _14
	cwtl
# p_setup.c:283: 	no->y = SHORT(mn->y)<<FRACBITS;
	.loc 1 283 22
	sall	$16, %eax	#, _15
	movl	%eax, %edx	# _15, _16
# p_setup.c:283: 	no->y = SHORT(mn->y)<<FRACBITS;
	.loc 1 283 8
	movq	-16(%rbp), %rax	# no, tmp120
	movl	%edx, 4(%rax)	# _16, no_32->y
# p_setup.c:284: 	no->dx = SHORT(mn->dx)<<FRACBITS;
	.loc 1 284 11
	movq	-24(%rbp), %rax	# mn, tmp121
	movzwl	4(%rax), %eax	# mn_31->dx, _17
	cwtl
# p_setup.c:284: 	no->dx = SHORT(mn->dx)<<FRACBITS;
	.loc 1 284 24
	sall	$16, %eax	#, _18
	movl	%eax, %edx	# _18, _19
# p_setup.c:284: 	no->dx = SHORT(mn->dx)<<FRACBITS;
	.loc 1 284 9
	movq	-16(%rbp), %rax	# no, tmp122
	movl	%edx, 8(%rax)	# _19, no_32->dx
# p_setup.c:285: 	no->dy = SHORT(mn->dy)<<FRACBITS;
	.loc 1 285 11
	movq	-24(%rbp), %rax	# mn, tmp123
	movzwl	6(%rax), %eax	# mn_31->dy, _20
	cwtl
# p_setup.c:285: 	no->dy = SHORT(mn->dy)<<FRACBITS;
	.loc 1 285 24
	sall	$16, %eax	#, _21
	movl	%eax, %edx	# _21, _22
# p_setup.c:285: 	no->dy = SHORT(mn->dy)<<FRACBITS;
	.loc 1 285 9
	movq	-16(%rbp), %rax	# no, tmp124
	movl	%edx, 12(%rax)	# _22, no_32->dy
# p_setup.c:286: 	for (j=0 ; j<2 ; j++)
	.loc 1 286 8
	movl	$0, -32(%rbp)	#, j
# p_setup.c:286: 	for (j=0 ; j<2 ; j++)
	.loc 1 286 2
	jmp	.L17	#
.L20:
# p_setup.c:288: 	    no->children[j] = SHORT(mn->children[j]);
	.loc 1 288 24
	movq	-24(%rbp), %rax	# mn, tmp125
	movl	-32(%rbp), %edx	# j, tmp127
	movslq	%edx, %rdx	# tmp127, tmp126
	addq	$8, %rdx	#, tmp128
	movzwl	8(%rax,%rdx,2), %edx	# mn_31->children[j_29], _23
# p_setup.c:288: 	    no->children[j] = SHORT(mn->children[j]);
	.loc 1 288 22
	movq	-16(%rbp), %rax	# no, tmp129
	movl	-32(%rbp), %ecx	# j, tmp131
	movslq	%ecx, %rcx	# tmp131, tmp130
	addq	$24, %rcx	#, tmp132
	movw	%dx, (%rax,%rcx,2)	# _23, no_32->children[j_29]
# p_setup.c:289: 	    for (k=0 ; k<4 ; k++)
	.loc 1 289 12
	movl	$0, -28(%rbp)	#, k
# p_setup.c:289: 	    for (k=0 ; k<4 ; k++)
	.loc 1 289 6
	jmp	.L18	#
.L19:
# p_setup.c:290: 		no->bbox[j][k] = SHORT(mn->bbox[j][k])<<FRACBITS;
	.loc 1 290 20
	movq	-24(%rbp), %rax	# mn, tmp133
	movl	-28(%rbp), %edx	# k, tmp135
	movslq	%edx, %rdx	# tmp135, tmp134
	movl	-32(%rbp), %ecx	# j, tmp137
	movslq	%ecx, %rcx	# tmp137, tmp136
	salq	$2, %rcx	#, tmp138
	addq	%rcx, %rdx	# tmp138, tmp139
	movzwl	8(%rax,%rdx,2), %eax	# mn_31->bbox[j_29][k_30], _24
	cwtl
# p_setup.c:290: 		no->bbox[j][k] = SHORT(mn->bbox[j][k])<<FRACBITS;
	.loc 1 290 41
	sall	$16, %eax	#, _25
	movl	%eax, %ecx	# _25, _26
# p_setup.c:290: 		no->bbox[j][k] = SHORT(mn->bbox[j][k])<<FRACBITS;
	.loc 1 290 18
	movq	-16(%rbp), %rax	# no, tmp140
	movl	-28(%rbp), %edx	# k, tmp142
	movslq	%edx, %rdx	# tmp142, tmp141
	movl	-32(%rbp), %esi	# j, tmp144
	movslq	%esi, %rsi	# tmp144, tmp143
	salq	$2, %rsi	#, tmp145
	addq	%rsi, %rdx	# tmp145, tmp146
	addq	$4, %rdx	#, tmp147
	movl	%ecx, (%rax,%rdx,4)	# _26, no_32->bbox[j_29][k_30]
# p_setup.c:289: 	    for (k=0 ; k<4 ; k++)
	.loc 1 289 24 discriminator 3
	addl	$1, -28(%rbp)	#, k
.L18:
# p_setup.c:289: 	    for (k=0 ; k<4 ; k++)
	.loc 1 289 18 discriminator 1
	cmpl	$3, -28(%rbp)	#, k
	jle	.L19	#,
# p_setup.c:286: 	for (j=0 ; j<2 ; j++)
	.loc 1 286 20 discriminator 2
	addl	$1, -32(%rbp)	#, j
.L17:
# p_setup.c:286: 	for (j=0 ; j<2 ; j++)
	.loc 1 286 14 discriminator 1
	cmpl	$1, -32(%rbp)	#, j
	jle	.L20	#,
# p_setup.c:280:     for (i=0 ; i<numnodes ; i++, no++, mn++)
	.loc 1 280 30 discriminator 2
	addl	$1, -36(%rbp)	#, i
# p_setup.c:280:     for (i=0 ; i<numnodes ; i++, no++, mn++)
	.loc 1 280 36 discriminator 2
	addq	$52, -16(%rbp)	#, no
# p_setup.c:280:     for (i=0 ; i<numnodes ; i++, no++, mn++)
	.loc 1 280 42 discriminator 2
	addq	$28, -24(%rbp)	#, mn
.L16:
# p_setup.c:280:     for (i=0 ; i<numnodes ; i++, no++, mn++)
	.loc 1 280 17 discriminator 1
	movl	numnodes(%rip), %eax	# numnodes, numnodes.21_27
	cmpl	%eax, -36(%rbp)	# numnodes.21_27, i
	jl	.L21	#,
# p_setup.c:294:     Z_Free (data);
	.loc 1 294 5
	movq	-8(%rbp), %rax	# data, tmp148
	movq	%rax, %rdi	# tmp148,
	call	Z_Free@PLT	#
# p_setup.c:295: }
	.loc 1 295 1
	nop	
	leave	
	.cfi_def_cfa 7, 8
	ret	
	.cfi_endproc
.LFE4:
	.size	P_LoadNodes, .-P_LoadNodes
	.globl	P_LoadThings
	.type	P_LoadThings, @function
P_LoadThings:
.LFB5:
	.loc 1 302 1
	.cfi_startproc
	endbr64	
	pushq	%rbp	#
	.cfi_def_cfa_offset 16
	.cfi_offset 6, -16
	movq	%rsp, %rbp	#,
	.cfi_def_cfa_register 6
	subq	$48, %rsp	#,
	movl	%edi, -36(%rbp)	# lump, lump
# p_setup.c:309:     data = W_CacheLumpNum (lump,PU_STATIC);
	.loc 1 309 12
	movl	-36(%rbp), %eax	# lump, tmp99
	movl	$1, %esi	#,
	movl	%eax, %edi	# tmp99,
	call	W_CacheLumpNum@PLT	#
	movq	%rax, -8(%rbp)	# tmp100, data
# p_setup.c:310:     numthings = W_LumpLength (lump) / sizeof(mapthing_t);
	.loc 1 310 17
	movl	-36(%rbp), %eax	# lump, tmp101
	movl	%eax, %edi	# tmp101,
	call	W_LumpLength@PLT	#
# p_setup.c:310:     numthings = W_LumpLength (lump) / sizeof(mapthing_t);
	.loc 1 310 17 is_stmt 0 discriminator 1
	cltq
# p_setup.c:310:     numthings = W_LumpLength (lump) / sizeof(mapthing_t);
	.loc 1 310 37 is_stmt 1 discriminator 1
	movabsq	$-3689348814741910323, %rdx	#, tmp103
	mulq	%rdx	# tmp103
	movq	%rdx, %rax	# tmp102, tmp102
	shrq	$3, %rax	#, tmp102
# p_setup.c:310:     numthings = W_LumpLength (lump) / sizeof(mapthing_t);
	.loc 1 310 15 discriminator 1
	movl	%eax, -20(%rbp)	# _3, numthings
# p_setup.c:312:     mt = (mapthing_t *)data;
	.loc 1 312 8
	movq	-8(%rbp), %rax	# data, tmp104
	movq	%rax, -16(%rbp)	# tmp104, mt
# p_setup.c:313:     for (i=0 ; i<numthings ; i++, mt++)
	.loc 1 313 11
	movl	$0, -28(%rbp)	#, i
# p_setup.c:313:     for (i=0 ; i<numthings ; i++, mt++)
	.loc 1 313 5
	jmp	.L23	#
.L27:
# p_setup.c:315: 	spawn = true;
	.loc 1 315 8
	movl	$1, -24(%rbp)	#, spawn
# p_setup.c:318: 	if ( gamemode != commercial)
	.loc 1 318 16
	movl	gamemode(%rip), %eax	# gamemode, gamemode.22_4
# p_setup.c:318: 	if ( gamemode != commercial)
	.loc 1 318 5
	cmpl	$2, %eax	#, gamemode.22_4
	je	.L24	#,
# p_setup.c:320: 	    switch(mt->type)
	.loc 1 320 15
	movq	-16(%rbp), %rax	# mt, tmp105
	movzwl	6(%rax), %eax	# mt_13->type, _5
	cwtl
# p_setup.c:320: 	    switch(mt->type)
	.loc 1 320 6
	subl	$64, %eax	#, _36
	cmpl	$25, %eax	#, _36
	seta	%dl	#, _37
	testb	%dl, %dl	# _37
	jne	.L24	#,
	movl	$51380415, %edx	#, tmp106
	movl	%eax, %ecx	# _36, tmp124
	shrq	%cl, %rdx	# tmp124, tmp106
	movq	%rdx, %rax	# tmp106, _38
	andl	$1, %eax	#, _39
	testq	%rax, %rax	# _39
	setne	%al	#, _40
	testb	%al, %al	# _40
	je	.L24	#,
# p_setup.c:332: 		spawn = false;
	.loc 1 332 9
	movl	$0, -24(%rbp)	#, spawn
# p_setup.c:333: 		break;
	.loc 1 333 3
	nop	
.L24:
# p_setup.c:336: 	if (spawn == false)
	.loc 1 336 5
	cmpl	$0, -24(%rbp)	#, spawn
	je	.L28	#,
# p_setup.c:340: 	mt->x = SHORT(mt->x);
	.loc 1 340 10
	movq	-16(%rbp), %rax	# mt, tmp107
	movzwl	(%rax), %edx	# mt_13->x, _7
# p_setup.c:340: 	mt->x = SHORT(mt->x);
	.loc 1 340 8
	movq	-16(%rbp), %rax	# mt, tmp108
	movw	%dx, (%rax)	# _7, mt_13->x
# p_setup.c:341: 	mt->y = SHORT(mt->y);
	.loc 1 341 10
	movq	-16(%rbp), %rax	# mt, tmp109
	movzwl	2(%rax), %edx	# mt_13->y, _8
# p_setup.c:341: 	mt->y = SHORT(mt->y);
	.loc 1 341 8
	movq	-16(%rbp), %rax	# mt, tmp110
	movw	%dx, 2(%rax)	# _8, mt_13->y
# p_setup.c:342: 	mt->angle = SHORT(mt->angle);
	.loc 1 342 14
	movq	-16(%rbp), %rax	# mt, tmp111
	movzwl	4(%rax), %edx	# mt_13->angle, _9
# p_setup.c:342: 	mt->angle = SHORT(mt->angle);
	.loc 1 342 12
	movq	-16(%rbp), %rax	# mt, tmp112
	movw	%dx, 4(%rax)	# _9, mt_13->angle
# p_setup.c:343: 	mt->type = SHORT(mt->type);
	.loc 1 343 13
	movq	-16(%rbp), %rax	# mt, tmp113
	movzwl	6(%rax), %edx	# mt_13->type, _10
# p_setup.c:343: 	mt->type = SHORT(mt->type);
	.loc 1 343 11
	movq	-16(%rbp), %rax	# mt, tmp114
	movw	%dx, 6(%rax)	# _10, mt_13->type
# p_setup.c:344: 	mt->options = SHORT(mt->options);
	.loc 1 344 16
	movq	-16(%rbp), %rax	# mt, tmp115
	movzwl	8(%rax), %edx	# mt_13->options, _11
# p_setup.c:344: 	mt->options = SHORT(mt->options);
	.loc 1 344 14
	movq	-16(%rbp), %rax	# mt, tmp116
	movw	%dx, 8(%rax)	# _11, mt_13->options
# p_setup.c:346: 	P_SpawnMapThing (mt);
	.loc 1 346 2
	movq	-16(%rbp), %rax	# mt, tmp117
	movq	%rax, %rdi	# tmp117,
	call	P_SpawnMapThing@PLT	#
# p_setup.c:313:     for (i=0 ; i<numthings ; i++, mt++)
	.loc 1 313 31 discriminator 2
	addl	$1, -28(%rbp)	#, i
# p_setup.c:313:     for (i=0 ; i<numthings ; i++, mt++)
	.loc 1 313 37 discriminator 2
	addq	$10, -16(%rbp)	#, mt
.L23:
# p_setup.c:313:     for (i=0 ; i<numthings ; i++, mt++)
	.loc 1 313 17 discriminator 1
	movl	-28(%rbp), %eax	# i, tmp118
	cmpl	-20(%rbp), %eax	# numthings, tmp118
	jl	.L27	#,
	jmp	.L26	#
.L28:
# p_setup.c:337: 	    break;
	.loc 1 337 6
	nop	
.L26:
# p_setup.c:349:     Z_Free (data);
	.loc 1 349 5
	movq	-8(%rbp), %rax	# data, tmp119
	movq	%rax, %rdi	# tmp119,
	call	Z_Free@PLT	#
# p_setup.c:350: }
	.loc 1 350 1
	nop	
	leave	
	.cfi_def_cfa 7, 8
	ret	
	.cfi_endproc
.LFE5:
	.size	P_LoadThings, .-P_LoadThings
	.globl	P_LoadLineDefs
	.type	P_LoadLineDefs, @function
P_LoadLineDefs:
.LFB6:
	.loc 1 358 1
	.cfi_startproc
	endbr64	
	pushq	%rbp	#
	.cfi_def_cfa_offset 16
	.cfi_offset 6, -16
	movq	%rsp, %rbp	#,
	.cfi_def_cfa_register 6
	subq	$64, %rsp	#,
	movl	%edi, -52(%rbp)	# lump, lump
# p_setup.c:366:     numlines = W_LumpLength (lump) / sizeof(maplinedef_t);
	.loc 1 366 16
	movl	-52(%rbp), %eax	# lump, tmp149
	movl	%eax, %edi	# tmp149,
	call	W_LumpLength@PLT	#
# p_setup.c:366:     numlines = W_LumpLength (lump) / sizeof(maplinedef_t);
	.loc 1 366 16 is_stmt 0 discriminator 1
	cltq
# p_setup.c:366:     numlines = W_LumpLength (lump) / sizeof(maplinedef_t);
	.loc 1 366 36 is_stmt 1 discriminator 1
	shrq	%rax	# tmp150
	movabsq	$5270498306774157605, %rdx	#, tmp152
	mulq	%rdx	# tmp152
	movq	%rdx, %rax	# tmp151, tmp151
	shrq	%rax	# tmp151
# p_setup.c:366:     numlines = W_LumpLength (lump) / sizeof(maplinedef_t);
	.loc 1 366 14 discriminator 1
	movl	%eax, numlines(%rip)	# _4, numlines
# p_setup.c:367:     lines = Z_Malloc (numlines*sizeof(line_t),PU_LEVEL,0);	
	.loc 1 367 13
	movl	numlines(%rip), %eax	# numlines, numlines.23_5
	cltq
	imull	$88, %eax, %eax	#, _7, _8
	movl	$0, %edx	#,
	movl	$50, %esi	#,
	movl	%eax, %edi	# _9,
	call	Z_Malloc@PLT	#
# p_setup.c:367:     lines = Z_Malloc (numlines*sizeof(line_t),PU_LEVEL,0);	
	.loc 1 367 11 discriminator 1
	movq	%rax, lines(%rip)	# _10, lines
# p_setup.c:368:     memset (lines, 0, numlines*sizeof(line_t));
	.loc 1 368 5
	movl	numlines(%rip), %eax	# numlines, numlines.24_11
	movslq	%eax, %rdx	# numlines.24_11, _12
	movq	%rdx, %rax	# _12, tmp153
	salq	$2, %rax	#, tmp153
	addq	%rdx, %rax	# _12, tmp153
	addq	%rax, %rax	# tmp153
	addq	%rdx, %rax	# _12, tmp153
	salq	$3, %rax	#, tmp154
	movq	%rax, %rdx	# tmp153, _13
	movq	lines(%rip), %rax	# lines, lines.25_14
	movl	$0, %esi	#,
	movq	%rax, %rdi	# lines.25_14,
	call	memset@PLT	#
# p_setup.c:369:     data = W_CacheLumpNum (lump,PU_STATIC);
	.loc 1 369 12
	movl	-52(%rbp), %eax	# lump, tmp155
	movl	$1, %esi	#,
	movl	%eax, %edi	# tmp155,
	call	W_CacheLumpNum@PLT	#
	movq	%rax, -24(%rbp)	# tmp156, data
# p_setup.c:371:     mld = (maplinedef_t *)data;
	.loc 1 371 9
	movq	-24(%rbp), %rax	# data, tmp157
	movq	%rax, -40(%rbp)	# tmp157, mld
# p_setup.c:372:     ld = lines;
	.loc 1 372 8
	movq	lines(%rip), %rax	# lines, tmp158
	movq	%rax, -32(%rbp)	# tmp158, ld
# p_setup.c:373:     for (i=0 ; i<numlines ; i++, mld++, ld++)
	.loc 1 373 11
	movl	$0, -44(%rbp)	#, i
# p_setup.c:373:     for (i=0 ; i<numlines ; i++, mld++, ld++)
	.loc 1 373 5
	jmp	.L30	#
.L43:
# p_setup.c:375: 	ld->flags = SHORT(mld->flags);
	.loc 1 375 14
	movq	-40(%rbp), %rax	# mld, tmp159
	movzwl	4(%rax), %edx	# mld_69->flags, _15
# p_setup.c:375: 	ld->flags = SHORT(mld->flags);
	.loc 1 375 12
	movq	-32(%rbp), %rax	# ld, tmp160
	movw	%dx, 24(%rax)	# _15, ld_70->flags
# p_setup.c:376: 	ld->special = SHORT(mld->special);
	.loc 1 376 16
	movq	-40(%rbp), %rax	# mld, tmp161
	movzwl	6(%rax), %edx	# mld_69->special, _16
# p_setup.c:376: 	ld->special = SHORT(mld->special);
	.loc 1 376 14
	movq	-32(%rbp), %rax	# ld, tmp162
	movw	%dx, 26(%rax)	# _16, ld_70->special
# p_setup.c:377: 	ld->tag = SHORT(mld->tag);
	.loc 1 377 12
	movq	-40(%rbp), %rax	# mld, tmp163
	movzwl	8(%rax), %edx	# mld_69->tag, _17
# p_setup.c:377: 	ld->tag = SHORT(mld->tag);
	.loc 1 377 10
	movq	-32(%rbp), %rax	# ld, tmp164
	movw	%dx, 28(%rax)	# _17, ld_70->tag
# p_setup.c:378: 	v1 = ld->v1 = &vertexes[SHORT(mld->v1)];
	.loc 1 378 16
	movq	vertexes(%rip), %rdx	# vertexes, vertexes.26_18
# p_setup.c:378: 	v1 = ld->v1 = &vertexes[SHORT(mld->v1)];
	.loc 1 378 26
	movq	-40(%rbp), %rax	# mld, tmp165
	movzwl	(%rax), %eax	# mld_69->v1, _19
	movswq	%ax, %rax	# _19, _20
# p_setup.c:378: 	v1 = ld->v1 = &vertexes[SHORT(mld->v1)];
	.loc 1 378 25
	salq	$3, %rax	#, _21
# p_setup.c:378: 	v1 = ld->v1 = &vertexes[SHORT(mld->v1)];
	.loc 1 378 16
	addq	%rax, %rdx	# _21, _22
# p_setup.c:378: 	v1 = ld->v1 = &vertexes[SHORT(mld->v1)];
	.loc 1 378 14
	movq	-32(%rbp), %rax	# ld, tmp166
	movq	%rdx, (%rax)	# _22, ld_70->v1
# p_setup.c:378: 	v1 = ld->v1 = &vertexes[SHORT(mld->v1)];
	.loc 1 378 5
	movq	-32(%rbp), %rax	# ld, tmp167
	movq	(%rax), %rax	# ld_70->v1, tmp168
	movq	%rax, -16(%rbp)	# tmp168, v1
# p_setup.c:379: 	v2 = ld->v2 = &vertexes[SHORT(mld->v2)];
	.loc 1 379 16
	movq	vertexes(%rip), %rdx	# vertexes, vertexes.27_23
# p_setup.c:379: 	v2 = ld->v2 = &vertexes[SHORT(mld->v2)];
	.loc 1 379 26
	movq	-40(%rbp), %rax	# mld, tmp169
	movzwl	2(%rax), %eax	# mld_69->v2, _24
	movswq	%ax, %rax	# _24, _25
# p_setup.c:379: 	v2 = ld->v2 = &vertexes[SHORT(mld->v2)];
	.loc 1 379 25
	salq	$3, %rax	#, _26
# p_setup.c:379: 	v2 = ld->v2 = &vertexes[SHORT(mld->v2)];
	.loc 1 379 16
	addq	%rax, %rdx	# _26, _27
# p_setup.c:379: 	v2 = ld->v2 = &vertexes[SHORT(mld->v2)];
	.loc 1 379 14
	movq	-32(%rbp), %rax	# ld, tmp170
	movq	%rdx, 8(%rax)	# _27, ld_70->v2
# p_setup.c:379: 	v2 = ld->v2 = &vertexes[SHORT(mld->v2)];
	.loc 1 379 5
	movq	-32(%rbp), %rax	# ld, tmp171
	movq	8(%rax), %rax	# ld_70->v2, tmp172
	movq	%rax, -8(%rbp)	# tmp172, v2
# p_setup.c:380: 	ld->dx = v2->x - v1->x;
	.loc 1 380 13
	movq	-8(%rbp), %rax	# v2, tmp173
	movl	(%rax), %edx	# v2_96->x, _28
# p_setup.c:380: 	ld->dx = v2->x - v1->x;
	.loc 1 380 21
	movq	-16(%rbp), %rax	# v1, tmp174
	movl	(%rax), %eax	# v1_94->x, _29
# p_setup.c:380: 	ld->dx = v2->x - v1->x;
	.loc 1 380 17
	subl	%eax, %edx	# _29, _30
# p_setup.c:380: 	ld->dx = v2->x - v1->x;
	.loc 1 380 9
	movq	-32(%rbp), %rax	# ld, tmp175
	movl	%edx, 16(%rax)	# _30, ld_70->dx
# p_setup.c:381: 	ld->dy = v2->y - v1->y;
	.loc 1 381 13
	movq	-8(%rbp), %rax	# v2, tmp176
	movl	4(%rax), %edx	# v2_96->y, _31
# p_setup.c:381: 	ld->dy = v2->y - v1->y;
	.loc 1 381 21
	movq	-16(%rbp), %rax	# v1, tmp177
	movl	4(%rax), %eax	# v1_94->y, _32
# p_setup.c:381: 	ld->dy = v2->y - v1->y;
	.loc 1 381 17
	subl	%eax, %edx	# _32, _33
# p_setup.c:381: 	ld->dy = v2->y - v1->y;
	.loc 1 381 9
	movq	-32(%rbp), %rax	# ld, tmp178
	movl	%edx, 20(%rax)	# _33, ld_70->dy
# p_setup.c:383: 	if (!ld->dx)
	.loc 1 383 9
	movq	-32(%rbp), %rax	# ld, tmp179
	movl	16(%rax), %eax	# ld_70->dx, _34
# p_setup.c:383: 	if (!ld->dx)
	.loc 1 383 5
	testl	%eax, %eax	# _34
	jne	.L31	#,
# p_setup.c:384: 	    ld->slopetype = ST_VERTICAL;
	.loc 1 384 20
	movq	-32(%rbp), %rax	# ld, tmp180
	movl	$1, 52(%rax)	#, ld_70->slopetype
	jmp	.L32	#
.L31:
# p_setup.c:385: 	else if (!ld->dy)
	.loc 1 385 14
	movq	-32(%rbp), %rax	# ld, tmp181
	movl	20(%rax), %eax	# ld_70->dy, _35
# p_setup.c:385: 	else if (!ld->dy)
	.loc 1 385 10
	testl	%eax, %eax	# _35
	jne	.L33	#,
# p_setup.c:386: 	    ld->slopetype = ST_HORIZONTAL;
	.loc 1 386 20
	movq	-32(%rbp), %rax	# ld, tmp182
	movl	$0, 52(%rax)	#, ld_70->slopetype
	jmp	.L32	#
.L33:
# p_setup.c:389: 	    if (FixedDiv (ld->dy , ld->dx) > 0)
	.loc 1 389 10
	movq	-32(%rbp), %rax	# ld, tmp183
	movl	16(%rax), %edx	# ld_70->dx, _36
	movq	-32(%rbp), %rax	# ld, tmp184
	movl	20(%rax), %eax	# ld_70->dy, _37
	movl	%edx, %esi	# _36,
	movl	%eax, %edi	# _37,
	call	FixedDiv@PLT	#
# p_setup.c:389: 	    if (FixedDiv (ld->dy , ld->dx) > 0)
	.loc 1 389 9 discriminator 1
	testl	%eax, %eax	# _38
	jle	.L34	#,
# p_setup.c:390: 		ld->slopetype = ST_POSITIVE;
	.loc 1 390 17
	movq	-32(%rbp), %rax	# ld, tmp185
	movl	$2, 52(%rax)	#, ld_70->slopetype
	jmp	.L32	#
.L34:
# p_setup.c:392: 		ld->slopetype = ST_NEGATIVE;
	.loc 1 392 17
	movq	-32(%rbp), %rax	# ld, tmp186
	movl	$3, 52(%rax)	#, ld_70->slopetype
.L32:
# p_setup.c:395: 	if (v1->x < v2->x)
	.loc 1 395 8
	movq	-16(%rbp), %rax	# v1, tmp187
	movl	(%rax), %edx	# v1_94->x, _39
# p_setup.c:395: 	if (v1->x < v2->x)
	.loc 1 395 16
	movq	-8(%rbp), %rax	# v2, tmp188
	movl	(%rax), %eax	# v2_96->x, _40
# p_setup.c:395: 	if (v1->x < v2->x)
	.loc 1 395 5
	cmpl	%eax, %edx	# _40, _39
	jge	.L35	#,
# p_setup.c:397: 	    ld->bbox[BOXLEFT] = v1->x;
	.loc 1 397 28
	movq	-16(%rbp), %rax	# v1, tmp189
	movl	(%rax), %edx	# v1_94->x, _41
# p_setup.c:397: 	    ld->bbox[BOXLEFT] = v1->x;
	.loc 1 397 24
	movq	-32(%rbp), %rax	# ld, tmp190
	movl	%edx, 44(%rax)	# _41, ld_70->bbox[2]
# p_setup.c:398: 	    ld->bbox[BOXRIGHT] = v2->x;
	.loc 1 398 29
	movq	-8(%rbp), %rax	# v2, tmp191
	movl	(%rax), %edx	# v2_96->x, _42
# p_setup.c:398: 	    ld->bbox[BOXRIGHT] = v2->x;
	.loc 1 398 25
	movq	-32(%rbp), %rax	# ld, tmp192
	movl	%edx, 48(%rax)	# _42, ld_70->bbox[3]
	jmp	.L36	#
.L35:
# p_setup.c:402: 	    ld->bbox[BOXLEFT] = v2->x;
	.loc 1 402 28
	movq	-8(%rbp), %rax	# v2, tmp193
	movl	(%rax), %edx	# v2_96->x, _43
# p_setup.c:402: 	    ld->bbox[BOXLEFT] = v2->x;
	.loc 1 402 24
	movq	-32(%rbp), %rax	# ld, tmp194
	movl	%edx, 44(%rax)	# _43, ld_70->bbox[2]
# p_setup.c:403: 	    ld->bbox[BOXRIGHT] = v1->x;
	.loc 1 403 29
	movq	-16(%rbp), %rax	# v1, tmp195
	movl	(%rax), %edx	# v1_94->x, _44
# p_setup.c:403: 	    ld->bbox[BOXRIGHT] = v1->x;
	.loc 1 403 25
	movq	-32(%rbp), %rax	# ld, tmp196
	movl	%edx, 48(%rax)	# _44, ld_70->bbox[3]
.L36:
# p_setup.c:406: 	if (v1->y < v2->y)
	.loc 1 406 8
	movq	-16(%rbp), %rax	# v1, tmp197
	movl	4(%rax), %edx	# v1_94->y, _45
# p_setup.c:406: 	if (v1->y < v2->y)
	.loc 1 406 16
	movq	-8(%rbp), %rax	# v2, tmp198
	movl	4(%rax), %eax	# v2_96->y, _46
# p_setup.c:406: 	if (v1->y < v2->y)
	.loc 1 406 5
	cmpl	%eax, %edx	# _46, _45
	jge	.L37	#,
# p_setup.c:408: 	    ld->bbox[BOXBOTTOM] = v1->y;
	.loc 1 408 30
	movq	-16(%rbp), %rax	# v1, tmp199
	movl	4(%rax), %edx	# v1_94->y, _47
# p_setup.c:408: 	    ld->bbox[BOXBOTTOM] = v1->y;
	.loc 1 408 26
	movq	-32(%rbp), %rax	# ld, tmp200
	movl	%edx, 40(%rax)	# _47, ld_70->bbox[1]
# p_setup.c:409: 	    ld->bbox[BOXTOP] = v2->y;
	.loc 1 409 27
	movq	-8(%rbp), %rax	# v2, tmp201
	movl	4(%rax), %edx	# v2_96->y, _48
# p_setup.c:409: 	    ld->bbox[BOXTOP] = v2->y;
	.loc 1 409 23
	movq	-32(%rbp), %rax	# ld, tmp202
	movl	%edx, 36(%rax)	# _48, ld_70->bbox[0]
	jmp	.L38	#
.L37:
# p_setup.c:413: 	    ld->bbox[BOXBOTTOM] = v2->y;
	.loc 1 413 30
	movq	-8(%rbp), %rax	# v2, tmp203
	movl	4(%rax), %edx	# v2_96->y, _49
# p_setup.c:413: 	    ld->bbox[BOXBOTTOM] = v2->y;
	.loc 1 413 26
	movq	-32(%rbp), %rax	# ld, tmp204
	movl	%edx, 40(%rax)	# _49, ld_70->bbox[1]
# p_setup.c:414: 	    ld->bbox[BOXTOP] = v1->y;
	.loc 1 414 27
	movq	-16(%rbp), %rax	# v1, tmp205
	movl	4(%rax), %edx	# v1_94->y, _50
# p_setup.c:414: 	    ld->bbox[BOXTOP] = v1->y;
	.loc 1 414 23
	movq	-32(%rbp), %rax	# ld, tmp206
	movl	%edx, 36(%rax)	# _50, ld_70->bbox[0]
.L38:
# p_setup.c:417: 	ld->sidenum[0] = SHORT(mld->sidenum[0]);
	.loc 1 417 19
	movq	-40(%rbp), %rax	# mld, tmp207
	movzwl	10(%rax), %edx	# mld_69->sidenum[0], _51
# p_setup.c:417: 	ld->sidenum[0] = SHORT(mld->sidenum[0]);
	.loc 1 417 17
	movq	-32(%rbp), %rax	# ld, tmp208
	movw	%dx, 30(%rax)	# _51, ld_70->sidenum[0]
# p_setup.c:418: 	ld->sidenum[1] = SHORT(mld->sidenum[1]);
	.loc 1 418 19
	movq	-40(%rbp), %rax	# mld, tmp209
	movzwl	12(%rax), %edx	# mld_69->sidenum[1], _52
# p_setup.c:418: 	ld->sidenum[1] = SHORT(mld->sidenum[1]);
	.loc 1 418 17
	movq	-32(%rbp), %rax	# ld, tmp210
	movw	%dx, 32(%rax)	# _52, ld_70->sidenum[1]
# p_setup.c:420: 	if (ld->sidenum[0] != -1)
	.loc 1 420 17
	movq	-32(%rbp), %rax	# ld, tmp211
	movzwl	30(%rax), %eax	# ld_70->sidenum[0], _53
# p_setup.c:420: 	if (ld->sidenum[0] != -1)
	.loc 1 420 5
	cmpw	$-1, %ax	#, _53
	je	.L39	#,
# p_setup.c:421: 	    ld->frontsector = sides[ld->sidenum[0]].sector;
	.loc 1 421 29
	movq	sides(%rip), %rcx	# sides, sides.28_54
# p_setup.c:421: 	    ld->frontsector = sides[ld->sidenum[0]].sector;
	.loc 1 421 41
	movq	-32(%rbp), %rax	# ld, tmp212
	movzwl	30(%rax), %eax	# ld_70->sidenum[0], _55
	movswq	%ax, %rdx	# _55, _56
# p_setup.c:421: 	    ld->frontsector = sides[ld->sidenum[0]].sector;
	.loc 1 421 29
	movq	%rdx, %rax	# _56, tmp213
	addq	%rax, %rax	# tmp213
	addq	%rdx, %rax	# _56, tmp213
	salq	$3, %rax	#, tmp214
	addq	%rcx, %rax	# sides.28_54, _58
# p_setup.c:421: 	    ld->frontsector = sides[ld->sidenum[0]].sector;
	.loc 1 421 45
	movq	16(%rax), %rdx	# _58->sector, _59
# p_setup.c:421: 	    ld->frontsector = sides[ld->sidenum[0]].sector;
	.loc 1 421 22
	movq	-32(%rbp), %rax	# ld, tmp215
	movq	%rdx, 56(%rax)	# _59, ld_70->frontsector
	jmp	.L40	#
.L39:
# p_setup.c:423: 	    ld->frontsector = 0;
	.loc 1 423 22
	movq	-32(%rbp), %rax	# ld, tmp216
	movq	$0, 56(%rax)	#, ld_70->frontsector
.L40:
# p_setup.c:425: 	if (ld->sidenum[1] != -1)
	.loc 1 425 17
	movq	-32(%rbp), %rax	# ld, tmp217
	movzwl	32(%rax), %eax	# ld_70->sidenum[1], _60
# p_setup.c:425: 	if (ld->sidenum[1] != -1)
	.loc 1 425 5
	cmpw	$-1, %ax	#, _60
	je	.L41	#,
# p_setup.c:426: 	    ld->backsector = sides[ld->sidenum[1]].sector;
	.loc 1 426 28
	movq	sides(%rip), %rcx	# sides, sides.29_61
# p_setup.c:426: 	    ld->backsector = sides[ld->sidenum[1]].sector;
	.loc 1 426 40
	movq	-32(%rbp), %rax	# ld, tmp218
	movzwl	32(%rax), %eax	# ld_70->sidenum[1], _62
	movswq	%ax, %rdx	# _62, _63
# p_setup.c:426: 	    ld->backsector = sides[ld->sidenum[1]].sector;
	.loc 1 426 28
	movq	%rdx, %rax	# _63, tmp219
	addq	%rax, %rax	# tmp219
	addq	%rdx, %rax	# _63, tmp219
	salq	$3, %rax	#, tmp220
	addq	%rcx, %rax	# sides.29_61, _65
# p_setup.c:426: 	    ld->backsector = sides[ld->sidenum[1]].sector;
	.loc 1 426 44
	movq	16(%rax), %rdx	# _65->sector, _66
# p_setup.c:426: 	    ld->backsector = sides[ld->sidenum[1]].sector;
	.loc 1 426 21
	movq	-32(%rbp), %rax	# ld, tmp221
	movq	%rdx, 64(%rax)	# _66, ld_70->backsector
	jmp	.L42	#
.L41:
# p_setup.c:428: 	    ld->backsector = 0;
	.loc 1 428 21
	movq	-32(%rbp), %rax	# ld, tmp222
	movq	$0, 64(%rax)	#, ld_70->backsector
.L42:
# p_setup.c:373:     for (i=0 ; i<numlines ; i++, mld++, ld++)
	.loc 1 373 30 discriminator 2
	addl	$1, -44(%rbp)	#, i
# p_setup.c:373:     for (i=0 ; i<numlines ; i++, mld++, ld++)
	.loc 1 373 37 discriminator 2
	addq	$14, -40(%rbp)	#, mld
# p_setup.c:373:     for (i=0 ; i<numlines ; i++, mld++, ld++)
	.loc 1 373 43 discriminator 2
	addq	$88, -32(%rbp)	#, ld
.L30:
# p_setup.c:373:     for (i=0 ; i<numlines ; i++, mld++, ld++)
	.loc 1 373 17 discriminator 1
	movl	numlines(%rip), %eax	# numlines, numlines.30_67
	cmpl	%eax, -44(%rbp)	# numlines.30_67, i
	jl	.L43	#,
# p_setup.c:431:     Z_Free (data);
	.loc 1 431 5
	movq	-24(%rbp), %rax	# data, tmp223
	movq	%rax, %rdi	# tmp223,
	call	Z_Free@PLT	#
# p_setup.c:432: }
	.loc 1 432 1
	nop	
	leave	
	.cfi_def_cfa 7, 8
	ret	
	.cfi_endproc
.LFE6:
	.size	P_LoadLineDefs, .-P_LoadLineDefs
	.globl	P_LoadSideDefs
	.type	P_LoadSideDefs, @function
P_LoadSideDefs:
.LFB7:
	.loc 1 439 1
	.cfi_startproc
	endbr64	
	pushq	%rbp	#
	.cfi_def_cfa_offset 16
	.cfi_offset 6, -16
	movq	%rsp, %rbp	#,
	.cfi_def_cfa_register 6
	subq	$48, %rsp	#,
	movl	%edi, -36(%rbp)	# lump, lump
# p_setup.c:445:     numsides = W_LumpLength (lump) / sizeof(mapsidedef_t);
	.loc 1 445 16
	movl	-36(%rbp), %eax	# lump, tmp117
	movl	%eax, %edi	# tmp117,
	call	W_LumpLength@PLT	#
# p_setup.c:445:     numsides = W_LumpLength (lump) / sizeof(mapsidedef_t);
	.loc 1 445 16 is_stmt 0 discriminator 1
	cltq
# p_setup.c:445:     numsides = W_LumpLength (lump) / sizeof(mapsidedef_t);
	.loc 1 445 36 is_stmt 1 discriminator 1
	movabsq	$-8608480567731124087, %rdx	#, tmp119
	mulq	%rdx	# tmp119
	movq	%rdx, %rax	# tmp118, tmp118
	shrq	$4, %rax	#, tmp118
# p_setup.c:445:     numsides = W_LumpLength (lump) / sizeof(mapsidedef_t);
	.loc 1 445 14 discriminator 1
	movl	%eax, numsides(%rip)	# _4, numsides
# p_setup.c:446:     sides = Z_Malloc (numsides*sizeof(side_t),PU_LEVEL,0);	
	.loc 1 446 13
	movl	numsides(%rip), %eax	# numsides, numsides.31_5
	cltq
	movl	%eax, %edx	# _6, _7
	movl	%edx, %eax	# _7, tmp120
	addl	%eax, %eax	# tmp120
	addl	%edx, %eax	# _7, tmp120
	sall	$3, %eax	#, tmp121
	movl	$0, %edx	#,
	movl	$50, %esi	#,
	movl	%eax, %edi	# _9,
	call	Z_Malloc@PLT	#
# p_setup.c:446:     sides = Z_Malloc (numsides*sizeof(side_t),PU_LEVEL,0);	
	.loc 1 446 11 discriminator 1
	movq	%rax, sides(%rip)	# _10, sides
# p_setup.c:447:     memset (sides, 0, numsides*sizeof(side_t));
	.loc 1 447 5
	movl	numsides(%rip), %eax	# numsides, numsides.32_11
	movslq	%eax, %rdx	# numsides.32_11, _12
	movq	%rdx, %rax	# _12, tmp122
	addq	%rax, %rax	# tmp122
	addq	%rdx, %rax	# _12, tmp122
	salq	$3, %rax	#, tmp123
	movq	%rax, %rdx	# tmp122, _13
	movq	sides(%rip), %rax	# sides, sides.33_14
	movl	$0, %esi	#,
	movq	%rax, %rdi	# sides.33_14,
	call	memset@PLT	#
# p_setup.c:448:     data = W_CacheLumpNum (lump,PU_STATIC);
	.loc 1 448 12
	movl	-36(%rbp), %eax	# lump, tmp124
	movl	$1, %esi	#,
	movl	%eax, %edi	# tmp124,
	call	W_CacheLumpNum@PLT	#
	movq	%rax, -8(%rbp)	# tmp125, data
# p_setup.c:450:     msd = (mapsidedef_t *)data;
	.loc 1 450 9
	movq	-8(%rbp), %rax	# data, tmp126
	movq	%rax, -24(%rbp)	# tmp126, msd
# p_setup.c:451:     sd = sides;
	.loc 1 451 8
	movq	sides(%rip), %rax	# sides, tmp127
	movq	%rax, -16(%rbp)	# tmp127, sd
# p_setup.c:452:     for (i=0 ; i<numsides ; i++, msd++, sd++)
	.loc 1 452 11
	movl	$0, -28(%rbp)	#, i
# p_setup.c:452:     for (i=0 ; i<numsides ; i++, msd++, sd++)
	.loc 1 452 5
	jmp	.L45	#
.L46:
# p_setup.c:454: 	sd->textureoffset = SHORT(msd->textureoffset)<<FRACBITS;
	.loc 1 454 22
	movq	-24(%rbp), %rax	# msd, tmp128
	movzwl	(%rax), %eax	# msd_37->textureoffset, _15
	cwtl
# p_setup.c:454: 	sd->textureoffset = SHORT(msd->textureoffset)<<FRACBITS;
	.loc 1 454 47
	sall	$16, %eax	#, _16
	movl	%eax, %edx	# _16, _17
# p_setup.c:454: 	sd->textureoffset = SHORT(msd->textureoffset)<<FRACBITS;
	.loc 1 454 20
	movq	-16(%rbp), %rax	# sd, tmp129
	movl	%edx, (%rax)	# _17, sd_38->textureoffset
# p_setup.c:455: 	sd->rowoffset = SHORT(msd->rowoffset)<<FRACBITS;
	.loc 1 455 18
	movq	-24(%rbp), %rax	# msd, tmp130
	movzwl	2(%rax), %eax	# msd_37->rowoffset, _18
	cwtl
# p_setup.c:455: 	sd->rowoffset = SHORT(msd->rowoffset)<<FRACBITS;
	.loc 1 455 39
	sall	$16, %eax	#, _19
	movl	%eax, %edx	# _19, _20
# p_setup.c:455: 	sd->rowoffset = SHORT(msd->rowoffset)<<FRACBITS;
	.loc 1 455 16
	movq	-16(%rbp), %rax	# sd, tmp131
	movl	%edx, 4(%rax)	# _20, sd_38->rowoffset
# p_setup.c:456: 	sd->toptexture = R_TextureNumForName(msd->toptexture);
	.loc 1 456 42
	movq	-24(%rbp), %rax	# msd, tmp132
	addq	$4, %rax	#, _21
# p_setup.c:456: 	sd->toptexture = R_TextureNumForName(msd->toptexture);
	.loc 1 456 19
	movq	%rax, %rdi	# _21,
	call	R_TextureNumForName@PLT	#
# p_setup.c:456: 	sd->toptexture = R_TextureNumForName(msd->toptexture);
	.loc 1 456 17 discriminator 1
	movl	%eax, %edx	# _22, _23
	movq	-16(%rbp), %rax	# sd, tmp133
	movw	%dx, 8(%rax)	# _23, sd_38->toptexture
# p_setup.c:457: 	sd->bottomtexture = R_TextureNumForName(msd->bottomtexture);
	.loc 1 457 45
	movq	-24(%rbp), %rax	# msd, tmp134
	addq	$12, %rax	#, _24
# p_setup.c:457: 	sd->bottomtexture = R_TextureNumForName(msd->bottomtexture);
	.loc 1 457 22
	movq	%rax, %rdi	# _24,
	call	R_TextureNumForName@PLT	#
# p_setup.c:457: 	sd->bottomtexture = R_TextureNumForName(msd->bottomtexture);
	.loc 1 457 20 discriminator 1
	movl	%eax, %edx	# _25, _26
	movq	-16(%rbp), %rax	# sd, tmp135
	movw	%dx, 10(%rax)	# _26, sd_38->bottomtexture
# p_setup.c:458: 	sd->midtexture = R_TextureNumForName(msd->midtexture);
	.loc 1 458 42
	movq	-24(%rbp), %rax	# msd, tmp136
	addq	$20, %rax	#, _27
# p_setup.c:458: 	sd->midtexture = R_TextureNumForName(msd->midtexture);
	.loc 1 458 19
	movq	%rax, %rdi	# _27,
	call	R_TextureNumForName@PLT	#
# p_setup.c:458: 	sd->midtexture = R_TextureNumForName(msd->midtexture);
	.loc 1 458 17 discriminator 1
	movl	%eax, %edx	# _28, _29
	movq	-16(%rbp), %rax	# sd, tmp137
	movw	%dx, 12(%rax)	# _29, sd_38->midtexture
# p_setup.c:459: 	sd->sector = &sectors[SHORT(msd->sector)];
	.loc 1 459 15
	movq	sectors(%rip), %rdx	# sectors, sectors.34_30
# p_setup.c:459: 	sd->sector = &sectors[SHORT(msd->sector)];
	.loc 1 459 24
	movq	-24(%rbp), %rax	# msd, tmp138
	movzwl	28(%rax), %eax	# msd_37->sector, _31
	movswq	%ax, %rax	# _31, _32
# p_setup.c:459: 	sd->sector = &sectors[SHORT(msd->sector)];
	.loc 1 459 23
	salq	$7, %rax	#, _33
# p_setup.c:459: 	sd->sector = &sectors[SHORT(msd->sector)];
	.loc 1 459 15
	addq	%rax, %rdx	# _33, _34
# p_setup.c:459: 	sd->sector = &sectors[SHORT(msd->sector)];
	.loc 1 459 13
	movq	-16(%rbp), %rax	# sd, tmp139
	movq	%rdx, 16(%rax)	# _34, sd_38->sector
# p_setup.c:452:     for (i=0 ; i<numsides ; i++, msd++, sd++)
	.loc 1 452 30 discriminator 3
	addl	$1, -28(%rbp)	#, i
# p_setup.c:452:     for (i=0 ; i<numsides ; i++, msd++, sd++)
	.loc 1 452 37 discriminator 3
	addq	$30, -24(%rbp)	#, msd
# p_setup.c:452:     for (i=0 ; i<numsides ; i++, msd++, sd++)
	.loc 1 452 43 discriminator 3
	addq	$24, -16(%rbp)	#, sd
.L45:
# p_setup.c:452:     for (i=0 ; i<numsides ; i++, msd++, sd++)
	.loc 1 452 17 discriminator 1
	movl	numsides(%rip), %eax	# numsides, numsides.35_35
	cmpl	%eax, -28(%rbp)	# numsides.35_35, i
	jl	.L46	#,
# p_setup.c:462:     Z_Free (data);
	.loc 1 462 5
	movq	-8(%rbp), %rax	# data, tmp140
	movq	%rax, %rdi	# tmp140,
	call	Z_Free@PLT	#
# p_setup.c:463: }
	.loc 1 463 1
	nop	
	leave	
	.cfi_def_cfa 7, 8
	ret	
	.cfi_endproc
.LFE7:
	.size	P_LoadSideDefs, .-P_LoadSideDefs
	.globl	P_LoadBlockMap
	.type	P_LoadBlockMap, @function
P_LoadBlockMap:
.LFB8:
	.loc 1 470 1
	.cfi_startproc
	endbr64	
	pushq	%rbp	#
	.cfi_def_cfa_offset 16
	.cfi_offset 6, -16
	movq	%rsp, %rbp	#,
	.cfi_def_cfa_register 6
	subq	$32, %rsp	#,
	movl	%edi, -20(%rbp)	# lump, lump
# p_setup.c:474:     blockmaplump = W_CacheLumpNum (lump,PU_LEVEL);
	.loc 1 474 20
	movl	-20(%rbp), %eax	# lump, tmp123
	movl	$50, %esi	#,
	movl	%eax, %edi	# tmp123,
	call	W_CacheLumpNum@PLT	#
# p_setup.c:474:     blockmaplump = W_CacheLumpNum (lump,PU_LEVEL);
	.loc 1 474 18 discriminator 1
	movq	%rax, blockmaplump(%rip)	# _1, blockmaplump
# p_setup.c:475:     blockmap = blockmaplump+4;
	.loc 1 475 28
	movq	blockmaplump(%rip), %rax	# blockmaplump, blockmaplump.36_2
	addq	$8, %rax	#, _3
# p_setup.c:475:     blockmap = blockmaplump+4;
	.loc 1 475 14
	movq	%rax, blockmap(%rip)	# _3, blockmap
# p_setup.c:476:     count = W_LumpLength (lump)/2;
	.loc 1 476 13
	movl	-20(%rbp), %eax	# lump, tmp124
	movl	%eax, %edi	# tmp124,
	call	W_LumpLength@PLT	#
# p_setup.c:476:     count = W_LumpLength (lump)/2;
	.loc 1 476 11 discriminator 1
	movl	%eax, %edx	# _4, tmp125
	shrl	$31, %edx	#, tmp125
	addl	%edx, %eax	# tmp125, tmp126
	sarl	%eax	# tmp127
	movl	%eax, -4(%rbp)	# tmp127, count
# p_setup.c:478:     for (i=0 ; i<count ; i++)
	.loc 1 478 11
	movl	$0, -8(%rbp)	#, i
# p_setup.c:478:     for (i=0 ; i<count ; i++)
	.loc 1 478 5
	jmp	.L48	#
.L49:
# p_setup.c:479: 	blockmaplump[i] = SHORT(blockmaplump[i]);
	.loc 1 479 20
	movq	blockmaplump(%rip), %rax	# blockmaplump, blockmaplump.37_5
	movl	-8(%rbp), %edx	# i, tmp128
	movslq	%edx, %rdx	# tmp128, _6
	addq	%rdx, %rdx	# _7
	addq	%rdx, %rax	# _7, _8
# p_setup.c:479: 	blockmaplump[i] = SHORT(blockmaplump[i]);
	.loc 1 479 14
	movq	blockmaplump(%rip), %rdx	# blockmaplump, blockmaplump.38_9
	movl	-8(%rbp), %ecx	# i, tmp129
	movslq	%ecx, %rcx	# tmp129, _10
	addq	%rcx, %rcx	# _11
	addq	%rcx, %rdx	# _11, _12
# p_setup.c:479: 	blockmaplump[i] = SHORT(blockmaplump[i]);
	.loc 1 479 20
	movzwl	(%rax), %eax	# *_8, _13
# p_setup.c:479: 	blockmaplump[i] = SHORT(blockmaplump[i]);
	.loc 1 479 18
	movw	%ax, (%rdx)	# _13, *_12
# p_setup.c:478:     for (i=0 ; i<count ; i++)
	.loc 1 478 27 discriminator 3
	addl	$1, -8(%rbp)	#, i
.L48:
# p_setup.c:478:     for (i=0 ; i<count ; i++)
	.loc 1 478 17 discriminator 1
	movl	-8(%rbp), %eax	# i, tmp130
	cmpl	-4(%rbp), %eax	# count, tmp130
	jl	.L49	#,
# p_setup.c:481:     bmaporgx = blockmaplump[0]<<FRACBITS;
	.loc 1 481 28
	movq	blockmaplump(%rip), %rax	# blockmaplump, blockmaplump.39_14
	movzwl	(%rax), %eax	# *blockmaplump.39_14, _15
	cwtl
# p_setup.c:481:     bmaporgx = blockmaplump[0]<<FRACBITS;
	.loc 1 481 31
	sall	$16, %eax	#, _17
# p_setup.c:481:     bmaporgx = blockmaplump[0]<<FRACBITS;
	.loc 1 481 14
	movl	%eax, bmaporgx(%rip)	# _17, bmaporgx
# p_setup.c:482:     bmaporgy = blockmaplump[1]<<FRACBITS;
	.loc 1 482 28
	movq	blockmaplump(%rip), %rax	# blockmaplump, blockmaplump.40_18
	addq	$2, %rax	#, _19
	movzwl	(%rax), %eax	# *_19, _20
	cwtl
# p_setup.c:482:     bmaporgy = blockmaplump[1]<<FRACBITS;
	.loc 1 482 31
	sall	$16, %eax	#, _22
# p_setup.c:482:     bmaporgy = blockmaplump[1]<<FRACBITS;
	.loc 1 482 14
	movl	%eax, bmaporgy(%rip)	# _22, bmaporgy
# p_setup.c:483:     bmapwidth = blockmaplump[2];
	.loc 1 483 29
	movq	blockmaplump(%rip), %rax	# blockmaplump, blockmaplump.41_23
	addq	$4, %rax	#, _24
	movzwl	(%rax), %eax	# *_24, _25
	cwtl
# p_setup.c:483:     bmapwidth = blockmaplump[2];
	.loc 1 483 15
	movl	%eax, bmapwidth(%rip)	# _26, bmapwidth
# p_setup.c:484:     bmapheight = blockmaplump[3];
	.loc 1 484 30
	movq	blockmaplump(%rip), %rax	# blockmaplump, blockmaplump.42_27
	addq	$6, %rax	#, _28
	movzwl	(%rax), %eax	# *_28, _29
	cwtl
# p_setup.c:484:     bmapheight = blockmaplump[3];
	.loc 1 484 16
	movl	%eax, bmapheight(%rip)	# _30, bmapheight
# p_setup.c:487:     count = sizeof(*blocklinks)* bmapwidth*bmapheight;
	.loc 1 487 11
	movl	bmapwidth(%rip), %eax	# bmapwidth, bmapwidth.43_31
	cltq
	movl	%eax, %edx	# _32, _33
	movl	bmapheight(%rip), %eax	# bmapheight, bmapheight.44_34
	cltq
	imull	%edx, %eax	# _33, _37
	sall	$3, %eax	#, _38
	movl	%eax, -4(%rbp)	# _38, count
# p_setup.c:488:     blocklinks = Z_Malloc (count,PU_LEVEL, 0);
	.loc 1 488 18
	movl	-4(%rbp), %eax	# count, tmp131
	movl	$0, %edx	#,
	movl	$50, %esi	#,
	movl	%eax, %edi	# tmp131,
	call	Z_Malloc@PLT	#
# p_setup.c:488:     blocklinks = Z_Malloc (count,PU_LEVEL, 0);
	.loc 1 488 16 discriminator 1
	movq	%rax, blocklinks(%rip)	# _39, blocklinks
# p_setup.c:489:     memset (blocklinks, 0, count);
	.loc 1 489 5
	movl	-4(%rbp), %eax	# count, tmp132
	movslq	%eax, %rdx	# tmp132, _40
	movq	blocklinks(%rip), %rax	# blocklinks, blocklinks.45_41
	movl	$0, %esi	#,
	movq	%rax, %rdi	# blocklinks.45_41,
	call	memset@PLT	#
# p_setup.c:490: }
	.loc 1 490 1
	nop	
	leave	
	.cfi_def_cfa 7, 8
	ret	
	.cfi_endproc
.LFE8:
	.size	P_LoadBlockMap, .-P_LoadBlockMap
	.section	.rodata
.LC0:
	.string	"P_GroupLines: miscounted"
	.text
	.globl	P_GroupLines
	.type	P_GroupLines, @function
P_GroupLines:
.LFB9:
	.loc 1 500 1
	.cfi_startproc
	endbr64	
	pushq	%rbp	#
	.cfi_def_cfa_offset 16
	.cfi_offset 6, -16
	movq	%rsp, %rbp	#,
	.cfi_def_cfa_register 6
	subq	$96, %rsp	#,
# p_setup.c:500: {
	.loc 1 500 1
	movq	%fs:40, %rax	# MEM[(<address-space-1> long unsigned int *)40B], tmp213
	movq	%rax, -8(%rbp)	# tmp213, D.7572
	xorl	%eax, %eax	# tmp213
# p_setup.c:513:     ss = subsectors;
	.loc 1 513 8
	movq	subsectors(%rip), %rax	# subsectors, tmp151
	movq	%rax, -48(%rbp)	# tmp151, ss
# p_setup.c:514:     for (i=0 ; i<numsubsectors ; i++, ss++)
	.loc 1 514 11
	movl	$0, -88(%rbp)	#, i
# p_setup.c:514:     for (i=0 ; i<numsubsectors ; i++, ss++)
	.loc 1 514 5
	jmp	.L51	#
.L52:
# p_setup.c:516: 	seg = &segs[ss->firstline];
	.loc 1 516 8
	movq	segs(%rip), %rcx	# segs, segs.46_1
# p_setup.c:516: 	seg = &segs[ss->firstline];
	.loc 1 516 16
	movq	-48(%rbp), %rax	# ss, tmp152
	movzwl	10(%rax), %eax	# ss_80->firstline, _2
	movswq	%ax, %rdx	# _2, _3
# p_setup.c:516: 	seg = &segs[ss->firstline];
	.loc 1 516 13
	movq	%rdx, %rax	# _3, tmp153
	salq	$3, %rax	#, tmp154
	subq	%rdx, %rax	# _3, tmp153
	salq	$3, %rax	#, tmp155
# p_setup.c:516: 	seg = &segs[ss->firstline];
	.loc 1 516 6
	addq	%rcx, %rax	# segs.46_1, tmp156
	movq	%rax, -40(%rbp)	# tmp156, seg
# p_setup.c:517: 	ss->sector = seg->sidedef->sector;
	.loc 1 517 18
	movq	-40(%rbp), %rax	# seg, tmp157
	movq	24(%rax), %rax	# seg_138->sidedef, _5
# p_setup.c:517: 	ss->sector = seg->sidedef->sector;
	.loc 1 517 27
	movq	16(%rax), %rdx	# _5->sector, _6
# p_setup.c:517: 	ss->sector = seg->sidedef->sector;
	.loc 1 517 13
	movq	-48(%rbp), %rax	# ss, tmp158
	movq	%rdx, (%rax)	# _6, ss_80->sector
# p_setup.c:514:     for (i=0 ; i<numsubsectors ; i++, ss++)
	.loc 1 514 35 discriminator 3
	addl	$1, -88(%rbp)	#, i
# p_setup.c:514:     for (i=0 ; i<numsubsectors ; i++, ss++)
	.loc 1 514 41 discriminator 3
	addq	$16, -48(%rbp)	#, ss
.L51:
# p_setup.c:514:     for (i=0 ; i<numsubsectors ; i++, ss++)
	.loc 1 514 17 discriminator 1
	movl	numsubsectors(%rip), %eax	# numsubsectors, numsubsectors.47_7
	cmpl	%eax, -88(%rbp)	# numsubsectors.47_7, i
	jl	.L52	#,
# p_setup.c:521:     li = lines;
	.loc 1 521 8
	movq	lines(%rip), %rax	# lines, tmp159
	movq	%rax, -64(%rbp)	# tmp159, li
# p_setup.c:522:     total = 0;
	.loc 1 522 11
	movl	$0, -80(%rbp)	#, total
# p_setup.c:523:     for (i=0 ; i<numlines ; i++, li++)
	.loc 1 523 11
	movl	$0, -88(%rbp)	#, i
# p_setup.c:523:     for (i=0 ; i<numlines ; i++, li++)
	.loc 1 523 5
	jmp	.L53	#
.L55:
# p_setup.c:525: 	total++;
	.loc 1 525 7
	addl	$1, -80(%rbp)	#, total
# p_setup.c:526: 	li->frontsector->linecount++;
	.loc 1 526 4
	movq	-64(%rbp), %rax	# li, tmp160
	movq	56(%rax), %rax	# li_77->frontsector, _8
# p_setup.c:526: 	li->frontsector->linecount++;
	.loc 1 526 17
	movl	112(%rax), %edx	# _8->linecount, _9
# p_setup.c:526: 	li->frontsector->linecount++;
	.loc 1 526 28
	addl	$1, %edx	#, _10
	movl	%edx, 112(%rax)	# _10, _8->linecount
# p_setup.c:528: 	if (li->backsector && li->backsector != li->frontsector)
	.loc 1 528 8
	movq	-64(%rbp), %rax	# li, tmp161
	movq	64(%rax), %rax	# li_77->backsector, _11
# p_setup.c:528: 	if (li->backsector && li->backsector != li->frontsector)
	.loc 1 528 5
	testq	%rax, %rax	# _11
	je	.L54	#,
# p_setup.c:528: 	if (li->backsector && li->backsector != li->frontsector)
	.loc 1 528 26 discriminator 1
	movq	-64(%rbp), %rax	# li, tmp162
	movq	64(%rax), %rdx	# li_77->backsector, _12
# p_setup.c:528: 	if (li->backsector && li->backsector != li->frontsector)
	.loc 1 528 44 discriminator 1
	movq	-64(%rbp), %rax	# li, tmp163
	movq	56(%rax), %rax	# li_77->frontsector, _13
# p_setup.c:528: 	if (li->backsector && li->backsector != li->frontsector)
	.loc 1 528 21 discriminator 1
	cmpq	%rax, %rdx	# _13, _12
	je	.L54	#,
# p_setup.c:530: 	    li->backsector->linecount++;
	.loc 1 530 8
	movq	-64(%rbp), %rax	# li, tmp164
	movq	64(%rax), %rax	# li_77->backsector, _14
# p_setup.c:530: 	    li->backsector->linecount++;
	.loc 1 530 20
	movl	112(%rax), %edx	# _14->linecount, _15
# p_setup.c:530: 	    li->backsector->linecount++;
	.loc 1 530 31
	addl	$1, %edx	#, _16
	movl	%edx, 112(%rax)	# _16, _14->linecount
# p_setup.c:531: 	    total++;
	.loc 1 531 11
	addl	$1, -80(%rbp)	#, total
.L54:
# p_setup.c:523:     for (i=0 ; i<numlines ; i++, li++)
	.loc 1 523 30 discriminator 2
	addl	$1, -88(%rbp)	#, i
# p_setup.c:523:     for (i=0 ; i<numlines ; i++, li++)
	.loc 1 523 36 discriminator 2
	addq	$88, -64(%rbp)	#, li
.L53:
# p_setup.c:523:     for (i=0 ; i<numlines ; i++, li++)
	.loc 1 523 17 discriminator 1
	movl	numlines(%rip), %eax	# numlines, numlines.48_17
	cmpl	%eax, -88(%rbp)	# numlines.48_17, i
	jl	.L55	#,
# p_setup.c:536:     linebuffer = Z_Malloc (total*sizeof(*linebuffer), PU_LEVEL, 0);
	.loc 1 536 18
	movl	-80(%rbp), %eax	# total, tmp165
	cltq
	sall	$3, %eax	#, _20
	movl	$0, %edx	#,
	movl	$50, %esi	#,
	movl	%eax, %edi	# _21,
	call	Z_Malloc@PLT	#
	movq	%rax, -72(%rbp)	# tmp166, linebuffer
# p_setup.c:537:     sector = sectors;
	.loc 1 537 12
	movq	sectors(%rip), %rax	# sectors, tmp167
	movq	%rax, -56(%rbp)	# tmp167, sector
# p_setup.c:538:     for (i=0 ; i<numsectors ; i++, sector++)
	.loc 1 538 11
	movl	$0, -88(%rbp)	#, i
# p_setup.c:538:     for (i=0 ; i<numsectors ; i++, sector++)
	.loc 1 538 5
	jmp	.L56	#
.L66:
# p_setup.c:540: 	M_ClearBox (bbox);
	.loc 1 540 2
	leaq	-32(%rbp), %rax	#, tmp168
	movq	%rax, %rdi	# tmp168,
	call	M_ClearBox@PLT	#
# p_setup.c:541: 	sector->lines = linebuffer;
	.loc 1 541 16
	movq	-56(%rbp), %rax	# sector, tmp169
	movq	-72(%rbp), %rdx	# linebuffer, tmp170
	movq	%rdx, 120(%rax)	# tmp170, sector_79->lines
# p_setup.c:542: 	li = lines;
	.loc 1 542 5
	movq	lines(%rip), %rax	# lines, tmp171
	movq	%rax, -64(%rbp)	# tmp171, li
# p_setup.c:543: 	for (j=0 ; j<numlines ; j++, li++)
	.loc 1 543 8
	movl	$0, -84(%rbp)	#, j
# p_setup.c:543: 	for (j=0 ; j<numlines ; j++, li++)
	.loc 1 543 2
	jmp	.L57	#
.L60:
# p_setup.c:545: 	    if (li->frontsector == sector || li->backsector == sector)
	.loc 1 545 12
	movq	-64(%rbp), %rax	# li, tmp172
	movq	56(%rax), %rax	# li_78->frontsector, _22
# p_setup.c:545: 	    if (li->frontsector == sector || li->backsector == sector)
	.loc 1 545 9
	cmpq	%rax, -56(%rbp)	# _22, sector
	je	.L58	#,
# p_setup.c:545: 	    if (li->frontsector == sector || li->backsector == sector)
	.loc 1 545 41 discriminator 1
	movq	-64(%rbp), %rax	# li, tmp173
	movq	64(%rax), %rax	# li_78->backsector, _23
# p_setup.c:545: 	    if (li->frontsector == sector || li->backsector == sector)
	.loc 1 545 36 discriminator 1
	cmpq	%rax, -56(%rbp)	# _23, sector
	jne	.L59	#,
.L58:
# p_setup.c:547: 		*linebuffer++ = li;
	.loc 1 547 14
	movq	-72(%rbp), %rax	# linebuffer, linebuffer.49_24
	leaq	8(%rax), %rdx	#, tmp174
	movq	%rdx, -72(%rbp)	# tmp174, linebuffer
# p_setup.c:547: 		*linebuffer++ = li;
	.loc 1 547 17
	movq	-64(%rbp), %rdx	# li, tmp175
	movq	%rdx, (%rax)	# tmp175, *linebuffer.49_24
# p_setup.c:548: 		M_AddToBox (bbox, li->v1->x, li->v1->y);
	.loc 1 548 34
	movq	-64(%rbp), %rax	# li, tmp176
	movq	(%rax), %rax	# li_78->v1, _25
# p_setup.c:548: 		M_AddToBox (bbox, li->v1->x, li->v1->y);
	.loc 1 548 3
	movl	4(%rax), %edx	# _25->y, _26
# p_setup.c:548: 		M_AddToBox (bbox, li->v1->x, li->v1->y);
	.loc 1 548 23
	movq	-64(%rbp), %rax	# li, tmp177
	movq	(%rax), %rax	# li_78->v1, _27
# p_setup.c:548: 		M_AddToBox (bbox, li->v1->x, li->v1->y);
	.loc 1 548 3
	movl	(%rax), %ecx	# _27->x, _28
	leaq	-32(%rbp), %rax	#, tmp178
	movl	%ecx, %esi	# _28,
	movq	%rax, %rdi	# tmp178,
	call	M_AddToBox@PLT	#
# p_setup.c:549: 		M_AddToBox (bbox, li->v2->x, li->v2->y);
	.loc 1 549 34
	movq	-64(%rbp), %rax	# li, tmp179
	movq	8(%rax), %rax	# li_78->v2, _29
# p_setup.c:549: 		M_AddToBox (bbox, li->v2->x, li->v2->y);
	.loc 1 549 3
	movl	4(%rax), %edx	# _29->y, _30
# p_setup.c:549: 		M_AddToBox (bbox, li->v2->x, li->v2->y);
	.loc 1 549 23
	movq	-64(%rbp), %rax	# li, tmp180
	movq	8(%rax), %rax	# li_78->v2, _31
# p_setup.c:549: 		M_AddToBox (bbox, li->v2->x, li->v2->y);
	.loc 1 549 3
	movl	(%rax), %ecx	# _31->x, _32
	leaq	-32(%rbp), %rax	#, tmp181
	movl	%ecx, %esi	# _32,
	movq	%rax, %rdi	# tmp181,
	call	M_AddToBox@PLT	#
.L59:
# p_setup.c:543: 	for (j=0 ; j<numlines ; j++, li++)
	.loc 1 543 27 discriminator 2
	addl	$1, -84(%rbp)	#, j
# p_setup.c:543: 	for (j=0 ; j<numlines ; j++, li++)
	.loc 1 543 33 discriminator 2
	addq	$88, -64(%rbp)	#, li
.L57:
# p_setup.c:543: 	for (j=0 ; j<numlines ; j++, li++)
	.loc 1 543 14 discriminator 1
	movl	numlines(%rip), %eax	# numlines, numlines.50_33
	cmpl	%eax, -84(%rbp)	# numlines.50_33, j
	jl	.L60	#,
# p_setup.c:552: 	if (linebuffer - sector->lines != sector->linecount)
	.loc 1 552 25
	movq	-56(%rbp), %rax	# sector, tmp182
	movq	120(%rax), %rax	# sector_79->lines, _34
# p_setup.c:552: 	if (linebuffer - sector->lines != sector->linecount)
	.loc 1 552 17
	movq	-72(%rbp), %rdx	# linebuffer, tmp183
	subq	%rax, %rdx	# _34, _35
	movq	%rdx, %rax	# _35, _35
	sarq	$3, %rax	#, _35
	movq	%rax, %rdx	# tmp184, _36
# p_setup.c:552: 	if (linebuffer - sector->lines != sector->linecount)
	.loc 1 552 42
	movq	-56(%rbp), %rax	# sector, tmp185
	movl	112(%rax), %eax	# sector_79->linecount, _37
	cltq
# p_setup.c:552: 	if (linebuffer - sector->lines != sector->linecount)
	.loc 1 552 5
	cmpq	%rax, %rdx	# _38, _36
	je	.L61	#,
# p_setup.c:553: 	    I_Error ("P_GroupLines: miscounted");
	.loc 1 553 6
	leaq	.LC0(%rip), %rax	#, tmp186
	movq	%rax, %rdi	# tmp186,
	movl	$0, %eax	#,
	call	I_Error@PLT	#
.L61:
# p_setup.c:556: 	sector->soundorg.x = (bbox[BOXRIGHT]+bbox[BOXLEFT])/2;
	.loc 1 556 28
	movl	-20(%rbp), %edx	# bbox[3], _39
# p_setup.c:556: 	sector->soundorg.x = (bbox[BOXRIGHT]+bbox[BOXLEFT])/2;
	.loc 1 556 43
	movl	-24(%rbp), %eax	# bbox[2], _40
# p_setup.c:556: 	sector->soundorg.x = (bbox[BOXRIGHT]+bbox[BOXLEFT])/2;
	.loc 1 556 38
	addl	%edx, %eax	# _39, _41
# p_setup.c:556: 	sector->soundorg.x = (bbox[BOXRIGHT]+bbox[BOXLEFT])/2;
	.loc 1 556 53
	movl	%eax, %edx	# _41, tmp187
	shrl	$31, %edx	#, tmp187
	addl	%edx, %eax	# tmp187, tmp188
	sarl	%eax	# tmp189
	movl	%eax, %edx	# tmp189, _42
# p_setup.c:556: 	sector->soundorg.x = (bbox[BOXRIGHT]+bbox[BOXLEFT])/2;
	.loc 1 556 21
	movq	-56(%rbp), %rax	# sector, tmp190
	movl	%edx, 72(%rax)	# _42, sector_79->soundorg.x
# p_setup.c:557: 	sector->soundorg.y = (bbox[BOXTOP]+bbox[BOXBOTTOM])/2;
	.loc 1 557 28
	movl	-32(%rbp), %edx	# bbox[0], _43
# p_setup.c:557: 	sector->soundorg.y = (bbox[BOXTOP]+bbox[BOXBOTTOM])/2;
	.loc 1 557 41
	movl	-28(%rbp), %eax	# bbox[1], _44
# p_setup.c:557: 	sector->soundorg.y = (bbox[BOXTOP]+bbox[BOXBOTTOM])/2;
	.loc 1 557 36
	addl	%edx, %eax	# _43, _45
# p_setup.c:557: 	sector->soundorg.y = (bbox[BOXTOP]+bbox[BOXBOTTOM])/2;
	.loc 1 557 53
	movl	%eax, %edx	# _45, tmp191
	shrl	$31, %edx	#, tmp191
	addl	%edx, %eax	# tmp191, tmp192
	sarl	%eax	# tmp193
	movl	%eax, %edx	# tmp193, _46
# p_setup.c:557: 	sector->soundorg.y = (bbox[BOXTOP]+bbox[BOXBOTTOM])/2;
	.loc 1 557 21
	movq	-56(%rbp), %rax	# sector, tmp194
	movl	%edx, 76(%rax)	# _46, sector_79->soundorg.y
# p_setup.c:560: 	block = (bbox[BOXTOP]-bmaporgy+MAXRADIUS)>>MAPBLOCKSHIFT;
	.loc 1 560 15
	movl	-32(%rbp), %edx	# bbox[0], _47
# p_setup.c:560: 	block = (bbox[BOXTOP]-bmaporgy+MAXRADIUS)>>MAPBLOCKSHIFT;
	.loc 1 560 23
	movl	bmaporgy(%rip), %eax	# bmaporgy, bmaporgy.51_48
	subl	%eax, %edx	# bmaporgy.51_48, _49
# p_setup.c:560: 	block = (bbox[BOXTOP]-bmaporgy+MAXRADIUS)>>MAPBLOCKSHIFT;
	.loc 1 560 32
	leal	2097152(%rdx), %eax	#, _50
# p_setup.c:560: 	block = (bbox[BOXTOP]-bmaporgy+MAXRADIUS)>>MAPBLOCKSHIFT;
	.loc 1 560 8
	sarl	$23, %eax	#, tmp195
	movl	%eax, -76(%rbp)	# tmp195, block
# p_setup.c:561: 	block = block >= bmapheight ? bmapheight-1 : block;
	.loc 1 561 16
	movl	bmapheight(%rip), %eax	# bmapheight, bmapheight.53_51
# p_setup.c:561: 	block = block >= bmapheight ? bmapheight-1 : block;
	.loc 1 561 45
	cmpl	%eax, -76(%rbp)	# bmapheight.53_51, block
	jl	.L62	#,
# p_setup.c:561: 	block = block >= bmapheight ? bmapheight-1 : block;
	.loc 1 561 42 discriminator 1
	movl	bmapheight(%rip), %eax	# bmapheight, bmapheight.54_52
# p_setup.c:561: 	block = block >= bmapheight ? bmapheight-1 : block;
	.loc 1 561 45 discriminator 1
	subl	$1, %eax	#, iftmp.52_81
	jmp	.L63	#
.L62:
# p_setup.c:561: 	block = block >= bmapheight ? bmapheight-1 : block;
	.loc 1 561 45 is_stmt 0 discriminator 2
	movl	-76(%rbp), %eax	# block, iftmp.52_81
.L63:
# p_setup.c:561: 	block = block >= bmapheight ? bmapheight-1 : block;
	.loc 1 561 8 is_stmt 1 discriminator 4
	movl	%eax, -76(%rbp)	# iftmp.52_81, block
# p_setup.c:562: 	sector->blockbox[BOXTOP]=block;
	.loc 1 562 26
	movq	-56(%rbp), %rax	# sector, tmp196
	movl	-76(%rbp), %edx	# block, tmp197
	movl	%edx, 32(%rax)	# tmp197, sector_79->blockbox[0]
# p_setup.c:564: 	block = (bbox[BOXBOTTOM]-bmaporgy-MAXRADIUS)>>MAPBLOCKSHIFT;
	.loc 1 564 15
	movl	-28(%rbp), %edx	# bbox[1], _53
# p_setup.c:564: 	block = (bbox[BOXBOTTOM]-bmaporgy-MAXRADIUS)>>MAPBLOCKSHIFT;
	.loc 1 564 26
	movl	bmaporgy(%rip), %eax	# bmaporgy, bmaporgy.55_54
	subl	%eax, %edx	# bmaporgy.55_54, _55
# p_setup.c:564: 	block = (bbox[BOXBOTTOM]-bmaporgy-MAXRADIUS)>>MAPBLOCKSHIFT;
	.loc 1 564 35
	leal	-2097152(%rdx), %eax	#, _56
# p_setup.c:564: 	block = (bbox[BOXBOTTOM]-bmaporgy-MAXRADIUS)>>MAPBLOCKSHIFT;
	.loc 1 564 8
	sarl	$23, %eax	#, tmp198
	movl	%eax, -76(%rbp)	# tmp198, block
# p_setup.c:565: 	block = block < 0 ? 0 : block;
	.loc 1 565 8
	movl	-76(%rbp), %eax	# block, tmp200
	movl	$0, %edx	#, tmp212
	testl	%eax, %eax	# tmp200
	cmovs	%edx, %eax	# tmp200,, tmp212, tmp199
	movl	%eax, -76(%rbp)	# tmp199, block
# p_setup.c:566: 	sector->blockbox[BOXBOTTOM]=block;
	.loc 1 566 29
	movq	-56(%rbp), %rax	# sector, tmp201
	movl	-76(%rbp), %edx	# block, tmp202
	movl	%edx, 36(%rax)	# tmp202, sector_79->blockbox[1]
# p_setup.c:568: 	block = (bbox[BOXRIGHT]-bmaporgx+MAXRADIUS)>>MAPBLOCKSHIFT;
	.loc 1 568 15
	movl	-20(%rbp), %edx	# bbox[3], _57
# p_setup.c:568: 	block = (bbox[BOXRIGHT]-bmaporgx+MAXRADIUS)>>MAPBLOCKSHIFT;
	.loc 1 568 25
	movl	bmaporgx(%rip), %eax	# bmaporgx, bmaporgx.56_58
	subl	%eax, %edx	# bmaporgx.56_58, _59
# p_setup.c:568: 	block = (bbox[BOXRIGHT]-bmaporgx+MAXRADIUS)>>MAPBLOCKSHIFT;
	.loc 1 568 34
	leal	2097152(%rdx), %eax	#, _60
# p_setup.c:568: 	block = (bbox[BOXRIGHT]-bmaporgx+MAXRADIUS)>>MAPBLOCKSHIFT;
	.loc 1 568 8
	sarl	$23, %eax	#, tmp203
	movl	%eax, -76(%rbp)	# tmp203, block
# p_setup.c:569: 	block = block >= bmapwidth ? bmapwidth-1 : block;
	.loc 1 569 16
	movl	bmapwidth(%rip), %eax	# bmapwidth, bmapwidth.58_61
# p_setup.c:569: 	block = block >= bmapwidth ? bmapwidth-1 : block;
	.loc 1 569 43
	cmpl	%eax, -76(%rbp)	# bmapwidth.58_61, block
	jl	.L64	#,
# p_setup.c:569: 	block = block >= bmapwidth ? bmapwidth-1 : block;
	.loc 1 569 40 discriminator 1
	movl	bmapwidth(%rip), %eax	# bmapwidth, bmapwidth.59_62
# p_setup.c:569: 	block = block >= bmapwidth ? bmapwidth-1 : block;
	.loc 1 569 43 discriminator 1
	subl	$1, %eax	#, iftmp.57_82
	jmp	.L65	#
.L64:
# p_setup.c:569: 	block = block >= bmapwidth ? bmapwidth-1 : block;
	.loc 1 569 43 is_stmt 0 discriminator 2
	movl	-76(%rbp), %eax	# block, iftmp.57_82
.L65:
# p_setup.c:569: 	block = block >= bmapwidth ? bmapwidth-1 : block;
	.loc 1 569 8 is_stmt 1 discriminator 4
	movl	%eax, -76(%rbp)	# iftmp.57_82, block
# p_setup.c:570: 	sector->blockbox[BOXRIGHT]=block;
	.loc 1 570 28
	movq	-56(%rbp), %rax	# sector, tmp204
	movl	-76(%rbp), %edx	# block, tmp205
	movl	%edx, 44(%rax)	# tmp205, sector_79->blockbox[3]
# p_setup.c:572: 	block = (bbox[BOXLEFT]-bmaporgx-MAXRADIUS)>>MAPBLOCKSHIFT;
	.loc 1 572 15
	movl	-24(%rbp), %edx	# bbox[2], _63
# p_setup.c:572: 	block = (bbox[BOXLEFT]-bmaporgx-MAXRADIUS)>>MAPBLOCKSHIFT;
	.loc 1 572 24
	movl	bmaporgx(%rip), %eax	# bmaporgx, bmaporgx.60_64
	subl	%eax, %edx	# bmaporgx.60_64, _65
# p_setup.c:572: 	block = (bbox[BOXLEFT]-bmaporgx-MAXRADIUS)>>MAPBLOCKSHIFT;
	.loc 1 572 33
	leal	-2097152(%rdx), %eax	#, _66
# p_setup.c:572: 	block = (bbox[BOXLEFT]-bmaporgx-MAXRADIUS)>>MAPBLOCKSHIFT;
	.loc 1 572 8
	sarl	$23, %eax	#, tmp206
	movl	%eax, -76(%rbp)	# tmp206, block
# p_setup.c:573: 	block = block < 0 ? 0 : block;
	.loc 1 573 8
	movl	-76(%rbp), %eax	# block, tmp208
	movl	$0, %edx	#, tmp211
	testl	%eax, %eax	# tmp208
	cmovs	%edx, %eax	# tmp208,, tmp211, tmp207
	movl	%eax, -76(%rbp)	# tmp207, block
# p_setup.c:574: 	sector->blockbox[BOXLEFT]=block;
	.loc 1 574 27
	movq	-56(%rbp), %rax	# sector, tmp209
	movl	-76(%rbp), %edx	# block, tmp210
	movl	%edx, 40(%rax)	# tmp210, sector_79->blockbox[2]
# p_setup.c:538:     for (i=0 ; i<numsectors ; i++, sector++)
	.loc 1 538 32 discriminator 2
	addl	$1, -88(%rbp)	#, i
# p_setup.c:538:     for (i=0 ; i<numsectors ; i++, sector++)
	.loc 1 538 42 discriminator 2
	subq	$-128, -56(%rbp)	#, sector
.L56:
# p_setup.c:538:     for (i=0 ; i<numsectors ; i++, sector++)
	.loc 1 538 17 discriminator 1
	movl	numsectors(%rip), %eax	# numsectors, numsectors.61_67
	cmpl	%eax, -88(%rbp)	# numsectors.61_67, i
	jl	.L66	#,
# p_setup.c:577: }
	.loc 1 577 1
	nop	
	movq	-8(%rbp), %rax	# D.7572, tmp214
	subq	%fs:40, %rax	# MEM[(<address-space-1> long unsigned int *)40B], tmp214
	je	.L67	#,
	call	__stack_chk_fail@PLT	#
.L67:
	leave	
	.cfi_def_cfa 7, 8
	ret	
	.cfi_endproc
.LFE9:
	.size	P_GroupLines, .-P_GroupLines
	.section	.rodata
.LC1:
	.string	"map0%i"
.LC2:
	.string	"map%i"
	.text
	.globl	P_SetupLevel
	.type	P_SetupLevel, @function
P_SetupLevel:
.LFB10:
	.loc 1 589 1
	.cfi_startproc
	endbr64	
	pushq	%rbp	#
	.cfi_def_cfa_offset 16
	.cfi_offset 6, -16
	movq	%rsp, %rbp	#,
	.cfi_def_cfa_register 6
	subq	$48, %rsp	#,
	movl	%edi, -36(%rbp)	# episode, episode
	movl	%esi, -40(%rbp)	# map, map
	movl	%edx, -44(%rbp)	# playermask, playermask
	movl	%ecx, -48(%rbp)	# skill, skill
# p_setup.c:589: {
	.loc 1 589 1
	movq	%fs:40, %rax	# MEM[(<address-space-1> long unsigned int *)40B], tmp177
	movq	%rax, -8(%rbp)	# tmp177, D.7575
	xorl	%eax, %eax	# tmp177
# p_setup.c:594:     totalkills = totalitems = totalsecret = wminfo.maxfrags = 0;
	.loc 1 594 61
	movl	$0, 28+wminfo(%rip)	#, wminfo.maxfrags
# p_setup.c:594:     totalkills = totalitems = totalsecret = wminfo.maxfrags = 0;
	.loc 1 594 51
	movl	28+wminfo(%rip), %eax	# wminfo.maxfrags, _1
# p_setup.c:594:     totalkills = totalitems = totalsecret = wminfo.maxfrags = 0;
	.loc 1 594 43
	movl	%eax, totalsecret(%rip)	# _1, totalsecret
# p_setup.c:594:     totalkills = totalitems = totalsecret = wminfo.maxfrags = 0;
	.loc 1 594 29
	movl	totalsecret(%rip), %eax	# totalsecret, totalsecret.62_2
	movl	%eax, totalitems(%rip)	# totalsecret.62_2, totalitems
# p_setup.c:594:     totalkills = totalitems = totalsecret = wminfo.maxfrags = 0;
	.loc 1 594 16
	movl	totalitems(%rip), %eax	# totalitems, totalitems.63_3
	movl	%eax, totalkills(%rip)	# totalitems.63_3, totalkills
# p_setup.c:595:     wminfo.partime = 180;
	.loc 1 595 20
	movl	$180, 32+wminfo(%rip)	#, wminfo.partime
# p_setup.c:596:     for (i=0 ; i<MAXPLAYERS ; i++)
	.loc 1 596 11
	movl	$0, -28(%rbp)	#, i
# p_setup.c:596:     for (i=0 ; i<MAXPLAYERS ; i++)
	.loc 1 596 5
	jmp	.L69	#
.L70:
# p_setup.c:599: 	    = players[i].itemcount = 0;
	.loc 1 599 29
	movl	-28(%rbp), %eax	# i, tmp111
	movslq	%eax, %rdx	# tmp111, tmp110
	movq	%rdx, %rax	# tmp110, tmp113
	salq	$2, %rax	#, tmp113
	addq	%rdx, %rax	# tmp110, tmp113
	salq	$6, %rax	#, tmp114
	movq	%rax, %rdx	# tmp113, tmp112
	leaq	212+players(%rip), %rax	#, tmp115
	movl	$0, (%rdx,%rax)	#, players[i_29].itemcount
# p_setup.c:599: 	    = players[i].itemcount = 0;
	.loc 1 599 18
	movl	-28(%rbp), %eax	# i, tmp117
	movslq	%eax, %rdx	# tmp117, tmp116
	movq	%rdx, %rax	# tmp116, tmp119
	salq	$2, %rax	#, tmp119
	addq	%rdx, %rax	# tmp116, tmp119
	salq	$6, %rax	#, tmp120
	movq	%rax, %rdx	# tmp119, tmp118
	leaq	212+players(%rip), %rax	#, tmp121
	movl	(%rdx,%rax), %ecx	# players[i_29].itemcount, _4
# p_setup.c:599: 	    = players[i].itemcount = 0;
	.loc 1 599 6
	movl	-28(%rbp), %eax	# i, tmp123
	movslq	%eax, %rdx	# tmp123, tmp122
	movq	%rdx, %rax	# tmp122, tmp125
	salq	$2, %rax	#, tmp125
	addq	%rdx, %rax	# tmp122, tmp125
	salq	$6, %rax	#, tmp126
	movq	%rax, %rdx	# tmp125, tmp124
	leaq	216+players(%rip), %rax	#, tmp127
	movl	%ecx, (%rdx,%rax)	# _4, players[i_29].secretcount
# p_setup.c:598: 	players[i].killcount = players[i].secretcount 
	.loc 1 598 35
	movl	-28(%rbp), %eax	# i, tmp129
	movslq	%eax, %rdx	# tmp129, tmp128
	movq	%rdx, %rax	# tmp128, tmp131
	salq	$2, %rax	#, tmp131
	addq	%rdx, %rax	# tmp128, tmp131
	salq	$6, %rax	#, tmp132
	movq	%rax, %rdx	# tmp131, tmp130
	leaq	216+players(%rip), %rax	#, tmp133
	movl	(%rdx,%rax), %ecx	# players[i_29].secretcount, _5
# p_setup.c:598: 	players[i].killcount = players[i].secretcount 
	.loc 1 598 23
	movl	-28(%rbp), %eax	# i, tmp135
	movslq	%eax, %rdx	# tmp135, tmp134
	movq	%rdx, %rax	# tmp134, tmp137
	salq	$2, %rax	#, tmp137
	addq	%rdx, %rax	# tmp134, tmp137
	salq	$6, %rax	#, tmp138
	movq	%rax, %rdx	# tmp137, tmp136
	leaq	208+players(%rip), %rax	#, tmp139
	movl	%ecx, (%rdx,%rax)	# _5, players[i_29].killcount
# p_setup.c:596:     for (i=0 ; i<MAXPLAYERS ; i++)
	.loc 1 596 32 discriminator 3
	addl	$1, -28(%rbp)	#, i
.L69:
# p_setup.c:596:     for (i=0 ; i<MAXPLAYERS ; i++)
	.loc 1 596 17 discriminator 1
	cmpl	$3, -28(%rbp)	#, i
	jle	.L70	#,
# p_setup.c:604:     players[consoleplayer].viewz = 1; 
	.loc 1 604 27
	movl	consoleplayer(%rip), %eax	# consoleplayer, consoleplayer.64_6
# p_setup.c:604:     players[consoleplayer].viewz = 1; 
	.loc 1 604 34
	movslq	%eax, %rdx	# consoleplayer.64_6, tmp140
	movq	%rdx, %rax	# tmp140, tmp142
	salq	$2, %rax	#, tmp142
	addq	%rdx, %rax	# tmp140, tmp142
	salq	$6, %rax	#, tmp143
	movq	%rax, %rdx	# tmp142, tmp141
	leaq	20+players(%rip), %rax	#, tmp144
	movl	$1, (%rdx,%rax)	#, players[consoleplayer.64_6].viewz
# p_setup.c:607:     S_Start ();			
	.loc 1 607 5
	call	S_Start@PLT	#
# p_setup.c:618: 	Z_FreeTags (PU_LEVEL, PU_PURGELEVEL-1);
	.loc 1 618 2
	movl	$99, %esi	#,
	movl	$50, %edi	#,
	call	Z_FreeTags@PLT	#
# p_setup.c:622:     P_InitThinkers ();
	.loc 1 622 5
	call	P_InitThinkers@PLT	#
# p_setup.c:625:     W_Reload ();			
	.loc 1 625 5
	call	W_Reload@PLT	#
# p_setup.c:628:     if ( gamemode == commercial)
	.loc 1 628 19
	movl	gamemode(%rip), %eax	# gamemode, gamemode.65_7
# p_setup.c:628:     if ( gamemode == commercial)
	.loc 1 628 8
	cmpl	$2, %eax	#, gamemode.65_7
	jne	.L71	#,
# p_setup.c:630: 	if (map<10)
	.loc 1 630 5
	cmpl	$9, -40(%rbp)	#, map
	jg	.L72	#,
# p_setup.c:631: 	    sprintf (lumpname,"map0%i", map);
	.loc 1 631 6
	movl	-40(%rbp), %edx	# map, tmp145
	leaq	-17(%rbp), %rax	#, tmp146
	leaq	.LC1(%rip), %rcx	#, tmp147
	movq	%rcx, %rsi	# tmp147,
	movq	%rax, %rdi	# tmp146,
	movl	$0, %eax	#,
	call	sprintf@PLT	#
	jmp	.L73	#
.L72:
# p_setup.c:633: 	    sprintf (lumpname,"map%i", map);
	.loc 1 633 6
	movl	-40(%rbp), %edx	# map, tmp148
	leaq	-17(%rbp), %rax	#, tmp149
	leaq	.LC2(%rip), %rcx	#, tmp150
	movq	%rcx, %rsi	# tmp150,
	movq	%rax, %rdi	# tmp149,
	movl	$0, %eax	#,
	call	sprintf@PLT	#
	jmp	.L73	#
.L71:
# p_setup.c:637: 	lumpname[0] = 'E';
	.loc 1 637 14
	movb	$69, -17(%rbp)	#, lumpname[0]
# p_setup.c:638: 	lumpname[1] = '0' + episode;
	.loc 1 638 20
	movl	-36(%rbp), %eax	# episode, tmp151
	addl	$48, %eax	#, _9
# p_setup.c:638: 	lumpname[1] = '0' + episode;
	.loc 1 638 14
	movb	%al, -16(%rbp)	# _10, lumpname[1]
# p_setup.c:639: 	lumpname[2] = 'M';
	.loc 1 639 14
	movb	$77, -15(%rbp)	#, lumpname[2]
# p_setup.c:640: 	lumpname[3] = '0' + map;
	.loc 1 640 20
	movl	-40(%rbp), %eax	# map, tmp152
	addl	$48, %eax	#, _12
# p_setup.c:640: 	lumpname[3] = '0' + map;
	.loc 1 640 14
	movb	%al, -14(%rbp)	# _13, lumpname[3]
# p_setup.c:641: 	lumpname[4] = 0;
	.loc 1 641 14
	movb	$0, -13(%rbp)	#, lumpname[4]
.L73:
# p_setup.c:644:     lumpnum = W_GetNumForName (lumpname);
	.loc 1 644 15
	leaq	-17(%rbp), %rax	#, tmp153
	movq	%rax, %rdi	# tmp153,
	call	W_GetNumForName@PLT	#
	movl	%eax, -24(%rbp)	# tmp154, lumpnum
# p_setup.c:646:     leveltime = 0;
	.loc 1 646 15
	movl	$0, leveltime(%rip)	#, leveltime
# p_setup.c:649:     P_LoadBlockMap (lumpnum+ML_BLOCKMAP);
	.loc 1 649 5
	movl	-24(%rbp), %eax	# lumpnum, tmp155
	addl	$10, %eax	#, _14
	movl	%eax, %edi	# _14,
	call	P_LoadBlockMap	#
# p_setup.c:650:     P_LoadVertexes (lumpnum+ML_VERTEXES);
	.loc 1 650 5
	movl	-24(%rbp), %eax	# lumpnum, tmp156
	addl	$4, %eax	#, _15
	movl	%eax, %edi	# _15,
	call	P_LoadVertexes	#
# p_setup.c:651:     P_LoadSectors (lumpnum+ML_SECTORS);
	.loc 1 651 5
	movl	-24(%rbp), %eax	# lumpnum, tmp157
	addl	$8, %eax	#, _16
	movl	%eax, %edi	# _16,
	call	P_LoadSectors	#
# p_setup.c:652:     P_LoadSideDefs (lumpnum+ML_SIDEDEFS);
	.loc 1 652 5
	movl	-24(%rbp), %eax	# lumpnum, tmp158
	addl	$3, %eax	#, _17
	movl	%eax, %edi	# _17,
	call	P_LoadSideDefs	#
# p_setup.c:654:     P_LoadLineDefs (lumpnum+ML_LINEDEFS);
	.loc 1 654 5
	movl	-24(%rbp), %eax	# lumpnum, tmp159
	addl	$2, %eax	#, _18
	movl	%eax, %edi	# _18,
	call	P_LoadLineDefs	#
# p_setup.c:655:     P_LoadSubsectors (lumpnum+ML_SSECTORS);
	.loc 1 655 5
	movl	-24(%rbp), %eax	# lumpnum, tmp160
	addl	$6, %eax	#, _19
	movl	%eax, %edi	# _19,
	call	P_LoadSubsectors	#
# p_setup.c:656:     P_LoadNodes (lumpnum+ML_NODES);
	.loc 1 656 5
	movl	-24(%rbp), %eax	# lumpnum, tmp161
	addl	$7, %eax	#, _20
	movl	%eax, %edi	# _20,
	call	P_LoadNodes	#
# p_setup.c:657:     P_LoadSegs (lumpnum+ML_SEGS);
	.loc 1 657 5
	movl	-24(%rbp), %eax	# lumpnum, tmp162
	addl	$5, %eax	#, _21
	movl	%eax, %edi	# _21,
	call	P_LoadSegs	#
# p_setup.c:659:     rejectmatrix = W_CacheLumpNum (lumpnum+ML_REJECT,PU_LEVEL);
	.loc 1 659 20
	movl	-24(%rbp), %eax	# lumpnum, tmp163
	addl	$9, %eax	#, _22
	movl	$50, %esi	#,
	movl	%eax, %edi	# _22,
	call	W_CacheLumpNum@PLT	#
# p_setup.c:659:     rejectmatrix = W_CacheLumpNum (lumpnum+ML_REJECT,PU_LEVEL);
	.loc 1 659 18 discriminator 1
	movq	%rax, rejectmatrix(%rip)	# _23, rejectmatrix
# p_setup.c:660:     P_GroupLines ();
	.loc 1 660 5
	call	P_GroupLines	#
# p_setup.c:662:     bodyqueslot = 0;
	.loc 1 662 17
	movl	$0, bodyqueslot(%rip)	#, bodyqueslot
# p_setup.c:663:     deathmatch_p = deathmatchstarts;
	.loc 1 663 18
	leaq	deathmatchstarts(%rip), %rax	#, tmp164
	movq	%rax, deathmatch_p(%rip)	# tmp164, deathmatch_p
# p_setup.c:664:     P_LoadThings (lumpnum+ML_THINGS);
	.loc 1 664 5
	movl	-24(%rbp), %eax	# lumpnum, tmp165
	addl	$1, %eax	#, _24
	movl	%eax, %edi	# _24,
	call	P_LoadThings	#
# p_setup.c:667:     if (deathmatch)
	.loc 1 667 9
	movl	deathmatch(%rip), %eax	# deathmatch, deathmatch.66_25
# p_setup.c:667:     if (deathmatch)
	.loc 1 667 8
	testl	%eax, %eax	# deathmatch.66_25
	je	.L74	#,
# p_setup.c:669: 	for (i=0 ; i<MAXPLAYERS ; i++)
	.loc 1 669 8
	movl	$0, -28(%rbp)	#, i
# p_setup.c:669: 	for (i=0 ; i<MAXPLAYERS ; i++)
	.loc 1 669 2
	jmp	.L75	#
.L77:
# p_setup.c:670: 	    if (playeringame[i])
	.loc 1 670 22
	movl	-28(%rbp), %eax	# i, tmp167
	cltq
	leaq	0(,%rax,4), %rdx	#, tmp168
	leaq	playeringame(%rip), %rax	#, tmp169
	movl	(%rdx,%rax), %eax	# playeringame[i_30], _26
# p_setup.c:670: 	    if (playeringame[i])
	.loc 1 670 9
	testl	%eax, %eax	# _26
	je	.L76	#,
# p_setup.c:672: 		players[i].mo = NULL;
	.loc 1 672 17
	movl	-28(%rbp), %eax	# i, tmp171
	movslq	%eax, %rdx	# tmp171, tmp170
	movq	%rdx, %rax	# tmp170, tmp173
	salq	$2, %rax	#, tmp173
	addq	%rdx, %rax	# tmp170, tmp173
	salq	$6, %rax	#, tmp174
	movq	%rax, %rdx	# tmp173, tmp172
	leaq	players(%rip), %rax	#, tmp175
	movq	$0, (%rdx,%rax)	#, players[i_30].mo
# p_setup.c:673: 		G_DeathMatchSpawnPlayer (i);
	.loc 1 673 3
	movl	-28(%rbp), %eax	# i, tmp176
	movl	%eax, %edi	# tmp176,
	call	G_DeathMatchSpawnPlayer@PLT	#
.L76:
# p_setup.c:669: 	for (i=0 ; i<MAXPLAYERS ; i++)
	.loc 1 669 29 discriminator 2
	addl	$1, -28(%rbp)	#, i
.L75:
# p_setup.c:669: 	for (i=0 ; i<MAXPLAYERS ; i++)
	.loc 1 669 14 discriminator 1
	cmpl	$3, -28(%rbp)	#, i
	jle	.L77	#,
.L74:
# p_setup.c:679:     iquehead = iquetail = 0;		
	.loc 1 679 25
	movl	$0, iquetail(%rip)	#, iquetail
# p_setup.c:679:     iquehead = iquetail = 0;		
	.loc 1 679 14
	movl	iquetail(%rip), %eax	# iquetail, iquetail.67_27
	movl	%eax, iquehead(%rip)	# iquetail.67_27, iquehead
# p_setup.c:682:     P_SpawnSpecials ();
	.loc 1 682 5
	call	P_SpawnSpecials@PLT	#
# p_setup.c:688:     if (precache)
	.loc 1 688 9
	movl	precache(%rip), %eax	# precache, precache.68_28
# p_setup.c:688:     if (precache)
	.loc 1 688 8
	testl	%eax, %eax	# precache.68_28
	je	.L80	#,
# p_setup.c:689: 	R_PrecacheLevel ();
	.loc 1 689 2
	call	R_PrecacheLevel@PLT	#
.L80:
# p_setup.c:693: }
	.loc 1 693 1
	nop	
	movq	-8(%rbp), %rax	# D.7575, tmp178
	subq	%fs:40, %rax	# MEM[(<address-space-1> long unsigned int *)40B], tmp178
	je	.L79	#,
	call	__stack_chk_fail@PLT	#
.L79:
	leave	
	.cfi_def_cfa 7, 8
	ret	
	.cfi_endproc
.LFE10:
	.size	P_SetupLevel, .-P_SetupLevel
	.globl	P_Init
	.type	P_Init, @function
P_Init:
.LFB11:
	.loc 1 701 1
	.cfi_startproc
	endbr64	
	pushq	%rbp	#
	.cfi_def_cfa_offset 16
	.cfi_offset 6, -16
	movq	%rsp, %rbp	#,
	.cfi_def_cfa_register 6
# p_setup.c:702:     P_InitSwitchList ();
	.loc 1 702 5
	call	P_InitSwitchList@PLT	#
# p_setup.c:703:     P_InitPicAnims ();
	.loc 1 703 5
	call	P_InitPicAnims@PLT	#
# p_setup.c:704:     R_InitSprites (sprnames);
	.loc 1 704 5
	leaq	sprnames(%rip), %rax	#, tmp82
	movq	%rax, %rdi	# tmp82,
	call	R_InitSprites@PLT	#
# p_setup.c:705: }
	.loc 1 705 1
	nop	
	popq	%rbp	#
	.cfi_def_cfa 7, 8
	ret	
	.cfi_endproc
.LFE11:
	.size	P_Init, .-P_Init
.Letext0:
	.file 2 "/usr/lib/gcc/x86_64-linux-gnu/13/include/stddef.h"
	.file 3 "m_fixed.h"
	.file 4 "m_bbox.h"
	.file 5 "doomdef.h"
	.file 6 "doomtype.h"
	.file 7 "d_ticcmd.h"
	.file 8 "tables.h"
	.file 9 "d_think.h"
	.file 10 "doomdata.h"
	.file 11 "info.h"
	.file 12 "p_mobj.h"
	.file 13 "r_defs.h"
	.file 14 "d_player.h"
	.file 15 "p_pspr.h"
	.file 16 "r_state.h"
	.file 17 "p_local.h"
	.file 18 "doomstat.h"
	.file 19 "p_spec.h"
	.file 20 "r_data.h"
	.file 21 "r_things.h"
	.file 22 "g_game.h"
	.file 23 "w_wad.h"
	.file 24 "/usr/include/stdio.h"
	.file 25 "z_zone.h"
	.file 26 "s_sound.h"
	.file 27 "i_system.h"
	.file 28 "/usr/include/string.h"
	.section	.note.GNU-stack,"",@progbits
	.section	.note.gnu.property,"a"
	.align 8
	.long	1f - 0f
	.long	4f - 1f
	.long	5
0:
	.string	"GNU"
1:
	.align 8
	.long	0xc0000002
	.long	3f - 2f
2:
	.long	0x3
3:
	.align 8
4:
