	.file	"p_sight.c"
# GNU C17 (Ubuntu 13.3.0-6ubuntu2~24.04) version 13.3.0 (x86_64-linux-gnu)
#	compiled by GNU C version 13.3.0, GMP version 6.3.0, MPFR version 4.2.1, MPC version 1.3.1, isl version isl-0.26-GMP

# GGC heuristics: --param ggc-min-expand=100 --param ggc-min-heapsize=131072
# options passed: -mtune=generic -march=x86-64 -g -fasynchronous-unwind-tables -fstack-protector-strong -fstack-clash-protection -fcf-protection
	.text
.Ltext0:
	.file 0 "/home/astrid/Documents/enseignements/DOOM/linuxdoom-1.10" "p_sight.c"
	.section	.rodata
	.align 32
	.type	rcsid, @object
	.size	rcsid, 50
rcsid:
	.string	"$Id: p_sight.c,v 1.3 1997/01/28 22:08:28 b1 Exp $"
	.globl	sightzstart
	.bss
	.align 4
	.type	sightzstart, @object
	.size	sightzstart, 4
sightzstart:
	.zero	4
	.globl	topslope
	.align 4
	.type	topslope, @object
	.size	topslope, 4
topslope:
	.zero	4
	.globl	bottomslope
	.align 4
	.type	bottomslope, @object
	.size	bottomslope, 4
bottomslope:
	.zero	4
	.globl	strace
	.align 16
	.type	strace, @object
	.size	strace, 16
strace:
	.zero	16
	.globl	t2x
	.align 4
	.type	t2x, @object
	.size	t2x, 4
t2x:
	.zero	4
	.globl	t2y
	.align 4
	.type	t2y, @object
	.size	t2y, 4
t2y:
	.zero	4
	.globl	sightcounts
	.align 8
	.type	sightcounts, @object
	.size	sightcounts, 8
sightcounts:
	.zero	8
	.text
	.globl	P_DivlineSide
	.type	P_DivlineSide, @function
P_DivlineSide:
.LFB0:
	.file 1 "p_sight.c"
	.loc 1 59 1
	.cfi_startproc
	endbr64	
	pushq	%rbp	#
	.cfi_def_cfa_offset 16
	.cfi_offset 6, -16
	movq	%rsp, %rbp	#,
	.cfi_def_cfa_register 6
	movl	%edi, -20(%rbp)	# x, x
	movl	%esi, -24(%rbp)	# y, y
	movq	%rdx, -32(%rbp)	# node, node
# p_sight.c:65:     if (!node->dx)
	.loc 1 65 14
	movq	-32(%rbp), %rax	# node, tmp106
	movl	8(%rax), %eax	# node_25(D)->dx, _1
# p_sight.c:65:     if (!node->dx)
	.loc 1 65 8
	testl	%eax, %eax	# _1
	jne	.L2	#,
# p_sight.c:67: 	if (x==node->x)
	.loc 1 67 13
	movq	-32(%rbp), %rax	# node, tmp107
	movl	(%rax), %eax	# node_25(D)->x, _2
# p_sight.c:67: 	if (x==node->x)
	.loc 1 67 5
	cmpl	%eax, -20(%rbp)	# _2, x
	jne	.L3	#,
# p_sight.c:68: 	    return 2;
	.loc 1 68 13
	movl	$2, %eax	#, _23
	jmp	.L4	#
.L3:
# p_sight.c:70: 	if (x <= node->x)
	.loc 1 70 15
	movq	-32(%rbp), %rax	# node, tmp108
	movl	(%rax), %eax	# node_25(D)->x, _3
# p_sight.c:70: 	if (x <= node->x)
	.loc 1 70 5
	cmpl	%eax, -20(%rbp)	# _3, x
	jg	.L5	#,
# p_sight.c:71: 	    return node->dy > 0;
	.loc 1 71 17
	movq	-32(%rbp), %rax	# node, tmp109
	movl	12(%rax), %eax	# node_25(D)->dy, _4
# p_sight.c:71: 	    return node->dy > 0;
	.loc 1 71 22
	testl	%eax, %eax	# _4
	setg	%al	#, _5
	movzbl	%al, %eax	# _5, _23
	jmp	.L4	#
.L5:
# p_sight.c:73: 	return node->dy < 0;
	.loc 1 73 13
	movq	-32(%rbp), %rax	# node, tmp110
	movl	12(%rax), %eax	# node_25(D)->dy, _6
# p_sight.c:73: 	return node->dy < 0;
	.loc 1 73 18
	shrl	$31, %eax	#, tmp111
	movzbl	%al, %eax	# _7, _23
	jmp	.L4	#
.L2:
# p_sight.c:76:     if (!node->dy)
	.loc 1 76 14
	movq	-32(%rbp), %rax	# node, tmp112
	movl	12(%rax), %eax	# node_25(D)->dy, _8
# p_sight.c:76:     if (!node->dy)
	.loc 1 76 8
	testl	%eax, %eax	# _8
	jne	.L6	#,
# p_sight.c:78: 	if (x==node->y)
	.loc 1 78 13
	movq	-32(%rbp), %rax	# node, tmp113
	movl	4(%rax), %eax	# node_25(D)->y, _9
# p_sight.c:78: 	if (x==node->y)
	.loc 1 78 5
	cmpl	%eax, -20(%rbp)	# _9, x
	jne	.L7	#,
# p_sight.c:79: 	    return 2;
	.loc 1 79 13
	movl	$2, %eax	#, _23
	jmp	.L4	#
.L7:
# p_sight.c:81: 	if (y <= node->y)
	.loc 1 81 15
	movq	-32(%rbp), %rax	# node, tmp114
	movl	4(%rax), %eax	# node_25(D)->y, _10
# p_sight.c:81: 	if (y <= node->y)
	.loc 1 81 5
	cmpl	%eax, -24(%rbp)	# _10, y
	jg	.L8	#,
# p_sight.c:82: 	    return node->dx < 0;
	.loc 1 82 17
	movq	-32(%rbp), %rax	# node, tmp115
	movl	8(%rax), %eax	# node_25(D)->dx, _11
# p_sight.c:82: 	    return node->dx < 0;
	.loc 1 82 22
	shrl	$31, %eax	#, tmp116
	movzbl	%al, %eax	# _12, _23
	jmp	.L4	#
.L8:
# p_sight.c:84: 	return node->dx > 0;
	.loc 1 84 13
	movq	-32(%rbp), %rax	# node, tmp117
	movl	8(%rax), %eax	# node_25(D)->dx, _13
# p_sight.c:84: 	return node->dx > 0;
	.loc 1 84 18
	testl	%eax, %eax	# _13
	setg	%al	#, _14
	movzbl	%al, %eax	# _14, _23
	jmp	.L4	#
.L6:
# p_sight.c:87:     dx = (x - node->x);
	.loc 1 87 19
	movq	-32(%rbp), %rax	# node, tmp118
	movl	(%rax), %eax	# node_25(D)->x, _15
# p_sight.c:87:     dx = (x - node->x);
	.loc 1 87 8
	movl	-20(%rbp), %edx	# x, tmp122
	subl	%eax, %edx	# _15, tmp121
	movl	%edx, -16(%rbp)	# tmp121, dx
# p_sight.c:88:     dy = (y - node->y);
	.loc 1 88 19
	movq	-32(%rbp), %rax	# node, tmp123
	movl	4(%rax), %eax	# node_25(D)->y, _16
# p_sight.c:88:     dy = (y - node->y);
	.loc 1 88 8
	movl	-24(%rbp), %edx	# y, tmp127
	subl	%eax, %edx	# _16, tmp126
	movl	%edx, -12(%rbp)	# tmp126, dy
# p_sight.c:90:     left =  (node->dy>>FRACBITS) * (dx>>FRACBITS);
	.loc 1 90 18
	movq	-32(%rbp), %rax	# node, tmp128
	movl	12(%rax), %eax	# node_25(D)->dy, _17
# p_sight.c:90:     left =  (node->dy>>FRACBITS) * (dx>>FRACBITS);
	.loc 1 90 22
	sarl	$16, %eax	#, _17
	movl	%eax, %edx	# _17, _18
# p_sight.c:90:     left =  (node->dy>>FRACBITS) * (dx>>FRACBITS);
	.loc 1 90 39
	movl	-16(%rbp), %eax	# dx, tmp129
	sarl	$16, %eax	#, _19
# p_sight.c:90:     left =  (node->dy>>FRACBITS) * (dx>>FRACBITS);
	.loc 1 90 10
	imull	%edx, %eax	# _18, tmp130
	movl	%eax, -8(%rbp)	# tmp130, left
# p_sight.c:91:     right = (dy>>FRACBITS) * (node->dx>>FRACBITS);
	.loc 1 91 16
	movl	-12(%rbp), %eax	# dy, tmp131
	sarl	$16, %eax	#, tmp131
	movl	%eax, %edx	# tmp131, _20
# p_sight.c:91:     right = (dy>>FRACBITS) * (node->dx>>FRACBITS);
	.loc 1 91 35
	movq	-32(%rbp), %rax	# node, tmp132
	movl	8(%rax), %eax	# node_25(D)->dx, _21
# p_sight.c:91:     right = (dy>>FRACBITS) * (node->dx>>FRACBITS);
	.loc 1 91 39
	sarl	$16, %eax	#, _22
# p_sight.c:91:     right = (dy>>FRACBITS) * (node->dx>>FRACBITS);
	.loc 1 91 11
	imull	%edx, %eax	# _20, tmp133
	movl	%eax, -4(%rbp)	# tmp133, right
# p_sight.c:93:     if (right < left)
	.loc 1 93 8
	movl	-4(%rbp), %eax	# right, tmp134
	cmpl	-8(%rbp), %eax	# left, tmp134
	jge	.L9	#,
# p_sight.c:94: 	return 0;	// front side
	.loc 1 94 9
	movl	$0, %eax	#, _23
	jmp	.L4	#
.L9:
# p_sight.c:96:     if (left == right)
	.loc 1 96 8
	movl	-8(%rbp), %eax	# left, tmp135
	cmpl	-4(%rbp), %eax	# right, tmp135
	jne	.L10	#,
# p_sight.c:97: 	return 2;
	.loc 1 97 9
	movl	$2, %eax	#, _23
	jmp	.L4	#
.L10:
# p_sight.c:98:     return 1;		// back side
	.loc 1 98 12
	movl	$1, %eax	#, _23
.L4:
# p_sight.c:99: }
	.loc 1 99 1
	popq	%rbp	#
	.cfi_def_cfa 7, 8
	ret	
	.cfi_endproc
.LFE0:
	.size	P_DivlineSide, .-P_DivlineSide
	.globl	P_InterceptVector2
	.type	P_InterceptVector2, @function
P_InterceptVector2:
.LFB1:
	.loc 1 112 1
	.cfi_startproc
	endbr64	
	pushq	%rbp	#
	.cfi_def_cfa_offset 16
	.cfi_offset 6, -16
	movq	%rsp, %rbp	#,
	.cfi_def_cfa_register 6
	pushq	%rbx	#
	subq	$40, %rsp	#,
	.cfi_offset 3, -24
	movq	%rdi, -40(%rbp)	# v2, v2
	movq	%rsi, -48(%rbp)	# v1, v1
# p_sight.c:117:     den = FixedMul (v1->dy>>8,v2->dx) - FixedMul(v1->dx>>8,v2->dy);
	.loc 1 117 11
	movq	-40(%rbp), %rax	# v2, tmp104
	movl	8(%rax), %eax	# v2_24(D)->dx, _1
# p_sight.c:117:     den = FixedMul (v1->dy>>8,v2->dx) - FixedMul(v1->dx>>8,v2->dy);
	.loc 1 117 23
	movq	-48(%rbp), %rdx	# v1, tmp105
	movl	12(%rdx), %edx	# v1_25(D)->dy, _2
# p_sight.c:117:     den = FixedMul (v1->dy>>8,v2->dx) - FixedMul(v1->dx>>8,v2->dy);
	.loc 1 117 11
	sarl	$8, %edx	#, _3
	movl	%eax, %esi	# _1,
	movl	%edx, %edi	# _3,
	call	FixedMul@PLT	#
	movl	%eax, %ebx	#, _4
# p_sight.c:117:     den = FixedMul (v1->dy>>8,v2->dx) - FixedMul(v1->dx>>8,v2->dy);
	.loc 1 117 41 discriminator 1
	movq	-40(%rbp), %rax	# v2, tmp106
	movl	12(%rax), %eax	# v2_24(D)->dy, _5
# p_sight.c:117:     den = FixedMul (v1->dy>>8,v2->dx) - FixedMul(v1->dx>>8,v2->dy);
	.loc 1 117 52 discriminator 1
	movq	-48(%rbp), %rdx	# v1, tmp107
	movl	8(%rdx), %edx	# v1_25(D)->dx, _6
# p_sight.c:117:     den = FixedMul (v1->dy>>8,v2->dx) - FixedMul(v1->dx>>8,v2->dy);
	.loc 1 117 41 discriminator 1
	sarl	$8, %edx	#, _7
	movl	%eax, %esi	# _5,
	movl	%edx, %edi	# _7,
	call	FixedMul@PLT	#
# p_sight.c:117:     den = FixedMul (v1->dy>>8,v2->dx) - FixedMul(v1->dx>>8,v2->dy);
	.loc 1 117 9 discriminator 2
	subl	%eax, %ebx	# _8, _4
	movl	%ebx, %edx	# _4, tmp108
	movl	%edx, -28(%rbp)	# tmp108, den
# p_sight.c:119:     if (den == 0)
	.loc 1 119 8
	cmpl	$0, -28(%rbp)	#, den
	jne	.L12	#,
# p_sight.c:120: 	return 0;
	.loc 1 120 9
	movl	$0, %eax	#, _21
	jmp	.L13	#
.L12:
# p_sight.c:123:     num = FixedMul ( (v1->x - v2->x)>>8 ,v1->dy) + 
	.loc 1 123 11
	movq	-48(%rbp), %rax	# v1, tmp109
	movl	12(%rax), %eax	# v1_25(D)->dy, _9
# p_sight.c:123:     num = FixedMul ( (v1->x - v2->x)>>8 ,v1->dy) + 
	.loc 1 123 25
	movq	-48(%rbp), %rdx	# v1, tmp110
	movl	(%rdx), %ecx	# v1_25(D)->x, _10
# p_sight.c:123:     num = FixedMul ( (v1->x - v2->x)>>8 ,v1->dy) + 
	.loc 1 123 33
	movq	-40(%rbp), %rdx	# v2, tmp111
	movl	(%rdx), %edx	# v2_24(D)->x, _11
# p_sight.c:123:     num = FixedMul ( (v1->x - v2->x)>>8 ,v1->dy) + 
	.loc 1 123 29
	subl	%edx, %ecx	# _11, _12
# p_sight.c:123:     num = FixedMul ( (v1->x - v2->x)>>8 ,v1->dy) + 
	.loc 1 123 11
	sarl	$8, %ecx	#, _12
	movl	%ecx, %edx	# _12, _13
	movl	%eax, %esi	# _9,
	movl	%edx, %edi	# _13,
	call	FixedMul@PLT	#
	movl	%eax, %ebx	#, _14
# p_sight.c:124: 	FixedMul ( (v2->y - v1->y)>>8 , v1->dx);
	.loc 1 124 2
	movq	-48(%rbp), %rax	# v1, tmp112
	movl	8(%rax), %eax	# v1_25(D)->dx, _15
# p_sight.c:124: 	FixedMul ( (v2->y - v1->y)>>8 , v1->dx);
	.loc 1 124 16
	movq	-40(%rbp), %rdx	# v2, tmp113
	movl	4(%rdx), %ecx	# v2_24(D)->y, _16
# p_sight.c:124: 	FixedMul ( (v2->y - v1->y)>>8 , v1->dx);
	.loc 1 124 24
	movq	-48(%rbp), %rdx	# v1, tmp114
	movl	4(%rdx), %edx	# v1_25(D)->y, _17
# p_sight.c:124: 	FixedMul ( (v2->y - v1->y)>>8 , v1->dx);
	.loc 1 124 20
	subl	%edx, %ecx	# _17, _18
# p_sight.c:124: 	FixedMul ( (v2->y - v1->y)>>8 , v1->dx);
	.loc 1 124 2
	sarl	$8, %ecx	#, _18
	movl	%ecx, %edx	# _18, _19
	movl	%eax, %esi	# _15,
	movl	%edx, %edi	# _19,
	call	FixedMul@PLT	#
# p_sight.c:123:     num = FixedMul ( (v1->x - v2->x)>>8 ,v1->dy) + 
	.loc 1 123 9
	addl	%ebx, %eax	# _14, tmp115
	movl	%eax, -24(%rbp)	# tmp115, num
# p_sight.c:125:     frac = FixedDiv (num , den);
	.loc 1 125 12
	movl	-28(%rbp), %edx	# den, tmp116
	movl	-24(%rbp), %eax	# num, tmp117
	movl	%edx, %esi	# tmp116,
	movl	%eax, %edi	# tmp117,
	call	FixedDiv@PLT	#
	movl	%eax, -20(%rbp)	# tmp118, frac
# p_sight.c:127:     return frac;
	.loc 1 127 12
	movl	-20(%rbp), %eax	# frac, _21
.L13:
# p_sight.c:128: }
	.loc 1 128 1
	movq	-8(%rbp), %rbx	#,
	leave	
	.cfi_def_cfa 7, 8
	ret	
	.cfi_endproc
.LFE1:
	.size	P_InterceptVector2, .-P_InterceptVector2
	.section	.rodata
	.align 8
.LC0:
	.string	"P_CrossSubsector: ss %i with numss = %i"
	.text
	.globl	P_CrossSubsector
	.type	P_CrossSubsector, @function
P_CrossSubsector:
.LFB2:
	.loc 1 136 1
	.cfi_startproc
	endbr64	
	pushq	%rbp	#
	.cfi_def_cfa_offset 16
	.cfi_offset 6, -16
	movq	%rsp, %rbp	#,
	.cfi_def_cfa_register 6
	subq	$144, %rsp	#,
	movl	%edi, -132(%rbp)	# num, num
# p_sight.c:136: {
	.loc 1 136 1
	movq	%fs:40, %rax	# MEM[(<address-space-1> long unsigned int *)40B], tmp213
	movq	%rax, -8(%rbp)	# tmp213, D.7169
	xorl	%eax, %eax	# tmp213
# p_sight.c:154:     if (num>=numsubsectors)
	.loc 1 154 12
	movl	numsubsectors(%rip), %eax	# numsubsectors, numsubsectors.0_1
# p_sight.c:154:     if (num>=numsubsectors)
	.loc 1 154 8
	cmpl	%eax, -132(%rbp)	# numsubsectors.0_1, num
	jl	.L15	#,
# p_sight.c:155: 	I_Error ("P_CrossSubsector: ss %i with numss = %i",
	.loc 1 155 2
	movl	numsubsectors(%rip), %edx	# numsubsectors, numsubsectors.1_2
	movl	-132(%rbp), %eax	# num, tmp136
	movl	%eax, %esi	# tmp136,
	leaq	.LC0(%rip), %rax	#, tmp137
	movq	%rax, %rdi	# tmp137,
	movl	$0, %eax	#,
	call	I_Error@PLT	#
.L15:
# p_sight.c:160:     sub = &subsectors[num];
	.loc 1 160 11
	movq	subsectors(%rip), %rax	# subsectors, subsectors.2_3
# p_sight.c:160:     sub = &subsectors[num];
	.loc 1 160 22
	movl	-132(%rbp), %edx	# num, tmp138
	movslq	%edx, %rdx	# tmp138, _4
	salq	$4, %rdx	#, _5
# p_sight.c:160:     sub = &subsectors[num];
	.loc 1 160 9
	addq	%rdx, %rax	# _5, tmp139
	movq	%rax, -80(%rbp)	# tmp139, sub
# p_sight.c:163:     count = sub->numlines;
	.loc 1 163 16
	movq	-80(%rbp), %rax	# sub, tmp140
	movzwl	8(%rax), %eax	# sub_67->numlines, _6
# p_sight.c:163:     count = sub->numlines;
	.loc 1 163 11
	cwtl
	movl	%eax, -116(%rbp)	# tmp141, count
# p_sight.c:164:     seg = &segs[sub->firstline];
	.loc 1 164 11
	movq	segs(%rip), %rcx	# segs, segs.3_7
# p_sight.c:164:     seg = &segs[sub->firstline];
	.loc 1 164 20
	movq	-80(%rbp), %rax	# sub, tmp142
	movzwl	10(%rax), %eax	# sub_67->firstline, _8
	movswq	%ax, %rdx	# _8, _9
# p_sight.c:164:     seg = &segs[sub->firstline];
	.loc 1 164 16
	movq	%rdx, %rax	# _9, tmp143
	salq	$3, %rax	#, tmp144
	subq	%rdx, %rax	# _9, tmp143
	salq	$3, %rax	#, tmp145
# p_sight.c:164:     seg = &segs[sub->firstline];
	.loc 1 164 9
	addq	%rcx, %rax	# segs.3_7, tmp146
	movq	%rax, -88(%rbp)	# tmp146, seg
# p_sight.c:166:     for ( ; count ; seg++, count--)
	.loc 1 166 5
	jmp	.L16	#
.L31:
# p_sight.c:168: 	line = seg->linedef;
	.loc 1 168 7
	movq	-88(%rbp), %rax	# seg, tmp147
	movq	32(%rax), %rax	# seg_53->linedef, tmp148
	movq	%rax, -72(%rbp)	# tmp148, line
# p_sight.c:171: 	if (line->validcount == validcount)
	.loc 1 171 10
	movq	-72(%rbp), %rax	# line, tmp149
	movl	72(%rax), %edx	# line_71->validcount, _11
# p_sight.c:171: 	if (line->validcount == validcount)
	.loc 1 171 23
	movl	validcount(%rip), %eax	# validcount, validcount.4_12
# p_sight.c:171: 	if (line->validcount == validcount)
	.loc 1 171 5
	cmpl	%eax, %edx	# validcount.4_12, _11
	je	.L34	#,
# p_sight.c:174: 	line->validcount = validcount;
	.loc 1 174 19
	movl	validcount(%rip), %edx	# validcount, validcount.5_13
	movq	-72(%rbp), %rax	# line, tmp150
	movl	%edx, 72(%rax)	# validcount.5_13, line_71->validcount
# p_sight.c:176: 	v1 = line->v1;
	.loc 1 176 5
	movq	-72(%rbp), %rax	# line, tmp151
	movq	(%rax), %rax	# line_71->v1, tmp152
	movq	%rax, -64(%rbp)	# tmp152, v1
# p_sight.c:177: 	v2 = line->v2;
	.loc 1 177 5
	movq	-72(%rbp), %rax	# line, tmp153
	movq	8(%rax), %rax	# line_71->v2, tmp154
	movq	%rax, -56(%rbp)	# tmp154, v2
# p_sight.c:178: 	s1 = P_DivlineSide (v1->x,v1->y, &strace);
	.loc 1 178 7
	movq	-64(%rbp), %rax	# v1, tmp155
	movl	4(%rax), %ecx	# v1_73->y, _14
	movq	-64(%rbp), %rax	# v1, tmp156
	movl	(%rax), %eax	# v1_73->x, _15
	leaq	strace(%rip), %rdx	#, tmp157
	movl	%ecx, %esi	# _14,
	movl	%eax, %edi	# _15,
	call	P_DivlineSide	#
	movl	%eax, -104(%rbp)	# tmp158, s1
# p_sight.c:179: 	s2 = P_DivlineSide (v2->x, v2->y, &strace);
	.loc 1 179 7
	movq	-56(%rbp), %rax	# v2, tmp159
	movl	4(%rax), %ecx	# v2_74->y, _16
	movq	-56(%rbp), %rax	# v2, tmp160
	movl	(%rax), %eax	# v2_74->x, _17
	leaq	strace(%rip), %rdx	#, tmp161
	movl	%ecx, %esi	# _16,
	movl	%eax, %edi	# _17,
	call	P_DivlineSide	#
	movl	%eax, -100(%rbp)	# tmp162, s2
# p_sight.c:182: 	if (s1 == s2)
	.loc 1 182 5
	movl	-104(%rbp), %eax	# s1, tmp163
	cmpl	-100(%rbp), %eax	# s2, tmp163
	je	.L35	#,
# p_sight.c:185: 	divl.x = v1->x;
	.loc 1 185 13
	movq	-64(%rbp), %rax	# v1, tmp164
	movl	(%rax), %eax	# v1_73->x, _18
# p_sight.c:185: 	divl.x = v1->x;
	.loc 1 185 9
	movl	%eax, -32(%rbp)	# _18, divl.x
# p_sight.c:186: 	divl.y = v1->y;
	.loc 1 186 13
	movq	-64(%rbp), %rax	# v1, tmp165
	movl	4(%rax), %eax	# v1_73->y, _19
# p_sight.c:186: 	divl.y = v1->y;
	.loc 1 186 9
	movl	%eax, -28(%rbp)	# _19, divl.y
# p_sight.c:187: 	divl.dx = v2->x - v1->x;
	.loc 1 187 14
	movq	-56(%rbp), %rax	# v2, tmp166
	movl	(%rax), %edx	# v2_74->x, _20
# p_sight.c:187: 	divl.dx = v2->x - v1->x;
	.loc 1 187 22
	movq	-64(%rbp), %rax	# v1, tmp167
	movl	(%rax), %eax	# v1_73->x, _21
# p_sight.c:187: 	divl.dx = v2->x - v1->x;
	.loc 1 187 18
	subl	%eax, %edx	# _21, _22
# p_sight.c:187: 	divl.dx = v2->x - v1->x;
	.loc 1 187 10
	movl	%edx, -24(%rbp)	# _22, divl.dx
# p_sight.c:188: 	divl.dy = v2->y - v1->y;
	.loc 1 188 14
	movq	-56(%rbp), %rax	# v2, tmp168
	movl	4(%rax), %edx	# v2_74->y, _23
# p_sight.c:188: 	divl.dy = v2->y - v1->y;
	.loc 1 188 22
	movq	-64(%rbp), %rax	# v1, tmp169
	movl	4(%rax), %eax	# v1_73->y, _24
# p_sight.c:188: 	divl.dy = v2->y - v1->y;
	.loc 1 188 18
	subl	%eax, %edx	# _24, _25
# p_sight.c:188: 	divl.dy = v2->y - v1->y;
	.loc 1 188 10
	movl	%edx, -20(%rbp)	# _25, divl.dy
# p_sight.c:189: 	s1 = P_DivlineSide (strace.x, strace.y, &divl);
	.loc 1 189 7
	movl	4+strace(%rip), %ecx	# strace.y, _26
	movl	strace(%rip), %eax	# strace.x, _27
	leaq	-32(%rbp), %rdx	#, tmp170
	movl	%ecx, %esi	# _26,
	movl	%eax, %edi	# _27,
	call	P_DivlineSide	#
	movl	%eax, -104(%rbp)	# tmp171, s1
# p_sight.c:190: 	s2 = P_DivlineSide (t2x, t2y, &divl);
	.loc 1 190 7
	movl	t2y(%rip), %ecx	# t2y, t2y.6_28
	movl	t2x(%rip), %eax	# t2x, t2x.7_29
	leaq	-32(%rbp), %rdx	#, tmp172
	movl	%ecx, %esi	# t2y.6_28,
	movl	%eax, %edi	# t2x.7_29,
	call	P_DivlineSide	#
	movl	%eax, -100(%rbp)	# tmp173, s2
# p_sight.c:193: 	if (s1 == s2)
	.loc 1 193 5
	movl	-104(%rbp), %eax	# s1, tmp174
	cmpl	-100(%rbp), %eax	# s2, tmp174
	je	.L36	#,
# p_sight.c:198: 	if ( !(line->flags & ML_TWOSIDED) )
	.loc 1 198 13
	movq	-72(%rbp), %rax	# line, tmp175
	movzwl	24(%rax), %eax	# line_71->flags, _30
# p_sight.c:198: 	if ( !(line->flags & ML_TWOSIDED) )
	.loc 1 198 21
	cwtl
	andl	$4, %eax	#, _32
# p_sight.c:198: 	if ( !(line->flags & ML_TWOSIDED) )
	.loc 1 198 5
	testl	%eax, %eax	# _32
	jne	.L21	#,
# p_sight.c:199: 	    return false;
	.loc 1 199 13
	movl	$0, %eax	#, _57
	jmp	.L32	#
.L21:
# p_sight.c:202: 	front = seg->frontsector;
	.loc 1 202 8
	movq	-88(%rbp), %rax	# seg, tmp176
	movq	40(%rax), %rax	# seg_53->frontsector, tmp177
	movq	%rax, -48(%rbp)	# tmp177, front
# p_sight.c:203: 	back = seg->backsector;
	.loc 1 203 7
	movq	-88(%rbp), %rax	# seg, tmp178
	movq	48(%rax), %rax	# seg_53->backsector, tmp179
	movq	%rax, -40(%rbp)	# tmp179, back
# p_sight.c:206: 	if (front->floorheight == back->floorheight
	.loc 1 206 11
	movq	-48(%rbp), %rax	# front, tmp180
	movl	(%rax), %edx	# front_87->floorheight, _33
# p_sight.c:206: 	if (front->floorheight == back->floorheight
	.loc 1 206 32
	movq	-40(%rbp), %rax	# back, tmp181
	movl	(%rax), %eax	# back_88->floorheight, _34
# p_sight.c:206: 	if (front->floorheight == back->floorheight
	.loc 1 206 5
	cmpl	%eax, %edx	# _34, _33
	jne	.L23	#,
# p_sight.c:207: 	    && front->ceilingheight == back->ceilingheight)
	.loc 1 207 14
	movq	-48(%rbp), %rax	# front, tmp182
	movl	4(%rax), %edx	# front_87->ceilingheight, _35
# p_sight.c:207: 	    && front->ceilingheight == back->ceilingheight)
	.loc 1 207 37
	movq	-40(%rbp), %rax	# back, tmp183
	movl	4(%rax), %eax	# back_88->ceilingheight, _36
# p_sight.c:207: 	    && front->ceilingheight == back->ceilingheight)
	.loc 1 207 6
	cmpl	%eax, %edx	# _36, _35
	je	.L37	#,
.L23:
# p_sight.c:212: 	if (front->ceilingheight < back->ceilingheight)
	.loc 1 212 11
	movq	-48(%rbp), %rax	# front, tmp184
	movl	4(%rax), %edx	# front_87->ceilingheight, _37
# p_sight.c:212: 	if (front->ceilingheight < back->ceilingheight)
	.loc 1 212 33
	movq	-40(%rbp), %rax	# back, tmp185
	movl	4(%rax), %eax	# back_88->ceilingheight, _38
# p_sight.c:212: 	if (front->ceilingheight < back->ceilingheight)
	.loc 1 212 5
	cmpl	%eax, %edx	# _38, _37
	jge	.L24	#,
# p_sight.c:213: 	    opentop = front->ceilingheight;
	.loc 1 213 14
	movq	-48(%rbp), %rax	# front, tmp186
	movl	4(%rax), %eax	# front_87->ceilingheight, tmp187
	movl	%eax, -112(%rbp)	# tmp187, opentop
	jmp	.L25	#
.L24:
# p_sight.c:215: 	    opentop = back->ceilingheight;
	.loc 1 215 14
	movq	-40(%rbp), %rax	# back, tmp188
	movl	4(%rax), %eax	# back_88->ceilingheight, tmp189
	movl	%eax, -112(%rbp)	# tmp189, opentop
.L25:
# p_sight.c:218: 	if (front->floorheight > back->floorheight)
	.loc 1 218 11
	movq	-48(%rbp), %rax	# front, tmp190
	movl	(%rax), %edx	# front_87->floorheight, _39
# p_sight.c:218: 	if (front->floorheight > back->floorheight)
	.loc 1 218 31
	movq	-40(%rbp), %rax	# back, tmp191
	movl	(%rax), %eax	# back_88->floorheight, _40
# p_sight.c:218: 	if (front->floorheight > back->floorheight)
	.loc 1 218 5
	cmpl	%eax, %edx	# _40, _39
	jle	.L26	#,
# p_sight.c:219: 	    openbottom = front->floorheight;
	.loc 1 219 17
	movq	-48(%rbp), %rax	# front, tmp192
	movl	(%rax), %eax	# front_87->floorheight, tmp193
	movl	%eax, -108(%rbp)	# tmp193, openbottom
	jmp	.L27	#
.L26:
# p_sight.c:221: 	    openbottom = back->floorheight;
	.loc 1 221 17
	movq	-40(%rbp), %rax	# back, tmp194
	movl	(%rax), %eax	# back_88->floorheight, tmp195
	movl	%eax, -108(%rbp)	# tmp195, openbottom
.L27:
# p_sight.c:224: 	if (openbottom >= opentop)	
	.loc 1 224 5
	movl	-108(%rbp), %eax	# openbottom, tmp196
	cmpl	-112(%rbp), %eax	# opentop, tmp196
	jl	.L28	#,
# p_sight.c:225: 	    return false;		// stop
	.loc 1 225 13
	movl	$0, %eax	#, _57
	jmp	.L32	#
.L28:
# p_sight.c:227: 	frac = P_InterceptVector2 (&strace, &divl);
	.loc 1 227 9
	leaq	-32(%rbp), %rax	#, tmp197
	movq	%rax, %rsi	# tmp197,
	leaq	strace(%rip), %rax	#, tmp198
	movq	%rax, %rdi	# tmp198,
	call	P_InterceptVector2	#
	movl	%eax, -96(%rbp)	# tmp199, frac
# p_sight.c:229: 	if (front->floorheight != back->floorheight)
	.loc 1 229 11
	movq	-48(%rbp), %rax	# front, tmp200
	movl	(%rax), %edx	# front_87->floorheight, _41
# p_sight.c:229: 	if (front->floorheight != back->floorheight)
	.loc 1 229 32
	movq	-40(%rbp), %rax	# back, tmp201
	movl	(%rax), %eax	# back_88->floorheight, _42
# p_sight.c:229: 	if (front->floorheight != back->floorheight)
	.loc 1 229 5
	cmpl	%eax, %edx	# _42, _41
	je	.L29	#,
# p_sight.c:231: 	    slope = FixedDiv (openbottom - sightzstart , frac);
	.loc 1 231 14
	movl	sightzstart(%rip), %eax	# sightzstart, sightzstart.8_43
	movl	-108(%rbp), %edx	# openbottom, tmp202
	subl	%eax, %edx	# sightzstart.8_43, _44
	movl	-96(%rbp), %eax	# frac, tmp203
	movl	%eax, %esi	# tmp203,
	movl	%edx, %edi	# _44,
	call	FixedDiv@PLT	#
	movl	%eax, -92(%rbp)	# tmp204, slope
# p_sight.c:232: 	    if (slope > bottomslope)
	.loc 1 232 16
	movl	bottomslope(%rip), %eax	# bottomslope, bottomslope.9_45
# p_sight.c:232: 	    if (slope > bottomslope)
	.loc 1 232 9
	cmpl	%eax, -92(%rbp)	# bottomslope.9_45, slope
	jle	.L29	#,
# p_sight.c:233: 		bottomslope = slope;
	.loc 1 233 15
	movl	-92(%rbp), %eax	# slope, tmp205
	movl	%eax, bottomslope(%rip)	# tmp205, bottomslope
.L29:
# p_sight.c:236: 	if (front->ceilingheight != back->ceilingheight)
	.loc 1 236 11
	movq	-48(%rbp), %rax	# front, tmp206
	movl	4(%rax), %edx	# front_87->ceilingheight, _46
# p_sight.c:236: 	if (front->ceilingheight != back->ceilingheight)
	.loc 1 236 34
	movq	-40(%rbp), %rax	# back, tmp207
	movl	4(%rax), %eax	# back_88->ceilingheight, _47
# p_sight.c:236: 	if (front->ceilingheight != back->ceilingheight)
	.loc 1 236 5
	cmpl	%eax, %edx	# _47, _46
	je	.L30	#,
# p_sight.c:238: 	    slope = FixedDiv (opentop - sightzstart , frac);
	.loc 1 238 14
	movl	sightzstart(%rip), %eax	# sightzstart, sightzstart.10_48
	movl	-112(%rbp), %edx	# opentop, tmp208
	subl	%eax, %edx	# sightzstart.10_48, _49
	movl	-96(%rbp), %eax	# frac, tmp209
	movl	%eax, %esi	# tmp209,
	movl	%edx, %edi	# _49,
	call	FixedDiv@PLT	#
	movl	%eax, -92(%rbp)	# tmp210, slope
# p_sight.c:239: 	    if (slope < topslope)
	.loc 1 239 16
	movl	topslope(%rip), %eax	# topslope, topslope.11_50
# p_sight.c:239: 	    if (slope < topslope)
	.loc 1 239 9
	cmpl	%eax, -92(%rbp)	# topslope.11_50, slope
	jge	.L30	#,
# p_sight.c:240: 		topslope = slope;
	.loc 1 240 12
	movl	-92(%rbp), %eax	# slope, tmp211
	movl	%eax, topslope(%rip)	# tmp211, topslope
.L30:
# p_sight.c:243: 	if (topslope <= bottomslope)
	.loc 1 243 15
	movl	topslope(%rip), %edx	# topslope, topslope.12_51
	movl	bottomslope(%rip), %eax	# bottomslope, bottomslope.13_52
# p_sight.c:243: 	if (topslope <= bottomslope)
	.loc 1 243 5
	cmpl	%eax, %edx	# bottomslope.13_52, topslope.12_51
	jg	.L18	#,
# p_sight.c:244: 	    return false;		// stop				
	.loc 1 244 13
	movl	$0, %eax	#, _57
	jmp	.L32	#
.L34:
# p_sight.c:172: 	    continue;
	.loc 1 172 6
	nop	
	jmp	.L18	#
.L35:
# p_sight.c:183: 	    continue;
	.loc 1 183 6
	nop	
	jmp	.L18	#
.L36:
# p_sight.c:194: 	    continue;	
	.loc 1 194 6
	nop	
	jmp	.L18	#
.L37:
# p_sight.c:208: 	    continue;	
	.loc 1 208 6
	nop	
.L18:
# p_sight.c:166:     for ( ; count ; seg++, count--)
	.loc 1 166 24
	addq	$56, -88(%rbp)	#, seg
# p_sight.c:166:     for ( ; count ; seg++, count--)
	.loc 1 166 33
	subl	$1, -116(%rbp)	#, count
.L16:
# p_sight.c:166:     for ( ; count ; seg++, count--)
	.loc 1 166 13 discriminator 1
	cmpl	$0, -116(%rbp)	#, count
	jne	.L31	#,
# p_sight.c:247:     return true;		
	.loc 1 247 12
	movl	$1, %eax	#, _57
.L32:
# p_sight.c:248: }
	.loc 1 248 1
	movq	-8(%rbp), %rdx	# D.7169, tmp214
	subq	%fs:40, %rdx	# MEM[(<address-space-1> long unsigned int *)40B], tmp214
	je	.L33	#,
	call	__stack_chk_fail@PLT	#
.L33:
	leave	
	.cfi_def_cfa 7, 8
	ret	
	.cfi_endproc
.LFE2:
	.size	P_CrossSubsector, .-P_CrossSubsector
	.globl	P_CrossBSPNode
	.type	P_CrossBSPNode, @function
P_CrossBSPNode:
.LFB3:
	.loc 1 258 1
	.cfi_startproc
	endbr64	
	pushq	%rbp	#
	.cfi_def_cfa_offset 16
	.cfi_offset 6, -16
	movq	%rsp, %rbp	#,
	.cfi_def_cfa_register 6
	subq	$32, %rsp	#,
	movl	%edi, -20(%rbp)	# bspnum, bspnum
# p_sight.c:262:     if (bspnum & NF_SUBSECTOR)
	.loc 1 262 16
	movl	-20(%rbp), %eax	# bspnum, tmp100
	andl	$32768, %eax	#, _1
# p_sight.c:262:     if (bspnum & NF_SUBSECTOR)
	.loc 1 262 8
	testl	%eax, %eax	# _1
	je	.L39	#,
# p_sight.c:264: 	if (bspnum == -1)
	.loc 1 264 5
	cmpl	$-1, -20(%rbp)	#, bspnum
	jne	.L40	#,
# p_sight.c:265: 	    return P_CrossSubsector (0);
	.loc 1 265 13
	movl	$0, %edi	#,
	call	P_CrossSubsector	#
	jmp	.L41	#
.L40:
# p_sight.c:267: 	    return P_CrossSubsector (bspnum&(~NF_SUBSECTOR));
	.loc 1 267 13
	movl	-20(%rbp), %eax	# bspnum, tmp101
	andb	$127, %ah	#, _2
	movl	%eax, %edi	# _2,
	call	P_CrossSubsector	#
	jmp	.L41	#
.L39:
# p_sight.c:270:     bsp = &nodes[bspnum];
	.loc 1 270 11
	movq	nodes(%rip), %rcx	# nodes, nodes.14_3
# p_sight.c:270:     bsp = &nodes[bspnum];
	.loc 1 270 17
	movl	-20(%rbp), %eax	# bspnum, tmp102
	movslq	%eax, %rdx	# tmp102, _4
	movq	%rdx, %rax	# _4, tmp103
	addq	%rax, %rax	# tmp103
	addq	%rdx, %rax	# _4, tmp103
	salq	$2, %rax	#, tmp103
	addq	%rdx, %rax	# _4, tmp103
	salq	$2, %rax	#, tmp104
# p_sight.c:270:     bsp = &nodes[bspnum];
	.loc 1 270 9
	addq	%rcx, %rax	# nodes.14_3, tmp105
	movq	%rax, -8(%rbp)	# tmp105, bsp
# p_sight.c:273:     side = P_DivlineSide (strace.x, strace.y, (divline_t *)bsp);
	.loc 1 273 12
	movl	4+strace(%rip), %ecx	# strace.y, _6
	movl	strace(%rip), %eax	# strace.x, _7
	movq	-8(%rbp), %rdx	# bsp, tmp106
	movl	%ecx, %esi	# _6,
	movl	%eax, %edi	# _7,
	call	P_DivlineSide	#
	movl	%eax, -12(%rbp)	# tmp107, side
# p_sight.c:274:     if (side == 2)
	.loc 1 274 8
	cmpl	$2, -12(%rbp)	#, side
	jne	.L42	#,
# p_sight.c:275: 	side = 0;	// an "on" should cross both sides
	.loc 1 275 7
	movl	$0, -12(%rbp)	#, side
.L42:
# p_sight.c:278:     if (!P_CrossBSPNode (bsp->children[side]) )
	.loc 1 278 39
	movq	-8(%rbp), %rax	# bsp, tmp108
	movl	-12(%rbp), %edx	# side, tmp110
	movslq	%edx, %rdx	# tmp110, tmp109
	addq	$24, %rdx	#, tmp111
	movzwl	(%rax,%rdx,2), %eax	# bsp_22->children[side_17], _8
# p_sight.c:278:     if (!P_CrossBSPNode (bsp->children[side]) )
	.loc 1 278 10
	movzwl	%ax, %eax	# _8, _9
	movl	%eax, %edi	# _9,
	call	P_CrossBSPNode	#
# p_sight.c:278:     if (!P_CrossBSPNode (bsp->children[side]) )
	.loc 1 278 8 discriminator 1
	testl	%eax, %eax	# _10
	jne	.L43	#,
# p_sight.c:279: 	return false;
	.loc 1 279 9
	movl	$0, %eax	#, _18
	jmp	.L41	#
.L43:
# p_sight.c:282:     if (side == P_DivlineSide (t2x, t2y,(divline_t *)bsp))
	.loc 1 282 17
	movl	t2y(%rip), %ecx	# t2y, t2y.15_11
	movl	t2x(%rip), %eax	# t2x, t2x.16_12
	movq	-8(%rbp), %rdx	# bsp, tmp112
	movl	%ecx, %esi	# t2y.15_11,
	movl	%eax, %edi	# t2x.16_12,
	call	P_DivlineSide	#
# p_sight.c:282:     if (side == P_DivlineSide (t2x, t2y,(divline_t *)bsp))
	.loc 1 282 8 discriminator 1
	cmpl	%eax, -12(%rbp)	# _13, side
	jne	.L44	#,
# p_sight.c:285: 	return true;
	.loc 1 285 9
	movl	$1, %eax	#, _18
	jmp	.L41	#
.L44:
# p_sight.c:289:     return P_CrossBSPNode (bsp->children[side^1]);
	.loc 1 289 46
	movl	-12(%rbp), %eax	# side, tmp113
	xorl	$1, %eax	#, tmp113
	movl	%eax, %edx	# tmp113, _14
# p_sight.c:289:     return P_CrossBSPNode (bsp->children[side^1]);
	.loc 1 289 41
	movq	-8(%rbp), %rax	# bsp, tmp114
	movslq	%edx, %rdx	# _14, tmp115
	addq	$24, %rdx	#, tmp116
	movzwl	(%rax,%rdx,2), %eax	# bsp_22->children[_14], _15
# p_sight.c:289:     return P_CrossBSPNode (bsp->children[side^1]);
	.loc 1 289 12
	movzwl	%ax, %eax	# _15, _16
	movl	%eax, %edi	# _16,
	call	P_CrossBSPNode	#
.L41:
# p_sight.c:290: }
	.loc 1 290 1
	leave	
	.cfi_def_cfa 7, 8
	ret	
	.cfi_endproc
.LFE3:
	.size	P_CrossBSPNode, .-P_CrossBSPNode
	.globl	P_CheckSight
	.type	P_CheckSight, @function
P_CheckSight:
.LFB4:
	.loc 1 303 1
	.cfi_startproc
	endbr64	
	pushq	%rbp	#
	.cfi_def_cfa_offset 16
	.cfi_offset 6, -16
	movq	%rsp, %rbp	#,
	.cfi_def_cfa_register 6
	subq	$48, %rsp	#,
	movq	%rdi, -40(%rbp)	# t1, t1
	movq	%rsi, -48(%rbp)	# t2, t2
# p_sight.c:313:     s1 = (t1->subsector->sector - sectors);
	.loc 1 313 13
	movq	-40(%rbp), %rax	# t1, tmp135
	movq	88(%rax), %rax	# t1_55(D)->subsector, _1
# p_sight.c:313:     s1 = (t1->subsector->sector - sectors);
	.loc 1 313 24
	movq	(%rax), %rdx	# _1->sector, _2
# p_sight.c:313:     s1 = (t1->subsector->sector - sectors);
	.loc 1 313 33
	movq	sectors(%rip), %rax	# sectors, sectors.17_3
	subq	%rax, %rdx	# sectors.17_3, _4
	movq	%rdx, %rax	# _4, _4
	sarq	$7, %rax	#, _4
# p_sight.c:313:     s1 = (t1->subsector->sector - sectors);
	.loc 1 313 8
	movl	%eax, -20(%rbp)	# _5, s1
# p_sight.c:314:     s2 = (t2->subsector->sector - sectors);
	.loc 1 314 13
	movq	-48(%rbp), %rax	# t2, tmp137
	movq	88(%rax), %rax	# t2_57(D)->subsector, _6
# p_sight.c:314:     s2 = (t2->subsector->sector - sectors);
	.loc 1 314 24
	movq	(%rax), %rdx	# _6->sector, _7
# p_sight.c:314:     s2 = (t2->subsector->sector - sectors);
	.loc 1 314 33
	movq	sectors(%rip), %rax	# sectors, sectors.18_8
	subq	%rax, %rdx	# sectors.18_8, _9
	movq	%rdx, %rax	# _9, _9
	sarq	$7, %rax	#, _9
# p_sight.c:314:     s2 = (t2->subsector->sector - sectors);
	.loc 1 314 8
	movl	%eax, -16(%rbp)	# _10, s2
# p_sight.c:315:     pnum = s1*numsectors + s2;
	.loc 1 315 14
	movl	numsectors(%rip), %eax	# numsectors, numsectors.19_11
	imull	-20(%rbp), %eax	# s1, numsectors.19_11
	movl	%eax, %edx	# numsectors.19_11, _12
# p_sight.c:315:     pnum = s1*numsectors + s2;
	.loc 1 315 10
	movl	-16(%rbp), %eax	# s2, tmp142
	addl	%edx, %eax	# _12, tmp141
	movl	%eax, -12(%rbp)	# tmp141, pnum
# p_sight.c:316:     bytenum = pnum>>3;
	.loc 1 316 13
	movl	-12(%rbp), %eax	# pnum, tmp146
	sarl	$3, %eax	#, tmp145
	movl	%eax, -8(%rbp)	# tmp145, bytenum
# p_sight.c:317:     bitnum = 1 << (pnum&7);
	.loc 1 317 24
	movl	-12(%rbp), %eax	# pnum, tmp147
	andl	$7, %eax	#, _13
# p_sight.c:317:     bitnum = 1 << (pnum&7);
	.loc 1 317 12
	movl	$1, %edx	#, tmp148
	movl	%eax, %ecx	# _13, tmp171
	sall	%cl, %edx	# tmp171, tmp148
	movl	%edx, %eax	# tmp148, tmp149
	movl	%eax, -4(%rbp)	# tmp149, bitnum
# p_sight.c:320:     if (rejectmatrix[bytenum]&bitnum)
	.loc 1 320 21
	movq	rejectmatrix(%rip), %rdx	# rejectmatrix, rejectmatrix.20_14
	movl	-8(%rbp), %eax	# bytenum, tmp150
	cltq
	addq	%rdx, %rax	# rejectmatrix.20_14, _16
	movzbl	(%rax), %eax	# *_16, _17
	movzbl	%al, %eax	# _17, _18
# p_sight.c:320:     if (rejectmatrix[bytenum]&bitnum)
	.loc 1 320 30
	andl	-4(%rbp), %eax	# bitnum, _19
# p_sight.c:320:     if (rejectmatrix[bytenum]&bitnum)
	.loc 1 320 8
	testl	%eax, %eax	# _19
	je	.L46	#,
# p_sight.c:322: 	sightcounts[0]++;
	.loc 1 322 13
	movl	sightcounts(%rip), %eax	# sightcounts[0], _20
# p_sight.c:322: 	sightcounts[0]++;
	.loc 1 322 16
	addl	$1, %eax	#, _21
	movl	%eax, sightcounts(%rip)	# _21, sightcounts[0]
# p_sight.c:325: 	return false;	
	.loc 1 325 9
	movl	$0, %eax	#, _52
	jmp	.L47	#
.L46:
# p_sight.c:330:     sightcounts[1]++;
	.loc 1 330 16
	movl	4+sightcounts(%rip), %eax	# sightcounts[1], _22
# p_sight.c:330:     sightcounts[1]++;
	.loc 1 330 19
	addl	$1, %eax	#, _23
	movl	%eax, 4+sightcounts(%rip)	# _23, sightcounts[1]
# p_sight.c:332:     validcount++;
	.loc 1 332 15
	movl	validcount(%rip), %eax	# validcount, validcount.21_24
	addl	$1, %eax	#, _25
	movl	%eax, validcount(%rip)	# _25, validcount
# p_sight.c:334:     sightzstart = t1->z + t1->height - (t1->height>>2);
	.loc 1 334 21
	movq	-40(%rbp), %rax	# t1, tmp151
	movl	32(%rax), %edx	# t1_55(D)->z, _26
# p_sight.c:334:     sightzstart = t1->z + t1->height - (t1->height>>2);
	.loc 1 334 29
	movq	-40(%rbp), %rax	# t1, tmp152
	movl	108(%rax), %eax	# t1_55(D)->height, _27
# p_sight.c:334:     sightzstart = t1->z + t1->height - (t1->height>>2);
	.loc 1 334 25
	leal	(%rdx,%rax), %ecx	#, _28
# p_sight.c:334:     sightzstart = t1->z + t1->height - (t1->height>>2);
	.loc 1 334 43
	movq	-40(%rbp), %rax	# t1, tmp153
	movl	108(%rax), %eax	# t1_55(D)->height, _29
# p_sight.c:334:     sightzstart = t1->z + t1->height - (t1->height>>2);
	.loc 1 334 51
	sarl	$2, %eax	#, _29
	movl	%eax, %edx	# _29, _30
# p_sight.c:334:     sightzstart = t1->z + t1->height - (t1->height>>2);
	.loc 1 334 38
	movl	%ecx, %eax	# _28, _28
	subl	%edx, %eax	# _30, _28
# p_sight.c:334:     sightzstart = t1->z + t1->height - (t1->height>>2);
	.loc 1 334 17
	movl	%eax, sightzstart(%rip)	# _31, sightzstart
# p_sight.c:335:     topslope = (t2->z+t2->height) - sightzstart;
	.loc 1 335 19
	movq	-48(%rbp), %rax	# t2, tmp154
	movl	32(%rax), %edx	# t2_57(D)->z, _32
# p_sight.c:335:     topslope = (t2->z+t2->height) - sightzstart;
	.loc 1 335 25
	movq	-48(%rbp), %rax	# t2, tmp155
	movl	108(%rax), %eax	# t2_57(D)->height, _33
# p_sight.c:335:     topslope = (t2->z+t2->height) - sightzstart;
	.loc 1 335 22
	addl	%eax, %edx	# _33, _34
# p_sight.c:335:     topslope = (t2->z+t2->height) - sightzstart;
	.loc 1 335 35
	movl	sightzstart(%rip), %eax	# sightzstart, sightzstart.22_35
	subl	%eax, %edx	# sightzstart.22_35, _36
# p_sight.c:335:     topslope = (t2->z+t2->height) - sightzstart;
	.loc 1 335 14
	movl	%edx, topslope(%rip)	# _36, topslope
# p_sight.c:336:     bottomslope = (t2->z) - sightzstart;
	.loc 1 336 22
	movq	-48(%rbp), %rax	# t2, tmp156
	movl	32(%rax), %edx	# t2_57(D)->z, _37
# p_sight.c:336:     bottomslope = (t2->z) - sightzstart;
	.loc 1 336 27
	movl	sightzstart(%rip), %eax	# sightzstart, sightzstart.23_38
	subl	%eax, %edx	# sightzstart.23_38, _39
# p_sight.c:336:     bottomslope = (t2->z) - sightzstart;
	.loc 1 336 17
	movl	%edx, bottomslope(%rip)	# _39, bottomslope
# p_sight.c:338:     strace.x = t1->x;
	.loc 1 338 18
	movq	-40(%rbp), %rax	# t1, tmp157
	movl	24(%rax), %eax	# t1_55(D)->x, _40
# p_sight.c:338:     strace.x = t1->x;
	.loc 1 338 14
	movl	%eax, strace(%rip)	# _40, strace.x
# p_sight.c:339:     strace.y = t1->y;
	.loc 1 339 18
	movq	-40(%rbp), %rax	# t1, tmp158
	movl	28(%rax), %eax	# t1_55(D)->y, _41
# p_sight.c:339:     strace.y = t1->y;
	.loc 1 339 14
	movl	%eax, 4+strace(%rip)	# _41, strace.y
# p_sight.c:340:     t2x = t2->x;
	.loc 1 340 13
	movq	-48(%rbp), %rax	# t2, tmp159
	movl	24(%rax), %eax	# t2_57(D)->x, _42
# p_sight.c:340:     t2x = t2->x;
	.loc 1 340 9
	movl	%eax, t2x(%rip)	# _42, t2x
# p_sight.c:341:     t2y = t2->y;
	.loc 1 341 13
	movq	-48(%rbp), %rax	# t2, tmp160
	movl	28(%rax), %eax	# t2_57(D)->y, _43
# p_sight.c:341:     t2y = t2->y;
	.loc 1 341 9
	movl	%eax, t2y(%rip)	# _43, t2y
# p_sight.c:342:     strace.dx = t2->x - t1->x;
	.loc 1 342 19
	movq	-48(%rbp), %rax	# t2, tmp161
	movl	24(%rax), %edx	# t2_57(D)->x, _44
# p_sight.c:342:     strace.dx = t2->x - t1->x;
	.loc 1 342 27
	movq	-40(%rbp), %rax	# t1, tmp162
	movl	24(%rax), %eax	# t1_55(D)->x, _45
# p_sight.c:342:     strace.dx = t2->x - t1->x;
	.loc 1 342 23
	subl	%eax, %edx	# _45, _46
# p_sight.c:342:     strace.dx = t2->x - t1->x;
	.loc 1 342 15
	movl	%edx, 8+strace(%rip)	# _46, strace.dx
# p_sight.c:343:     strace.dy = t2->y - t1->y;
	.loc 1 343 19
	movq	-48(%rbp), %rax	# t2, tmp163
	movl	28(%rax), %edx	# t2_57(D)->y, _47
# p_sight.c:343:     strace.dy = t2->y - t1->y;
	.loc 1 343 27
	movq	-40(%rbp), %rax	# t1, tmp164
	movl	28(%rax), %eax	# t1_55(D)->y, _48
# p_sight.c:343:     strace.dy = t2->y - t1->y;
	.loc 1 343 23
	subl	%eax, %edx	# _48, _49
# p_sight.c:343:     strace.dy = t2->y - t1->y;
	.loc 1 343 15
	movl	%edx, 12+strace(%rip)	# _49, strace.dy
# p_sight.c:346:     return P_CrossBSPNode (numnodes-1);	
	.loc 1 346 12
	movl	numnodes(%rip), %eax	# numnodes, numnodes.24_50
	subl	$1, %eax	#, _51
	movl	%eax, %edi	# _51,
	call	P_CrossBSPNode	#
.L47:
# p_sight.c:347: }
	.loc 1 347 1
	leave	
	.cfi_def_cfa 7, 8
	ret	
	.cfi_endproc
.LFE4:
	.size	P_CheckSight, .-P_CheckSight
.Letext0:
	.file 2 "doomdef.h"
	.file 3 "doomtype.h"
	.file 4 "d_ticcmd.h"
	.file 5 "m_fixed.h"
	.file 6 "tables.h"
	.file 7 "d_think.h"
	.file 8 "doomdata.h"
	.file 9 "info.h"
	.file 10 "p_mobj.h"
	.file 11 "r_defs.h"
	.file 12 "d_player.h"
	.file 13 "p_pspr.h"
	.file 14 "r_state.h"
	.file 15 "r_main.h"
	.file 16 "p_local.h"
	.file 17 "i_system.h"
	.section	.note.GNU-stack,"",@progbits
	.section	.note.gnu.property,"a"
	.align 8
	.long	1f - 0f
	.long	4f - 1f
	.long	5
0:
	.string	"GNU"
1:
	.align 8
	.long	0xc0000002
	.long	3f - 2f
2:
	.long	0x3
3:
	.align 8
4:
