	.file	"p_switch.c"
# GNU C17 (Ubuntu 13.3.0-6ubuntu2~24.04) version 13.3.0 (x86_64-linux-gnu)
#	compiled by GNU C version 13.3.0, GMP version 6.3.0, MPFR version 4.2.1, MPC version 1.3.1, isl version isl-0.26-GMP

# GGC heuristics: --param ggc-min-expand=100 --param ggc-min-heapsize=131072
# options passed: -mtune=generic -march=x86-64 -g -fasynchronous-unwind-tables -fstack-protector-strong -fstack-clash-protection -fcf-protection
	.text
.Ltext0:
	.file 0 "/home/astrid/Documents/enseignements/DOOM/linuxdoom-1.10" "p_switch.c"
	.section	.rodata
	.align 32
	.type	rcsid, @object
	.size	rcsid, 51
rcsid:
	.string	"$Id: p_switch.c,v 1.3 1997/01/28 22:08:29 b1 Exp $"
	.globl	alphSwitchList
	.data
	.align 32
	.type	alphSwitchList, @object
	.size	alphSwitchList, 820
alphSwitchList:
# name1:
	.string	"SW1BRCOM"
# name2:
	.string	"SW2BRCOM"
# episode:
	.value	1
# name1:
	.string	"SW1BRN1"
	.zero	1
# name2:
	.string	"SW2BRN1"
	.zero	1
# episode:
	.value	1
# name1:
	.string	"SW1BRN2"
	.zero	1
# name2:
	.string	"SW2BRN2"
	.zero	1
# episode:
	.value	1
# name1:
	.string	"SW1BRNGN"
# name2:
	.string	"SW2BRNGN"
# episode:
	.value	1
# name1:
	.string	"SW1BROWN"
# name2:
	.string	"SW2BROWN"
# episode:
	.value	1
# name1:
	.string	"SW1COMM"
	.zero	1
# name2:
	.string	"SW2COMM"
	.zero	1
# episode:
	.value	1
# name1:
	.string	"SW1COMP"
	.zero	1
# name2:
	.string	"SW2COMP"
	.zero	1
# episode:
	.value	1
# name1:
	.string	"SW1DIRT"
	.zero	1
# name2:
	.string	"SW2DIRT"
	.zero	1
# episode:
	.value	1
# name1:
	.string	"SW1EXIT"
	.zero	1
# name2:
	.string	"SW2EXIT"
	.zero	1
# episode:
	.value	1
# name1:
	.string	"SW1GRAY"
	.zero	1
# name2:
	.string	"SW2GRAY"
	.zero	1
# episode:
	.value	1
# name1:
	.string	"SW1GRAY1"
# name2:
	.string	"SW2GRAY1"
# episode:
	.value	1
# name1:
	.string	"SW1METAL"
# name2:
	.string	"SW2METAL"
# episode:
	.value	1
# name1:
	.string	"SW1PIPE"
	.zero	1
# name2:
	.string	"SW2PIPE"
	.zero	1
# episode:
	.value	1
# name1:
	.string	"SW1SLAD"
	.zero	1
# name2:
	.string	"SW2SLAD"
	.zero	1
# episode:
	.value	1
# name1:
	.string	"SW1STARG"
# name2:
	.string	"SW2STARG"
# episode:
	.value	1
# name1:
	.string	"SW1STON1"
# name2:
	.string	"SW2STON1"
# episode:
	.value	1
# name1:
	.string	"SW1STON2"
# name2:
	.string	"SW2STON2"
# episode:
	.value	1
# name1:
	.string	"SW1STONE"
# name2:
	.string	"SW2STONE"
# episode:
	.value	1
# name1:
	.string	"SW1STRTN"
# name2:
	.string	"SW2STRTN"
# episode:
	.value	1
# name1:
	.string	"SW1BLUE"
	.zero	1
# name2:
	.string	"SW2BLUE"
	.zero	1
# episode:
	.value	2
# name1:
	.string	"SW1CMT"
	.zero	2
# name2:
	.string	"SW2CMT"
	.zero	2
# episode:
	.value	2
# name1:
	.string	"SW1GARG"
	.zero	1
# name2:
	.string	"SW2GARG"
	.zero	1
# episode:
	.value	2
# name1:
	.string	"SW1GSTON"
# name2:
	.string	"SW2GSTON"
# episode:
	.value	2
# name1:
	.string	"SW1HOT"
	.zero	2
# name2:
	.string	"SW2HOT"
	.zero	2
# episode:
	.value	2
# name1:
	.string	"SW1LION"
	.zero	1
# name2:
	.string	"SW2LION"
	.zero	1
# episode:
	.value	2
# name1:
	.string	"SW1SATYR"
# name2:
	.string	"SW2SATYR"
# episode:
	.value	2
# name1:
	.string	"SW1SKIN"
	.zero	1
# name2:
	.string	"SW2SKIN"
	.zero	1
# episode:
	.value	2
# name1:
	.string	"SW1VINE"
	.zero	1
# name2:
	.string	"SW2VINE"
	.zero	1
# episode:
	.value	2
# name1:
	.string	"SW1WOOD"
	.zero	1
# name2:
	.string	"SW2WOOD"
	.zero	1
# episode:
	.value	2
# name1:
	.string	"SW1PANEL"
# name2:
	.string	"SW2PANEL"
# episode:
	.value	3
# name1:
	.string	"SW1ROCK"
	.zero	1
# name2:
	.string	"SW2ROCK"
	.zero	1
# episode:
	.value	3
# name1:
	.string	"SW1MET2"
	.zero	1
# name2:
	.string	"SW2MET2"
	.zero	1
# episode:
	.value	3
# name1:
	.string	"SW1WDMET"
# name2:
	.string	"SW2WDMET"
# episode:
	.value	3
# name1:
	.string	"SW1BRIK"
	.zero	1
# name2:
	.string	"SW2BRIK"
	.zero	1
# episode:
	.value	3
# name1:
	.string	"SW1MOD1"
	.zero	1
# name2:
	.string	"SW2MOD1"
	.zero	1
# episode:
	.value	3
# name1:
	.string	"SW1ZIM"
	.zero	2
# name2:
	.string	"SW2ZIM"
	.zero	2
# episode:
	.value	3
# name1:
	.string	"SW1STON6"
# name2:
	.string	"SW2STON6"
# episode:
	.value	3
# name1:
	.string	"SW1TEK"
	.zero	2
# name2:
	.string	"SW2TEK"
	.zero	2
# episode:
	.value	3
# name1:
	.string	"SW1MARB"
	.zero	1
# name2:
	.string	"SW2MARB"
	.zero	1
# episode:
	.value	3
# name1:
	.string	"SW1SKULL"
# name2:
	.string	"SW2SKULL"
# episode:
	.value	3
# name1:
	.string	""
	.string	""
	.zero	7
# name2:
	.string	""
	.string	""
	.zero	7
# episode:
	.value	0
	.globl	switchlist
	.bss
	.align 32
	.type	switchlist, @object
	.size	switchlist, 400
switchlist:
	.zero	400
	.globl	numswitches
	.align 4
	.type	numswitches, @object
	.size	numswitches, 4
numswitches:
	.zero	4
	.globl	buttonlist
	.align 32
	.type	buttonlist, @object
	.size	buttonlist, 512
buttonlist:
	.zero	512
	.text
	.globl	P_InitSwitchList
	.type	P_InitSwitchList, @function
P_InitSwitchList:
.LFB0:
	.file 1 "p_switch.c"
	.loc 1 108 1
	.cfi_startproc
	endbr64	
	pushq	%rbp	#
	.cfi_def_cfa_offset 16
	.cfi_offset 6, -16
	movq	%rsp, %rbp	#,
	.cfi_def_cfa_register 6
	pushq	%rbx	#
	subq	$24, %rsp	#,
	.cfi_offset 3, -24
# p_switch.c:113:     episode = 1;
	.loc 1 113 13
	movl	$1, -20(%rbp)	#, episode
# p_switch.c:115:     if (gamemode == registered)
	.loc 1 115 18
	movl	gamemode(%rip), %eax	# gamemode, gamemode.0_1
# p_switch.c:115:     if (gamemode == registered)
	.loc 1 115 8
	cmpl	$1, %eax	#, gamemode.0_1
	jne	.L2	#,
# p_switch.c:116: 	episode = 2;
	.loc 1 116 10
	movl	$2, -20(%rbp)	#, episode
	jmp	.L3	#
.L2:
# p_switch.c:118: 	if ( gamemode == commercial )
	.loc 1 118 16
	movl	gamemode(%rip), %eax	# gamemode, gamemode.1_2
# p_switch.c:118: 	if ( gamemode == commercial )
	.loc 1 118 5
	cmpl	$2, %eax	#, gamemode.1_2
	jne	.L3	#,
# p_switch.c:119: 	    episode = 3;
	.loc 1 119 14
	movl	$3, -20(%rbp)	#, episode
.L3:
# p_switch.c:121:     for (index = 0,i = 0;i < MAXSWITCHES;i++)
	.loc 1 121 16
	movl	$0, -24(%rbp)	#, index
# p_switch.c:121:     for (index = 0,i = 0;i < MAXSWITCHES;i++)
	.loc 1 121 22
	movl	$0, -28(%rbp)	#, i
# p_switch.c:121:     for (index = 0,i = 0;i < MAXSWITCHES;i++)
	.loc 1 121 5
	jmp	.L4	#
.L8:
# p_switch.c:123: 	if (!alphSwitchList[i].episode)
	.loc 1 123 24
	movl	-28(%rbp), %eax	# i, tmp95
	movslq	%eax, %rdx	# tmp95, tmp94
	movq	%rdx, %rax	# tmp94, tmp97
	salq	$2, %rax	#, tmp97
	addq	%rdx, %rax	# tmp94, tmp97
	salq	$2, %rax	#, tmp98
	movq	%rax, %rdx	# tmp97, tmp96
	leaq	18+alphSwitchList(%rip), %rax	#, tmp99
	movzwl	(%rdx,%rax), %eax	# alphSwitchList[i_13].episode, _3
# p_switch.c:123: 	if (!alphSwitchList[i].episode)
	.loc 1 123 5
	testw	%ax, %ax	# _3
	jne	.L5	#,
# p_switch.c:125: 	    numswitches = index/2;
	.loc 1 125 25
	movl	-24(%rbp), %eax	# index, tmp100
	movl	%eax, %edx	# tmp100, tmp101
	shrl	$31, %edx	#, tmp101
	addl	%edx, %eax	# tmp101, tmp102
	sarl	%eax	# tmp103
# p_switch.c:125: 	    numswitches = index/2;
	.loc 1 125 18
	movl	%eax, numswitches(%rip)	# _4, numswitches
# p_switch.c:126: 	    switchlist[index] = -1;
	.loc 1 126 24
	movl	-24(%rbp), %eax	# index, tmp105
	cltq
	leaq	0(,%rax,4), %rdx	#, tmp106
	leaq	switchlist(%rip), %rax	#, tmp107
	movl	$-1, (%rdx,%rax)	#, switchlist[index_15]
# p_switch.c:127: 	    break;
	.loc 1 127 6
	jmp	.L6	#
.L5:
# p_switch.c:130: 	if (alphSwitchList[i].episode <= episode)
	.loc 1 130 23
	movl	-28(%rbp), %eax	# i, tmp109
	movslq	%eax, %rdx	# tmp109, tmp108
	movq	%rdx, %rax	# tmp108, tmp111
	salq	$2, %rax	#, tmp111
	addq	%rdx, %rax	# tmp108, tmp111
	salq	$2, %rax	#, tmp112
	movq	%rax, %rdx	# tmp111, tmp110
	leaq	18+alphSwitchList(%rip), %rax	#, tmp113
	movzwl	(%rdx,%rax), %eax	# alphSwitchList[i_13].episode, _5
	cwtl
# p_switch.c:130: 	if (alphSwitchList[i].episode <= episode)
	.loc 1 130 5
	cmpl	%eax, -20(%rbp)	# _6, episode
	jl	.L7	#,
# p_switch.c:144: 	    switchlist[index++] = R_TextureNumForName(alphSwitchList[i].name1);
	.loc 1 144 65
	movl	-28(%rbp), %eax	# i, tmp115
	movslq	%eax, %rdx	# tmp115, tmp114
	movq	%rdx, %rax	# tmp114, tmp116
	salq	$2, %rax	#, tmp116
	addq	%rdx, %rax	# tmp114, tmp116
	salq	$2, %rax	#, tmp117
	leaq	alphSwitchList(%rip), %rdx	#, tmp118
	addq	%rdx, %rax	# tmp118, _7
# p_switch.c:144: 	    switchlist[index++] = R_TextureNumForName(alphSwitchList[i].name1);
	.loc 1 144 22
	movl	-24(%rbp), %ebx	# index, index.2_8
	leal	1(%rbx), %edx	#, tmp119
	movl	%edx, -24(%rbp)	# tmp119, index
# p_switch.c:144: 	    switchlist[index++] = R_TextureNumForName(alphSwitchList[i].name1);
	.loc 1 144 28
	movq	%rax, %rdi	# _7,
	call	R_TextureNumForName@PLT	#
# p_switch.c:144: 	    switchlist[index++] = R_TextureNumForName(alphSwitchList[i].name1);
	.loc 1 144 26 discriminator 1
	movslq	%ebx, %rdx	# index.2_8, tmp120
	leaq	0(,%rdx,4), %rcx	#, tmp121
	leaq	switchlist(%rip), %rdx	#, tmp122
	movl	%eax, (%rcx,%rdx)	# _9, switchlist[index.2_8]
# p_switch.c:145: 	    switchlist[index++] = R_TextureNumForName(alphSwitchList[i].name2);
	.loc 1 145 65
	movl	-28(%rbp), %eax	# i, tmp124
	movslq	%eax, %rdx	# tmp124, tmp123
	movq	%rdx, %rax	# tmp123, tmp125
	salq	$2, %rax	#, tmp125
	addq	%rdx, %rax	# tmp123, tmp125
	salq	$2, %rax	#, tmp126
	leaq	alphSwitchList(%rip), %rdx	#, tmp128
	addq	%rdx, %rax	# tmp128, tmp127
	addq	$9, %rax	#, _10
# p_switch.c:145: 	    switchlist[index++] = R_TextureNumForName(alphSwitchList[i].name2);
	.loc 1 145 22
	movl	-24(%rbp), %ebx	# index, index.3_11
	leal	1(%rbx), %edx	#, tmp129
	movl	%edx, -24(%rbp)	# tmp129, index
# p_switch.c:145: 	    switchlist[index++] = R_TextureNumForName(alphSwitchList[i].name2);
	.loc 1 145 28
	movq	%rax, %rdi	# _10,
	call	R_TextureNumForName@PLT	#
# p_switch.c:145: 	    switchlist[index++] = R_TextureNumForName(alphSwitchList[i].name2);
	.loc 1 145 26 discriminator 1
	movslq	%ebx, %rdx	# index.3_11, tmp130
	leaq	0(,%rdx,4), %rcx	#, tmp131
	leaq	switchlist(%rip), %rdx	#, tmp132
	movl	%eax, (%rcx,%rdx)	# _12, switchlist[index.3_11]
.L7:
# p_switch.c:121:     for (index = 0,i = 0;i < MAXSWITCHES;i++)
	.loc 1 121 43 discriminator 2
	addl	$1, -28(%rbp)	#, i
.L4:
# p_switch.c:121:     for (index = 0,i = 0;i < MAXSWITCHES;i++)
	.loc 1 121 28 discriminator 1
	cmpl	$49, -28(%rbp)	#, i
	jle	.L8	#,
# p_switch.c:148: }
	.loc 1 148 1
	nop	
.L6:
	nop	
	movq	-8(%rbp), %rbx	#,
	leave	
	.cfi_def_cfa 7, 8
	ret	
	.cfi_endproc
.LFE0:
	.size	P_InitSwitchList, .-P_InitSwitchList
	.section	.rodata
	.align 8
.LC0:
	.string	"P_StartButton: no button slots left!"
	.text
	.globl	P_StartButton
	.type	P_StartButton, @function
P_StartButton:
.LFB1:
	.loc 1 160 1
	.cfi_startproc
	endbr64	
	pushq	%rbp	#
	.cfi_def_cfa_offset 16
	.cfi_offset 6, -16
	movq	%rsp, %rbp	#,
	.cfi_def_cfa_register 6
	subq	$48, %rsp	#,
	movq	%rdi, -24(%rbp)	# line, line
	movl	%esi, -28(%rbp)	# w, w
	movl	%edx, -32(%rbp)	# texture, texture
	movl	%ecx, -36(%rbp)	# time, time
# p_switch.c:164:     for (i = 0;i < MAXBUTTONS;i++)
	.loc 1 164 12
	movl	$0, -4(%rbp)	#, i
# p_switch.c:164:     for (i = 0;i < MAXBUTTONS;i++)
	.loc 1 164 5
	jmp	.L10	#
.L13:
# p_switch.c:166: 	if (buttonlist[i].btimer
	.loc 1 166 19
	movl	-4(%rbp), %eax	# i, tmp88
	cltq
	salq	$5, %rax	#, tmp87
	movq	%rax, %rdx	# tmp87, tmp89
	leaq	16+buttonlist(%rip), %rax	#, tmp90
	movl	(%rdx,%rax), %eax	# buttonlist[i_6].btimer, _1
# p_switch.c:166: 	if (buttonlist[i].btimer
	.loc 1 166 5
	testl	%eax, %eax	# _1
	je	.L11	#,
# p_switch.c:167: 	    && buttonlist[i].line == line)
	.loc 1 167 22
	movl	-4(%rbp), %eax	# i, tmp92
	cltq
	salq	$5, %rax	#, tmp91
	movq	%rax, %rdx	# tmp91, tmp93
	leaq	buttonlist(%rip), %rax	#, tmp94
	movq	(%rdx,%rax), %rax	# buttonlist[i_6].line, _2
# p_switch.c:167: 	    && buttonlist[i].line == line)
	.loc 1 167 6
	cmpq	%rax, -24(%rbp)	# _2, line
	je	.L17	#,
.L11:
# p_switch.c:164:     for (i = 0;i < MAXBUTTONS;i++)
	.loc 1 164 32 discriminator 2
	addl	$1, -4(%rbp)	#, i
.L10:
# p_switch.c:164:     for (i = 0;i < MAXBUTTONS;i++)
	.loc 1 164 18 discriminator 1
	cmpl	$15, -4(%rbp)	#, i
	jle	.L13	#,
# p_switch.c:176:     for (i = 0;i < MAXBUTTONS;i++)
	.loc 1 176 12
	movl	$0, -4(%rbp)	#, i
# p_switch.c:176:     for (i = 0;i < MAXBUTTONS;i++)
	.loc 1 176 5
	jmp	.L14	#
.L16:
# p_switch.c:178: 	if (!buttonlist[i].btimer)
	.loc 1 178 20
	movl	-4(%rbp), %eax	# i, tmp96
	cltq
	salq	$5, %rax	#, tmp95
	movq	%rax, %rdx	# tmp95, tmp97
	leaq	16+buttonlist(%rip), %rax	#, tmp98
	movl	(%rdx,%rax), %eax	# buttonlist[i_7].btimer, _3
# p_switch.c:178: 	if (!buttonlist[i].btimer)
	.loc 1 178 5
	testl	%eax, %eax	# _3
	jne	.L15	#,
# p_switch.c:180: 	    buttonlist[i].line = line;
	.loc 1 180 25
	movl	-4(%rbp), %eax	# i, tmp100
	cltq
	salq	$5, %rax	#, tmp99
	movq	%rax, %rcx	# tmp99, tmp101
	leaq	buttonlist(%rip), %rdx	#, tmp102
	movq	-24(%rbp), %rax	# line, tmp103
	movq	%rax, (%rcx,%rdx)	# tmp103, buttonlist[i_7].line
# p_switch.c:181: 	    buttonlist[i].where = w;
	.loc 1 181 26
	movl	-4(%rbp), %eax	# i, tmp105
	cltq
	salq	$5, %rax	#, tmp104
	movq	%rax, %rcx	# tmp104, tmp106
	leaq	8+buttonlist(%rip), %rdx	#, tmp107
	movl	-28(%rbp), %eax	# w, tmp108
	movl	%eax, (%rcx,%rdx)	# tmp108, buttonlist[i_7].where
# p_switch.c:182: 	    buttonlist[i].btexture = texture;
	.loc 1 182 29
	movl	-4(%rbp), %eax	# i, tmp110
	cltq
	salq	$5, %rax	#, tmp109
	movq	%rax, %rcx	# tmp109, tmp111
	leaq	12+buttonlist(%rip), %rdx	#, tmp112
	movl	-32(%rbp), %eax	# texture, tmp113
	movl	%eax, (%rcx,%rdx)	# tmp113, buttonlist[i_7].btexture
# p_switch.c:183: 	    buttonlist[i].btimer = time;
	.loc 1 183 27
	movl	-4(%rbp), %eax	# i, tmp115
	cltq
	salq	$5, %rax	#, tmp114
	movq	%rax, %rcx	# tmp114, tmp116
	leaq	16+buttonlist(%rip), %rdx	#, tmp117
	movl	-36(%rbp), %eax	# time, tmp118
	movl	%eax, (%rcx,%rdx)	# tmp118, buttonlist[i_7].btimer
# p_switch.c:184: 	    buttonlist[i].soundorg = (mobj_t *)&line->frontsector->soundorg;
	.loc 1 184 46
	movq	-24(%rbp), %rax	# line, tmp119
	movq	56(%rax), %rax	# line_14(D)->frontsector, _4
# p_switch.c:184: 	    buttonlist[i].soundorg = (mobj_t *)&line->frontsector->soundorg;
	.loc 1 184 41
	leaq	48(%rax), %rcx	#, _5
# p_switch.c:184: 	    buttonlist[i].soundorg = (mobj_t *)&line->frontsector->soundorg;
	.loc 1 184 29
	movl	-4(%rbp), %eax	# i, tmp121
	cltq
	salq	$5, %rax	#, tmp120
	movq	%rax, %rdx	# tmp120, tmp122
	leaq	24+buttonlist(%rip), %rax	#, tmp123
	movq	%rcx, (%rdx,%rax)	# _5, buttonlist[i_7].soundorg
# p_switch.c:185: 	    return;
	.loc 1 185 6
	jmp	.L9	#
.L15:
# p_switch.c:176:     for (i = 0;i < MAXBUTTONS;i++)
	.loc 1 176 32 discriminator 2
	addl	$1, -4(%rbp)	#, i
.L14:
# p_switch.c:176:     for (i = 0;i < MAXBUTTONS;i++)
	.loc 1 176 18 discriminator 1
	cmpl	$15, -4(%rbp)	#, i
	jle	.L16	#,
# p_switch.c:189:     I_Error("P_StartButton: no button slots left!");
	.loc 1 189 5
	leaq	.LC0(%rip), %rax	#, tmp124
	movq	%rax, %rdi	# tmp124,
	movl	$0, %eax	#,
	call	I_Error@PLT	#
	jmp	.L9	#
.L17:
# p_switch.c:170: 	    return;
	.loc 1 170 6
	nop	
.L9:
# p_switch.c:190: }
	.loc 1 190 1
	leave	
	.cfi_def_cfa 7, 8
	ret	
	.cfi_endproc
.LFE1:
	.size	P_StartButton, .-P_StartButton
	.globl	P_ChangeSwitchTexture
	.type	P_ChangeSwitchTexture, @function
P_ChangeSwitchTexture:
.LFB2:
	.loc 1 204 1
	.cfi_startproc
	endbr64	
	pushq	%rbp	#
	.cfi_def_cfa_offset 16
	.cfi_offset 6, -16
	movq	%rsp, %rbp	#,
	.cfi_def_cfa_register 6
	subq	$48, %rsp	#,
	movq	%rdi, -40(%rbp)	# line, line
	movl	%esi, -44(%rbp)	# useAgain, useAgain
# p_switch.c:211:     if (!useAgain)
	.loc 1 211 8
	cmpl	$0, -44(%rbp)	#, useAgain
	jne	.L19	#,
# p_switch.c:212: 	line->special = 0;
	.loc 1 212 16
	movq	-40(%rbp), %rax	# line, tmp136
	movw	$0, 26(%rax)	#, line_64(D)->special
.L19:
# p_switch.c:214:     texTop = sides[line->sidenum[0]].toptexture;
	.loc 1 214 19
	movq	sides(%rip), %rcx	# sides, sides.4_1
# p_switch.c:214:     texTop = sides[line->sidenum[0]].toptexture;
	.loc 1 214 33
	movq	-40(%rbp), %rax	# line, tmp137
	movzwl	30(%rax), %eax	# line_64(D)->sidenum[0], _2
	movswq	%ax, %rdx	# _2, _3
# p_switch.c:214:     texTop = sides[line->sidenum[0]].toptexture;
	.loc 1 214 19
	movq	%rdx, %rax	# _3, tmp138
	addq	%rax, %rax	# tmp138
	addq	%rdx, %rax	# _3, tmp138
	salq	$3, %rax	#, tmp139
	addq	%rcx, %rax	# sides.4_1, _5
# p_switch.c:214:     texTop = sides[line->sidenum[0]].toptexture;
	.loc 1 214 37
	movzwl	8(%rax), %eax	# _5->toptexture, _6
# p_switch.c:214:     texTop = sides[line->sidenum[0]].toptexture;
	.loc 1 214 12
	cwtl
	movl	%eax, -12(%rbp)	# tmp140, texTop
# p_switch.c:215:     texMid = sides[line->sidenum[0]].midtexture;
	.loc 1 215 19
	movq	sides(%rip), %rcx	# sides, sides.5_7
# p_switch.c:215:     texMid = sides[line->sidenum[0]].midtexture;
	.loc 1 215 33
	movq	-40(%rbp), %rax	# line, tmp141
	movzwl	30(%rax), %eax	# line_64(D)->sidenum[0], _8
	movswq	%ax, %rdx	# _8, _9
# p_switch.c:215:     texMid = sides[line->sidenum[0]].midtexture;
	.loc 1 215 19
	movq	%rdx, %rax	# _9, tmp142
	addq	%rax, %rax	# tmp142
	addq	%rdx, %rax	# _9, tmp142
	salq	$3, %rax	#, tmp143
	addq	%rcx, %rax	# sides.5_7, _11
# p_switch.c:215:     texMid = sides[line->sidenum[0]].midtexture;
	.loc 1 215 37
	movzwl	12(%rax), %eax	# _11->midtexture, _12
# p_switch.c:215:     texMid = sides[line->sidenum[0]].midtexture;
	.loc 1 215 12
	cwtl
	movl	%eax, -8(%rbp)	# tmp144, texMid
# p_switch.c:216:     texBot = sides[line->sidenum[0]].bottomtexture;
	.loc 1 216 19
	movq	sides(%rip), %rcx	# sides, sides.6_13
# p_switch.c:216:     texBot = sides[line->sidenum[0]].bottomtexture;
	.loc 1 216 33
	movq	-40(%rbp), %rax	# line, tmp145
	movzwl	30(%rax), %eax	# line_64(D)->sidenum[0], _14
	movswq	%ax, %rdx	# _14, _15
# p_switch.c:216:     texBot = sides[line->sidenum[0]].bottomtexture;
	.loc 1 216 19
	movq	%rdx, %rax	# _15, tmp146
	addq	%rax, %rax	# tmp146
	addq	%rdx, %rax	# _15, tmp146
	salq	$3, %rax	#, tmp147
	addq	%rcx, %rax	# sides.6_13, _17
# p_switch.c:216:     texBot = sides[line->sidenum[0]].bottomtexture;
	.loc 1 216 37
	movzwl	10(%rax), %eax	# _17->bottomtexture, _18
# p_switch.c:216:     texBot = sides[line->sidenum[0]].bottomtexture;
	.loc 1 216 12
	cwtl
	movl	%eax, -4(%rbp)	# tmp148, texBot
# p_switch.c:218:     sound = sfx_swtchn;
	.loc 1 218 11
	movl	$23, -16(%rbp)	#, sound
# p_switch.c:221:     if (line->special == 11)                
	.loc 1 221 13
	movq	-40(%rbp), %rax	# line, tmp149
	movzwl	26(%rax), %eax	# line_64(D)->special, _19
# p_switch.c:221:     if (line->special == 11)                
	.loc 1 221 8
	cmpw	$11, %ax	#, _19
	jne	.L20	#,
# p_switch.c:222: 	sound = sfx_swtchx;
	.loc 1 222 8
	movl	$24, -16(%rbp)	#, sound
.L20:
# p_switch.c:224:     for (i = 0;i < numswitches*2;i++)
	.loc 1 224 12
	movl	$0, -20(%rbp)	#, i
# p_switch.c:224:     for (i = 0;i < numswitches*2;i++)
	.loc 1 224 5
	jmp	.L21	#
.L29:
# p_switch.c:226: 	if (switchlist[i] == texTop)
	.loc 1 226 16
	movl	-20(%rbp), %eax	# i, tmp151
	cltq
	leaq	0(,%rax,4), %rdx	#, tmp152
	leaq	switchlist(%rip), %rax	#, tmp153
	movl	(%rdx,%rax), %eax	# switchlist[i_55], _20
# p_switch.c:226: 	if (switchlist[i] == texTop)
	.loc 1 226 5
	cmpl	%eax, -12(%rbp)	# _20, texTop
	jne	.L22	#,
# p_switch.c:228: 	    S_StartSound(buttonlist->soundorg,sound);
	.loc 1 228 29
	movq	24+buttonlist(%rip), %rax	# buttonlist[0].soundorg, _21
# p_switch.c:228: 	    S_StartSound(buttonlist->soundorg,sound);
	.loc 1 228 6
	movl	-16(%rbp), %edx	# sound, tmp154
	movl	%edx, %esi	# tmp154,
	movq	%rax, %rdi	# _21,
	call	S_StartSound@PLT	#
# p_switch.c:229: 	    sides[line->sidenum[0]].toptexture = switchlist[i^1];
	.loc 1 229 55
	movl	-20(%rbp), %eax	# i, tmp155
	xorl	$1, %eax	#, _22
# p_switch.c:229: 	    sides[line->sidenum[0]].toptexture = switchlist[i^1];
	.loc 1 229 53
	cltq
	leaq	0(,%rax,4), %rdx	#, tmp157
	leaq	switchlist(%rip), %rax	#, tmp158
	movl	(%rdx,%rax), %esi	# switchlist[_22], _23
# p_switch.c:229: 	    sides[line->sidenum[0]].toptexture = switchlist[i^1];
	.loc 1 229 11
	movq	sides(%rip), %rcx	# sides, sides.7_24
# p_switch.c:229: 	    sides[line->sidenum[0]].toptexture = switchlist[i^1];
	.loc 1 229 25
	movq	-40(%rbp), %rax	# line, tmp159
	movzwl	30(%rax), %eax	# line_64(D)->sidenum[0], _25
	movswq	%ax, %rdx	# _25, _26
# p_switch.c:229: 	    sides[line->sidenum[0]].toptexture = switchlist[i^1];
	.loc 1 229 11
	movq	%rdx, %rax	# _26, tmp160
	addq	%rax, %rax	# tmp160
	addq	%rdx, %rax	# _26, tmp160
	salq	$3, %rax	#, tmp161
	addq	%rcx, %rax	# sides.7_24, _28
# p_switch.c:229: 	    sides[line->sidenum[0]].toptexture = switchlist[i^1];
	.loc 1 229 41
	movl	%esi, %edx	# _23, _29
	movw	%dx, 8(%rax)	# _29, _28->toptexture
# p_switch.c:231: 	    if (useAgain)
	.loc 1 231 9
	cmpl	$0, -44(%rbp)	#, useAgain
	je	.L30	#,
# p_switch.c:232: 		P_StartButton(line,top,switchlist[i],BUTTONTIME);
	.loc 1 232 3
	movl	-20(%rbp), %eax	# i, tmp163
	cltq
	leaq	0(,%rax,4), %rdx	#, tmp164
	leaq	switchlist(%rip), %rax	#, tmp165
	movl	(%rdx,%rax), %edx	# switchlist[i_55], _30
	movq	-40(%rbp), %rax	# line, tmp166
	movl	$35, %ecx	#,
	movl	$0, %esi	#,
	movq	%rax, %rdi	# tmp166,
	call	P_StartButton	#
# p_switch.c:234: 	    return;
	.loc 1 234 6
	jmp	.L30	#
.L22:
# p_switch.c:238: 	    if (switchlist[i] == texMid)
	.loc 1 238 20
	movl	-20(%rbp), %eax	# i, tmp168
	cltq
	leaq	0(,%rax,4), %rdx	#, tmp169
	leaq	switchlist(%rip), %rax	#, tmp170
	movl	(%rdx,%rax), %eax	# switchlist[i_55], _31
# p_switch.c:238: 	    if (switchlist[i] == texMid)
	.loc 1 238 9
	cmpl	%eax, -8(%rbp)	# _31, texMid
	jne	.L25	#,
# p_switch.c:240: 		S_StartSound(buttonlist->soundorg,sound);
	.loc 1 240 26
	movq	24+buttonlist(%rip), %rax	# buttonlist[0].soundorg, _32
# p_switch.c:240: 		S_StartSound(buttonlist->soundorg,sound);
	.loc 1 240 3
	movl	-16(%rbp), %edx	# sound, tmp171
	movl	%edx, %esi	# tmp171,
	movq	%rax, %rdi	# _32,
	call	S_StartSound@PLT	#
# p_switch.c:241: 		sides[line->sidenum[0]].midtexture = switchlist[i^1];
	.loc 1 241 52
	movl	-20(%rbp), %eax	# i, tmp172
	xorl	$1, %eax	#, _33
# p_switch.c:241: 		sides[line->sidenum[0]].midtexture = switchlist[i^1];
	.loc 1 241 50
	cltq
	leaq	0(,%rax,4), %rdx	#, tmp174
	leaq	switchlist(%rip), %rax	#, tmp175
	movl	(%rdx,%rax), %esi	# switchlist[_33], _34
# p_switch.c:241: 		sides[line->sidenum[0]].midtexture = switchlist[i^1];
	.loc 1 241 8
	movq	sides(%rip), %rcx	# sides, sides.8_35
# p_switch.c:241: 		sides[line->sidenum[0]].midtexture = switchlist[i^1];
	.loc 1 241 22
	movq	-40(%rbp), %rax	# line, tmp176
	movzwl	30(%rax), %eax	# line_64(D)->sidenum[0], _36
	movswq	%ax, %rdx	# _36, _37
# p_switch.c:241: 		sides[line->sidenum[0]].midtexture = switchlist[i^1];
	.loc 1 241 8
	movq	%rdx, %rax	# _37, tmp177
	addq	%rax, %rax	# tmp177
	addq	%rdx, %rax	# _37, tmp177
	salq	$3, %rax	#, tmp178
	addq	%rcx, %rax	# sides.8_35, _39
# p_switch.c:241: 		sides[line->sidenum[0]].midtexture = switchlist[i^1];
	.loc 1 241 38
	movl	%esi, %edx	# _34, _40
	movw	%dx, 12(%rax)	# _40, _39->midtexture
# p_switch.c:243: 		if (useAgain)
	.loc 1 243 6
	cmpl	$0, -44(%rbp)	#, useAgain
	je	.L31	#,
# p_switch.c:244: 		    P_StartButton(line, middle,switchlist[i],BUTTONTIME);
	.loc 1 244 7
	movl	-20(%rbp), %eax	# i, tmp180
	cltq
	leaq	0(,%rax,4), %rdx	#, tmp181
	leaq	switchlist(%rip), %rax	#, tmp182
	movl	(%rdx,%rax), %edx	# switchlist[i_55], _41
	movq	-40(%rbp), %rax	# line, tmp183
	movl	$35, %ecx	#,
	movl	$1, %esi	#,
	movq	%rax, %rdi	# tmp183,
	call	P_StartButton	#
# p_switch.c:246: 		return;
	.loc 1 246 3
	jmp	.L31	#
.L25:
# p_switch.c:250: 		if (switchlist[i] == texBot)
	.loc 1 250 17
	movl	-20(%rbp), %eax	# i, tmp185
	cltq
	leaq	0(,%rax,4), %rdx	#, tmp186
	leaq	switchlist(%rip), %rax	#, tmp187
	movl	(%rdx,%rax), %eax	# switchlist[i_55], _42
# p_switch.c:250: 		if (switchlist[i] == texBot)
	.loc 1 250 6
	cmpl	%eax, -4(%rbp)	# _42, texBot
	jne	.L27	#,
# p_switch.c:252: 		    S_StartSound(buttonlist->soundorg,sound);
	.loc 1 252 30
	movq	24+buttonlist(%rip), %rax	# buttonlist[0].soundorg, _43
# p_switch.c:252: 		    S_StartSound(buttonlist->soundorg,sound);
	.loc 1 252 7
	movl	-16(%rbp), %edx	# sound, tmp188
	movl	%edx, %esi	# tmp188,
	movq	%rax, %rdi	# _43,
	call	S_StartSound@PLT	#
# p_switch.c:253: 		    sides[line->sidenum[0]].bottomtexture = switchlist[i^1];
	.loc 1 253 59
	movl	-20(%rbp), %eax	# i, tmp189
	xorl	$1, %eax	#, _44
# p_switch.c:253: 		    sides[line->sidenum[0]].bottomtexture = switchlist[i^1];
	.loc 1 253 57
	cltq
	leaq	0(,%rax,4), %rdx	#, tmp191
	leaq	switchlist(%rip), %rax	#, tmp192
	movl	(%rdx,%rax), %esi	# switchlist[_44], _45
# p_switch.c:253: 		    sides[line->sidenum[0]].bottomtexture = switchlist[i^1];
	.loc 1 253 12
	movq	sides(%rip), %rcx	# sides, sides.9_46
# p_switch.c:253: 		    sides[line->sidenum[0]].bottomtexture = switchlist[i^1];
	.loc 1 253 26
	movq	-40(%rbp), %rax	# line, tmp193
	movzwl	30(%rax), %eax	# line_64(D)->sidenum[0], _47
	movswq	%ax, %rdx	# _47, _48
# p_switch.c:253: 		    sides[line->sidenum[0]].bottomtexture = switchlist[i^1];
	.loc 1 253 12
	movq	%rdx, %rax	# _48, tmp194
	addq	%rax, %rax	# tmp194
	addq	%rdx, %rax	# _48, tmp194
	salq	$3, %rax	#, tmp195
	addq	%rcx, %rax	# sides.9_46, _50
# p_switch.c:253: 		    sides[line->sidenum[0]].bottomtexture = switchlist[i^1];
	.loc 1 253 45
	movl	%esi, %edx	# _45, _51
	movw	%dx, 10(%rax)	# _51, _50->bottomtexture
# p_switch.c:255: 		    if (useAgain)
	.loc 1 255 10
	cmpl	$0, -44(%rbp)	#, useAgain
	je	.L32	#,
# p_switch.c:256: 			P_StartButton(line, bottom,switchlist[i],BUTTONTIME);
	.loc 1 256 4
	movl	-20(%rbp), %eax	# i, tmp197
	cltq
	leaq	0(,%rax,4), %rdx	#, tmp198
	leaq	switchlist(%rip), %rax	#, tmp199
	movl	(%rdx,%rax), %edx	# switchlist[i_55], _52
	movq	-40(%rbp), %rax	# line, tmp200
	movl	$35, %ecx	#,
	movl	$2, %esi	#,
	movq	%rax, %rdi	# tmp200,
	call	P_StartButton	#
# p_switch.c:258: 		    return;
	.loc 1 258 7
	jmp	.L32	#
.L27:
# p_switch.c:224:     for (i = 0;i < numswitches*2;i++)
	.loc 1 224 35 discriminator 2
	addl	$1, -20(%rbp)	#, i
.L21:
# p_switch.c:224:     for (i = 0;i < numswitches*2;i++)
	.loc 1 224 31 discriminator 1
	movl	numswitches(%rip), %eax	# numswitches, numswitches.10_53
	addl	%eax, %eax	# _54
# p_switch.c:224:     for (i = 0;i < numswitches*2;i++)
	.loc 1 224 18 discriminator 1
	cmpl	%eax, -20(%rbp)	# _54, i
	jl	.L29	#,
	jmp	.L18	#
.L30:
# p_switch.c:234: 	    return;
	.loc 1 234 6
	nop	
	jmp	.L18	#
.L31:
# p_switch.c:246: 		return;
	.loc 1 246 3
	nop	
	jmp	.L18	#
.L32:
# p_switch.c:258: 		    return;
	.loc 1 258 7
	nop	
.L18:
# p_switch.c:263: }
	.loc 1 263 1
	leave	
	.cfi_def_cfa 7, 8
	ret	
	.cfi_endproc
.LFE2:
	.size	P_ChangeSwitchTexture, .-P_ChangeSwitchTexture
	.globl	P_UseSpecialLine
	.type	P_UseSpecialLine, @function
P_UseSpecialLine:
.LFB3:
	.loc 1 280 1
	.cfi_startproc
	endbr64	
	pushq	%rbp	#
	.cfi_def_cfa_offset 16
	.cfi_offset 6, -16
	movq	%rsp, %rbp	#,
	.cfi_def_cfa_register 6
	subq	$32, %rsp	#,
	movq	%rdi, -8(%rbp)	# thing, thing
	movq	%rsi, -16(%rbp)	# line, line
	movl	%edx, -20(%rbp)	# side, side
# p_switch.c:284:     if (side)
	.loc 1 284 8
	cmpl	$0, -20(%rbp)	#, side
	je	.L34	#,
# p_switch.c:286: 	switch(line->special)
	.loc 1 286 13
	movq	-16(%rbp), %rax	# line, tmp150
	movzwl	26(%rax), %eax	# line_106(D)->special, _1
	cwtl
# p_switch.c:286: 	switch(line->special)
	.loc 1 286 2
	cmpl	$124, %eax	#, _2
	je	.L141	#,
# p_switch.c:294: 	    return false;
	.loc 1 294 13
	movl	$0, %eax	#, _56
	jmp	.L36	#
.L141:
# p_switch.c:291: 	    break;
	.loc 1 291 6
	nop	
.L34:
# p_switch.c:301:     if (!thing->player)
	.loc 1 301 15
	movq	-8(%rbp), %rax	# thing, tmp151
	movq	192(%rax), %rax	# thing_108(D)->player, _3
# p_switch.c:301:     if (!thing->player)
	.loc 1 301 8
	testq	%rax, %rax	# _3
	jne	.L37	#,
# p_switch.c:304: 	if (line->flags & ML_SECRET)
	.loc 1 304 10
	movq	-16(%rbp), %rax	# line, tmp152
	movzwl	24(%rax), %eax	# line_106(D)->flags, _4
# p_switch.c:304: 	if (line->flags & ML_SECRET)
	.loc 1 304 18
	cwtl
	andl	$32, %eax	#, _6
# p_switch.c:304: 	if (line->flags & ML_SECRET)
	.loc 1 304 5
	testl	%eax, %eax	# _6
	je	.L38	#,
# p_switch.c:305: 	    return false;
	.loc 1 305 13
	movl	$0, %eax	#, _56
	jmp	.L36	#
.L38:
# p_switch.c:307: 	switch(line->special)
	.loc 1 307 13
	movq	-16(%rbp), %rax	# line, tmp153
	movzwl	26(%rax), %eax	# line_106(D)->special, _7
	cwtl
# p_switch.c:307: 	switch(line->special)
	.loc 1 307 2
	cmpl	$1, %eax	#, _8
	je	.L142	#,
	testl	%eax, %eax	# _8
	jle	.L40	#,
	subl	$32, %eax	#, _212
	cmpl	$2, %eax	#, _212
	jbe	.L142	#,
.L40:
# p_switch.c:316: 	    return false;
	.loc 1 316 13
	movl	$0, %eax	#, _56
	jmp	.L36	#
.L142:
# p_switch.c:313: 	    break;
	.loc 1 313 6
	nop	
.L37:
# p_switch.c:323:     switch (line->special)
	.loc 1 323 17
	movq	-16(%rbp), %rax	# line, tmp154
	movzwl	26(%rax), %eax	# line_106(D)->special, _9
	cwtl
# p_switch.c:323:     switch (line->special)
	.loc 1 323 5
	cmpl	$140, %eax	#, _10
	je	.L41	#,
	cmpl	$140, %eax	#, _10
	jg	.L42	#,
	cmpl	$139, %eax	#, _10
	je	.L43	#,
	cmpl	$139, %eax	#, _10
	jg	.L42	#,
	cmpl	$138, %eax	#, _10
	je	.L44	#,
	cmpl	$138, %eax	#, _10
	jg	.L42	#,
	cmpl	$131, %eax	#, _10
	jg	.L45	#,
	testl	%eax, %eax	# _10
	jg	.L46	#,
	jmp	.L42	#
.L95:
	subl	$132, %eax	#, _214
	movl	$1, %edx	#, tmp155
	movl	%eax, %ecx	# _214, tmp266
	salq	%cl, %rdx	# tmp266, tmp155
	movq	%rdx, %rax	# tmp155, _215
	movq	%rax, %rdx	# _215, _216
	andl	$42, %edx	#, _216
	testq	%rdx, %rdx	# _216
	setne	%dl	#, _217
	testb	%dl, %dl	# _217
	jne	.L47	#,
	movq	%rax, %rdx	# _215, _218
	andl	$20, %edx	#, _218
	testq	%rdx, %rdx	# _218
	setne	%dl	#, _219
	testb	%dl, %dl	# _219
	jne	.L48	#,
	andl	$1, %eax	#, _220
	testq	%rax, %rax	# _220
	setne	%al	#, _221
	testb	%al, %al	# _221
	jne	.L49	#,
	jmp	.L42	#
.L46:
	cmpl	$131, %eax	#, _10
	ja	.L42	#,
	movl	%eax, %eax	# _10, tmp156
	leaq	0(,%rax,4), %rdx	#, tmp157
	leaq	.L51(%rip), %rax	#, tmp158
	movl	(%rdx,%rax), %eax	#, tmp159
	cltq
	leaq	.L51(%rip), %rdx	#, tmp162
	addq	%rdx, %rax	# tmp162, tmp161
	notrack jmp	*%rax	# tmp161
	.section	.rodata
	.align 4
	.align 4
.L51:
	.long	.L42-.L51
	.long	.L55-.L51
	.long	.L42-.L51
	.long	.L42-.L51
	.long	.L42-.L51
	.long	.L42-.L51
	.long	.L42-.L51
	.long	.L94-.L51
	.long	.L42-.L51
	.long	.L93-.L51
	.long	.L42-.L51
	.long	.L92-.L51
	.long	.L42-.L51
	.long	.L42-.L51
	.long	.L91-.L51
	.long	.L90-.L51
	.long	.L42-.L51
	.long	.L42-.L51
	.long	.L89-.L51
	.long	.L42-.L51
	.long	.L88-.L51
	.long	.L87-.L51
	.long	.L42-.L51
	.long	.L86-.L51
	.long	.L42-.L51
	.long	.L42-.L51
	.long	.L55-.L51
	.long	.L55-.L51
	.long	.L55-.L51
	.long	.L85-.L51
	.long	.L42-.L51
	.long	.L55-.L51
	.long	.L55-.L51
	.long	.L55-.L51
	.long	.L55-.L51
	.long	.L42-.L51
	.long	.L42-.L51
	.long	.L42-.L51
	.long	.L42-.L51
	.long	.L42-.L51
	.long	.L42-.L51
	.long	.L84-.L51
	.long	.L83-.L51
	.long	.L82-.L51
	.long	.L42-.L51
	.long	.L81-.L51
	.long	.L42-.L51
	.long	.L42-.L51
	.long	.L42-.L51
	.long	.L80-.L51
	.long	.L79-.L51
	.long	.L78-.L51
	.long	.L42-.L51
	.long	.L42-.L51
	.long	.L42-.L51
	.long	.L77-.L51
	.long	.L42-.L51
	.long	.L42-.L51
	.long	.L42-.L51
	.long	.L42-.L51
	.long	.L76-.L51
	.long	.L75-.L51
	.long	.L74-.L51
	.long	.L73-.L51
	.long	.L72-.L51
	.long	.L71-.L51
	.long	.L70-.L51
	.long	.L69-.L51
	.long	.L68-.L51
	.long	.L67-.L51
	.long	.L66-.L51
	.long	.L65-.L51
	.long	.L42-.L51
	.long	.L42-.L51
	.long	.L42-.L51
	.long	.L42-.L51
	.long	.L42-.L51
	.long	.L42-.L51
	.long	.L42-.L51
	.long	.L42-.L51
	.long	.L42-.L51
	.long	.L42-.L51
	.long	.L42-.L51
	.long	.L42-.L51
	.long	.L42-.L51
	.long	.L42-.L51
	.long	.L42-.L51
	.long	.L42-.L51
	.long	.L42-.L51
	.long	.L42-.L51
	.long	.L42-.L51
	.long	.L42-.L51
	.long	.L42-.L51
	.long	.L42-.L51
	.long	.L42-.L51
	.long	.L42-.L51
	.long	.L42-.L51
	.long	.L42-.L51
	.long	.L42-.L51
	.long	.L48-.L51
	.long	.L42-.L51
	.long	.L64-.L51
	.long	.L63-.L51
	.long	.L62-.L51
	.long	.L42-.L51
	.long	.L42-.L51
	.long	.L42-.L51
	.long	.L42-.L51
	.long	.L42-.L51
	.long	.L42-.L51
	.long	.L42-.L51
	.long	.L61-.L51
	.long	.L60-.L51
	.long	.L59-.L51
	.long	.L58-.L51
	.long	.L57-.L51
	.long	.L56-.L51
	.long	.L55-.L51
	.long	.L55-.L51
	.long	.L42-.L51
	.long	.L42-.L51
	.long	.L42-.L51
	.long	.L54-.L51
	.long	.L53-.L51
	.long	.L42-.L51
	.long	.L42-.L51
	.long	.L42-.L51
	.long	.L52-.L51
	.long	.L42-.L51
	.long	.L42-.L51
	.long	.L42-.L51
	.long	.L50-.L51
	.text
.L45:
	cmpl	$137, %eax	#, _10
	jg	.L42	#,
	cmpl	$132, %eax	#, _10
	jge	.L95	#,
	jmp	.L42	#
.L55:
# p_switch.c:338: 	EV_VerticalDoor (line, thing);
	.loc 1 338 2
	movq	-8(%rbp), %rdx	# thing, tmp163
	movq	-16(%rbp), %rax	# line, tmp164
	movq	%rdx, %rsi	# tmp163,
	movq	%rax, %rdi	# tmp164,
	call	EV_VerticalDoor@PLT	#
# p_switch.c:339: 	break;
	.loc 1 339 2
	jmp	.L42	#
.L94:
# p_switch.c:349: 	if (EV_BuildStairs(line,build8))
	.loc 1 349 6
	movq	-16(%rbp), %rax	# line, tmp165
	movl	$0, %esi	#,
	movq	%rax, %rdi	# tmp165,
	call	EV_BuildStairs@PLT	#
# p_switch.c:349: 	if (EV_BuildStairs(line,build8))
	.loc 1 349 5 discriminator 1
	testl	%eax, %eax	# _11
	je	.L143	#,
# p_switch.c:350: 	    P_ChangeSwitchTexture(line,0);
	.loc 1 350 6
	movq	-16(%rbp), %rax	# line, tmp166
	movl	$0, %esi	#,
	movq	%rax, %rdi	# tmp166,
	call	P_ChangeSwitchTexture	#
# p_switch.c:351: 	break;
	.loc 1 351 2
	jmp	.L143	#
.L93:
# p_switch.c:355: 	if (EV_DoDonut(line))
	.loc 1 355 6
	movq	-16(%rbp), %rax	# line, tmp167
	movq	%rax, %rdi	# tmp167,
	call	EV_DoDonut@PLT	#
# p_switch.c:355: 	if (EV_DoDonut(line))
	.loc 1 355 5 discriminator 1
	testl	%eax, %eax	# _12
	je	.L144	#,
# p_switch.c:356: 	    P_ChangeSwitchTexture(line,0);
	.loc 1 356 6
	movq	-16(%rbp), %rax	# line, tmp168
	movl	$0, %esi	#,
	movq	%rax, %rdi	# tmp168,
	call	P_ChangeSwitchTexture	#
# p_switch.c:357: 	break;
	.loc 1 357 2
	jmp	.L144	#
.L92:
# p_switch.c:361: 	P_ChangeSwitchTexture(line,0);
	.loc 1 361 2
	movq	-16(%rbp), %rax	# line, tmp169
	movl	$0, %esi	#,
	movq	%rax, %rdi	# tmp169,
	call	P_ChangeSwitchTexture	#
# p_switch.c:362: 	G_ExitLevel ();
	.loc 1 362 2
	call	G_ExitLevel@PLT	#
# p_switch.c:363: 	break;
	.loc 1 363 2
	jmp	.L42	#
.L91:
# p_switch.c:367: 	if (EV_DoPlat(line,raiseAndChange,32))
	.loc 1 367 6
	movq	-16(%rbp), %rax	# line, tmp170
	movl	$32, %edx	#,
	movl	$2, %esi	#,
	movq	%rax, %rdi	# tmp170,
	call	EV_DoPlat@PLT	#
# p_switch.c:367: 	if (EV_DoPlat(line,raiseAndChange,32))
	.loc 1 367 5 discriminator 1
	testl	%eax, %eax	# _13
	je	.L145	#,
# p_switch.c:368: 	    P_ChangeSwitchTexture(line,0);
	.loc 1 368 6
	movq	-16(%rbp), %rax	# line, tmp171
	movl	$0, %esi	#,
	movq	%rax, %rdi	# tmp171,
	call	P_ChangeSwitchTexture	#
# p_switch.c:369: 	break;
	.loc 1 369 2
	jmp	.L145	#
.L90:
# p_switch.c:373: 	if (EV_DoPlat(line,raiseAndChange,24))
	.loc 1 373 6
	movq	-16(%rbp), %rax	# line, tmp172
	movl	$24, %edx	#,
	movl	$2, %esi	#,
	movq	%rax, %rdi	# tmp172,
	call	EV_DoPlat@PLT	#
# p_switch.c:373: 	if (EV_DoPlat(line,raiseAndChange,24))
	.loc 1 373 5 discriminator 1
	testl	%eax, %eax	# _14
	je	.L146	#,
# p_switch.c:374: 	    P_ChangeSwitchTexture(line,0);
	.loc 1 374 6
	movq	-16(%rbp), %rax	# line, tmp173
	movl	$0, %esi	#,
	movq	%rax, %rdi	# tmp173,
	call	P_ChangeSwitchTexture	#
# p_switch.c:375: 	break;
	.loc 1 375 2
	jmp	.L146	#
.L89:
# p_switch.c:379: 	if (EV_DoFloor(line, raiseFloorToNearest))
	.loc 1 379 6
	movq	-16(%rbp), %rax	# line, tmp174
	movl	$4, %esi	#,
	movq	%rax, %rdi	# tmp174,
	call	EV_DoFloor@PLT	#
# p_switch.c:379: 	if (EV_DoFloor(line, raiseFloorToNearest))
	.loc 1 379 5 discriminator 1
	testl	%eax, %eax	# _15
	je	.L147	#,
# p_switch.c:380: 	    P_ChangeSwitchTexture(line,0);
	.loc 1 380 6
	movq	-16(%rbp), %rax	# line, tmp175
	movl	$0, %esi	#,
	movq	%rax, %rdi	# tmp175,
	call	P_ChangeSwitchTexture	#
# p_switch.c:381: 	break;
	.loc 1 381 2
	jmp	.L147	#
.L88:
# p_switch.c:385: 	if (EV_DoPlat(line,raiseToNearestAndChange,0))
	.loc 1 385 6
	movq	-16(%rbp), %rax	# line, tmp176
	movl	$0, %edx	#,
	movl	$3, %esi	#,
	movq	%rax, %rdi	# tmp176,
	call	EV_DoPlat@PLT	#
# p_switch.c:385: 	if (EV_DoPlat(line,raiseToNearestAndChange,0))
	.loc 1 385 5 discriminator 1
	testl	%eax, %eax	# _16
	je	.L148	#,
# p_switch.c:386: 	    P_ChangeSwitchTexture(line,0);
	.loc 1 386 6
	movq	-16(%rbp), %rax	# line, tmp177
	movl	$0, %esi	#,
	movq	%rax, %rdi	# tmp177,
	call	P_ChangeSwitchTexture	#
# p_switch.c:387: 	break;
	.loc 1 387 2
	jmp	.L148	#
.L87:
# p_switch.c:391: 	if (EV_DoPlat(line,downWaitUpStay,0))
	.loc 1 391 6
	movq	-16(%rbp), %rax	# line, tmp178
	movl	$0, %edx	#,
	movl	$1, %esi	#,
	movq	%rax, %rdi	# tmp178,
	call	EV_DoPlat@PLT	#
# p_switch.c:391: 	if (EV_DoPlat(line,downWaitUpStay,0))
	.loc 1 391 5 discriminator 1
	testl	%eax, %eax	# _17
	je	.L149	#,
# p_switch.c:392: 	    P_ChangeSwitchTexture(line,0);
	.loc 1 392 6
	movq	-16(%rbp), %rax	# line, tmp179
	movl	$0, %esi	#,
	movq	%rax, %rdi	# tmp179,
	call	P_ChangeSwitchTexture	#
# p_switch.c:393: 	break;
	.loc 1 393 2
	jmp	.L149	#
.L86:
# p_switch.c:397: 	if (EV_DoFloor(line,lowerFloorToLowest))
	.loc 1 397 6
	movq	-16(%rbp), %rax	# line, tmp180
	movl	$1, %esi	#,
	movq	%rax, %rdi	# tmp180,
	call	EV_DoFloor@PLT	#
# p_switch.c:397: 	if (EV_DoFloor(line,lowerFloorToLowest))
	.loc 1 397 5 discriminator 1
	testl	%eax, %eax	# _18
	je	.L150	#,
# p_switch.c:398: 	    P_ChangeSwitchTexture(line,0);
	.loc 1 398 6
	movq	-16(%rbp), %rax	# line, tmp181
	movl	$0, %esi	#,
	movq	%rax, %rdi	# tmp181,
	call	P_ChangeSwitchTexture	#
# p_switch.c:399: 	break;
	.loc 1 399 2
	jmp	.L150	#
.L85:
# p_switch.c:403: 	if (EV_DoDoor(line,normal))
	.loc 1 403 6
	movq	-16(%rbp), %rax	# line, tmp182
	movl	$0, %esi	#,
	movq	%rax, %rdi	# tmp182,
	call	EV_DoDoor@PLT	#
# p_switch.c:403: 	if (EV_DoDoor(line,normal))
	.loc 1 403 5 discriminator 1
	testl	%eax, %eax	# _19
	je	.L151	#,
# p_switch.c:404: 	    P_ChangeSwitchTexture(line,0);
	.loc 1 404 6
	movq	-16(%rbp), %rax	# line, tmp183
	movl	$0, %esi	#,
	movq	%rax, %rdi	# tmp183,
	call	P_ChangeSwitchTexture	#
# p_switch.c:405: 	break;
	.loc 1 405 2
	jmp	.L151	#
.L84:
# p_switch.c:409: 	if (EV_DoCeiling(line,lowerToFloor))
	.loc 1 409 6
	movq	-16(%rbp), %rax	# line, tmp184
	movl	$0, %esi	#,
	movq	%rax, %rdi	# tmp184,
	call	EV_DoCeiling@PLT	#
# p_switch.c:409: 	if (EV_DoCeiling(line,lowerToFloor))
	.loc 1 409 5 discriminator 1
	testl	%eax, %eax	# _20
	je	.L152	#,
# p_switch.c:410: 	    P_ChangeSwitchTexture(line,0);
	.loc 1 410 6
	movq	-16(%rbp), %rax	# line, tmp185
	movl	$0, %esi	#,
	movq	%rax, %rdi	# tmp185,
	call	P_ChangeSwitchTexture	#
# p_switch.c:411: 	break;
	.loc 1 411 2
	jmp	.L152	#
.L65:
# p_switch.c:415: 	if (EV_DoFloor(line,turboLower))
	.loc 1 415 6
	movq	-16(%rbp), %rax	# line, tmp186
	movl	$2, %esi	#,
	movq	%rax, %rdi	# tmp186,
	call	EV_DoFloor@PLT	#
# p_switch.c:415: 	if (EV_DoFloor(line,turboLower))
	.loc 1 415 5 discriminator 1
	testl	%eax, %eax	# _21
	je	.L153	#,
# p_switch.c:416: 	    P_ChangeSwitchTexture(line,0);
	.loc 1 416 6
	movq	-16(%rbp), %rax	# line, tmp187
	movl	$0, %esi	#,
	movq	%rax, %rdi	# tmp187,
	call	P_ChangeSwitchTexture	#
# p_switch.c:417: 	break;
	.loc 1 417 2
	jmp	.L153	#
.L80:
# p_switch.c:421: 	if (EV_DoCeiling(line,crushAndRaise))
	.loc 1 421 6
	movq	-16(%rbp), %rax	# line, tmp188
	movl	$3, %esi	#,
	movq	%rax, %rdi	# tmp188,
	call	EV_DoCeiling@PLT	#
# p_switch.c:421: 	if (EV_DoCeiling(line,crushAndRaise))
	.loc 1 421 5 discriminator 1
	testl	%eax, %eax	# _22
	je	.L154	#,
# p_switch.c:422: 	    P_ChangeSwitchTexture(line,0);
	.loc 1 422 6
	movq	-16(%rbp), %rax	# line, tmp189
	movl	$0, %esi	#,
	movq	%rax, %rdi	# tmp189,
	call	P_ChangeSwitchTexture	#
# p_switch.c:423: 	break;
	.loc 1 423 2
	jmp	.L154	#
.L79:
# p_switch.c:427: 	if (EV_DoDoor(line,close))
	.loc 1 427 6
	movq	-16(%rbp), %rax	# line, tmp190
	movl	$2, %esi	#,
	movq	%rax, %rdi	# tmp190,
	call	EV_DoDoor@PLT	#
# p_switch.c:427: 	if (EV_DoDoor(line,close))
	.loc 1 427 5 discriminator 1
	testl	%eax, %eax	# _23
	je	.L155	#,
# p_switch.c:428: 	    P_ChangeSwitchTexture(line,0);
	.loc 1 428 6
	movq	-16(%rbp), %rax	# line, tmp191
	movl	$0, %esi	#,
	movq	%rax, %rdi	# tmp191,
	call	P_ChangeSwitchTexture	#
# p_switch.c:429: 	break;
	.loc 1 429 2
	jmp	.L155	#
.L78:
# p_switch.c:433: 	P_ChangeSwitchTexture(line,0);
	.loc 1 433 2
	movq	-16(%rbp), %rax	# line, tmp192
	movl	$0, %esi	#,
	movq	%rax, %rdi	# tmp192,
	call	P_ChangeSwitchTexture	#
# p_switch.c:434: 	G_SecretExitLevel ();
	.loc 1 434 2
	call	G_SecretExitLevel@PLT	#
# p_switch.c:435: 	break;
	.loc 1 435 2
	jmp	.L42	#
.L77:
# p_switch.c:439: 	if (EV_DoFloor(line,raiseFloorCrush))
	.loc 1 439 6
	movq	-16(%rbp), %rax	# line, tmp193
	movl	$9, %esi	#,
	movq	%rax, %rdi	# tmp193,
	call	EV_DoFloor@PLT	#
# p_switch.c:439: 	if (EV_DoFloor(line,raiseFloorCrush))
	.loc 1 439 5 discriminator 1
	testl	%eax, %eax	# _24
	je	.L156	#,
# p_switch.c:440: 	    P_ChangeSwitchTexture(line,0);
	.loc 1 440 6
	movq	-16(%rbp), %rax	# line, tmp194
	movl	$0, %esi	#,
	movq	%rax, %rdi	# tmp194,
	call	P_ChangeSwitchTexture	#
# p_switch.c:441: 	break;
	.loc 1 441 2
	jmp	.L156	#
.L64:
# p_switch.c:445: 	if (EV_DoFloor(line,raiseFloor))
	.loc 1 445 6
	movq	-16(%rbp), %rax	# line, tmp195
	movl	$3, %esi	#,
	movq	%rax, %rdi	# tmp195,
	call	EV_DoFloor@PLT	#
# p_switch.c:445: 	if (EV_DoFloor(line,raiseFloor))
	.loc 1 445 5 discriminator 1
	testl	%eax, %eax	# _25
	je	.L157	#,
# p_switch.c:446: 	    P_ChangeSwitchTexture(line,0);
	.loc 1 446 6
	movq	-16(%rbp), %rax	# line, tmp196
	movl	$0, %esi	#,
	movq	%rax, %rdi	# tmp196,
	call	P_ChangeSwitchTexture	#
# p_switch.c:447: 	break;
	.loc 1 447 2
	jmp	.L157	#
.L63:
# p_switch.c:451: 	if (EV_DoFloor(line,lowerFloor))
	.loc 1 451 6
	movq	-16(%rbp), %rax	# line, tmp197
	movl	$0, %esi	#,
	movq	%rax, %rdi	# tmp197,
	call	EV_DoFloor@PLT	#
# p_switch.c:451: 	if (EV_DoFloor(line,lowerFloor))
	.loc 1 451 5 discriminator 1
	testl	%eax, %eax	# _26
	je	.L158	#,
# p_switch.c:452: 	    P_ChangeSwitchTexture(line,0);
	.loc 1 452 6
	movq	-16(%rbp), %rax	# line, tmp198
	movl	$0, %esi	#,
	movq	%rax, %rdi	# tmp198,
	call	P_ChangeSwitchTexture	#
# p_switch.c:453: 	break;
	.loc 1 453 2
	jmp	.L158	#
.L62:
# p_switch.c:457: 	if (EV_DoDoor(line,open))
	.loc 1 457 6
	movq	-16(%rbp), %rax	# line, tmp199
	movl	$3, %esi	#,
	movq	%rax, %rdi	# tmp199,
	call	EV_DoDoor@PLT	#
# p_switch.c:457: 	if (EV_DoDoor(line,open))
	.loc 1 457 5 discriminator 1
	testl	%eax, %eax	# _27
	je	.L159	#,
# p_switch.c:458: 	    P_ChangeSwitchTexture(line,0);
	.loc 1 458 6
	movq	-16(%rbp), %rax	# line, tmp200
	movl	$0, %esi	#,
	movq	%rax, %rdi	# tmp200,
	call	P_ChangeSwitchTexture	#
# p_switch.c:459: 	break;
	.loc 1 459 2
	jmp	.L159	#
.L61:
# p_switch.c:463: 	if (EV_DoDoor (line,blazeRaise))
	.loc 1 463 6
	movq	-16(%rbp), %rax	# line, tmp201
	movl	$5, %esi	#,
	movq	%rax, %rdi	# tmp201,
	call	EV_DoDoor@PLT	#
# p_switch.c:463: 	if (EV_DoDoor (line,blazeRaise))
	.loc 1 463 5 discriminator 1
	testl	%eax, %eax	# _28
	je	.L160	#,
# p_switch.c:464: 	    P_ChangeSwitchTexture(line,0);
	.loc 1 464 6
	movq	-16(%rbp), %rax	# line, tmp202
	movl	$0, %esi	#,
	movq	%rax, %rdi	# tmp202,
	call	P_ChangeSwitchTexture	#
# p_switch.c:465: 	break;
	.loc 1 465 2
	jmp	.L160	#
.L60:
# p_switch.c:469: 	if (EV_DoDoor (line,blazeOpen))
	.loc 1 469 6
	movq	-16(%rbp), %rax	# line, tmp203
	movl	$6, %esi	#,
	movq	%rax, %rdi	# tmp203,
	call	EV_DoDoor@PLT	#
# p_switch.c:469: 	if (EV_DoDoor (line,blazeOpen))
	.loc 1 469 5 discriminator 1
	testl	%eax, %eax	# _29
	je	.L161	#,
# p_switch.c:470: 	    P_ChangeSwitchTexture(line,0);
	.loc 1 470 6
	movq	-16(%rbp), %rax	# line, tmp204
	movl	$0, %esi	#,
	movq	%rax, %rdi	# tmp204,
	call	P_ChangeSwitchTexture	#
# p_switch.c:471: 	break;
	.loc 1 471 2
	jmp	.L161	#
.L59:
# p_switch.c:475: 	if (EV_DoDoor (line,blazeClose))
	.loc 1 475 6
	movq	-16(%rbp), %rax	# line, tmp205
	movl	$7, %esi	#,
	movq	%rax, %rdi	# tmp205,
	call	EV_DoDoor@PLT	#
# p_switch.c:475: 	if (EV_DoDoor (line,blazeClose))
	.loc 1 475 5 discriminator 1
	testl	%eax, %eax	# _30
	je	.L162	#,
# p_switch.c:476: 	    P_ChangeSwitchTexture(line,0);
	.loc 1 476 6
	movq	-16(%rbp), %rax	# line, tmp206
	movl	$0, %esi	#,
	movq	%rax, %rdi	# tmp206,
	call	P_ChangeSwitchTexture	#
# p_switch.c:477: 	break;
	.loc 1 477 2
	jmp	.L162	#
.L54:
# p_switch.c:481: 	if (EV_DoPlat(line,blazeDWUS,0))
	.loc 1 481 6
	movq	-16(%rbp), %rax	# line, tmp207
	movl	$0, %edx	#,
	movl	$4, %esi	#,
	movq	%rax, %rdi	# tmp207,
	call	EV_DoPlat@PLT	#
# p_switch.c:481: 	if (EV_DoPlat(line,blazeDWUS,0))
	.loc 1 481 5 discriminator 1
	testl	%eax, %eax	# _31
	je	.L163	#,
# p_switch.c:482: 	    P_ChangeSwitchTexture(line,0);
	.loc 1 482 6
	movq	-16(%rbp), %rax	# line, tmp208
	movl	$0, %esi	#,
	movq	%rax, %rdi	# tmp208,
	call	P_ChangeSwitchTexture	#
# p_switch.c:483: 	break;
	.loc 1 483 2
	jmp	.L163	#
.L52:
# p_switch.c:487: 	if (EV_BuildStairs(line,turbo16))
	.loc 1 487 6
	movq	-16(%rbp), %rax	# line, tmp209
	movl	$1, %esi	#,
	movq	%rax, %rdi	# tmp209,
	call	EV_BuildStairs@PLT	#
# p_switch.c:487: 	if (EV_BuildStairs(line,turbo16))
	.loc 1 487 5 discriminator 1
	testl	%eax, %eax	# _32
	je	.L164	#,
# p_switch.c:488: 	    P_ChangeSwitchTexture(line,0);
	.loc 1 488 6
	movq	-16(%rbp), %rax	# line, tmp210
	movl	$0, %esi	#,
	movq	%rax, %rdi	# tmp210,
	call	P_ChangeSwitchTexture	#
# p_switch.c:489: 	break;
	.loc 1 489 2
	jmp	.L164	#
.L50:
# p_switch.c:493: 	if (EV_DoFloor(line,raiseFloorTurbo))
	.loc 1 493 6
	movq	-16(%rbp), %rax	# line, tmp211
	movl	$10, %esi	#,
	movq	%rax, %rdi	# tmp211,
	call	EV_DoFloor@PLT	#
# p_switch.c:493: 	if (EV_DoFloor(line,raiseFloorTurbo))
	.loc 1 493 5 discriminator 1
	testl	%eax, %eax	# _33
	je	.L165	#,
# p_switch.c:494: 	    P_ChangeSwitchTexture(line,0);
	.loc 1 494 6
	movq	-16(%rbp), %rax	# line, tmp212
	movl	$0, %esi	#,
	movq	%rax, %rdi	# tmp212,
	call	P_ChangeSwitchTexture	#
# p_switch.c:495: 	break;
	.loc 1 495 2
	jmp	.L165	#
.L47:
# p_switch.c:503: 	if (EV_DoLockedDoor (line,blazeOpen,thing))
	.loc 1 503 6
	movq	-8(%rbp), %rdx	# thing, tmp213
	movq	-16(%rbp), %rax	# line, tmp214
	movl	$6, %esi	#,
	movq	%rax, %rdi	# tmp214,
	call	EV_DoLockedDoor@PLT	#
# p_switch.c:503: 	if (EV_DoLockedDoor (line,blazeOpen,thing))
	.loc 1 503 5 discriminator 1
	testl	%eax, %eax	# _34
	je	.L166	#,
# p_switch.c:504: 	    P_ChangeSwitchTexture(line,0);
	.loc 1 504 6
	movq	-16(%rbp), %rax	# line, tmp215
	movl	$0, %esi	#,
	movq	%rax, %rdi	# tmp215,
	call	P_ChangeSwitchTexture	#
# p_switch.c:505: 	break;
	.loc 1 505 2
	jmp	.L166	#
.L41:
# p_switch.c:509: 	if (EV_DoFloor(line,raiseFloor512))
	.loc 1 509 6
	movq	-16(%rbp), %rax	# line, tmp216
	movl	$12, %esi	#,
	movq	%rax, %rdi	# tmp216,
	call	EV_DoFloor@PLT	#
# p_switch.c:509: 	if (EV_DoFloor(line,raiseFloor512))
	.loc 1 509 5 discriminator 1
	testl	%eax, %eax	# _35
	je	.L167	#,
# p_switch.c:510: 	    P_ChangeSwitchTexture(line,0);
	.loc 1 510 6
	movq	-16(%rbp), %rax	# line, tmp217
	movl	$0, %esi	#,
	movq	%rax, %rdi	# tmp217,
	call	P_ChangeSwitchTexture	#
# p_switch.c:511: 	break;
	.loc 1 511 2
	jmp	.L167	#
.L83:
# p_switch.c:516: 	if (EV_DoDoor(line,close))
	.loc 1 516 6
	movq	-16(%rbp), %rax	# line, tmp218
	movl	$2, %esi	#,
	movq	%rax, %rdi	# tmp218,
	call	EV_DoDoor@PLT	#
# p_switch.c:516: 	if (EV_DoDoor(line,close))
	.loc 1 516 5 discriminator 1
	testl	%eax, %eax	# _36
	je	.L168	#,
# p_switch.c:517: 	    P_ChangeSwitchTexture(line,1);
	.loc 1 517 6
	movq	-16(%rbp), %rax	# line, tmp219
	movl	$1, %esi	#,
	movq	%rax, %rdi	# tmp219,
	call	P_ChangeSwitchTexture	#
# p_switch.c:518: 	break;
	.loc 1 518 2
	jmp	.L168	#
.L82:
# p_switch.c:522: 	if (EV_DoCeiling(line,lowerToFloor))
	.loc 1 522 6
	movq	-16(%rbp), %rax	# line, tmp220
	movl	$0, %esi	#,
	movq	%rax, %rdi	# tmp220,
	call	EV_DoCeiling@PLT	#
# p_switch.c:522: 	if (EV_DoCeiling(line,lowerToFloor))
	.loc 1 522 5 discriminator 1
	testl	%eax, %eax	# _37
	je	.L169	#,
# p_switch.c:523: 	    P_ChangeSwitchTexture(line,1);
	.loc 1 523 6
	movq	-16(%rbp), %rax	# line, tmp221
	movl	$1, %esi	#,
	movq	%rax, %rdi	# tmp221,
	call	P_ChangeSwitchTexture	#
# p_switch.c:524: 	break;
	.loc 1 524 2
	jmp	.L169	#
.L81:
# p_switch.c:528: 	if (EV_DoFloor(line,lowerFloor))
	.loc 1 528 6
	movq	-16(%rbp), %rax	# line, tmp222
	movl	$0, %esi	#,
	movq	%rax, %rdi	# tmp222,
	call	EV_DoFloor@PLT	#
# p_switch.c:528: 	if (EV_DoFloor(line,lowerFloor))
	.loc 1 528 5 discriminator 1
	testl	%eax, %eax	# _38
	je	.L170	#,
# p_switch.c:529: 	    P_ChangeSwitchTexture(line,1);
	.loc 1 529 6
	movq	-16(%rbp), %rax	# line, tmp223
	movl	$1, %esi	#,
	movq	%rax, %rdi	# tmp223,
	call	P_ChangeSwitchTexture	#
# p_switch.c:530: 	break;
	.loc 1 530 2
	jmp	.L170	#
.L76:
# p_switch.c:534: 	if (EV_DoFloor(line,lowerFloorToLowest))
	.loc 1 534 6
	movq	-16(%rbp), %rax	# line, tmp224
	movl	$1, %esi	#,
	movq	%rax, %rdi	# tmp224,
	call	EV_DoFloor@PLT	#
# p_switch.c:534: 	if (EV_DoFloor(line,lowerFloorToLowest))
	.loc 1 534 5 discriminator 1
	testl	%eax, %eax	# _39
	je	.L171	#,
# p_switch.c:535: 	    P_ChangeSwitchTexture(line,1);
	.loc 1 535 6
	movq	-16(%rbp), %rax	# line, tmp225
	movl	$1, %esi	#,
	movq	%rax, %rdi	# tmp225,
	call	P_ChangeSwitchTexture	#
# p_switch.c:536: 	break;
	.loc 1 536 2
	jmp	.L171	#
.L75:
# p_switch.c:540: 	if (EV_DoDoor(line,open))
	.loc 1 540 6
	movq	-16(%rbp), %rax	# line, tmp226
	movl	$3, %esi	#,
	movq	%rax, %rdi	# tmp226,
	call	EV_DoDoor@PLT	#
# p_switch.c:540: 	if (EV_DoDoor(line,open))
	.loc 1 540 5 discriminator 1
	testl	%eax, %eax	# _40
	je	.L172	#,
# p_switch.c:541: 	    P_ChangeSwitchTexture(line,1);
	.loc 1 541 6
	movq	-16(%rbp), %rax	# line, tmp227
	movl	$1, %esi	#,
	movq	%rax, %rdi	# tmp227,
	call	P_ChangeSwitchTexture	#
# p_switch.c:542: 	break;
	.loc 1 542 2
	jmp	.L172	#
.L74:
# p_switch.c:546: 	if (EV_DoPlat(line,downWaitUpStay,1))
	.loc 1 546 6
	movq	-16(%rbp), %rax	# line, tmp228
	movl	$1, %edx	#,
	movl	$1, %esi	#,
	movq	%rax, %rdi	# tmp228,
	call	EV_DoPlat@PLT	#
# p_switch.c:546: 	if (EV_DoPlat(line,downWaitUpStay,1))
	.loc 1 546 5 discriminator 1
	testl	%eax, %eax	# _41
	je	.L173	#,
# p_switch.c:547: 	    P_ChangeSwitchTexture(line,1);
	.loc 1 547 6
	movq	-16(%rbp), %rax	# line, tmp229
	movl	$1, %esi	#,
	movq	%rax, %rdi	# tmp229,
	call	P_ChangeSwitchTexture	#
# p_switch.c:548: 	break;
	.loc 1 548 2
	jmp	.L173	#
.L73:
# p_switch.c:552: 	if (EV_DoDoor(line,normal))
	.loc 1 552 6
	movq	-16(%rbp), %rax	# line, tmp230
	movl	$0, %esi	#,
	movq	%rax, %rdi	# tmp230,
	call	EV_DoDoor@PLT	#
# p_switch.c:552: 	if (EV_DoDoor(line,normal))
	.loc 1 552 5 discriminator 1
	testl	%eax, %eax	# _42
	je	.L174	#,
# p_switch.c:553: 	    P_ChangeSwitchTexture(line,1);
	.loc 1 553 6
	movq	-16(%rbp), %rax	# line, tmp231
	movl	$1, %esi	#,
	movq	%rax, %rdi	# tmp231,
	call	P_ChangeSwitchTexture	#
# p_switch.c:554: 	break;
	.loc 1 554 2
	jmp	.L174	#
.L72:
# p_switch.c:558: 	if (EV_DoFloor(line,raiseFloor))
	.loc 1 558 6
	movq	-16(%rbp), %rax	# line, tmp232
	movl	$3, %esi	#,
	movq	%rax, %rdi	# tmp232,
	call	EV_DoFloor@PLT	#
# p_switch.c:558: 	if (EV_DoFloor(line,raiseFloor))
	.loc 1 558 5 discriminator 1
	testl	%eax, %eax	# _43
	je	.L175	#,
# p_switch.c:559: 	    P_ChangeSwitchTexture(line,1);
	.loc 1 559 6
	movq	-16(%rbp), %rax	# line, tmp233
	movl	$1, %esi	#,
	movq	%rax, %rdi	# tmp233,
	call	P_ChangeSwitchTexture	#
# p_switch.c:560: 	break;
	.loc 1 560 2
	jmp	.L175	#
.L70:
# p_switch.c:564: 	if (EV_DoPlat(line,raiseAndChange,24))
	.loc 1 564 6
	movq	-16(%rbp), %rax	# line, tmp234
	movl	$24, %edx	#,
	movl	$2, %esi	#,
	movq	%rax, %rdi	# tmp234,
	call	EV_DoPlat@PLT	#
# p_switch.c:564: 	if (EV_DoPlat(line,raiseAndChange,24))
	.loc 1 564 5 discriminator 1
	testl	%eax, %eax	# _44
	je	.L176	#,
# p_switch.c:565: 	    P_ChangeSwitchTexture(line,1);
	.loc 1 565 6
	movq	-16(%rbp), %rax	# line, tmp235
	movl	$1, %esi	#,
	movq	%rax, %rdi	# tmp235,
	call	P_ChangeSwitchTexture	#
# p_switch.c:566: 	break;
	.loc 1 566 2
	jmp	.L176	#
.L69:
# p_switch.c:570: 	if (EV_DoPlat(line,raiseAndChange,32))
	.loc 1 570 6
	movq	-16(%rbp), %rax	# line, tmp236
	movl	$32, %edx	#,
	movl	$2, %esi	#,
	movq	%rax, %rdi	# tmp236,
	call	EV_DoPlat@PLT	#
# p_switch.c:570: 	if (EV_DoPlat(line,raiseAndChange,32))
	.loc 1 570 5 discriminator 1
	testl	%eax, %eax	# _45
	je	.L177	#,
# p_switch.c:571: 	    P_ChangeSwitchTexture(line,1);
	.loc 1 571 6
	movq	-16(%rbp), %rax	# line, tmp237
	movl	$1, %esi	#,
	movq	%rax, %rdi	# tmp237,
	call	P_ChangeSwitchTexture	#
# p_switch.c:572: 	break;
	.loc 1 572 2
	jmp	.L177	#
.L71:
# p_switch.c:576: 	if (EV_DoFloor(line,raiseFloorCrush))
	.loc 1 576 6
	movq	-16(%rbp), %rax	# line, tmp238
	movl	$9, %esi	#,
	movq	%rax, %rdi	# tmp238,
	call	EV_DoFloor@PLT	#
# p_switch.c:576: 	if (EV_DoFloor(line,raiseFloorCrush))
	.loc 1 576 5 discriminator 1
	testl	%eax, %eax	# _46
	je	.L178	#,
# p_switch.c:577: 	    P_ChangeSwitchTexture(line,1);
	.loc 1 577 6
	movq	-16(%rbp), %rax	# line, tmp239
	movl	$1, %esi	#,
	movq	%rax, %rdi	# tmp239,
	call	P_ChangeSwitchTexture	#
# p_switch.c:578: 	break;
	.loc 1 578 2
	jmp	.L178	#
.L68:
# p_switch.c:582: 	if (EV_DoPlat(line,raiseToNearestAndChange,0))
	.loc 1 582 6
	movq	-16(%rbp), %rax	# line, tmp240
	movl	$0, %edx	#,
	movl	$3, %esi	#,
	movq	%rax, %rdi	# tmp240,
	call	EV_DoPlat@PLT	#
# p_switch.c:582: 	if (EV_DoPlat(line,raiseToNearestAndChange,0))
	.loc 1 582 5 discriminator 1
	testl	%eax, %eax	# _47
	je	.L179	#,
# p_switch.c:583: 	    P_ChangeSwitchTexture(line,1);
	.loc 1 583 6
	movq	-16(%rbp), %rax	# line, tmp241
	movl	$1, %esi	#,
	movq	%rax, %rdi	# tmp241,
	call	P_ChangeSwitchTexture	#
# p_switch.c:584: 	break;
	.loc 1 584 2
	jmp	.L179	#
.L67:
# p_switch.c:588: 	if (EV_DoFloor(line, raiseFloorToNearest))
	.loc 1 588 6
	movq	-16(%rbp), %rax	# line, tmp242
	movl	$4, %esi	#,
	movq	%rax, %rdi	# tmp242,
	call	EV_DoFloor@PLT	#
# p_switch.c:588: 	if (EV_DoFloor(line, raiseFloorToNearest))
	.loc 1 588 5 discriminator 1
	testl	%eax, %eax	# _48
	je	.L180	#,
# p_switch.c:589: 	    P_ChangeSwitchTexture(line,1);
	.loc 1 589 6
	movq	-16(%rbp), %rax	# line, tmp243
	movl	$1, %esi	#,
	movq	%rax, %rdi	# tmp243,
	call	P_ChangeSwitchTexture	#
# p_switch.c:590: 	break;
	.loc 1 590 2
	jmp	.L180	#
.L66:
# p_switch.c:594: 	if (EV_DoFloor(line,turboLower))
	.loc 1 594 6
	movq	-16(%rbp), %rax	# line, tmp244
	movl	$2, %esi	#,
	movq	%rax, %rdi	# tmp244,
	call	EV_DoFloor@PLT	#
# p_switch.c:594: 	if (EV_DoFloor(line,turboLower))
	.loc 1 594 5 discriminator 1
	testl	%eax, %eax	# _49
	je	.L181	#,
# p_switch.c:595: 	    P_ChangeSwitchTexture(line,1);
	.loc 1 595 6
	movq	-16(%rbp), %rax	# line, tmp245
	movl	$1, %esi	#,
	movq	%rax, %rdi	# tmp245,
	call	P_ChangeSwitchTexture	#
# p_switch.c:596: 	break;
	.loc 1 596 2
	jmp	.L181	#
.L58:
# p_switch.c:600: 	if (EV_DoDoor (line,blazeRaise))
	.loc 1 600 6
	movq	-16(%rbp), %rax	# line, tmp246
	movl	$5, %esi	#,
	movq	%rax, %rdi	# tmp246,
	call	EV_DoDoor@PLT	#
# p_switch.c:600: 	if (EV_DoDoor (line,blazeRaise))
	.loc 1 600 5 discriminator 1
	testl	%eax, %eax	# _50
	je	.L182	#,
# p_switch.c:601: 	    P_ChangeSwitchTexture(line,1);
	.loc 1 601 6
	movq	-16(%rbp), %rax	# line, tmp247
	movl	$1, %esi	#,
	movq	%rax, %rdi	# tmp247,
	call	P_ChangeSwitchTexture	#
# p_switch.c:602: 	break;
	.loc 1 602 2
	jmp	.L182	#
.L57:
# p_switch.c:606: 	if (EV_DoDoor (line,blazeOpen))
	.loc 1 606 6
	movq	-16(%rbp), %rax	# line, tmp248
	movl	$6, %esi	#,
	movq	%rax, %rdi	# tmp248,
	call	EV_DoDoor@PLT	#
# p_switch.c:606: 	if (EV_DoDoor (line,blazeOpen))
	.loc 1 606 5 discriminator 1
	testl	%eax, %eax	# _51
	je	.L183	#,
# p_switch.c:607: 	    P_ChangeSwitchTexture(line,1);
	.loc 1 607 6
	movq	-16(%rbp), %rax	# line, tmp249
	movl	$1, %esi	#,
	movq	%rax, %rdi	# tmp249,
	call	P_ChangeSwitchTexture	#
# p_switch.c:608: 	break;
	.loc 1 608 2
	jmp	.L183	#
.L56:
# p_switch.c:612: 	if (EV_DoDoor (line,blazeClose))
	.loc 1 612 6
	movq	-16(%rbp), %rax	# line, tmp250
	movl	$7, %esi	#,
	movq	%rax, %rdi	# tmp250,
	call	EV_DoDoor@PLT	#
# p_switch.c:612: 	if (EV_DoDoor (line,blazeClose))
	.loc 1 612 5 discriminator 1
	testl	%eax, %eax	# _52
	je	.L184	#,
# p_switch.c:613: 	    P_ChangeSwitchTexture(line,1);
	.loc 1 613 6
	movq	-16(%rbp), %rax	# line, tmp251
	movl	$1, %esi	#,
	movq	%rax, %rdi	# tmp251,
	call	P_ChangeSwitchTexture	#
# p_switch.c:614: 	break;
	.loc 1 614 2
	jmp	.L184	#
.L53:
# p_switch.c:618: 	if (EV_DoPlat(line,blazeDWUS,0))
	.loc 1 618 6
	movq	-16(%rbp), %rax	# line, tmp252
	movl	$0, %edx	#,
	movl	$4, %esi	#,
	movq	%rax, %rdi	# tmp252,
	call	EV_DoPlat@PLT	#
# p_switch.c:618: 	if (EV_DoPlat(line,blazeDWUS,0))
	.loc 1 618 5 discriminator 1
	testl	%eax, %eax	# _53
	je	.L185	#,
# p_switch.c:619: 	    P_ChangeSwitchTexture(line,1);
	.loc 1 619 6
	movq	-16(%rbp), %rax	# line, tmp253
	movl	$1, %esi	#,
	movq	%rax, %rdi	# tmp253,
	call	P_ChangeSwitchTexture	#
# p_switch.c:620: 	break;
	.loc 1 620 2
	jmp	.L185	#
.L49:
# p_switch.c:624: 	if (EV_DoFloor(line,raiseFloorTurbo))
	.loc 1 624 6
	movq	-16(%rbp), %rax	# line, tmp254
	movl	$10, %esi	#,
	movq	%rax, %rdi	# tmp254,
	call	EV_DoFloor@PLT	#
# p_switch.c:624: 	if (EV_DoFloor(line,raiseFloorTurbo))
	.loc 1 624 5 discriminator 1
	testl	%eax, %eax	# _54
	je	.L186	#,
# p_switch.c:625: 	    P_ChangeSwitchTexture(line,1);
	.loc 1 625 6
	movq	-16(%rbp), %rax	# line, tmp255
	movl	$1, %esi	#,
	movq	%rax, %rdi	# tmp255,
	call	P_ChangeSwitchTexture	#
# p_switch.c:626: 	break;
	.loc 1 626 2
	jmp	.L186	#
.L48:
# p_switch.c:634: 	if (EV_DoLockedDoor (line,blazeOpen,thing))
	.loc 1 634 6
	movq	-8(%rbp), %rdx	# thing, tmp256
	movq	-16(%rbp), %rax	# line, tmp257
	movl	$6, %esi	#,
	movq	%rax, %rdi	# tmp257,
	call	EV_DoLockedDoor@PLT	#
# p_switch.c:634: 	if (EV_DoLockedDoor (line,blazeOpen,thing))
	.loc 1 634 5 discriminator 1
	testl	%eax, %eax	# _55
	je	.L187	#,
# p_switch.c:635: 	    P_ChangeSwitchTexture(line,1);
	.loc 1 635 6
	movq	-16(%rbp), %rax	# line, tmp258
	movl	$1, %esi	#,
	movq	%rax, %rdi	# tmp258,
	call	P_ChangeSwitchTexture	#
# p_switch.c:636: 	break;
	.loc 1 636 2
	jmp	.L187	#
.L44:
# p_switch.c:640: 	EV_LightTurnOn(line,255);
	.loc 1 640 2
	movq	-16(%rbp), %rax	# line, tmp259
	movl	$255, %esi	#,
	movq	%rax, %rdi	# tmp259,
	call	EV_LightTurnOn@PLT	#
# p_switch.c:641: 	P_ChangeSwitchTexture(line,1);
	.loc 1 641 2
	movq	-16(%rbp), %rax	# line, tmp260
	movl	$1, %esi	#,
	movq	%rax, %rdi	# tmp260,
	call	P_ChangeSwitchTexture	#
# p_switch.c:642: 	break;
	.loc 1 642 2
	jmp	.L42	#
.L43:
# p_switch.c:646: 	EV_LightTurnOn(line,35);
	.loc 1 646 2
	movq	-16(%rbp), %rax	# line, tmp261
	movl	$35, %esi	#,
	movq	%rax, %rdi	# tmp261,
	call	EV_LightTurnOn@PLT	#
# p_switch.c:647: 	P_ChangeSwitchTexture(line,1);
	.loc 1 647 2
	movq	-16(%rbp), %rax	# line, tmp262
	movl	$1, %esi	#,
	movq	%rax, %rdi	# tmp262,
	call	P_ChangeSwitchTexture	#
# p_switch.c:648: 	break;
	.loc 1 648 2
	jmp	.L42	#
.L143:
# p_switch.c:351: 	break;
	.loc 1 351 2
	nop	
	jmp	.L42	#
.L144:
# p_switch.c:357: 	break;
	.loc 1 357 2
	nop	
	jmp	.L42	#
.L145:
# p_switch.c:369: 	break;
	.loc 1 369 2
	nop	
	jmp	.L42	#
.L146:
# p_switch.c:375: 	break;
	.loc 1 375 2
	nop	
	jmp	.L42	#
.L147:
# p_switch.c:381: 	break;
	.loc 1 381 2
	nop	
	jmp	.L42	#
.L148:
# p_switch.c:387: 	break;
	.loc 1 387 2
	nop	
	jmp	.L42	#
.L149:
# p_switch.c:393: 	break;
	.loc 1 393 2
	nop	
	jmp	.L42	#
.L150:
# p_switch.c:399: 	break;
	.loc 1 399 2
	nop	
	jmp	.L42	#
.L151:
# p_switch.c:405: 	break;
	.loc 1 405 2
	nop	
	jmp	.L42	#
.L152:
# p_switch.c:411: 	break;
	.loc 1 411 2
	nop	
	jmp	.L42	#
.L153:
# p_switch.c:417: 	break;
	.loc 1 417 2
	nop	
	jmp	.L42	#
.L154:
# p_switch.c:423: 	break;
	.loc 1 423 2
	nop	
	jmp	.L42	#
.L155:
# p_switch.c:429: 	break;
	.loc 1 429 2
	nop	
	jmp	.L42	#
.L156:
# p_switch.c:441: 	break;
	.loc 1 441 2
	nop	
	jmp	.L42	#
.L157:
# p_switch.c:447: 	break;
	.loc 1 447 2
	nop	
	jmp	.L42	#
.L158:
# p_switch.c:453: 	break;
	.loc 1 453 2
	nop	
	jmp	.L42	#
.L159:
# p_switch.c:459: 	break;
	.loc 1 459 2
	nop	
	jmp	.L42	#
.L160:
# p_switch.c:465: 	break;
	.loc 1 465 2
	nop	
	jmp	.L42	#
.L161:
# p_switch.c:471: 	break;
	.loc 1 471 2
	nop	
	jmp	.L42	#
.L162:
# p_switch.c:477: 	break;
	.loc 1 477 2
	nop	
	jmp	.L42	#
.L163:
# p_switch.c:483: 	break;
	.loc 1 483 2
	nop	
	jmp	.L42	#
.L164:
# p_switch.c:489: 	break;
	.loc 1 489 2
	nop	
	jmp	.L42	#
.L165:
# p_switch.c:495: 	break;
	.loc 1 495 2
	nop	
	jmp	.L42	#
.L166:
# p_switch.c:505: 	break;
	.loc 1 505 2
	nop	
	jmp	.L42	#
.L167:
# p_switch.c:511: 	break;
	.loc 1 511 2
	nop	
	jmp	.L42	#
.L168:
# p_switch.c:518: 	break;
	.loc 1 518 2
	nop	
	jmp	.L42	#
.L169:
# p_switch.c:524: 	break;
	.loc 1 524 2
	nop	
	jmp	.L42	#
.L170:
# p_switch.c:530: 	break;
	.loc 1 530 2
	nop	
	jmp	.L42	#
.L171:
# p_switch.c:536: 	break;
	.loc 1 536 2
	nop	
	jmp	.L42	#
.L172:
# p_switch.c:542: 	break;
	.loc 1 542 2
	nop	
	jmp	.L42	#
.L173:
# p_switch.c:548: 	break;
	.loc 1 548 2
	nop	
	jmp	.L42	#
.L174:
# p_switch.c:554: 	break;
	.loc 1 554 2
	nop	
	jmp	.L42	#
.L175:
# p_switch.c:560: 	break;
	.loc 1 560 2
	nop	
	jmp	.L42	#
.L176:
# p_switch.c:566: 	break;
	.loc 1 566 2
	nop	
	jmp	.L42	#
.L177:
# p_switch.c:572: 	break;
	.loc 1 572 2
	nop	
	jmp	.L42	#
.L178:
# p_switch.c:578: 	break;
	.loc 1 578 2
	nop	
	jmp	.L42	#
.L179:
# p_switch.c:584: 	break;
	.loc 1 584 2
	nop	
	jmp	.L42	#
.L180:
# p_switch.c:590: 	break;
	.loc 1 590 2
	nop	
	jmp	.L42	#
.L181:
# p_switch.c:596: 	break;
	.loc 1 596 2
	nop	
	jmp	.L42	#
.L182:
# p_switch.c:602: 	break;
	.loc 1 602 2
	nop	
	jmp	.L42	#
.L183:
# p_switch.c:608: 	break;
	.loc 1 608 2
	nop	
	jmp	.L42	#
.L184:
# p_switch.c:614: 	break;
	.loc 1 614 2
	nop	
	jmp	.L42	#
.L185:
# p_switch.c:620: 	break;
	.loc 1 620 2
	nop	
	jmp	.L42	#
.L186:
# p_switch.c:626: 	break;
	.loc 1 626 2
	nop	
	jmp	.L42	#
.L187:
# p_switch.c:636: 	break;
	.loc 1 636 2
	nop	
.L42:
# p_switch.c:652:     return true;
	.loc 1 652 12
	movl	$1, %eax	#, _56
.L36:
# p_switch.c:653: }
	.loc 1 653 1
	leave	
	.cfi_def_cfa 7, 8
	ret	
	.cfi_endproc
.LFE3:
	.size	P_UseSpecialLine, .-P_UseSpecialLine
.Letext0:
	.file 2 "doomtype.h"
	.file 3 "d_ticcmd.h"
	.file 4 "doomdef.h"
	.file 5 "m_fixed.h"
	.file 6 "tables.h"
	.file 7 "d_think.h"
	.file 8 "doomdata.h"
	.file 9 "info.h"
	.file 10 "p_mobj.h"
	.file 11 "r_defs.h"
	.file 12 "d_player.h"
	.file 13 "p_pspr.h"
	.file 14 "p_spec.h"
	.file 15 "r_state.h"
	.file 16 "sounds.h"
	.file 17 "doomstat.h"
	.file 18 "g_game.h"
	.file 19 "s_sound.h"
	.file 20 "i_system.h"
	.file 21 "r_data.h"
	.section	.debug_info,"",@progbits
.Ldebug_info0:
	.long	0x35aa
	.value	0x5
	.byte	0x1
	.byte	0x8
	.long	.Ldebug_abbrev0
	.uleb128 0x22
	.long	.LASF1657
	.byte	0x1d
	.long	.LASF0
	.long	.LASF1
	.quad	.Ltext0
	.quad	.Letext0-.Ltext0
	.long	.Ldebug_line0
	.uleb128 0xa
	.long	0x51
	.long	0x3e
	.uleb128 0xb
	.long	0x43
	.byte	0x32
	.byte	0
	.uleb128 0x1a
	.long	0x2e
	.uleb128 0xc
	.byte	0x8
	.byte	0x7
	.long	.LASF2
	.uleb128 0xc
	.byte	0x1
	.byte	0x6
	.long	.LASF3
	.uleb128 0x1a
	.long	0x4a
	.uleb128 0xf
	.long	.LASF1647
	.byte	0x1a
	.byte	0x1
	.long	0x3e
	.uleb128 0x9
	.byte	0x3
	.quad	rcsid
	.uleb128 0x9
	.long	0x84
	.byte	0x2
	.byte	0x22
	.byte	0xe
	.long	0x84
	.uleb128 0x1
	.long	.LASF4
	.byte	0
	.uleb128 0x1
	.long	.LASF5
	.byte	0x1
	.byte	0
	.uleb128 0xc
	.byte	0x4
	.byte	0x7
	.long	.LASF6
	.uleb128 0x5
	.long	.LASF7
	.byte	0x2
	.byte	0x22
	.byte	0x1c
	.long	0x6b
	.uleb128 0x5
	.long	.LASF8
	.byte	0x2
	.byte	0x24
	.byte	0x17
	.long	0xa3
	.uleb128 0xc
	.byte	0x1
	.byte	0x8
	.long	.LASF9
	.uleb128 0xe
	.byte	0x8
	.byte	0x3
	.byte	0x24
	.long	0x101
	.uleb128 0x3
	.long	.LASF10
	.byte	0x3
	.byte	0x26
	.byte	0xa
	.long	0x4a
	.byte	0
	.uleb128 0x3
	.long	.LASF11
	.byte	0x3
	.byte	0x27
	.byte	0xa
	.long	0x4a
	.byte	0x1
	.uleb128 0x3
	.long	.LASF12
	.byte	0x3
	.byte	0x28
	.byte	0xb
	.long	0x101
	.byte	0x2
	.uleb128 0x3
	.long	.LASF13
	.byte	0x3
	.byte	0x29
	.byte	0xb
	.long	0x101
	.byte	0x4
	.uleb128 0x3
	.long	.LASF14
	.byte	0x3
	.byte	0x2a
	.byte	0xa
	.long	0x97
	.byte	0x6
	.uleb128 0x3
	.long	.LASF15
	.byte	0x3
	.byte	0x2b
	.byte	0xa
	.long	0x97
	.byte	0x7
	.byte	0
	.uleb128 0xc
	.byte	0x2
	.byte	0x5
	.long	.LASF16
	.uleb128 0x5
	.long	.LASF17
	.byte	0x3
	.byte	0x2c
	.byte	0x3
	.long	0xaa
	.uleb128 0x23
	.byte	0x4
	.byte	0x5
	.string	"int"
	.uleb128 0x24
	.byte	0x8
	.uleb128 0xc
	.byte	0x2
	.byte	0x7
	.long	.LASF18
	.uleb128 0xc
	.byte	0x1
	.byte	0x6
	.long	.LASF19
	.uleb128 0xc
	.byte	0x8
	.byte	0x5
	.long	.LASF20
	.uleb128 0x8
	.long	0x4a
	.uleb128 0x9
	.long	0x84
	.byte	0x4
	.byte	0x27
	.byte	0x1
	.long	0x162
	.uleb128 0x1
	.long	.LASF21
	.byte	0
	.uleb128 0x1
	.long	.LASF22
	.byte	0x1
	.uleb128 0x1
	.long	.LASF23
	.byte	0x2
	.uleb128 0x1
	.long	.LASF24
	.byte	0x3
	.uleb128 0x1
	.long	.LASF25
	.byte	0x4
	.byte	0
	.uleb128 0x5
	.long	.LASF26
	.byte	0x4
	.byte	0x2f
	.byte	0x3
	.long	0x137
	.uleb128 0x9
	.long	0x84
	.byte	0x4
	.byte	0xa3
	.byte	0x1
	.long	0x1a5
	.uleb128 0x1
	.long	.LASF27
	.byte	0
	.uleb128 0x1
	.long	.LASF28
	.byte	0x1
	.uleb128 0x1
	.long	.LASF29
	.byte	0x2
	.uleb128 0x1
	.long	.LASF30
	.byte	0x3
	.uleb128 0x1
	.long	.LASF31
	.byte	0x4
	.uleb128 0x1
	.long	.LASF32
	.byte	0x5
	.uleb128 0x1
	.long	.LASF33
	.byte	0x6
	.byte	0
	.uleb128 0x9
	.long	0x84
	.byte	0x4
	.byte	0xb5
	.byte	0x1
	.long	0x1f4
	.uleb128 0x1
	.long	.LASF34
	.byte	0
	.uleb128 0x1
	.long	.LASF35
	.byte	0x1
	.uleb128 0x1
	.long	.LASF36
	.byte	0x2
	.uleb128 0x1
	.long	.LASF37
	.byte	0x3
	.uleb128 0x1
	.long	.LASF38
	.byte	0x4
	.uleb128 0x1
	.long	.LASF39
	.byte	0x5
	.uleb128 0x1
	.long	.LASF40
	.byte	0x6
	.uleb128 0x1
	.long	.LASF41
	.byte	0x7
	.uleb128 0x1
	.long	.LASF42
	.byte	0x8
	.uleb128 0x1
	.long	.LASF43
	.byte	0x9
	.uleb128 0x1
	.long	.LASF44
	.byte	0xa
	.byte	0
	.uleb128 0x5
	.long	.LASF45
	.byte	0x4
	.byte	0xc5
	.byte	0x3
	.long	0x1a5
	.uleb128 0x9
	.long	0x84
	.byte	0x4
	.byte	0xca
	.byte	0x1
	.long	0x231
	.uleb128 0x1
	.long	.LASF46
	.byte	0
	.uleb128 0x1
	.long	.LASF47
	.byte	0x1
	.uleb128 0x1
	.long	.LASF48
	.byte	0x2
	.uleb128 0x1
	.long	.LASF49
	.byte	0x3
	.uleb128 0x1
	.long	.LASF50
	.byte	0x4
	.uleb128 0x1
	.long	.LASF51
	.byte	0x5
	.byte	0
	.uleb128 0x9
	.long	0x84
	.byte	0x4
	.byte	0xd7
	.byte	0x1
	.long	0x268
	.uleb128 0x1
	.long	.LASF52
	.byte	0
	.uleb128 0x1
	.long	.LASF53
	.byte	0x1
	.uleb128 0x1
	.long	.LASF54
	.byte	0x2
	.uleb128 0x1
	.long	.LASF55
	.byte	0x3
	.uleb128 0x1
	.long	.LASF56
	.byte	0x4
	.uleb128 0x1
	.long	.LASF57
	.byte	0x5
	.uleb128 0x1
	.long	.LASF58
	.byte	0x6
	.byte	0
	.uleb128 0xc
	.byte	0x4
	.byte	0x4
	.long	.LASF59
	.uleb128 0xc
	.byte	0x8
	.byte	0x4
	.long	.LASF60
	.uleb128 0x5
	.long	.LASF61
	.byte	0x5
	.byte	0x26
	.byte	0xd
	.long	0x114
	.uleb128 0x5
	.long	.LASF62
	.byte	0x6
	.byte	0x4e
	.byte	0x12
	.long	0x84
	.uleb128 0x5
	.long	.LASF63
	.byte	0x7
	.byte	0x29
	.byte	0x11
	.long	0x29a
	.uleb128 0x8
	.long	0x29f
	.uleb128 0x25
	.long	0x2a6
	.uleb128 0x1b
	.byte	0
	.uleb128 0x5
	.long	.LASF64
	.byte	0x7
	.byte	0x2a
	.byte	0x11
	.long	0x2b2
	.uleb128 0x8
	.long	0x2b7
	.uleb128 0x1c
	.long	0x2c2
	.uleb128 0x6
	.long	0x11b
	.byte	0
	.uleb128 0x5
	.long	.LASF65
	.byte	0x7
	.byte	0x2b
	.byte	0x11
	.long	0x2ce
	.uleb128 0x8
	.long	0x2d3
	.uleb128 0x1c
	.long	0x2e3
	.uleb128 0x6
	.long	0x11b
	.uleb128 0x6
	.long	0x11b
	.byte	0
	.uleb128 0x26
	.byte	0x8
	.byte	0x7
	.byte	0x2d
	.byte	0x9
	.long	0x30d
	.uleb128 0x1d
	.long	.LASF66
	.byte	0x2f
	.long	0x2a6
	.uleb128 0x27
	.string	"acv"
	.byte	0x7
	.byte	0x30
	.byte	0xd
	.long	0x28e
	.uleb128 0x1d
	.long	.LASF67
	.byte	0x31
	.long	0x2c2
	.byte	0
	.uleb128 0x5
	.long	.LASF68
	.byte	0x7
	.byte	0x33
	.byte	0x3
	.long	0x2e3
	.uleb128 0x5
	.long	.LASF69
	.byte	0x7
	.byte	0x3c
	.byte	0x14
	.long	0x30d
	.uleb128 0x13
	.long	.LASF1358
	.byte	0x18
	.byte	0x7
	.byte	0x40
	.long	0x359
	.uleb128 0x3
	.long	.LASF70
	.byte	0x7
	.byte	0x42
	.byte	0x17
	.long	0x359
	.byte	0
	.uleb128 0x3
	.long	.LASF71
	.byte	0x7
	.byte	0x43
	.byte	0x17
	.long	0x359
	.byte	0x8
	.uleb128 0x3
	.long	.LASF72
	.byte	0x7
	.byte	0x44
	.byte	0xe
	.long	0x319
	.byte	0x10
	.byte	0
	.uleb128 0x8
	.long	0x325
	.uleb128 0x5
	.long	.LASF73
	.byte	0x7
	.byte	0x46
	.byte	0x3
	.long	0x325
	.uleb128 0xa
	.long	0x101
	.long	0x37a
	.uleb128 0xb
	.long	0x43
	.byte	0x1
	.byte	0
	.uleb128 0xe
	.byte	0xa
	.byte	0x8
	.byte	0xcb
	.long	0x3c0
	.uleb128 0x7
	.string	"x"
	.byte	0x8
	.byte	0xcd
	.byte	0xc
	.long	0x101
	.byte	0
	.uleb128 0x7
	.string	"y"
	.byte	0x8
	.byte	0xce
	.byte	0xc
	.long	0x101
	.byte	0x2
	.uleb128 0x3
	.long	.LASF74
	.byte	0x8
	.byte	0xcf
	.byte	0xc
	.long	0x101
	.byte	0x4
	.uleb128 0x3
	.long	.LASF75
	.byte	0x8
	.byte	0xd0
	.byte	0xc
	.long	0x101
	.byte	0x6
	.uleb128 0x3
	.long	.LASF76
	.byte	0x8
	.byte	0xd1
	.byte	0xc
	.long	0x101
	.byte	0x8
	.byte	0
	.uleb128 0x5
	.long	.LASF77
	.byte	0x8
	.byte	0xd2
	.byte	0x3
	.long	0x37a
	.uleb128 0x9
	.long	0x84
	.byte	0x9
	.byte	0x1f
	.byte	0x1
	.long	0x71b
	.uleb128 0x1
	.long	.LASF78
	.byte	0
	.uleb128 0x1
	.long	.LASF79
	.byte	0x1
	.uleb128 0x1
	.long	.LASF80
	.byte	0x2
	.uleb128 0x1
	.long	.LASF81
	.byte	0x3
	.uleb128 0x1
	.long	.LASF82
	.byte	0x4
	.uleb128 0x1
	.long	.LASF83
	.byte	0x5
	.uleb128 0x1
	.long	.LASF84
	.byte	0x6
	.uleb128 0x1
	.long	.LASF85
	.byte	0x7
	.uleb128 0x1
	.long	.LASF86
	.byte	0x8
	.uleb128 0x1
	.long	.LASF87
	.byte	0x9
	.uleb128 0x1
	.long	.LASF88
	.byte	0xa
	.uleb128 0x1
	.long	.LASF89
	.byte	0xb
	.uleb128 0x1
	.long	.LASF90
	.byte	0xc
	.uleb128 0x1
	.long	.LASF91
	.byte	0xd
	.uleb128 0x1
	.long	.LASF92
	.byte	0xe
	.uleb128 0x1
	.long	.LASF93
	.byte	0xf
	.uleb128 0x1
	.long	.LASF94
	.byte	0x10
	.uleb128 0x1
	.long	.LASF95
	.byte	0x11
	.uleb128 0x1
	.long	.LASF96
	.byte	0x12
	.uleb128 0x1
	.long	.LASF97
	.byte	0x13
	.uleb128 0x1
	.long	.LASF98
	.byte	0x14
	.uleb128 0x1
	.long	.LASF99
	.byte	0x15
	.uleb128 0x1
	.long	.LASF100
	.byte	0x16
	.uleb128 0x1
	.long	.LASF101
	.byte	0x17
	.uleb128 0x1
	.long	.LASF102
	.byte	0x18
	.uleb128 0x1
	.long	.LASF103
	.byte	0x19
	.uleb128 0x1
	.long	.LASF104
	.byte	0x1a
	.uleb128 0x1
	.long	.LASF105
	.byte	0x1b
	.uleb128 0x1
	.long	.LASF106
	.byte	0x1c
	.uleb128 0x1
	.long	.LASF107
	.byte	0x1d
	.uleb128 0x1
	.long	.LASF108
	.byte	0x1e
	.uleb128 0x1
	.long	.LASF109
	.byte	0x1f
	.uleb128 0x1
	.long	.LASF110
	.byte	0x20
	.uleb128 0x1
	.long	.LASF111
	.byte	0x21
	.uleb128 0x1
	.long	.LASF112
	.byte	0x22
	.uleb128 0x1
	.long	.LASF113
	.byte	0x23
	.uleb128 0x1
	.long	.LASF114
	.byte	0x24
	.uleb128 0x1
	.long	.LASF115
	.byte	0x25
	.uleb128 0x1
	.long	.LASF116
	.byte	0x26
	.uleb128 0x1
	.long	.LASF117
	.byte	0x27
	.uleb128 0x1
	.long	.LASF118
	.byte	0x28
	.uleb128 0x1
	.long	.LASF119
	.byte	0x29
	.uleb128 0x1
	.long	.LASF120
	.byte	0x2a
	.uleb128 0x1
	.long	.LASF121
	.byte	0x2b
	.uleb128 0x1
	.long	.LASF122
	.byte	0x2c
	.uleb128 0x1
	.long	.LASF123
	.byte	0x2d
	.uleb128 0x1
	.long	.LASF124
	.byte	0x2e
	.uleb128 0x1
	.long	.LASF125
	.byte	0x2f
	.uleb128 0x1
	.long	.LASF126
	.byte	0x30
	.uleb128 0x1
	.long	.LASF127
	.byte	0x31
	.uleb128 0x1
	.long	.LASF128
	.byte	0x32
	.uleb128 0x1
	.long	.LASF129
	.byte	0x33
	.uleb128 0x1
	.long	.LASF130
	.byte	0x34
	.uleb128 0x1
	.long	.LASF131
	.byte	0x35
	.uleb128 0x1
	.long	.LASF132
	.byte	0x36
	.uleb128 0x1
	.long	.LASF133
	.byte	0x37
	.uleb128 0x1
	.long	.LASF134
	.byte	0x38
	.uleb128 0x1
	.long	.LASF135
	.byte	0x39
	.uleb128 0x1
	.long	.LASF136
	.byte	0x3a
	.uleb128 0x1
	.long	.LASF137
	.byte	0x3b
	.uleb128 0x1
	.long	.LASF138
	.byte	0x3c
	.uleb128 0x1
	.long	.LASF139
	.byte	0x3d
	.uleb128 0x1
	.long	.LASF140
	.byte	0x3e
	.uleb128 0x1
	.long	.LASF141
	.byte	0x3f
	.uleb128 0x1
	.long	.LASF142
	.byte	0x40
	.uleb128 0x1
	.long	.LASF143
	.byte	0x41
	.uleb128 0x1
	.long	.LASF144
	.byte	0x42
	.uleb128 0x1
	.long	.LASF145
	.byte	0x43
	.uleb128 0x1
	.long	.LASF146
	.byte	0x44
	.uleb128 0x1
	.long	.LASF147
	.byte	0x45
	.uleb128 0x1
	.long	.LASF148
	.byte	0x46
	.uleb128 0x1
	.long	.LASF149
	.byte	0x47
	.uleb128 0x1
	.long	.LASF150
	.byte	0x48
	.uleb128 0x1
	.long	.LASF151
	.byte	0x49
	.uleb128 0x1
	.long	.LASF152
	.byte	0x4a
	.uleb128 0x1
	.long	.LASF153
	.byte	0x4b
	.uleb128 0x1
	.long	.LASF154
	.byte	0x4c
	.uleb128 0x1
	.long	.LASF155
	.byte	0x4d
	.uleb128 0x1
	.long	.LASF156
	.byte	0x4e
	.uleb128 0x1
	.long	.LASF157
	.byte	0x4f
	.uleb128 0x1
	.long	.LASF158
	.byte	0x50
	.uleb128 0x1
	.long	.LASF159
	.byte	0x51
	.uleb128 0x1
	.long	.LASF160
	.byte	0x52
	.uleb128 0x1
	.long	.LASF161
	.byte	0x53
	.uleb128 0x1
	.long	.LASF162
	.byte	0x54
	.uleb128 0x1
	.long	.LASF163
	.byte	0x55
	.uleb128 0x1
	.long	.LASF164
	.byte	0x56
	.uleb128 0x1
	.long	.LASF165
	.byte	0x57
	.uleb128 0x1
	.long	.LASF166
	.byte	0x58
	.uleb128 0x1
	.long	.LASF167
	.byte	0x59
	.uleb128 0x1
	.long	.LASF168
	.byte	0x5a
	.uleb128 0x1
	.long	.LASF169
	.byte	0x5b
	.uleb128 0x1
	.long	.LASF170
	.byte	0x5c
	.uleb128 0x1
	.long	.LASF171
	.byte	0x5d
	.uleb128 0x1
	.long	.LASF172
	.byte	0x5e
	.uleb128 0x1
	.long	.LASF173
	.byte	0x5f
	.uleb128 0x1
	.long	.LASF174
	.byte	0x60
	.uleb128 0x1
	.long	.LASF175
	.byte	0x61
	.uleb128 0x1
	.long	.LASF176
	.byte	0x62
	.uleb128 0x1
	.long	.LASF177
	.byte	0x63
	.uleb128 0x1
	.long	.LASF178
	.byte	0x64
	.uleb128 0x1
	.long	.LASF179
	.byte	0x65
	.uleb128 0x1
	.long	.LASF180
	.byte	0x66
	.uleb128 0x1
	.long	.LASF181
	.byte	0x67
	.uleb128 0x1
	.long	.LASF182
	.byte	0x68
	.uleb128 0x1
	.long	.LASF183
	.byte	0x69
	.uleb128 0x1
	.long	.LASF184
	.byte	0x6a
	.uleb128 0x1
	.long	.LASF185
	.byte	0x6b
	.uleb128 0x1
	.long	.LASF186
	.byte	0x6c
	.uleb128 0x1
	.long	.LASF187
	.byte	0x6d
	.uleb128 0x1
	.long	.LASF188
	.byte	0x6e
	.uleb128 0x1
	.long	.LASF189
	.byte	0x6f
	.uleb128 0x1
	.long	.LASF190
	.byte	0x70
	.uleb128 0x1
	.long	.LASF191
	.byte	0x71
	.uleb128 0x1
	.long	.LASF192
	.byte	0x72
	.uleb128 0x1
	.long	.LASF193
	.byte	0x73
	.uleb128 0x1
	.long	.LASF194
	.byte	0x74
	.uleb128 0x1
	.long	.LASF195
	.byte	0x75
	.uleb128 0x1
	.long	.LASF196
	.byte	0x76
	.uleb128 0x1
	.long	.LASF197
	.byte	0x77
	.uleb128 0x1
	.long	.LASF198
	.byte	0x78
	.uleb128 0x1
	.long	.LASF199
	.byte	0x79
	.uleb128 0x1
	.long	.LASF200
	.byte	0x7a
	.uleb128 0x1
	.long	.LASF201
	.byte	0x7b
	.uleb128 0x1
	.long	.LASF202
	.byte	0x7c
	.uleb128 0x1
	.long	.LASF203
	.byte	0x7d
	.uleb128 0x1
	.long	.LASF204
	.byte	0x7e
	.uleb128 0x1
	.long	.LASF205
	.byte	0x7f
	.uleb128 0x1
	.long	.LASF206
	.byte	0x80
	.uleb128 0x1
	.long	.LASF207
	.byte	0x81
	.uleb128 0x1
	.long	.LASF208
	.byte	0x82
	.uleb128 0x1
	.long	.LASF209
	.byte	0x83
	.uleb128 0x1
	.long	.LASF210
	.byte	0x84
	.uleb128 0x1
	.long	.LASF211
	.byte	0x85
	.uleb128 0x1
	.long	.LASF212
	.byte	0x86
	.uleb128 0x1
	.long	.LASF213
	.byte	0x87
	.uleb128 0x1
	.long	.LASF214
	.byte	0x88
	.uleb128 0x1
	.long	.LASF215
	.byte	0x89
	.uleb128 0x1
	.long	.LASF216
	.byte	0x8a
	.byte	0
	.uleb128 0x5
	.long	.LASF217
	.byte	0x9
	.byte	0xac
	.byte	0x3
	.long	0x3cc
	.uleb128 0x9
	.long	0x84
	.byte	0x9
	.byte	0xaf
	.byte	0x1
	.long	0x20ac
	.uleb128 0x1
	.long	.LASF218
	.byte	0
	.uleb128 0x1
	.long	.LASF219
	.byte	0x1
	.uleb128 0x1
	.long	.LASF220
	.byte	0x2
	.uleb128 0x1
	.long	.LASF221
	.byte	0x3
	.uleb128 0x1
	.long	.LASF222
	.byte	0x4
	.uleb128 0x1
	.long	.LASF223
	.byte	0x5
	.uleb128 0x1
	.long	.LASF224
	.byte	0x6
	.uleb128 0x1
	.long	.LASF225
	.byte	0x7
	.uleb128 0x1
	.long	.LASF226
	.byte	0x8
	.uleb128 0x1
	.long	.LASF227
	.byte	0x9
	.uleb128 0x1
	.long	.LASF228
	.byte	0xa
	.uleb128 0x1
	.long	.LASF229
	.byte	0xb
	.uleb128 0x1
	.long	.LASF230
	.byte	0xc
	.uleb128 0x1
	.long	.LASF231
	.byte	0xd
	.uleb128 0x1
	.long	.LASF232
	.byte	0xe
	.uleb128 0x1
	.long	.LASF233
	.byte	0xf
	.uleb128 0x1
	.long	.LASF234
	.byte	0x10
	.uleb128 0x1
	.long	.LASF235
	.byte	0x11
	.uleb128 0x1
	.long	.LASF236
	.byte	0x12
	.uleb128 0x1
	.long	.LASF237
	.byte	0x13
	.uleb128 0x1
	.long	.LASF238
	.byte	0x14
	.uleb128 0x1
	.long	.LASF239
	.byte	0x15
	.uleb128 0x1
	.long	.LASF240
	.byte	0x16
	.uleb128 0x1
	.long	.LASF241
	.byte	0x17
	.uleb128 0x1
	.long	.LASF242
	.byte	0x18
	.uleb128 0x1
	.long	.LASF243
	.byte	0x19
	.uleb128 0x1
	.long	.LASF244
	.byte	0x1a
	.uleb128 0x1
	.long	.LASF245
	.byte	0x1b
	.uleb128 0x1
	.long	.LASF246
	.byte	0x1c
	.uleb128 0x1
	.long	.LASF247
	.byte	0x1d
	.uleb128 0x1
	.long	.LASF248
	.byte	0x1e
	.uleb128 0x1
	.long	.LASF249
	.byte	0x1f
	.uleb128 0x1
	.long	.LASF250
	.byte	0x20
	.uleb128 0x1
	.long	.LASF251
	.byte	0x21
	.uleb128 0x1
	.long	.LASF252
	.byte	0x22
	.uleb128 0x1
	.long	.LASF253
	.byte	0x23
	.uleb128 0x1
	.long	.LASF254
	.byte	0x24
	.uleb128 0x1
	.long	.LASF255
	.byte	0x25
	.uleb128 0x1
	.long	.LASF256
	.byte	0x26
	.uleb128 0x1
	.long	.LASF257
	.byte	0x27
	.uleb128 0x1
	.long	.LASF258
	.byte	0x28
	.uleb128 0x1
	.long	.LASF259
	.byte	0x29
	.uleb128 0x1
	.long	.LASF260
	.byte	0x2a
	.uleb128 0x1
	.long	.LASF261
	.byte	0x2b
	.uleb128 0x1
	.long	.LASF262
	.byte	0x2c
	.uleb128 0x1
	.long	.LASF263
	.byte	0x2d
	.uleb128 0x1
	.long	.LASF264
	.byte	0x2e
	.uleb128 0x1
	.long	.LASF265
	.byte	0x2f
	.uleb128 0x1
	.long	.LASF266
	.byte	0x30
	.uleb128 0x1
	.long	.LASF267
	.byte	0x31
	.uleb128 0x1
	.long	.LASF268
	.byte	0x32
	.uleb128 0x1
	.long	.LASF269
	.byte	0x33
	.uleb128 0x1
	.long	.LASF270
	.byte	0x34
	.uleb128 0x1
	.long	.LASF271
	.byte	0x35
	.uleb128 0x1
	.long	.LASF272
	.byte	0x36
	.uleb128 0x1
	.long	.LASF273
	.byte	0x37
	.uleb128 0x1
	.long	.LASF274
	.byte	0x38
	.uleb128 0x1
	.long	.LASF275
	.byte	0x39
	.uleb128 0x1
	.long	.LASF276
	.byte	0x3a
	.uleb128 0x1
	.long	.LASF277
	.byte	0x3b
	.uleb128 0x1
	.long	.LASF278
	.byte	0x3c
	.uleb128 0x1
	.long	.LASF279
	.byte	0x3d
	.uleb128 0x1
	.long	.LASF280
	.byte	0x3e
	.uleb128 0x1
	.long	.LASF281
	.byte	0x3f
	.uleb128 0x1
	.long	.LASF282
	.byte	0x40
	.uleb128 0x1
	.long	.LASF283
	.byte	0x41
	.uleb128 0x1
	.long	.LASF284
	.byte	0x42
	.uleb128 0x1
	.long	.LASF285
	.byte	0x43
	.uleb128 0x1
	.long	.LASF286
	.byte	0x44
	.uleb128 0x1
	.long	.LASF287
	.byte	0x45
	.uleb128 0x1
	.long	.LASF288
	.byte	0x46
	.uleb128 0x1
	.long	.LASF289
	.byte	0x47
	.uleb128 0x1
	.long	.LASF290
	.byte	0x48
	.uleb128 0x1
	.long	.LASF291
	.byte	0x49
	.uleb128 0x1
	.long	.LASF292
	.byte	0x4a
	.uleb128 0x1
	.long	.LASF293
	.byte	0x4b
	.uleb128 0x1
	.long	.LASF294
	.byte	0x4c
	.uleb128 0x1
	.long	.LASF295
	.byte	0x4d
	.uleb128 0x1
	.long	.LASF296
	.byte	0x4e
	.uleb128 0x1
	.long	.LASF297
	.byte	0x4f
	.uleb128 0x1
	.long	.LASF298
	.byte	0x50
	.uleb128 0x1
	.long	.LASF299
	.byte	0x51
	.uleb128 0x1
	.long	.LASF300
	.byte	0x52
	.uleb128 0x1
	.long	.LASF301
	.byte	0x53
	.uleb128 0x1
	.long	.LASF302
	.byte	0x54
	.uleb128 0x1
	.long	.LASF303
	.byte	0x55
	.uleb128 0x1
	.long	.LASF304
	.byte	0x56
	.uleb128 0x1
	.long	.LASF305
	.byte	0x57
	.uleb128 0x1
	.long	.LASF306
	.byte	0x58
	.uleb128 0x1
	.long	.LASF307
	.byte	0x59
	.uleb128 0x1
	.long	.LASF308
	.byte	0x5a
	.uleb128 0x1
	.long	.LASF309
	.byte	0x5b
	.uleb128 0x1
	.long	.LASF310
	.byte	0x5c
	.uleb128 0x1
	.long	.LASF311
	.byte	0x5d
	.uleb128 0x1
	.long	.LASF312
	.byte	0x5e
	.uleb128 0x1
	.long	.LASF313
	.byte	0x5f
	.uleb128 0x1
	.long	.LASF314
	.byte	0x60
	.uleb128 0x1
	.long	.LASF315
	.byte	0x61
	.uleb128 0x1
	.long	.LASF316
	.byte	0x62
	.uleb128 0x1
	.long	.LASF317
	.byte	0x63
	.uleb128 0x1
	.long	.LASF318
	.byte	0x64
	.uleb128 0x1
	.long	.LASF319
	.byte	0x65
	.uleb128 0x1
	.long	.LASF320
	.byte	0x66
	.uleb128 0x1
	.long	.LASF321
	.byte	0x67
	.uleb128 0x1
	.long	.LASF322
	.byte	0x68
	.uleb128 0x1
	.long	.LASF323
	.byte	0x69
	.uleb128 0x1
	.long	.LASF324
	.byte	0x6a
	.uleb128 0x1
	.long	.LASF325
	.byte	0x6b
	.uleb128 0x1
	.long	.LASF326
	.byte	0x6c
	.uleb128 0x1
	.long	.LASF327
	.byte	0x6d
	.uleb128 0x1
	.long	.LASF328
	.byte	0x6e
	.uleb128 0x1
	.long	.LASF329
	.byte	0x6f
	.uleb128 0x1
	.long	.LASF330
	.byte	0x70
	.uleb128 0x1
	.long	.LASF331
	.byte	0x71
	.uleb128 0x1
	.long	.LASF332
	.byte	0x72
	.uleb128 0x1
	.long	.LASF333
	.byte	0x73
	.uleb128 0x1
	.long	.LASF334
	.byte	0x74
	.uleb128 0x1
	.long	.LASF335
	.byte	0x75
	.uleb128 0x1
	.long	.LASF336
	.byte	0x76
	.uleb128 0x1
	.long	.LASF337
	.byte	0x77
	.uleb128 0x1
	.long	.LASF338
	.byte	0x78
	.uleb128 0x1
	.long	.LASF339
	.byte	0x79
	.uleb128 0x1
	.long	.LASF340
	.byte	0x7a
	.uleb128 0x1
	.long	.LASF341
	.byte	0x7b
	.uleb128 0x1
	.long	.LASF342
	.byte	0x7c
	.uleb128 0x1
	.long	.LASF343
	.byte	0x7d
	.uleb128 0x1
	.long	.LASF344
	.byte	0x7e
	.uleb128 0x1
	.long	.LASF345
	.byte	0x7f
	.uleb128 0x1
	.long	.LASF346
	.byte	0x80
	.uleb128 0x1
	.long	.LASF347
	.byte	0x81
	.uleb128 0x1
	.long	.LASF348
	.byte	0x82
	.uleb128 0x1
	.long	.LASF349
	.byte	0x83
	.uleb128 0x1
	.long	.LASF350
	.byte	0x84
	.uleb128 0x1
	.long	.LASF351
	.byte	0x85
	.uleb128 0x1
	.long	.LASF352
	.byte	0x86
	.uleb128 0x1
	.long	.LASF353
	.byte	0x87
	.uleb128 0x1
	.long	.LASF354
	.byte	0x88
	.uleb128 0x1
	.long	.LASF355
	.byte	0x89
	.uleb128 0x1
	.long	.LASF356
	.byte	0x8a
	.uleb128 0x1
	.long	.LASF357
	.byte	0x8b
	.uleb128 0x1
	.long	.LASF358
	.byte	0x8c
	.uleb128 0x1
	.long	.LASF359
	.byte	0x8d
	.uleb128 0x1
	.long	.LASF360
	.byte	0x8e
	.uleb128 0x1
	.long	.LASF361
	.byte	0x8f
	.uleb128 0x1
	.long	.LASF362
	.byte	0x90
	.uleb128 0x1
	.long	.LASF363
	.byte	0x91
	.uleb128 0x1
	.long	.LASF364
	.byte	0x92
	.uleb128 0x1
	.long	.LASF365
	.byte	0x93
	.uleb128 0x1
	.long	.LASF366
	.byte	0x94
	.uleb128 0x1
	.long	.LASF367
	.byte	0x95
	.uleb128 0x1
	.long	.LASF368
	.byte	0x96
	.uleb128 0x1
	.long	.LASF369
	.byte	0x97
	.uleb128 0x1
	.long	.LASF370
	.byte	0x98
	.uleb128 0x1
	.long	.LASF371
	.byte	0x99
	.uleb128 0x1
	.long	.LASF372
	.byte	0x9a
	.uleb128 0x1
	.long	.LASF373
	.byte	0x9b
	.uleb128 0x1
	.long	.LASF374
	.byte	0x9c
	.uleb128 0x1
	.long	.LASF375
	.byte	0x9d
	.uleb128 0x1
	.long	.LASF376
	.byte	0x9e
	.uleb128 0x1
	.long	.LASF377
	.byte	0x9f
	.uleb128 0x1
	.long	.LASF378
	.byte	0xa0
	.uleb128 0x1
	.long	.LASF379
	.byte	0xa1
	.uleb128 0x1
	.long	.LASF380
	.byte	0xa2
	.uleb128 0x1
	.long	.LASF381
	.byte	0xa3
	.uleb128 0x1
	.long	.LASF382
	.byte	0xa4
	.uleb128 0x1
	.long	.LASF383
	.byte	0xa5
	.uleb128 0x1
	.long	.LASF384
	.byte	0xa6
	.uleb128 0x1
	.long	.LASF385
	.byte	0xa7
	.uleb128 0x1
	.long	.LASF386
	.byte	0xa8
	.uleb128 0x1
	.long	.LASF387
	.byte	0xa9
	.uleb128 0x1
	.long	.LASF388
	.byte	0xaa
	.uleb128 0x1
	.long	.LASF389
	.byte	0xab
	.uleb128 0x1
	.long	.LASF390
	.byte	0xac
	.uleb128 0x1
	.long	.LASF391
	.byte	0xad
	.uleb128 0x1
	.long	.LASF392
	.byte	0xae
	.uleb128 0x1
	.long	.LASF393
	.byte	0xaf
	.uleb128 0x1
	.long	.LASF394
	.byte	0xb0
	.uleb128 0x1
	.long	.LASF395
	.byte	0xb1
	.uleb128 0x1
	.long	.LASF396
	.byte	0xb2
	.uleb128 0x1
	.long	.LASF397
	.byte	0xb3
	.uleb128 0x1
	.long	.LASF398
	.byte	0xb4
	.uleb128 0x1
	.long	.LASF399
	.byte	0xb5
	.uleb128 0x1
	.long	.LASF400
	.byte	0xb6
	.uleb128 0x1
	.long	.LASF401
	.byte	0xb7
	.uleb128 0x1
	.long	.LASF402
	.byte	0xb8
	.uleb128 0x1
	.long	.LASF403
	.byte	0xb9
	.uleb128 0x1
	.long	.LASF404
	.byte	0xba
	.uleb128 0x1
	.long	.LASF405
	.byte	0xbb
	.uleb128 0x1
	.long	.LASF406
	.byte	0xbc
	.uleb128 0x1
	.long	.LASF407
	.byte	0xbd
	.uleb128 0x1
	.long	.LASF408
	.byte	0xbe
	.uleb128 0x1
	.long	.LASF409
	.byte	0xbf
	.uleb128 0x1
	.long	.LASF410
	.byte	0xc0
	.uleb128 0x1
	.long	.LASF411
	.byte	0xc1
	.uleb128 0x1
	.long	.LASF412
	.byte	0xc2
	.uleb128 0x1
	.long	.LASF413
	.byte	0xc3
	.uleb128 0x1
	.long	.LASF414
	.byte	0xc4
	.uleb128 0x1
	.long	.LASF415
	.byte	0xc5
	.uleb128 0x1
	.long	.LASF416
	.byte	0xc6
	.uleb128 0x1
	.long	.LASF417
	.byte	0xc7
	.uleb128 0x1
	.long	.LASF418
	.byte	0xc8
	.uleb128 0x1
	.long	.LASF419
	.byte	0xc9
	.uleb128 0x1
	.long	.LASF420
	.byte	0xca
	.uleb128 0x1
	.long	.LASF421
	.byte	0xcb
	.uleb128 0x1
	.long	.LASF422
	.byte	0xcc
	.uleb128 0x1
	.long	.LASF423
	.byte	0xcd
	.uleb128 0x1
	.long	.LASF424
	.byte	0xce
	.uleb128 0x1
	.long	.LASF425
	.byte	0xcf
	.uleb128 0x1
	.long	.LASF426
	.byte	0xd0
	.uleb128 0x1
	.long	.LASF427
	.byte	0xd1
	.uleb128 0x1
	.long	.LASF428
	.byte	0xd2
	.uleb128 0x1
	.long	.LASF429
	.byte	0xd3
	.uleb128 0x1
	.long	.LASF430
	.byte	0xd4
	.uleb128 0x1
	.long	.LASF431
	.byte	0xd5
	.uleb128 0x1
	.long	.LASF432
	.byte	0xd6
	.uleb128 0x1
	.long	.LASF433
	.byte	0xd7
	.uleb128 0x1
	.long	.LASF434
	.byte	0xd8
	.uleb128 0x1
	.long	.LASF435
	.byte	0xd9
	.uleb128 0x1
	.long	.LASF436
	.byte	0xda
	.uleb128 0x1
	.long	.LASF437
	.byte	0xdb
	.uleb128 0x1
	.long	.LASF438
	.byte	0xdc
	.uleb128 0x1
	.long	.LASF439
	.byte	0xdd
	.uleb128 0x1
	.long	.LASF440
	.byte	0xde
	.uleb128 0x1
	.long	.LASF441
	.byte	0xdf
	.uleb128 0x1
	.long	.LASF442
	.byte	0xe0
	.uleb128 0x1
	.long	.LASF443
	.byte	0xe1
	.uleb128 0x1
	.long	.LASF444
	.byte	0xe2
	.uleb128 0x1
	.long	.LASF445
	.byte	0xe3
	.uleb128 0x1
	.long	.LASF446
	.byte	0xe4
	.uleb128 0x1
	.long	.LASF447
	.byte	0xe5
	.uleb128 0x1
	.long	.LASF448
	.byte	0xe6
	.uleb128 0x1
	.long	.LASF449
	.byte	0xe7
	.uleb128 0x1
	.long	.LASF450
	.byte	0xe8
	.uleb128 0x1
	.long	.LASF451
	.byte	0xe9
	.uleb128 0x1
	.long	.LASF452
	.byte	0xea
	.uleb128 0x1
	.long	.LASF453
	.byte	0xeb
	.uleb128 0x1
	.long	.LASF454
	.byte	0xec
	.uleb128 0x1
	.long	.LASF455
	.byte	0xed
	.uleb128 0x1
	.long	.LASF456
	.byte	0xee
	.uleb128 0x1
	.long	.LASF457
	.byte	0xef
	.uleb128 0x1
	.long	.LASF458
	.byte	0xf0
	.uleb128 0x1
	.long	.LASF459
	.byte	0xf1
	.uleb128 0x1
	.long	.LASF460
	.byte	0xf2
	.uleb128 0x1
	.long	.LASF461
	.byte	0xf3
	.uleb128 0x1
	.long	.LASF462
	.byte	0xf4
	.uleb128 0x1
	.long	.LASF463
	.byte	0xf5
	.uleb128 0x1
	.long	.LASF464
	.byte	0xf6
	.uleb128 0x1
	.long	.LASF465
	.byte	0xf7
	.uleb128 0x1
	.long	.LASF466
	.byte	0xf8
	.uleb128 0x1
	.long	.LASF467
	.byte	0xf9
	.uleb128 0x1
	.long	.LASF468
	.byte	0xfa
	.uleb128 0x1
	.long	.LASF469
	.byte	0xfb
	.uleb128 0x1
	.long	.LASF470
	.byte	0xfc
	.uleb128 0x1
	.long	.LASF471
	.byte	0xfd
	.uleb128 0x1
	.long	.LASF472
	.byte	0xfe
	.uleb128 0x1
	.long	.LASF473
	.byte	0xff
	.uleb128 0x2
	.long	.LASF474
	.value	0x100
	.uleb128 0x2
	.long	.LASF475
	.value	0x101
	.uleb128 0x2
	.long	.LASF476
	.value	0x102
	.uleb128 0x2
	.long	.LASF477
	.value	0x103
	.uleb128 0x2
	.long	.LASF478
	.value	0x104
	.uleb128 0x2
	.long	.LASF479
	.value	0x105
	.uleb128 0x2
	.long	.LASF480
	.value	0x106
	.uleb128 0x2
	.long	.LASF481
	.value	0x107
	.uleb128 0x2
	.long	.LASF482
	.value	0x108
	.uleb128 0x2
	.long	.LASF483
	.value	0x109
	.uleb128 0x2
	.long	.LASF484
	.value	0x10a
	.uleb128 0x2
	.long	.LASF485
	.value	0x10b
	.uleb128 0x2
	.long	.LASF486
	.value	0x10c
	.uleb128 0x2
	.long	.LASF487
	.value	0x10d
	.uleb128 0x2
	.long	.LASF488
	.value	0x10e
	.uleb128 0x2
	.long	.LASF489
	.value	0x10f
	.uleb128 0x2
	.long	.LASF490
	.value	0x110
	.uleb128 0x2
	.long	.LASF491
	.value	0x111
	.uleb128 0x2
	.long	.LASF492
	.value	0x112
	.uleb128 0x2
	.long	.LASF493
	.value	0x113
	.uleb128 0x2
	.long	.LASF494
	.value	0x114
	.uleb128 0x2
	.long	.LASF495
	.value	0x115
	.uleb128 0x2
	.long	.LASF496
	.value	0x116
	.uleb128 0x2
	.long	.LASF497
	.value	0x117
	.uleb128 0x2
	.long	.LASF498
	.value	0x118
	.uleb128 0x2
	.long	.LASF499
	.value	0x119
	.uleb128 0x2
	.long	.LASF500
	.value	0x11a
	.uleb128 0x2
	.long	.LASF501
	.value	0x11b
	.uleb128 0x2
	.long	.LASF502
	.value	0x11c
	.uleb128 0x2
	.long	.LASF503
	.value	0x11d
	.uleb128 0x2
	.long	.LASF504
	.value	0x11e
	.uleb128 0x2
	.long	.LASF505
	.value	0x11f
	.uleb128 0x2
	.long	.LASF506
	.value	0x120
	.uleb128 0x2
	.long	.LASF507
	.value	0x121
	.uleb128 0x2
	.long	.LASF508
	.value	0x122
	.uleb128 0x2
	.long	.LASF509
	.value	0x123
	.uleb128 0x2
	.long	.LASF510
	.value	0x124
	.uleb128 0x2
	.long	.LASF511
	.value	0x125
	.uleb128 0x2
	.long	.LASF512
	.value	0x126
	.uleb128 0x2
	.long	.LASF513
	.value	0x127
	.uleb128 0x2
	.long	.LASF514
	.value	0x128
	.uleb128 0x2
	.long	.LASF515
	.value	0x129
	.uleb128 0x2
	.long	.LASF516
	.value	0x12a
	.uleb128 0x2
	.long	.LASF517
	.value	0x12b
	.uleb128 0x2
	.long	.LASF518
	.value	0x12c
	.uleb128 0x2
	.long	.LASF519
	.value	0x12d
	.uleb128 0x2
	.long	.LASF520
	.value	0x12e
	.uleb128 0x2
	.long	.LASF521
	.value	0x12f
	.uleb128 0x2
	.long	.LASF522
	.value	0x130
	.uleb128 0x2
	.long	.LASF523
	.value	0x131
	.uleb128 0x2
	.long	.LASF524
	.value	0x132
	.uleb128 0x2
	.long	.LASF525
	.value	0x133
	.uleb128 0x2
	.long	.LASF526
	.value	0x134
	.uleb128 0x2
	.long	.LASF527
	.value	0x135
	.uleb128 0x2
	.long	.LASF528
	.value	0x136
	.uleb128 0x2
	.long	.LASF529
	.value	0x137
	.uleb128 0x2
	.long	.LASF530
	.value	0x138
	.uleb128 0x2
	.long	.LASF531
	.value	0x139
	.uleb128 0x2
	.long	.LASF532
	.value	0x13a
	.uleb128 0x2
	.long	.LASF533
	.value	0x13b
	.uleb128 0x2
	.long	.LASF534
	.value	0x13c
	.uleb128 0x2
	.long	.LASF535
	.value	0x13d
	.uleb128 0x2
	.long	.LASF536
	.value	0x13e
	.uleb128 0x2
	.long	.LASF537
	.value	0x13f
	.uleb128 0x2
	.long	.LASF538
	.value	0x140
	.uleb128 0x2
	.long	.LASF539
	.value	0x141
	.uleb128 0x2
	.long	.LASF540
	.value	0x142
	.uleb128 0x2
	.long	.LASF541
	.value	0x143
	.uleb128 0x2
	.long	.LASF542
	.value	0x144
	.uleb128 0x2
	.long	.LASF543
	.value	0x145
	.uleb128 0x2
	.long	.LASF544
	.value	0x146
	.uleb128 0x2
	.long	.LASF545
	.value	0x147
	.uleb128 0x2
	.long	.LASF546
	.value	0x148
	.uleb128 0x2
	.long	.LASF547
	.value	0x149
	.uleb128 0x2
	.long	.LASF548
	.value	0x14a
	.uleb128 0x2
	.long	.LASF549
	.value	0x14b
	.uleb128 0x2
	.long	.LASF550
	.value	0x14c
	.uleb128 0x2
	.long	.LASF551
	.value	0x14d
	.uleb128 0x2
	.long	.LASF552
	.value	0x14e
	.uleb128 0x2
	.long	.LASF553
	.value	0x14f
	.uleb128 0x2
	.long	.LASF554
	.value	0x150
	.uleb128 0x2
	.long	.LASF555
	.value	0x151
	.uleb128 0x2
	.long	.LASF556
	.value	0x152
	.uleb128 0x2
	.long	.LASF557
	.value	0x153
	.uleb128 0x2
	.long	.LASF558
	.value	0x154
	.uleb128 0x2
	.long	.LASF559
	.value	0x155
	.uleb128 0x2
	.long	.LASF560
	.value	0x156
	.uleb128 0x2
	.long	.LASF561
	.value	0x157
	.uleb128 0x2
	.long	.LASF562
	.value	0x158
	.uleb128 0x2
	.long	.LASF563
	.value	0x159
	.uleb128 0x2
	.long	.LASF564
	.value	0x15a
	.uleb128 0x2
	.long	.LASF565
	.value	0x15b
	.uleb128 0x2
	.long	.LASF566
	.value	0x15c
	.uleb128 0x2
	.long	.LASF567
	.value	0x15d
	.uleb128 0x2
	.long	.LASF568
	.value	0x15e
	.uleb128 0x2
	.long	.LASF569
	.value	0x15f
	.uleb128 0x2
	.long	.LASF570
	.value	0x160
	.uleb128 0x2
	.long	.LASF571
	.value	0x161
	.uleb128 0x2
	.long	.LASF572
	.value	0x162
	.uleb128 0x2
	.long	.LASF573
	.value	0x163
	.uleb128 0x2
	.long	.LASF574
	.value	0x164
	.uleb128 0x2
	.long	.LASF575
	.value	0x165
	.uleb128 0x2
	.long	.LASF576
	.value	0x166
	.uleb128 0x2
	.long	.LASF577
	.value	0x167
	.uleb128 0x2
	.long	.LASF578
	.value	0x168
	.uleb128 0x2
	.long	.LASF579
	.value	0x169
	.uleb128 0x2
	.long	.LASF580
	.value	0x16a
	.uleb128 0x2
	.long	.LASF581
	.value	0x16b
	.uleb128 0x2
	.long	.LASF582
	.value	0x16c
	.uleb128 0x2
	.long	.LASF583
	.value	0x16d
	.uleb128 0x2
	.long	.LASF584
	.value	0x16e
	.uleb128 0x2
	.long	.LASF585
	.value	0x16f
	.uleb128 0x2
	.long	.LASF586
	.value	0x170
	.uleb128 0x2
	.long	.LASF587
	.value	0x171
	.uleb128 0x2
	.long	.LASF588
	.value	0x172
	.uleb128 0x2
	.long	.LASF589
	.value	0x173
	.uleb128 0x2
	.long	.LASF590
	.value	0x174
	.uleb128 0x2
	.long	.LASF591
	.value	0x175
	.uleb128 0x2
	.long	.LASF592
	.value	0x176
	.uleb128 0x2
	.long	.LASF593
	.value	0x177
	.uleb128 0x2
	.long	.LASF594
	.value	0x178
	.uleb128 0x2
	.long	.LASF595
	.value	0x179
	.uleb128 0x2
	.long	.LASF596
	.value	0x17a
	.uleb128 0x2
	.long	.LASF597
	.value	0x17b
	.uleb128 0x2
	.long	.LASF598
	.value	0x17c
	.uleb128 0x2
	.long	.LASF599
	.value	0x17d
	.uleb128 0x2
	.long	.LASF600
	.value	0x17e
	.uleb128 0x2
	.long	.LASF601
	.value	0x17f
	.uleb128 0x2
	.long	.LASF602
	.value	0x180
	.uleb128 0x2
	.long	.LASF603
	.value	0x181
	.uleb128 0x2
	.long	.LASF604
	.value	0x182
	.uleb128 0x2
	.long	.LASF605
	.value	0x183
	.uleb128 0x2
	.long	.LASF606
	.value	0x184
	.uleb128 0x2
	.long	.LASF607
	.value	0x185
	.uleb128 0x2
	.long	.LASF608
	.value	0x186
	.uleb128 0x2
	.long	.LASF609
	.value	0x187
	.uleb128 0x2
	.long	.LASF610
	.value	0x188
	.uleb128 0x2
	.long	.LASF611
	.value	0x189
	.uleb128 0x2
	.long	.LASF612
	.value	0x18a
	.uleb128 0x2
	.long	.LASF613
	.value	0x18b
	.uleb128 0x2
	.long	.LASF614
	.value	0x18c
	.uleb128 0x2
	.long	.LASF615
	.value	0x18d
	.uleb128 0x2
	.long	.LASF616
	.value	0x18e
	.uleb128 0x2
	.long	.LASF617
	.value	0x18f
	.uleb128 0x2
	.long	.LASF618
	.value	0x190
	.uleb128 0x2
	.long	.LASF619
	.value	0x191
	.uleb128 0x2
	.long	.LASF620
	.value	0x192
	.uleb128 0x2
	.long	.LASF621
	.value	0x193
	.uleb128 0x2
	.long	.LASF622
	.value	0x194
	.uleb128 0x2
	.long	.LASF623
	.value	0x195
	.uleb128 0x2
	.long	.LASF624
	.value	0x196
	.uleb128 0x2
	.long	.LASF625
	.value	0x197
	.uleb128 0x2
	.long	.LASF626
	.value	0x198
	.uleb128 0x2
	.long	.LASF627
	.value	0x199
	.uleb128 0x2
	.long	.LASF628
	.value	0x19a
	.uleb128 0x2
	.long	.LASF629
	.value	0x19b
	.uleb128 0x2
	.long	.LASF630
	.value	0x19c
	.uleb128 0x2
	.long	.LASF631
	.value	0x19d
	.uleb128 0x2
	.long	.LASF632
	.value	0x19e
	.uleb128 0x2
	.long	.LASF633
	.value	0x19f
	.uleb128 0x2
	.long	.LASF634
	.value	0x1a0
	.uleb128 0x2
	.long	.LASF635
	.value	0x1a1
	.uleb128 0x2
	.long	.LASF636
	.value	0x1a2
	.uleb128 0x2
	.long	.LASF637
	.value	0x1a3
	.uleb128 0x2
	.long	.LASF638
	.value	0x1a4
	.uleb128 0x2
	.long	.LASF639
	.value	0x1a5
	.uleb128 0x2
	.long	.LASF640
	.value	0x1a6
	.uleb128 0x2
	.long	.LASF641
	.value	0x1a7
	.uleb128 0x2
	.long	.LASF642
	.value	0x1a8
	.uleb128 0x2
	.long	.LASF643
	.value	0x1a9
	.uleb128 0x2
	.long	.LASF644
	.value	0x1aa
	.uleb128 0x2
	.long	.LASF645
	.value	0x1ab
	.uleb128 0x2
	.long	.LASF646
	.value	0x1ac
	.uleb128 0x2
	.long	.LASF647
	.value	0x1ad
	.uleb128 0x2
	.long	.LASF648
	.value	0x1ae
	.uleb128 0x2
	.long	.LASF649
	.value	0x1af
	.uleb128 0x2
	.long	.LASF650
	.value	0x1b0
	.uleb128 0x2
	.long	.LASF651
	.value	0x1b1
	.uleb128 0x2
	.long	.LASF652
	.value	0x1b2
	.uleb128 0x2
	.long	.LASF653
	.value	0x1b3
	.uleb128 0x2
	.long	.LASF654
	.value	0x1b4
	.uleb128 0x2
	.long	.LASF655
	.value	0x1b5
	.uleb128 0x2
	.long	.LASF656
	.value	0x1b6
	.uleb128 0x2
	.long	.LASF657
	.value	0x1b7
	.uleb128 0x2
	.long	.LASF658
	.value	0x1b8
	.uleb128 0x2
	.long	.LASF659
	.value	0x1b9
	.uleb128 0x2
	.long	.LASF660
	.value	0x1ba
	.uleb128 0x2
	.long	.LASF661
	.value	0x1bb
	.uleb128 0x2
	.long	.LASF662
	.value	0x1bc
	.uleb128 0x2
	.long	.LASF663
	.value	0x1bd
	.uleb128 0x2
	.long	.LASF664
	.value	0x1be
	.uleb128 0x2
	.long	.LASF665
	.value	0x1bf
	.uleb128 0x2
	.long	.LASF666
	.value	0x1c0
	.uleb128 0x2
	.long	.LASF667
	.value	0x1c1
	.uleb128 0x2
	.long	.LASF668
	.value	0x1c2
	.uleb128 0x2
	.long	.LASF669
	.value	0x1c3
	.uleb128 0x2
	.long	.LASF670
	.value	0x1c4
	.uleb128 0x2
	.long	.LASF671
	.value	0x1c5
	.uleb128 0x2
	.long	.LASF672
	.value	0x1c6
	.uleb128 0x2
	.long	.LASF673
	.value	0x1c7
	.uleb128 0x2
	.long	.LASF674
	.value	0x1c8
	.uleb128 0x2
	.long	.LASF675
	.value	0x1c9
	.uleb128 0x2
	.long	.LASF676
	.value	0x1ca
	.uleb128 0x2
	.long	.LASF677
	.value	0x1cb
	.uleb128 0x2
	.long	.LASF678
	.value	0x1cc
	.uleb128 0x2
	.long	.LASF679
	.value	0x1cd
	.uleb128 0x2
	.long	.LASF680
	.value	0x1ce
	.uleb128 0x2
	.long	.LASF681
	.value	0x1cf
	.uleb128 0x2
	.long	.LASF682
	.value	0x1d0
	.uleb128 0x2
	.long	.LASF683
	.value	0x1d1
	.uleb128 0x2
	.long	.LASF684
	.value	0x1d2
	.uleb128 0x2
	.long	.LASF685
	.value	0x1d3
	.uleb128 0x2
	.long	.LASF686
	.value	0x1d4
	.uleb128 0x2
	.long	.LASF687
	.value	0x1d5
	.uleb128 0x2
	.long	.LASF688
	.value	0x1d6
	.uleb128 0x2
	.long	.LASF689
	.value	0x1d7
	.uleb128 0x2
	.long	.LASF690
	.value	0x1d8
	.uleb128 0x2
	.long	.LASF691
	.value	0x1d9
	.uleb128 0x2
	.long	.LASF692
	.value	0x1da
	.uleb128 0x2
	.long	.LASF693
	.value	0x1db
	.uleb128 0x2
	.long	.LASF694
	.value	0x1dc
	.uleb128 0x2
	.long	.LASF695
	.value	0x1dd
	.uleb128 0x2
	.long	.LASF696
	.value	0x1de
	.uleb128 0x2
	.long	.LASF697
	.value	0x1df
	.uleb128 0x2
	.long	.LASF698
	.value	0x1e0
	.uleb128 0x2
	.long	.LASF699
	.value	0x1e1
	.uleb128 0x2
	.long	.LASF700
	.value	0x1e2
	.uleb128 0x2
	.long	.LASF701
	.value	0x1e3
	.uleb128 0x2
	.long	.LASF702
	.value	0x1e4
	.uleb128 0x2
	.long	.LASF703
	.value	0x1e5
	.uleb128 0x2
	.long	.LASF704
	.value	0x1e6
	.uleb128 0x2
	.long	.LASF705
	.value	0x1e7
	.uleb128 0x2
	.long	.LASF706
	.value	0x1e8
	.uleb128 0x2
	.long	.LASF707
	.value	0x1e9
	.uleb128 0x2
	.long	.LASF708
	.value	0x1ea
	.uleb128 0x2
	.long	.LASF709
	.value	0x1eb
	.uleb128 0x2
	.long	.LASF710
	.value	0x1ec
	.uleb128 0x2
	.long	.LASF711
	.value	0x1ed
	.uleb128 0x2
	.long	.LASF712
	.value	0x1ee
	.uleb128 0x2
	.long	.LASF713
	.value	0x1ef
	.uleb128 0x2
	.long	.LASF714
	.value	0x1f0
	.uleb128 0x2
	.long	.LASF715
	.value	0x1f1
	.uleb128 0x2
	.long	.LASF716
	.value	0x1f2
	.uleb128 0x2
	.long	.LASF717
	.value	0x1f3
	.uleb128 0x2
	.long	.LASF718
	.value	0x1f4
	.uleb128 0x2
	.long	.LASF719
	.value	0x1f5
	.uleb128 0x2
	.long	.LASF720
	.value	0x1f6
	.uleb128 0x2
	.long	.LASF721
	.value	0x1f7
	.uleb128 0x2
	.long	.LASF722
	.value	0x1f8
	.uleb128 0x2
	.long	.LASF723
	.value	0x1f9
	.uleb128 0x2
	.long	.LASF724
	.value	0x1fa
	.uleb128 0x2
	.long	.LASF725
	.value	0x1fb
	.uleb128 0x2
	.long	.LASF726
	.value	0x1fc
	.uleb128 0x2
	.long	.LASF727
	.value	0x1fd
	.uleb128 0x2
	.long	.LASF728
	.value	0x1fe
	.uleb128 0x2
	.long	.LASF729
	.value	0x1ff
	.uleb128 0x2
	.long	.LASF730
	.value	0x200
	.uleb128 0x2
	.long	.LASF731
	.value	0x201
	.uleb128 0x2
	.long	.LASF732
	.value	0x202
	.uleb128 0x2
	.long	.LASF733
	.value	0x203
	.uleb128 0x2
	.long	.LASF734
	.value	0x204
	.uleb128 0x2
	.long	.LASF735
	.value	0x205
	.uleb128 0x2
	.long	.LASF736
	.value	0x206
	.uleb128 0x2
	.long	.LASF737
	.value	0x207
	.uleb128 0x2
	.long	.LASF738
	.value	0x208
	.uleb128 0x2
	.long	.LASF739
	.value	0x209
	.uleb128 0x2
	.long	.LASF740
	.value	0x20a
	.uleb128 0x2
	.long	.LASF741
	.value	0x20b
	.uleb128 0x2
	.long	.LASF742
	.value	0x20c
	.uleb128 0x2
	.long	.LASF743
	.value	0x20d
	.uleb128 0x2
	.long	.LASF744
	.value	0x20e
	.uleb128 0x2
	.long	.LASF745
	.value	0x20f
	.uleb128 0x2
	.long	.LASF746
	.value	0x210
	.uleb128 0x2
	.long	.LASF747
	.value	0x211
	.uleb128 0x2
	.long	.LASF748
	.value	0x212
	.uleb128 0x2
	.long	.LASF749
	.value	0x213
	.uleb128 0x2
	.long	.LASF750
	.value	0x214
	.uleb128 0x2
	.long	.LASF751
	.value	0x215
	.uleb128 0x2
	.long	.LASF752
	.value	0x216
	.uleb128 0x2
	.long	.LASF753
	.value	0x217
	.uleb128 0x2
	.long	.LASF754
	.value	0x218
	.uleb128 0x2
	.long	.LASF755
	.value	0x219
	.uleb128 0x2
	.long	.LASF756
	.value	0x21a
	.uleb128 0x2
	.long	.LASF757
	.value	0x21b
	.uleb128 0x2
	.long	.LASF758
	.value	0x21c
	.uleb128 0x2
	.long	.LASF759
	.value	0x21d
	.uleb128 0x2
	.long	.LASF760
	.value	0x21e
	.uleb128 0x2
	.long	.LASF761
	.value	0x21f
	.uleb128 0x2
	.long	.LASF762
	.value	0x220
	.uleb128 0x2
	.long	.LASF763
	.value	0x221
	.uleb128 0x2
	.long	.LASF764
	.value	0x222
	.uleb128 0x2
	.long	.LASF765
	.value	0x223
	.uleb128 0x2
	.long	.LASF766
	.value	0x224
	.uleb128 0x2
	.long	.LASF767
	.value	0x225
	.uleb128 0x2
	.long	.LASF768
	.value	0x226
	.uleb128 0x2
	.long	.LASF769
	.value	0x227
	.uleb128 0x2
	.long	.LASF770
	.value	0x228
	.uleb128 0x2
	.long	.LASF771
	.value	0x229
	.uleb128 0x2
	.long	.LASF772
	.value	0x22a
	.uleb128 0x2
	.long	.LASF773
	.value	0x22b
	.uleb128 0x2
	.long	.LASF774
	.value	0x22c
	.uleb128 0x2
	.long	.LASF775
	.value	0x22d
	.uleb128 0x2
	.long	.LASF776
	.value	0x22e
	.uleb128 0x2
	.long	.LASF777
	.value	0x22f
	.uleb128 0x2
	.long	.LASF778
	.value	0x230
	.uleb128 0x2
	.long	.LASF779
	.value	0x231
	.uleb128 0x2
	.long	.LASF780
	.value	0x232
	.uleb128 0x2
	.long	.LASF781
	.value	0x233
	.uleb128 0x2
	.long	.LASF782
	.value	0x234
	.uleb128 0x2
	.long	.LASF783
	.value	0x235
	.uleb128 0x2
	.long	.LASF784
	.value	0x236
	.uleb128 0x2
	.long	.LASF785
	.value	0x237
	.uleb128 0x2
	.long	.LASF786
	.value	0x238
	.uleb128 0x2
	.long	.LASF787
	.value	0x239
	.uleb128 0x2
	.long	.LASF788
	.value	0x23a
	.uleb128 0x2
	.long	.LASF789
	.value	0x23b
	.uleb128 0x2
	.long	.LASF790
	.value	0x23c
	.uleb128 0x2
	.long	.LASF791
	.value	0x23d
	.uleb128 0x2
	.long	.LASF792
	.value	0x23e
	.uleb128 0x2
	.long	.LASF793
	.value	0x23f
	.uleb128 0x2
	.long	.LASF794
	.value	0x240
	.uleb128 0x2
	.long	.LASF795
	.value	0x241
	.uleb128 0x2
	.long	.LASF796
	.value	0x242
	.uleb128 0x2
	.long	.LASF797
	.value	0x243
	.uleb128 0x2
	.long	.LASF798
	.value	0x244
	.uleb128 0x2
	.long	.LASF799
	.value	0x245
	.uleb128 0x2
	.long	.LASF800
	.value	0x246
	.uleb128 0x2
	.long	.LASF801
	.value	0x247
	.uleb128 0x2
	.long	.LASF802
	.value	0x248
	.uleb128 0x2
	.long	.LASF803
	.value	0x249
	.uleb128 0x2
	.long	.LASF804
	.value	0x24a
	.uleb128 0x2
	.long	.LASF805
	.value	0x24b
	.uleb128 0x2
	.long	.LASF806
	.value	0x24c
	.uleb128 0x2
	.long	.LASF807
	.value	0x24d
	.uleb128 0x2
	.long	.LASF808
	.value	0x24e
	.uleb128 0x2
	.long	.LASF809
	.value	0x24f
	.uleb128 0x2
	.long	.LASF810
	.value	0x250
	.uleb128 0x2
	.long	.LASF811
	.value	0x251
	.uleb128 0x2
	.long	.LASF812
	.value	0x252
	.uleb128 0x2
	.long	.LASF813
	.value	0x253
	.uleb128 0x2
	.long	.LASF814
	.value	0x254
	.uleb128 0x2
	.long	.LASF815
	.value	0x255
	.uleb128 0x2
	.long	.LASF816
	.value	0x256
	.uleb128 0x2
	.long	.LASF817
	.value	0x257
	.uleb128 0x2
	.long	.LASF818
	.value	0x258
	.uleb128 0x2
	.long	.LASF819
	.value	0x259
	.uleb128 0x2
	.long	.LASF820
	.value	0x25a
	.uleb128 0x2
	.long	.LASF821
	.value	0x25b
	.uleb128 0x2
	.long	.LASF822
	.value	0x25c
	.uleb128 0x2
	.long	.LASF823
	.value	0x25d
	.uleb128 0x2
	.long	.LASF824
	.value	0x25e
	.uleb128 0x2
	.long	.LASF825
	.value	0x25f
	.uleb128 0x2
	.long	.LASF826
	.value	0x260
	.uleb128 0x2
	.long	.LASF827
	.value	0x261
	.uleb128 0x2
	.long	.LASF828
	.value	0x262
	.uleb128 0x2
	.long	.LASF829
	.value	0x263
	.uleb128 0x2
	.long	.LASF830
	.value	0x264
	.uleb128 0x2
	.long	.LASF831
	.value	0x265
	.uleb128 0x2
	.long	.LASF832
	.value	0x266
	.uleb128 0x2
	.long	.LASF833
	.value	0x267
	.uleb128 0x2
	.long	.LASF834
	.value	0x268
	.uleb128 0x2
	.long	.LASF835
	.value	0x269
	.uleb128 0x2
	.long	.LASF836
	.value	0x26a
	.uleb128 0x2
	.long	.LASF837
	.value	0x26b
	.uleb128 0x2
	.long	.LASF838
	.value	0x26c
	.uleb128 0x2
	.long	.LASF839
	.value	0x26d
	.uleb128 0x2
	.long	.LASF840
	.value	0x26e
	.uleb128 0x2
	.long	.LASF841
	.value	0x26f
	.uleb128 0x2
	.long	.LASF842
	.value	0x270
	.uleb128 0x2
	.long	.LASF843
	.value	0x271
	.uleb128 0x2
	.long	.LASF844
	.value	0x272
	.uleb128 0x2
	.long	.LASF845
	.value	0x273
	.uleb128 0x2
	.long	.LASF846
	.value	0x274
	.uleb128 0x2
	.long	.LASF847
	.value	0x275
	.uleb128 0x2
	.long	.LASF848
	.value	0x276
	.uleb128 0x2
	.long	.LASF849
	.value	0x277
	.uleb128 0x2
	.long	.LASF850
	.value	0x278
	.uleb128 0x2
	.long	.LASF851
	.value	0x279
	.uleb128 0x2
	.long	.LASF852
	.value	0x27a
	.uleb128 0x2
	.long	.LASF853
	.value	0x27b
	.uleb128 0x2
	.long	.LASF854
	.value	0x27c
	.uleb128 0x2
	.long	.LASF855
	.value	0x27d
	.uleb128 0x2
	.long	.LASF856
	.value	0x27e
	.uleb128 0x2
	.long	.LASF857
	.value	0x27f
	.uleb128 0x2
	.long	.LASF858
	.value	0x280
	.uleb128 0x2
	.long	.LASF859
	.value	0x281
	.uleb128 0x2
	.long	.LASF860
	.value	0x282
	.uleb128 0x2
	.long	.LASF861
	.value	0x283
	.uleb128 0x2
	.long	.LASF862
	.value	0x284
	.uleb128 0x2
	.long	.LASF863
	.value	0x285
	.uleb128 0x2
	.long	.LASF864
	.value	0x286
	.uleb128 0x2
	.long	.LASF865
	.value	0x287
	.uleb128 0x2
	.long	.LASF866
	.value	0x288
	.uleb128 0x2
	.long	.LASF867
	.value	0x289
	.uleb128 0x2
	.long	.LASF868
	.value	0x28a
	.uleb128 0x2
	.long	.LASF869
	.value	0x28b
	.uleb128 0x2
	.long	.LASF870
	.value	0x28c
	.uleb128 0x2
	.long	.LASF871
	.value	0x28d
	.uleb128 0x2
	.long	.LASF872
	.value	0x28e
	.uleb128 0x2
	.long	.LASF873
	.value	0x28f
	.uleb128 0x2
	.long	.LASF874
	.value	0x290
	.uleb128 0x2
	.long	.LASF875
	.value	0x291
	.uleb128 0x2
	.long	.LASF876
	.value	0x292
	.uleb128 0x2
	.long	.LASF877
	.value	0x293
	.uleb128 0x2
	.long	.LASF878
	.value	0x294
	.uleb128 0x2
	.long	.LASF879
	.value	0x295
	.uleb128 0x2
	.long	.LASF880
	.value	0x296
	.uleb128 0x2
	.long	.LASF881
	.value	0x297
	.uleb128 0x2
	.long	.LASF882
	.value	0x298
	.uleb128 0x2
	.long	.LASF883
	.value	0x299
	.uleb128 0x2
	.long	.LASF884
	.value	0x29a
	.uleb128 0x2
	.long	.LASF885
	.value	0x29b
	.uleb128 0x2
	.long	.LASF886
	.value	0x29c
	.uleb128 0x2
	.long	.LASF887
	.value	0x29d
	.uleb128 0x2
	.long	.LASF888
	.value	0x29e
	.uleb128 0x2
	.long	.LASF889
	.value	0x29f
	.uleb128 0x2
	.long	.LASF890
	.value	0x2a0
	.uleb128 0x2
	.long	.LASF891
	.value	0x2a1
	.uleb128 0x2
	.long	.LASF892
	.value	0x2a2
	.uleb128 0x2
	.long	.LASF893
	.value	0x2a3
	.uleb128 0x2
	.long	.LASF894
	.value	0x2a4
	.uleb128 0x2
	.long	.LASF895
	.value	0x2a5
	.uleb128 0x2
	.long	.LASF896
	.value	0x2a6
	.uleb128 0x2
	.long	.LASF897
	.value	0x2a7
	.uleb128 0x2
	.long	.LASF898
	.value	0x2a8
	.uleb128 0x2
	.long	.LASF899
	.value	0x2a9
	.uleb128 0x2
	.long	.LASF900
	.value	0x2aa
	.uleb128 0x2
	.long	.LASF901
	.value	0x2ab
	.uleb128 0x2
	.long	.LASF902
	.value	0x2ac
	.uleb128 0x2
	.long	.LASF903
	.value	0x2ad
	.uleb128 0x2
	.long	.LASF904
	.value	0x2ae
	.uleb128 0x2
	.long	.LASF905
	.value	0x2af
	.uleb128 0x2
	.long	.LASF906
	.value	0x2b0
	.uleb128 0x2
	.long	.LASF907
	.value	0x2b1
	.uleb128 0x2
	.long	.LASF908
	.value	0x2b2
	.uleb128 0x2
	.long	.LASF909
	.value	0x2b3
	.uleb128 0x2
	.long	.LASF910
	.value	0x2b4
	.uleb128 0x2
	.long	.LASF911
	.value	0x2b5
	.uleb128 0x2
	.long	.LASF912
	.value	0x2b6
	.uleb128 0x2
	.long	.LASF913
	.value	0x2b7
	.uleb128 0x2
	.long	.LASF914
	.value	0x2b8
	.uleb128 0x2
	.long	.LASF915
	.value	0x2b9
	.uleb128 0x2
	.long	.LASF916
	.value	0x2ba
	.uleb128 0x2
	.long	.LASF917
	.value	0x2bb
	.uleb128 0x2
	.long	.LASF918
	.value	0x2bc
	.uleb128 0x2
	.long	.LASF919
	.value	0x2bd
	.uleb128 0x2
	.long	.LASF920
	.value	0x2be
	.uleb128 0x2
	.long	.LASF921
	.value	0x2bf
	.uleb128 0x2
	.long	.LASF922
	.value	0x2c0
	.uleb128 0x2
	.long	.LASF923
	.value	0x2c1
	.uleb128 0x2
	.long	.LASF924
	.value	0x2c2
	.uleb128 0x2
	.long	.LASF925
	.value	0x2c3
	.uleb128 0x2
	.long	.LASF926
	.value	0x2c4
	.uleb128 0x2
	.long	.LASF927
	.value	0x2c5
	.uleb128 0x2
	.long	.LASF928
	.value	0x2c6
	.uleb128 0x2
	.long	.LASF929
	.value	0x2c7
	.uleb128 0x2
	.long	.LASF930
	.value	0x2c8
	.uleb128 0x2
	.long	.LASF931
	.value	0x2c9
	.uleb128 0x2
	.long	.LASF932
	.value	0x2ca
	.uleb128 0x2
	.long	.LASF933
	.value	0x2cb
	.uleb128 0x2
	.long	.LASF934
	.value	0x2cc
	.uleb128 0x2
	.long	.LASF935
	.value	0x2cd
	.uleb128 0x2
	.long	.LASF936
	.value	0x2ce
	.uleb128 0x2
	.long	.LASF937
	.value	0x2cf
	.uleb128 0x2
	.long	.LASF938
	.value	0x2d0
	.uleb128 0x2
	.long	.LASF939
	.value	0x2d1
	.uleb128 0x2
	.long	.LASF940
	.value	0x2d2
	.uleb128 0x2
	.long	.LASF941
	.value	0x2d3
	.uleb128 0x2
	.long	.LASF942
	.value	0x2d4
	.uleb128 0x2
	.long	.LASF943
	.value	0x2d5
	.uleb128 0x2
	.long	.LASF944
	.value	0x2d6
	.uleb128 0x2
	.long	.LASF945
	.value	0x2d7
	.uleb128 0x2
	.long	.LASF946
	.value	0x2d8
	.uleb128 0x2
	.long	.LASF947
	.value	0x2d9
	.uleb128 0x2
	.long	.LASF948
	.value	0x2da
	.uleb128 0x2
	.long	.LASF949
	.value	0x2db
	.uleb128 0x2
	.long	.LASF950
	.value	0x2dc
	.uleb128 0x2
	.long	.LASF951
	.value	0x2dd
	.uleb128 0x2
	.long	.LASF952
	.value	0x2de
	.uleb128 0x2
	.long	.LASF953
	.value	0x2df
	.uleb128 0x2
	.long	.LASF954
	.value	0x2e0
	.uleb128 0x2
	.long	.LASF955
	.value	0x2e1
	.uleb128 0x2
	.long	.LASF956
	.value	0x2e2
	.uleb128 0x2
	.long	.LASF957
	.value	0x2e3
	.uleb128 0x2
	.long	.LASF958
	.value	0x2e4
	.uleb128 0x2
	.long	.LASF959
	.value	0x2e5
	.uleb128 0x2
	.long	.LASF960
	.value	0x2e6
	.uleb128 0x2
	.long	.LASF961
	.value	0x2e7
	.uleb128 0x2
	.long	.LASF962
	.value	0x2e8
	.uleb128 0x2
	.long	.LASF963
	.value	0x2e9
	.uleb128 0x2
	.long	.LASF964
	.value	0x2ea
	.uleb128 0x2
	.long	.LASF965
	.value	0x2eb
	.uleb128 0x2
	.long	.LASF966
	.value	0x2ec
	.uleb128 0x2
	.long	.LASF967
	.value	0x2ed
	.uleb128 0x2
	.long	.LASF968
	.value	0x2ee
	.uleb128 0x2
	.long	.LASF969
	.value	0x2ef
	.uleb128 0x2
	.long	.LASF970
	.value	0x2f0
	.uleb128 0x2
	.long	.LASF971
	.value	0x2f1
	.uleb128 0x2
	.long	.LASF972
	.value	0x2f2
	.uleb128 0x2
	.long	.LASF973
	.value	0x2f3
	.uleb128 0x2
	.long	.LASF974
	.value	0x2f4
	.uleb128 0x2
	.long	.LASF975
	.value	0x2f5
	.uleb128 0x2
	.long	.LASF976
	.value	0x2f6
	.uleb128 0x2
	.long	.LASF977
	.value	0x2f7
	.uleb128 0x2
	.long	.LASF978
	.value	0x2f8
	.uleb128 0x2
	.long	.LASF979
	.value	0x2f9
	.uleb128 0x2
	.long	.LASF980
	.value	0x2fa
	.uleb128 0x2
	.long	.LASF981
	.value	0x2fb
	.uleb128 0x2
	.long	.LASF982
	.value	0x2fc
	.uleb128 0x2
	.long	.LASF983
	.value	0x2fd
	.uleb128 0x2
	.long	.LASF984
	.value	0x2fe
	.uleb128 0x2
	.long	.LASF985
	.value	0x2ff
	.uleb128 0x2
	.long	.LASF986
	.value	0x300
	.uleb128 0x2
	.long	.LASF987
	.value	0x301
	.uleb128 0x2
	.long	.LASF988
	.value	0x302
	.uleb128 0x2
	.long	.LASF989
	.value	0x303
	.uleb128 0x2
	.long	.LASF990
	.value	0x304
	.uleb128 0x2
	.long	.LASF991
	.value	0x305
	.uleb128 0x2
	.long	.LASF992
	.value	0x306
	.uleb128 0x2
	.long	.LASF993
	.value	0x307
	.uleb128 0x2
	.long	.LASF994
	.value	0x308
	.uleb128 0x2
	.long	.LASF995
	.value	0x309
	.uleb128 0x2
	.long	.LASF996
	.value	0x30a
	.uleb128 0x2
	.long	.LASF997
	.value	0x30b
	.uleb128 0x2
	.long	.LASF998
	.value	0x30c
	.uleb128 0x2
	.long	.LASF999
	.value	0x30d
	.uleb128 0x2
	.long	.LASF1000
	.value	0x30e
	.uleb128 0x2
	.long	.LASF1001
	.value	0x30f
	.uleb128 0x2
	.long	.LASF1002
	.value	0x310
	.uleb128 0x2
	.long	.LASF1003
	.value	0x311
	.uleb128 0x2
	.long	.LASF1004
	.value	0x312
	.uleb128 0x2
	.long	.LASF1005
	.value	0x313
	.uleb128 0x2
	.long	.LASF1006
	.value	0x314
	.uleb128 0x2
	.long	.LASF1007
	.value	0x315
	.uleb128 0x2
	.long	.LASF1008
	.value	0x316
	.uleb128 0x2
	.long	.LASF1009
	.value	0x317
	.uleb128 0x2
	.long	.LASF1010
	.value	0x318
	.uleb128 0x2
	.long	.LASF1011
	.value	0x319
	.uleb128 0x2
	.long	.LASF1012
	.value	0x31a
	.uleb128 0x2
	.long	.LASF1013
	.value	0x31b
	.uleb128 0x2
	.long	.LASF1014
	.value	0x31c
	.uleb128 0x2
	.long	.LASF1015
	.value	0x31d
	.uleb128 0x2
	.long	.LASF1016
	.value	0x31e
	.uleb128 0x2
	.long	.LASF1017
	.value	0x31f
	.uleb128 0x2
	.long	.LASF1018
	.value	0x320
	.uleb128 0x2
	.long	.LASF1019
	.value	0x321
	.uleb128 0x2
	.long	.LASF1020
	.value	0x322
	.uleb128 0x2
	.long	.LASF1021
	.value	0x323
	.uleb128 0x2
	.long	.LASF1022
	.value	0x324
	.uleb128 0x2
	.long	.LASF1023
	.value	0x325
	.uleb128 0x2
	.long	.LASF1024
	.value	0x326
	.uleb128 0x2
	.long	.LASF1025
	.value	0x327
	.uleb128 0x2
	.long	.LASF1026
	.value	0x328
	.uleb128 0x2
	.long	.LASF1027
	.value	0x329
	.uleb128 0x2
	.long	.LASF1028
	.value	0x32a
	.uleb128 0x2
	.long	.LASF1029
	.value	0x32b
	.uleb128 0x2
	.long	.LASF1030
	.value	0x32c
	.uleb128 0x2
	.long	.LASF1031
	.value	0x32d
	.uleb128 0x2
	.long	.LASF1032
	.value	0x32e
	.uleb128 0x2
	.long	.LASF1033
	.value	0x32f
	.uleb128 0x2
	.long	.LASF1034
	.value	0x330
	.uleb128 0x2
	.long	.LASF1035
	.value	0x331
	.uleb128 0x2
	.long	.LASF1036
	.value	0x332
	.uleb128 0x2
	.long	.LASF1037
	.value	0x333
	.uleb128 0x2
	.long	.LASF1038
	.value	0x334
	.uleb128 0x2
	.long	.LASF1039
	.value	0x335
	.uleb128 0x2
	.long	.LASF1040
	.value	0x336
	.uleb128 0x2
	.long	.LASF1041
	.value	0x337
	.uleb128 0x2
	.long	.LASF1042
	.value	0x338
	.uleb128 0x2
	.long	.LASF1043
	.value	0x339
	.uleb128 0x2
	.long	.LASF1044
	.value	0x33a
	.uleb128 0x2
	.long	.LASF1045
	.value	0x33b
	.uleb128 0x2
	.long	.LASF1046
	.value	0x33c
	.uleb128 0x2
	.long	.LASF1047
	.value	0x33d
	.uleb128 0x2
	.long	.LASF1048
	.value	0x33e
	.uleb128 0x2
	.long	.LASF1049
	.value	0x33f
	.uleb128 0x2
	.long	.LASF1050
	.value	0x340
	.uleb128 0x2
	.long	.LASF1051
	.value	0x341
	.uleb128 0x2
	.long	.LASF1052
	.value	0x342
	.uleb128 0x2
	.long	.LASF1053
	.value	0x343
	.uleb128 0x2
	.long	.LASF1054
	.value	0x344
	.uleb128 0x2
	.long	.LASF1055
	.value	0x345
	.uleb128 0x2
	.long	.LASF1056
	.value	0x346
	.uleb128 0x2
	.long	.LASF1057
	.value	0x347
	.uleb128 0x2
	.long	.LASF1058
	.value	0x348
	.uleb128 0x2
	.long	.LASF1059
	.value	0x349
	.uleb128 0x2
	.long	.LASF1060
	.value	0x34a
	.uleb128 0x2
	.long	.LASF1061
	.value	0x34b
	.uleb128 0x2
	.long	.LASF1062
	.value	0x34c
	.uleb128 0x2
	.long	.LASF1063
	.value	0x34d
	.uleb128 0x2
	.long	.LASF1064
	.value	0x34e
	.uleb128 0x2
	.long	.LASF1065
	.value	0x34f
	.uleb128 0x2
	.long	.LASF1066
	.value	0x350
	.uleb128 0x2
	.long	.LASF1067
	.value	0x351
	.uleb128 0x2
	.long	.LASF1068
	.value	0x352
	.uleb128 0x2
	.long	.LASF1069
	.value	0x353
	.uleb128 0x2
	.long	.LASF1070
	.value	0x354
	.uleb128 0x2
	.long	.LASF1071
	.value	0x355
	.uleb128 0x2
	.long	.LASF1072
	.value	0x356
	.uleb128 0x2
	.long	.LASF1073
	.value	0x357
	.uleb128 0x2
	.long	.LASF1074
	.value	0x358
	.uleb128 0x2
	.long	.LASF1075
	.value	0x359
	.uleb128 0x2
	.long	.LASF1076
	.value	0x35a
	.uleb128 0x2
	.long	.LASF1077
	.value	0x35b
	.uleb128 0x2
	.long	.LASF1078
	.value	0x35c
	.uleb128 0x2
	.long	.LASF1079
	.value	0x35d
	.uleb128 0x2
	.long	.LASF1080
	.value	0x35e
	.uleb128 0x2
	.long	.LASF1081
	.value	0x35f
	.uleb128 0x2
	.long	.LASF1082
	.value	0x360
	.uleb128 0x2
	.long	.LASF1083
	.value	0x361
	.uleb128 0x2
	.long	.LASF1084
	.value	0x362
	.uleb128 0x2
	.long	.LASF1085
	.value	0x363
	.uleb128 0x2
	.long	.LASF1086
	.value	0x364
	.uleb128 0x2
	.long	.LASF1087
	.value	0x365
	.uleb128 0x2
	.long	.LASF1088
	.value	0x366
	.uleb128 0x2
	.long	.LASF1089
	.value	0x367
	.uleb128 0x2
	.long	.LASF1090
	.value	0x368
	.uleb128 0x2
	.long	.LASF1091
	.value	0x369
	.uleb128 0x2
	.long	.LASF1092
	.value	0x36a
	.uleb128 0x2
	.long	.LASF1093
	.value	0x36b
	.uleb128 0x2
	.long	.LASF1094
	.value	0x36c
	.uleb128 0x2
	.long	.LASF1095
	.value	0x36d
	.uleb128 0x2
	.long	.LASF1096
	.value	0x36e
	.uleb128 0x2
	.long	.LASF1097
	.value	0x36f
	.uleb128 0x2
	.long	.LASF1098
	.value	0x370
	.uleb128 0x2
	.long	.LASF1099
	.value	0x371
	.uleb128 0x2
	.long	.LASF1100
	.value	0x372
	.uleb128 0x2
	.long	.LASF1101
	.value	0x373
	.uleb128 0x2
	.long	.LASF1102
	.value	0x374
	.uleb128 0x2
	.long	.LASF1103
	.value	0x375
	.uleb128 0x2
	.long	.LASF1104
	.value	0x376
	.uleb128 0x2
	.long	.LASF1105
	.value	0x377
	.uleb128 0x2
	.long	.LASF1106
	.value	0x378
	.uleb128 0x2
	.long	.LASF1107
	.value	0x379
	.uleb128 0x2
	.long	.LASF1108
	.value	0x37a
	.uleb128 0x2
	.long	.LASF1109
	.value	0x37b
	.uleb128 0x2
	.long	.LASF1110
	.value	0x37c
	.uleb128 0x2
	.long	.LASF1111
	.value	0x37d
	.uleb128 0x2
	.long	.LASF1112
	.value	0x37e
	.uleb128 0x2
	.long	.LASF1113
	.value	0x37f
	.uleb128 0x2
	.long	.LASF1114
	.value	0x380
	.uleb128 0x2
	.long	.LASF1115
	.value	0x381
	.uleb128 0x2
	.long	.LASF1116
	.value	0x382
	.uleb128 0x2
	.long	.LASF1117
	.value	0x383
	.uleb128 0x2
	.long	.LASF1118
	.value	0x384
	.uleb128 0x2
	.long	.LASF1119
	.value	0x385
	.uleb128 0x2
	.long	.LASF1120
	.value	0x386
	.uleb128 0x2
	.long	.LASF1121
	.value	0x387
	.uleb128 0x2
	.long	.LASF1122
	.value	0x388
	.uleb128 0x2
	.long	.LASF1123
	.value	0x389
	.uleb128 0x2
	.long	.LASF1124
	.value	0x38a
	.uleb128 0x2
	.long	.LASF1125
	.value	0x38b
	.uleb128 0x2
	.long	.LASF1126
	.value	0x38c
	.uleb128 0x2
	.long	.LASF1127
	.value	0x38d
	.uleb128 0x2
	.long	.LASF1128
	.value	0x38e
	.uleb128 0x2
	.long	.LASF1129
	.value	0x38f
	.uleb128 0x2
	.long	.LASF1130
	.value	0x390
	.uleb128 0x2
	.long	.LASF1131
	.value	0x391
	.uleb128 0x2
	.long	.LASF1132
	.value	0x392
	.uleb128 0x2
	.long	.LASF1133
	.value	0x393
	.uleb128 0x2
	.long	.LASF1134
	.value	0x394
	.uleb128 0x2
	.long	.LASF1135
	.value	0x395
	.uleb128 0x2
	.long	.LASF1136
	.value	0x396
	.uleb128 0x2
	.long	.LASF1137
	.value	0x397
	.uleb128 0x2
	.long	.LASF1138
	.value	0x398
	.uleb128 0x2
	.long	.LASF1139
	.value	0x399
	.uleb128 0x2
	.long	.LASF1140
	.value	0x39a
	.uleb128 0x2
	.long	.LASF1141
	.value	0x39b
	.uleb128 0x2
	.long	.LASF1142
	.value	0x39c
	.uleb128 0x2
	.long	.LASF1143
	.value	0x39d
	.uleb128 0x2
	.long	.LASF1144
	.value	0x39e
	.uleb128 0x2
	.long	.LASF1145
	.value	0x39f
	.uleb128 0x2
	.long	.LASF1146
	.value	0x3a0
	.uleb128 0x2
	.long	.LASF1147
	.value	0x3a1
	.uleb128 0x2
	.long	.LASF1148
	.value	0x3a2
	.uleb128 0x2
	.long	.LASF1149
	.value	0x3a3
	.uleb128 0x2
	.long	.LASF1150
	.value	0x3a4
	.uleb128 0x2
	.long	.LASF1151
	.value	0x3a5
	.uleb128 0x2
	.long	.LASF1152
	.value	0x3a6
	.uleb128 0x2
	.long	.LASF1153
	.value	0x3a7
	.uleb128 0x2
	.long	.LASF1154
	.value	0x3a8
	.uleb128 0x2
	.long	.LASF1155
	.value	0x3a9
	.uleb128 0x2
	.long	.LASF1156
	.value	0x3aa
	.uleb128 0x2
	.long	.LASF1157
	.value	0x3ab
	.uleb128 0x2
	.long	.LASF1158
	.value	0x3ac
	.uleb128 0x2
	.long	.LASF1159
	.value	0x3ad
	.uleb128 0x2
	.long	.LASF1160
	.value	0x3ae
	.uleb128 0x2
	.long	.LASF1161
	.value	0x3af
	.uleb128 0x2
	.long	.LASF1162
	.value	0x3b0
	.uleb128 0x2
	.long	.LASF1163
	.value	0x3b1
	.uleb128 0x2
	.long	.LASF1164
	.value	0x3b2
	.uleb128 0x2
	.long	.LASF1165
	.value	0x3b3
	.uleb128 0x2
	.long	.LASF1166
	.value	0x3b4
	.uleb128 0x2
	.long	.LASF1167
	.value	0x3b5
	.uleb128 0x2
	.long	.LASF1168
	.value	0x3b6
	.uleb128 0x2
	.long	.LASF1169
	.value	0x3b7
	.uleb128 0x2
	.long	.LASF1170
	.value	0x3b8
	.uleb128 0x2
	.long	.LASF1171
	.value	0x3b9
	.uleb128 0x2
	.long	.LASF1172
	.value	0x3ba
	.uleb128 0x2
	.long	.LASF1173
	.value	0x3bb
	.uleb128 0x2
	.long	.LASF1174
	.value	0x3bc
	.uleb128 0x2
	.long	.LASF1175
	.value	0x3bd
	.uleb128 0x2
	.long	.LASF1176
	.value	0x3be
	.uleb128 0x2
	.long	.LASF1177
	.value	0x3bf
	.uleb128 0x2
	.long	.LASF1178
	.value	0x3c0
	.uleb128 0x2
	.long	.LASF1179
	.value	0x3c1
	.uleb128 0x2
	.long	.LASF1180
	.value	0x3c2
	.uleb128 0x2
	.long	.LASF1181
	.value	0x3c3
	.uleb128 0x2
	.long	.LASF1182
	.value	0x3c4
	.uleb128 0x2
	.long	.LASF1183
	.value	0x3c5
	.uleb128 0x2
	.long	.LASF1184
	.value	0x3c6
	.uleb128 0x2
	.long	.LASF1185
	.value	0x3c7
	.byte	0
	.uleb128 0xd
	.long	.LASF1186
	.byte	0x9
	.value	0x478
	.long	0x727
	.uleb128 0x1e
	.byte	0x38
	.value	0x47b
	.long	0x2123
	.uleb128 0x4
	.long	.LASF1187
	.byte	0x9
	.value	0x47d
	.byte	0xf
	.long	0x71b
	.byte	0
	.uleb128 0x4
	.long	.LASF1188
	.byte	0x9
	.value	0x47e
	.byte	0xa
	.long	0x12b
	.byte	0x8
	.uleb128 0x4
	.long	.LASF1189
	.byte	0x9
	.value	0x47f
	.byte	0xa
	.long	0x12b
	.byte	0x10
	.uleb128 0x4
	.long	.LASF1190
	.byte	0x9
	.value	0x481
	.byte	0xf
	.long	0x30d
	.byte	0x18
	.uleb128 0x4
	.long	.LASF1191
	.byte	0x9
	.value	0x482
	.byte	0x10
	.long	0x20ac
	.byte	0x20
	.uleb128 0x4
	.long	.LASF1192
	.byte	0x9
	.value	0x483
	.byte	0xa
	.long	0x12b
	.byte	0x28
	.uleb128 0x4
	.long	.LASF1193
	.byte	0x9
	.value	0x483
	.byte	0x11
	.long	0x12b
	.byte	0x30
	.byte	0
	.uleb128 0xd
	.long	.LASF1194
	.byte	0x9
	.value	0x484
	.long	0x20b8
	.uleb128 0x10
	.long	0x84
	.byte	0x9
	.value	0x48b
	.byte	0xe
	.long	0x2479
	.uleb128 0x1
	.long	.LASF1195
	.byte	0
	.uleb128 0x1
	.long	.LASF1196
	.byte	0x1
	.uleb128 0x1
	.long	.LASF1197
	.byte	0x2
	.uleb128 0x1
	.long	.LASF1198
	.byte	0x3
	.uleb128 0x1
	.long	.LASF1199
	.byte	0x4
	.uleb128 0x1
	.long	.LASF1200
	.byte	0x5
	.uleb128 0x1
	.long	.LASF1201
	.byte	0x6
	.uleb128 0x1
	.long	.LASF1202
	.byte	0x7
	.uleb128 0x1
	.long	.LASF1203
	.byte	0x8
	.uleb128 0x1
	.long	.LASF1204
	.byte	0x9
	.uleb128 0x1
	.long	.LASF1205
	.byte	0xa
	.uleb128 0x1
	.long	.LASF1206
	.byte	0xb
	.uleb128 0x1
	.long	.LASF1207
	.byte	0xc
	.uleb128 0x1
	.long	.LASF1208
	.byte	0xd
	.uleb128 0x1
	.long	.LASF1209
	.byte	0xe
	.uleb128 0x1
	.long	.LASF1210
	.byte	0xf
	.uleb128 0x1
	.long	.LASF1211
	.byte	0x10
	.uleb128 0x1
	.long	.LASF1212
	.byte	0x11
	.uleb128 0x1
	.long	.LASF1213
	.byte	0x12
	.uleb128 0x1
	.long	.LASF1214
	.byte	0x13
	.uleb128 0x1
	.long	.LASF1215
	.byte	0x14
	.uleb128 0x1
	.long	.LASF1216
	.byte	0x15
	.uleb128 0x1
	.long	.LASF1217
	.byte	0x16
	.uleb128 0x1
	.long	.LASF1218
	.byte	0x17
	.uleb128 0x1
	.long	.LASF1219
	.byte	0x18
	.uleb128 0x1
	.long	.LASF1220
	.byte	0x19
	.uleb128 0x1
	.long	.LASF1221
	.byte	0x1a
	.uleb128 0x1
	.long	.LASF1222
	.byte	0x1b
	.uleb128 0x1
	.long	.LASF1223
	.byte	0x1c
	.uleb128 0x1
	.long	.LASF1224
	.byte	0x1d
	.uleb128 0x1
	.long	.LASF1225
	.byte	0x1e
	.uleb128 0x1
	.long	.LASF1226
	.byte	0x1f
	.uleb128 0x1
	.long	.LASF1227
	.byte	0x20
	.uleb128 0x1
	.long	.LASF1228
	.byte	0x21
	.uleb128 0x1
	.long	.LASF1229
	.byte	0x22
	.uleb128 0x1
	.long	.LASF1230
	.byte	0x23
	.uleb128 0x1
	.long	.LASF1231
	.byte	0x24
	.uleb128 0x1
	.long	.LASF1232
	.byte	0x25
	.uleb128 0x1
	.long	.LASF1233
	.byte	0x26
	.uleb128 0x1
	.long	.LASF1234
	.byte	0x27
	.uleb128 0x1
	.long	.LASF1235
	.byte	0x28
	.uleb128 0x1
	.long	.LASF1236
	.byte	0x29
	.uleb128 0x1
	.long	.LASF1237
	.byte	0x2a
	.uleb128 0x1
	.long	.LASF1238
	.byte	0x2b
	.uleb128 0x1
	.long	.LASF1239
	.byte	0x2c
	.uleb128 0x1
	.long	.LASF1240
	.byte	0x2d
	.uleb128 0x1
	.long	.LASF1241
	.byte	0x2e
	.uleb128 0x1
	.long	.LASF1242
	.byte	0x2f
	.uleb128 0x1
	.long	.LASF1243
	.byte	0x30
	.uleb128 0x1
	.long	.LASF1244
	.byte	0x31
	.uleb128 0x1
	.long	.LASF1245
	.byte	0x32
	.uleb128 0x1
	.long	.LASF1246
	.byte	0x33
	.uleb128 0x1
	.long	.LASF1247
	.byte	0x34
	.uleb128 0x1
	.long	.LASF1248
	.byte	0x35
	.uleb128 0x1
	.long	.LASF1249
	.byte	0x36
	.uleb128 0x1
	.long	.LASF1250
	.byte	0x37
	.uleb128 0x1
	.long	.LASF1251
	.byte	0x38
	.uleb128 0x1
	.long	.LASF1252
	.byte	0x39
	.uleb128 0x1
	.long	.LASF1253
	.byte	0x3a
	.uleb128 0x1
	.long	.LASF1254
	.byte	0x3b
	.uleb128 0x1
	.long	.LASF1255
	.byte	0x3c
	.uleb128 0x1
	.long	.LASF1256
	.byte	0x3d
	.uleb128 0x1
	.long	.LASF1257
	.byte	0x3e
	.uleb128 0x1
	.long	.LASF1258
	.byte	0x3f
	.uleb128 0x1
	.long	.LASF1259
	.byte	0x40
	.uleb128 0x1
	.long	.LASF1260
	.byte	0x41
	.uleb128 0x1
	.long	.LASF1261
	.byte	0x42
	.uleb128 0x1
	.long	.LASF1262
	.byte	0x43
	.uleb128 0x1
	.long	.LASF1263
	.byte	0x44
	.uleb128 0x1
	.long	.LASF1264
	.byte	0x45
	.uleb128 0x1
	.long	.LASF1265
	.byte	0x46
	.uleb128 0x1
	.long	.LASF1266
	.byte	0x47
	.uleb128 0x1
	.long	.LASF1267
	.byte	0x48
	.uleb128 0x1
	.long	.LASF1268
	.byte	0x49
	.uleb128 0x1
	.long	.LASF1269
	.byte	0x4a
	.uleb128 0x1
	.long	.LASF1270
	.byte	0x4b
	.uleb128 0x1
	.long	.LASF1271
	.byte	0x4c
	.uleb128 0x1
	.long	.LASF1272
	.byte	0x4d
	.uleb128 0x1
	.long	.LASF1273
	.byte	0x4e
	.uleb128 0x1
	.long	.LASF1274
	.byte	0x4f
	.uleb128 0x1
	.long	.LASF1275
	.byte	0x50
	.uleb128 0x1
	.long	.LASF1276
	.byte	0x51
	.uleb128 0x1
	.long	.LASF1277
	.byte	0x52
	.uleb128 0x1
	.long	.LASF1278
	.byte	0x53
	.uleb128 0x1
	.long	.LASF1279
	.byte	0x54
	.uleb128 0x1
	.long	.LASF1280
	.byte	0x55
	.uleb128 0x1
	.long	.LASF1281
	.byte	0x56
	.uleb128 0x1
	.long	.LASF1282
	.byte	0x57
	.uleb128 0x1
	.long	.LASF1283
	.byte	0x58
	.uleb128 0x1
	.long	.LASF1284
	.byte	0x59
	.uleb128 0x1
	.long	.LASF1285
	.byte	0x5a
	.uleb128 0x1
	.long	.LASF1286
	.byte	0x5b
	.uleb128 0x1
	.long	.LASF1287
	.byte	0x5c
	.uleb128 0x1
	.long	.LASF1288
	.byte	0x5d
	.uleb128 0x1
	.long	.LASF1289
	.byte	0x5e
	.uleb128 0x1
	.long	.LASF1290
	.byte	0x5f
	.uleb128 0x1
	.long	.LASF1291
	.byte	0x60
	.uleb128 0x1
	.long	.LASF1292
	.byte	0x61
	.uleb128 0x1
	.long	.LASF1293
	.byte	0x62
	.uleb128 0x1
	.long	.LASF1294
	.byte	0x63
	.uleb128 0x1
	.long	.LASF1295
	.byte	0x64
	.uleb128 0x1
	.long	.LASF1296
	.byte	0x65
	.uleb128 0x1
	.long	.LASF1297
	.byte	0x66
	.uleb128 0x1
	.long	.LASF1298
	.byte	0x67
	.uleb128 0x1
	.long	.LASF1299
	.byte	0x68
	.uleb128 0x1
	.long	.LASF1300
	.byte	0x69
	.uleb128 0x1
	.long	.LASF1301
	.byte	0x6a
	.uleb128 0x1
	.long	.LASF1302
	.byte	0x6b
	.uleb128 0x1
	.long	.LASF1303
	.byte	0x6c
	.uleb128 0x1
	.long	.LASF1304
	.byte	0x6d
	.uleb128 0x1
	.long	.LASF1305
	.byte	0x6e
	.uleb128 0x1
	.long	.LASF1306
	.byte	0x6f
	.uleb128 0x1
	.long	.LASF1307
	.byte	0x70
	.uleb128 0x1
	.long	.LASF1308
	.byte	0x71
	.uleb128 0x1
	.long	.LASF1309
	.byte	0x72
	.uleb128 0x1
	.long	.LASF1310
	.byte	0x73
	.uleb128 0x1
	.long	.LASF1311
	.byte	0x74
	.uleb128 0x1
	.long	.LASF1312
	.byte	0x75
	.uleb128 0x1
	.long	.LASF1313
	.byte	0x76
	.uleb128 0x1
	.long	.LASF1314
	.byte	0x77
	.uleb128 0x1
	.long	.LASF1315
	.byte	0x78
	.uleb128 0x1
	.long	.LASF1316
	.byte	0x79
	.uleb128 0x1
	.long	.LASF1317
	.byte	0x7a
	.uleb128 0x1
	.long	.LASF1318
	.byte	0x7b
	.uleb128 0x1
	.long	.LASF1319
	.byte	0x7c
	.uleb128 0x1
	.long	.LASF1320
	.byte	0x7d
	.uleb128 0x1
	.long	.LASF1321
	.byte	0x7e
	.uleb128 0x1
	.long	.LASF1322
	.byte	0x7f
	.uleb128 0x1
	.long	.LASF1323
	.byte	0x80
	.uleb128 0x1
	.long	.LASF1324
	.byte	0x81
	.uleb128 0x1
	.long	.LASF1325
	.byte	0x82
	.uleb128 0x1
	.long	.LASF1326
	.byte	0x83
	.uleb128 0x1
	.long	.LASF1327
	.byte	0x84
	.uleb128 0x1
	.long	.LASF1328
	.byte	0x85
	.uleb128 0x1
	.long	.LASF1329
	.byte	0x86
	.uleb128 0x1
	.long	.LASF1330
	.byte	0x87
	.uleb128 0x1
	.long	.LASF1331
	.byte	0x88
	.uleb128 0x1
	.long	.LASF1332
	.byte	0x89
	.byte	0
	.uleb128 0xd
	.long	.LASF1333
	.byte	0x9
	.value	0x517
	.long	0x212f
	.uleb128 0x1e
	.byte	0x5c
	.value	0x519
	.long	0x25d0
	.uleb128 0x4
	.long	.LASF1334
	.byte	0x9
	.value	0x51b
	.byte	0x9
	.long	0x114
	.byte	0
	.uleb128 0x4
	.long	.LASF1335
	.byte	0x9
	.value	0x51c
	.byte	0x9
	.long	0x114
	.byte	0x4
	.uleb128 0x4
	.long	.LASF1336
	.byte	0x9
	.value	0x51d
	.byte	0x9
	.long	0x114
	.byte	0x8
	.uleb128 0x4
	.long	.LASF1337
	.byte	0x9
	.value	0x51e
	.byte	0x9
	.long	0x114
	.byte	0xc
	.uleb128 0x4
	.long	.LASF1338
	.byte	0x9
	.value	0x51f
	.byte	0x9
	.long	0x114
	.byte	0x10
	.uleb128 0x4
	.long	.LASF1339
	.byte	0x9
	.value	0x520
	.byte	0x9
	.long	0x114
	.byte	0x14
	.uleb128 0x4
	.long	.LASF1340
	.byte	0x9
	.value	0x521
	.byte	0x9
	.long	0x114
	.byte	0x18
	.uleb128 0x4
	.long	.LASF1341
	.byte	0x9
	.value	0x522
	.byte	0x9
	.long	0x114
	.byte	0x1c
	.uleb128 0x4
	.long	.LASF1342
	.byte	0x9
	.value	0x523
	.byte	0x9
	.long	0x114
	.byte	0x20
	.uleb128 0x4
	.long	.LASF1343
	.byte	0x9
	.value	0x524
	.byte	0x9
	.long	0x114
	.byte	0x24
	.uleb128 0x4
	.long	.LASF1344
	.byte	0x9
	.value	0x525
	.byte	0x9
	.long	0x114
	.byte	0x28
	.uleb128 0x4
	.long	.LASF1345
	.byte	0x9
	.value	0x526
	.byte	0x9
	.long	0x114
	.byte	0x2c
	.uleb128 0x4
	.long	.LASF1346
	.byte	0x9
	.value	0x527
	.byte	0x9
	.long	0x114
	.byte	0x30
	.uleb128 0x4
	.long	.LASF1347
	.byte	0x9
	.value	0x528
	.byte	0x9
	.long	0x114
	.byte	0x34
	.uleb128 0x4
	.long	.LASF1348
	.byte	0x9
	.value	0x529
	.byte	0x9
	.long	0x114
	.byte	0x38
	.uleb128 0x4
	.long	.LASF1349
	.byte	0x9
	.value	0x52a
	.byte	0x9
	.long	0x114
	.byte	0x3c
	.uleb128 0x4
	.long	.LASF1350
	.byte	0x9
	.value	0x52b
	.byte	0x9
	.long	0x114
	.byte	0x40
	.uleb128 0x4
	.long	.LASF1351
	.byte	0x9
	.value	0x52c
	.byte	0x9
	.long	0x114
	.byte	0x44
	.uleb128 0x4
	.long	.LASF1352
	.byte	0x9
	.value	0x52d
	.byte	0x9
	.long	0x114
	.byte	0x48
	.uleb128 0x4
	.long	.LASF1353
	.byte	0x9
	.value	0x52e
	.byte	0x9
	.long	0x114
	.byte	0x4c
	.uleb128 0x4
	.long	.LASF1354
	.byte	0x9
	.value	0x52f
	.byte	0x9
	.long	0x114
	.byte	0x50
	.uleb128 0x4
	.long	.LASF1355
	.byte	0x9
	.value	0x530
	.byte	0x9
	.long	0x114
	.byte	0x54
	.uleb128 0x4
	.long	.LASF1356
	.byte	0x9
	.value	0x531
	.byte	0x9
	.long	0x114
	.byte	0x58
	.byte	0
	.uleb128 0xd
	.long	.LASF1357
	.byte	0x9
	.value	0x533
	.long	0x2485
	.uleb128 0x13
	.long	.LASF1359
	.byte	0xe0
	.byte	0xa
	.byte	0xcf
	.long	0x27b3
	.uleb128 0x3
	.long	.LASF1360
	.byte	0xa
	.byte	0xd2
	.byte	0x10
	.long	0x35e
	.byte	0
	.uleb128 0x7
	.string	"x"
	.byte	0xa
	.byte	0xd5
	.byte	0xe
	.long	0x276
	.byte	0x18
	.uleb128 0x7
	.string	"y"
	.byte	0xa
	.byte	0xd6
	.byte	0xe
	.long	0x276
	.byte	0x1c
	.uleb128 0x7
	.string	"z"
	.byte	0xa
	.byte	0xd7
	.byte	0xe
	.long	0x276
	.byte	0x20
	.uleb128 0x3
	.long	.LASF1361
	.byte	0xa
	.byte	0xda
	.byte	0x14
	.long	0x27b3
	.byte	0x28
	.uleb128 0x3
	.long	.LASF1362
	.byte	0xa
	.byte	0xdb
	.byte	0x14
	.long	0x27b3
	.byte	0x30
	.uleb128 0x3
	.long	.LASF74
	.byte	0xa
	.byte	0xde
	.byte	0xe
	.long	0x282
	.byte	0x38
	.uleb128 0x3
	.long	.LASF1187
	.byte	0xa
	.byte	0xdf
	.byte	0x12
	.long	0x71b
	.byte	0x3c
	.uleb128 0x3
	.long	.LASF1188
	.byte	0xa
	.byte	0xe0
	.byte	0xb
	.long	0x114
	.byte	0x40
	.uleb128 0x3
	.long	.LASF1363
	.byte	0xa
	.byte	0xe4
	.byte	0x14
	.long	0x27b3
	.byte	0x48
	.uleb128 0x3
	.long	.LASF1364
	.byte	0xa
	.byte	0xe5
	.byte	0x14
	.long	0x27b3
	.byte	0x50
	.uleb128 0x3
	.long	.LASF1365
	.byte	0xa
	.byte	0xe7
	.byte	0x19
	.long	0x27ec
	.byte	0x58
	.uleb128 0x3
	.long	.LASF1366
	.byte	0xa
	.byte	0xea
	.byte	0xe
	.long	0x276
	.byte	0x60
	.uleb128 0x3
	.long	.LASF1367
	.byte	0xa
	.byte	0xeb
	.byte	0xe
	.long	0x276
	.byte	0x64
	.uleb128 0x3
	.long	.LASF1350
	.byte	0xa
	.byte	0xee
	.byte	0xe
	.long	0x276
	.byte	0x68
	.uleb128 0x3
	.long	.LASF1351
	.byte	0xa
	.byte	0xef
	.byte	0xe
	.long	0x276
	.byte	0x6c
	.uleb128 0x3
	.long	.LASF1368
	.byte	0xa
	.byte	0xf2
	.byte	0xe
	.long	0x276
	.byte	0x70
	.uleb128 0x3
	.long	.LASF1369
	.byte	0xa
	.byte	0xf3
	.byte	0xe
	.long	0x276
	.byte	0x74
	.uleb128 0x3
	.long	.LASF1370
	.byte	0xa
	.byte	0xf4
	.byte	0xe
	.long	0x276
	.byte	0x78
	.uleb128 0x3
	.long	.LASF1371
	.byte	0xa
	.byte	0xf7
	.byte	0xb
	.long	0x114
	.byte	0x7c
	.uleb128 0x3
	.long	.LASF75
	.byte	0xa
	.byte	0xf9
	.byte	0x11
	.long	0x2479
	.byte	0x80
	.uleb128 0x3
	.long	.LASF1372
	.byte	0xa
	.byte	0xfa
	.byte	0x12
	.long	0x27f1
	.byte	0x88
	.uleb128 0x3
	.long	.LASF1189
	.byte	0xa
	.byte	0xfc
	.byte	0xb
	.long	0x114
	.byte	0x90
	.uleb128 0x3
	.long	.LASF1373
	.byte	0xa
	.byte	0xfd
	.byte	0xf
	.long	0x27f6
	.byte	0x98
	.uleb128 0x3
	.long	.LASF1355
	.byte	0xa
	.byte	0xfe
	.byte	0xb
	.long	0x114
	.byte	0xa0
	.uleb128 0x3
	.long	.LASF1374
	.byte	0xa
	.byte	0xff
	.byte	0xb
	.long	0x114
	.byte	0xa4
	.uleb128 0x4
	.long	.LASF1375
	.byte	0xa
	.value	0x102
	.byte	0xb
	.long	0x114
	.byte	0xa8
	.uleb128 0x4
	.long	.LASF1376
	.byte	0xa
	.value	0x103
	.byte	0xb
	.long	0x114
	.byte	0xac
	.uleb128 0x4
	.long	.LASF1377
	.byte	0xa
	.value	0x107
	.byte	0x14
	.long	0x27b3
	.byte	0xb0
	.uleb128 0x4
	.long	.LASF1339
	.byte	0xa
	.value	0x10b
	.byte	0xb
	.long	0x114
	.byte	0xb8
	.uleb128 0x4
	.long	.LASF1378
	.byte	0xa
	.value	0x10f
	.byte	0xb
	.long	0x114
	.byte	0xbc
	.uleb128 0x4
	.long	.LASF1379
	.byte	0xa
	.value	0x113
	.byte	0x16
	.long	0x29d0
	.byte	0xc0
	.uleb128 0x4
	.long	.LASF1380
	.byte	0xa
	.value	0x116
	.byte	0xb
	.long	0x114
	.byte	0xc8
	.uleb128 0x4
	.long	.LASF1381
	.byte	0xa
	.value	0x119
	.byte	0x11
	.long	0x3c0
	.byte	0xcc
	.uleb128 0x4
	.long	.LASF1382
	.byte	0xa
	.value	0x11c
	.byte	0x14
	.long	0x27b3
	.byte	0xd8
	.byte	0
	.uleb128 0x8
	.long	0x25dc
	.uleb128 0x13
	.long	.LASF1383
	.byte	0x10
	.byte	0xb
	.byte	0xe3
	.long	0x27ec
	.uleb128 0x3
	.long	.LASF1384
	.byte	0xb
	.byte	0xe5
	.byte	0xf
	.long	0x2c69
	.byte	0
	.uleb128 0x3
	.long	.LASF1385
	.byte	0xb
	.byte	0xe6
	.byte	0xb
	.long	0x101
	.byte	0x8
	.uleb128 0x3
	.long	.LASF1386
	.byte	0xb
	.byte	0xe7
	.byte	0xb
	.long	0x101
	.byte	0xa
	.byte	0
	.uleb128 0x8
	.long	0x27b8
	.uleb128 0x8
	.long	0x25d0
	.uleb128 0x8
	.long	0x2123
	.uleb128 0x28
	.long	.LASF1387
	.value	0x140
	.byte	0xc
	.byte	0x53
	.byte	0x10
	.long	0x29d0
	.uleb128 0x7
	.string	"mo"
	.byte	0xc
	.byte	0x55
	.byte	0xe
	.long	0x2b28
	.byte	0
	.uleb128 0x3
	.long	.LASF1388
	.byte	0xc
	.byte	0x56
	.byte	0x13
	.long	0x2d5b
	.byte	0x8
	.uleb128 0x7
	.string	"cmd"
	.byte	0xc
	.byte	0x57
	.byte	0xf
	.long	0x108
	.byte	0xc
	.uleb128 0x3
	.long	.LASF1389
	.byte	0xc
	.byte	0x5c
	.byte	0xe
	.long	0x276
	.byte	0x14
	.uleb128 0x3
	.long	.LASF1390
	.byte	0xc
	.byte	0x5e
	.byte	0xe
	.long	0x276
	.byte	0x18
	.uleb128 0x3
	.long	.LASF1391
	.byte	0xc
	.byte	0x60
	.byte	0x16
	.long	0x276
	.byte	0x1c
	.uleb128 0x7
	.string	"bob"
	.byte	0xc
	.byte	0x62
	.byte	0x16
	.long	0x276
	.byte	0x20
	.uleb128 0x3
	.long	.LASF1374
	.byte	0xc
	.byte	0x66
	.byte	0xb
	.long	0x114
	.byte	0x24
	.uleb128 0x3
	.long	.LASF1392
	.byte	0xc
	.byte	0x67
	.byte	0xb
	.long	0x114
	.byte	0x28
	.uleb128 0x3
	.long	.LASF1393
	.byte	0xc
	.byte	0x69
	.byte	0xb
	.long	0x114
	.byte	0x2c
	.uleb128 0x3
	.long	.LASF1394
	.byte	0xc
	.byte	0x6c
	.byte	0xb
	.long	0x2d67
	.byte	0x30
	.uleb128 0x3
	.long	.LASF1395
	.byte	0xc
	.byte	0x6d
	.byte	0xe
	.long	0x2d77
	.byte	0x48
	.uleb128 0x3
	.long	.LASF1396
	.byte	0xc
	.byte	0x6e
	.byte	0xe
	.long	0x8b
	.byte	0x60
	.uleb128 0x3
	.long	.LASF1397
	.byte	0xc
	.byte	0x71
	.byte	0xb
	.long	0x2b2d
	.byte	0x64
	.uleb128 0x3
	.long	.LASF1398
	.byte	0xc
	.byte	0x72
	.byte	0x12
	.long	0x1f4
	.byte	0x74
	.uleb128 0x3
	.long	.LASF1399
	.byte	0xc
	.byte	0x75
	.byte	0x12
	.long	0x1f4
	.byte	0x78
	.uleb128 0x3
	.long	.LASF1400
	.byte	0xc
	.byte	0x77
	.byte	0xe
	.long	0x2d87
	.byte	0x7c
	.uleb128 0x3
	.long	.LASF1401
	.byte	0xc
	.byte	0x78
	.byte	0xb
	.long	0x2b2d
	.byte	0xa0
	.uleb128 0x3
	.long	.LASF1402
	.byte	0xc
	.byte	0x79
	.byte	0xb
	.long	0x2b2d
	.byte	0xb0
	.uleb128 0x3
	.long	.LASF1403
	.byte	0xc
	.byte	0x7c
	.byte	0xb
	.long	0x114
	.byte	0xc0
	.uleb128 0x3
	.long	.LASF1404
	.byte	0xc
	.byte	0x7d
	.byte	0xb
	.long	0x114
	.byte	0xc4
	.uleb128 0x3
	.long	.LASF1405
	.byte	0xc
	.byte	0x81
	.byte	0xb
	.long	0x114
	.byte	0xc8
	.uleb128 0x3
	.long	.LASF1406
	.byte	0xc
	.byte	0x84
	.byte	0xb
	.long	0x114
	.byte	0xcc
	.uleb128 0x3
	.long	.LASF1407
	.byte	0xc
	.byte	0x87
	.byte	0xb
	.long	0x114
	.byte	0xd0
	.uleb128 0x3
	.long	.LASF1408
	.byte	0xc
	.byte	0x88
	.byte	0xb
	.long	0x114
	.byte	0xd4
	.uleb128 0x3
	.long	.LASF1409
	.byte	0xc
	.byte	0x89
	.byte	0xb
	.long	0x114
	.byte	0xd8
	.uleb128 0x3
	.long	.LASF1410
	.byte	0xc
	.byte	0x8c
	.byte	0xc
	.long	0x132
	.byte	0xe0
	.uleb128 0x3
	.long	.LASF1411
	.byte	0xc
	.byte	0x8f
	.byte	0xb
	.long	0x114
	.byte	0xe8
	.uleb128 0x3
	.long	.LASF1412
	.byte	0xc
	.byte	0x90
	.byte	0xb
	.long	0x114
	.byte	0xec
	.uleb128 0x3
	.long	.LASF1413
	.byte	0xc
	.byte	0x93
	.byte	0xe
	.long	0x2b28
	.byte	0xf0
	.uleb128 0x3
	.long	.LASF1414
	.byte	0xc
	.byte	0x96
	.byte	0xb
	.long	0x114
	.byte	0xf8
	.uleb128 0x3
	.long	.LASF1415
	.byte	0xc
	.byte	0x9a
	.byte	0xb
	.long	0x114
	.byte	0xfc
	.uleb128 0x14
	.long	.LASF1416
	.byte	0x9e
	.byte	0xb
	.long	0x114
	.value	0x100
	.uleb128 0x14
	.long	.LASF1417
	.byte	0xa1
	.byte	0xf
	.long	0x2d97
	.value	0x108
	.uleb128 0x14
	.long	.LASF1418
	.byte	0xa4
	.byte	0xe
	.long	0x8b
	.value	0x138
	.byte	0
	.uleb128 0x8
	.long	0x27fb
	.uleb128 0xd
	.long	.LASF1419
	.byte	0xa
	.value	0x11e
	.long	0x25dc
	.uleb128 0xe
	.byte	0x8
	.byte	0xb
	.byte	0x47
	.long	0x2a00
	.uleb128 0x7
	.string	"x"
	.byte	0xb
	.byte	0x49
	.byte	0xd
	.long	0x276
	.byte	0
	.uleb128 0x7
	.string	"y"
	.byte	0xb
	.byte	0x4a
	.byte	0xd
	.long	0x276
	.byte	0x4
	.byte	0
	.uleb128 0x5
	.long	.LASF1420
	.byte	0xb
	.byte	0x4c
	.byte	0x3
	.long	0x29e1
	.uleb128 0xe
	.byte	0x28
	.byte	0xb
	.byte	0x58
	.long	0x2a43
	.uleb128 0x3
	.long	.LASF1360
	.byte	0xb
	.byte	0x5a
	.byte	0x10
	.long	0x35e
	.byte	0
	.uleb128 0x7
	.string	"x"
	.byte	0xb
	.byte	0x5b
	.byte	0xe
	.long	0x276
	.byte	0x18
	.uleb128 0x7
	.string	"y"
	.byte	0xb
	.byte	0x5c
	.byte	0xe
	.long	0x276
	.byte	0x1c
	.uleb128 0x7
	.string	"z"
	.byte	0xb
	.byte	0x5d
	.byte	0xe
	.long	0x276
	.byte	0x20
	.byte	0
	.uleb128 0x5
	.long	.LASF1421
	.byte	0xb
	.byte	0x5f
	.byte	0x3
	.long	0x2a0c
	.uleb128 0xe
	.byte	0x80
	.byte	0xb
	.byte	0x65
	.long	0x2b28
	.uleb128 0x3
	.long	.LASF1422
	.byte	0xb
	.byte	0x67
	.byte	0xd
	.long	0x276
	.byte	0
	.uleb128 0x3
	.long	.LASF1423
	.byte	0xb
	.byte	0x68
	.byte	0xd
	.long	0x276
	.byte	0x4
	.uleb128 0x3
	.long	.LASF1424
	.byte	0xb
	.byte	0x69
	.byte	0xb
	.long	0x101
	.byte	0x8
	.uleb128 0x3
	.long	.LASF1425
	.byte	0xb
	.byte	0x6a
	.byte	0xb
	.long	0x101
	.byte	0xa
	.uleb128 0x3
	.long	.LASF1426
	.byte	0xb
	.byte	0x6b
	.byte	0xb
	.long	0x101
	.byte	0xc
	.uleb128 0x3
	.long	.LASF1427
	.byte	0xb
	.byte	0x6c
	.byte	0xb
	.long	0x101
	.byte	0xe
	.uleb128 0x7
	.string	"tag"
	.byte	0xb
	.byte	0x6d
	.byte	0xb
	.long	0x101
	.byte	0x10
	.uleb128 0x3
	.long	.LASF1428
	.byte	0xb
	.byte	0x70
	.byte	0xa
	.long	0x114
	.byte	0x14
	.uleb128 0x3
	.long	.LASF1429
	.byte	0xb
	.byte	0x73
	.byte	0xd
	.long	0x2b28
	.byte	0x18
	.uleb128 0x3
	.long	.LASF1430
	.byte	0xb
	.byte	0x76
	.byte	0xa
	.long	0x2b2d
	.byte	0x20
	.uleb128 0x3
	.long	.LASF1431
	.byte	0xb
	.byte	0x79
	.byte	0x11
	.long	0x2a43
	.byte	0x30
	.uleb128 0x3
	.long	.LASF1371
	.byte	0xb
	.byte	0x7c
	.byte	0xa
	.long	0x114
	.byte	0x58
	.uleb128 0x3
	.long	.LASF1432
	.byte	0xb
	.byte	0x7f
	.byte	0xd
	.long	0x2b28
	.byte	0x60
	.uleb128 0x3
	.long	.LASF1433
	.byte	0xb
	.byte	0x82
	.byte	0xb
	.long	0x11b
	.byte	0x68
	.uleb128 0x3
	.long	.LASF1434
	.byte	0xb
	.byte	0x84
	.byte	0xb
	.long	0x114
	.byte	0x70
	.uleb128 0x3
	.long	.LASF1435
	.byte	0xb
	.byte	0x85
	.byte	0x15
	.long	0x2bfc
	.byte	0x78
	.byte	0
	.uleb128 0x8
	.long	0x29d5
	.uleb128 0xa
	.long	0x114
	.long	0x2b3d
	.uleb128 0xb
	.long	0x43
	.byte	0x3
	.byte	0
	.uleb128 0x13
	.long	.LASF1436
	.byte	0x58
	.byte	0xb
	.byte	0xb3
	.long	0x2bfc
	.uleb128 0x7
	.string	"v1"
	.byte	0xb
	.byte	0xb6
	.byte	0xf
	.long	0x2cab
	.byte	0
	.uleb128 0x7
	.string	"v2"
	.byte	0xb
	.byte	0xb7
	.byte	0xf
	.long	0x2cab
	.byte	0x8
	.uleb128 0x7
	.string	"dx"
	.byte	0xb
	.byte	0xba
	.byte	0xd
	.long	0x276
	.byte	0x10
	.uleb128 0x7
	.string	"dy"
	.byte	0xb
	.byte	0xbb
	.byte	0xd
	.long	0x276
	.byte	0x14
	.uleb128 0x3
	.long	.LASF1355
	.byte	0xb
	.byte	0xbe
	.byte	0xb
	.long	0x101
	.byte	0x18
	.uleb128 0x3
	.long	.LASF1427
	.byte	0xb
	.byte	0xbf
	.byte	0xb
	.long	0x101
	.byte	0x1a
	.uleb128 0x7
	.string	"tag"
	.byte	0xb
	.byte	0xc0
	.byte	0xb
	.long	0x101
	.byte	0x1c
	.uleb128 0x3
	.long	.LASF1437
	.byte	0xb
	.byte	0xc4
	.byte	0xb
	.long	0x36a
	.byte	0x1e
	.uleb128 0x3
	.long	.LASF1438
	.byte	0xb
	.byte	0xc8
	.byte	0xd
	.long	0x2cb0
	.byte	0x24
	.uleb128 0x3
	.long	.LASF1439
	.byte	0xb
	.byte	0xcb
	.byte	0x11
	.long	0x2c9f
	.byte	0x34
	.uleb128 0x3
	.long	.LASF1440
	.byte	0xb
	.byte	0xcf
	.byte	0xf
	.long	0x2c69
	.byte	0x38
	.uleb128 0x3
	.long	.LASF1441
	.byte	0xb
	.byte	0xd0
	.byte	0xf
	.long	0x2c69
	.byte	0x40
	.uleb128 0x3
	.long	.LASF1371
	.byte	0xb
	.byte	0xd3
	.byte	0xa
	.long	0x114
	.byte	0x48
	.uleb128 0x3
	.long	.LASF1433
	.byte	0xb
	.byte	0xd6
	.byte	0xb
	.long	0x11b
	.byte	0x50
	.byte	0
	.uleb128 0x8
	.long	0x2c01
	.uleb128 0x8
	.long	0x2b3d
	.uleb128 0x5
	.long	.LASF1442
	.byte	0xb
	.byte	0x87
	.byte	0x3
	.long	0x2a4f
	.uleb128 0xe
	.byte	0x18
	.byte	0xb
	.byte	0x90
	.long	0x2c69
	.uleb128 0x3
	.long	.LASF1443
	.byte	0xb
	.byte	0x93
	.byte	0xd
	.long	0x276
	.byte	0
	.uleb128 0x3
	.long	.LASF1444
	.byte	0xb
	.byte	0x96
	.byte	0xd
	.long	0x276
	.byte	0x4
	.uleb128 0x3
	.long	.LASF1445
	.byte	0xb
	.byte	0x9a
	.byte	0xb
	.long	0x101
	.byte	0x8
	.uleb128 0x3
	.long	.LASF1446
	.byte	0xb
	.byte	0x9b
	.byte	0xb
	.long	0x101
	.byte	0xa
	.uleb128 0x3
	.long	.LASF1447
	.byte	0xb
	.byte	0x9c
	.byte	0xb
	.long	0x101
	.byte	0xc
	.uleb128 0x3
	.long	.LASF1384
	.byte	0xb
	.byte	0x9f
	.byte	0xf
	.long	0x2c69
	.byte	0x10
	.byte	0
	.uleb128 0x8
	.long	0x2c06
	.uleb128 0x5
	.long	.LASF1448
	.byte	0xb
	.byte	0xa1
	.byte	0x3
	.long	0x2c12
	.uleb128 0x9
	.long	0x84
	.byte	0xb
	.byte	0xa9
	.byte	0x1
	.long	0x2c9f
	.uleb128 0x1
	.long	.LASF1449
	.byte	0
	.uleb128 0x1
	.long	.LASF1450
	.byte	0x1
	.uleb128 0x1
	.long	.LASF1451
	.byte	0x2
	.uleb128 0x1
	.long	.LASF1452
	.byte	0x3
	.byte	0
	.uleb128 0x5
	.long	.LASF1453
	.byte	0xb
	.byte	0xaf
	.byte	0x3
	.long	0x2c7a
	.uleb128 0x8
	.long	0x2a00
	.uleb128 0xa
	.long	0x276
	.long	0x2cc0
	.uleb128 0xb
	.long	0x43
	.byte	0x3
	.byte	0
	.uleb128 0x5
	.long	.LASF1454
	.byte	0xb
	.byte	0xd7
	.byte	0x3
	.long	0x2b3d
	.uleb128 0x8
	.long	0x2c6e
	.uleb128 0x8
	.long	0x2cc0
	.uleb128 0x9
	.long	0x84
	.byte	0xd
	.byte	0x3d
	.byte	0x1
	.long	0x2cf5
	.uleb128 0x1
	.long	.LASF1455
	.byte	0
	.uleb128 0x1
	.long	.LASF1456
	.byte	0x1
	.uleb128 0x1
	.long	.LASF1457
	.byte	0x2
	.byte	0
	.uleb128 0xe
	.byte	0x18
	.byte	0xd
	.byte	0x44
	.long	0x2d30
	.uleb128 0x3
	.long	.LASF1373
	.byte	0xd
	.byte	0x46
	.byte	0xe
	.long	0x27f6
	.byte	0
	.uleb128 0x3
	.long	.LASF1189
	.byte	0xd
	.byte	0x47
	.byte	0xa
	.long	0x114
	.byte	0x8
	.uleb128 0x7
	.string	"sx"
	.byte	0xd
	.byte	0x48
	.byte	0xd
	.long	0x276
	.byte	0xc
	.uleb128 0x7
	.string	"sy"
	.byte	0xd
	.byte	0x49
	.byte	0xd
	.long	0x276
	.byte	0x10
	.byte	0
	.uleb128 0x5
	.long	.LASF1458
	.byte	0xd
	.byte	0x4b
	.byte	0x3
	.long	0x2cf5
	.uleb128 0x9
	.long	0x84
	.byte	0xc
	.byte	0x36
	.byte	0x1
	.long	0x2d5b
	.uleb128 0x1
	.long	.LASF1459
	.byte	0
	.uleb128 0x1
	.long	.LASF1460
	.byte	0x1
	.uleb128 0x1
	.long	.LASF1461
	.byte	0x2
	.byte	0
	.uleb128 0x5
	.long	.LASF1462
	.byte	0xc
	.byte	0x3e
	.byte	0x3
	.long	0x2d3c
	.uleb128 0xa
	.long	0x114
	.long	0x2d77
	.uleb128 0xb
	.long	0x43
	.byte	0x5
	.byte	0
	.uleb128 0xa
	.long	0x8b
	.long	0x2d87
	.uleb128 0xb
	.long	0x43
	.byte	0x5
	.byte	0
	.uleb128 0xa
	.long	0x8b
	.long	0x2d97
	.uleb128 0xb
	.long	0x43
	.byte	0x8
	.byte	0
	.uleb128 0xa
	.long	0x2d30
	.long	0x2da7
	.uleb128 0xb
	.long	0x43
	.byte	0x1
	.byte	0
	.uleb128 0x15
	.long	.LASF1475
	.byte	0xf
	.byte	0x61
	.byte	0x11
	.long	0x2ccc
	.uleb128 0xe
	.byte	0x14
	.byte	0xe
	.byte	0xd1
	.long	0x2de3
	.uleb128 0x3
	.long	.LASF1463
	.byte	0xe
	.byte	0xd3
	.byte	0xa
	.long	0x2de3
	.byte	0
	.uleb128 0x3
	.long	.LASF1464
	.byte	0xe
	.byte	0xd4
	.byte	0xa
	.long	0x2de3
	.byte	0x9
	.uleb128 0x3
	.long	.LASF1465
	.byte	0xe
	.byte	0xd5
	.byte	0xb
	.long	0x101
	.byte	0x12
	.byte	0
	.uleb128 0xa
	.long	0x4a
	.long	0x2df3
	.uleb128 0xb
	.long	0x43
	.byte	0x8
	.byte	0
	.uleb128 0x5
	.long	.LASF1466
	.byte	0xe
	.byte	0xd7
	.byte	0x3
	.long	0x2db3
	.uleb128 0x9
	.long	0x84
	.byte	0xe
	.byte	0xdb
	.byte	0x1
	.long	0x2e1e
	.uleb128 0x29
	.string	"top"
	.byte	0
	.uleb128 0x1
	.long	.LASF1467
	.byte	0x1
	.uleb128 0x1
	.long	.LASF1468
	.byte	0x2
	.byte	0
	.uleb128 0x5
	.long	.LASF1469
	.byte	0xe
	.byte	0xe0
	.byte	0x3
	.long	0x2dff
	.uleb128 0xe
	.byte	0x20
	.byte	0xe
	.byte	0xe3
	.long	0x2e74
	.uleb128 0x3
	.long	.LASF1470
	.byte	0xe
	.byte	0xe5
	.byte	0xd
	.long	0x2cd1
	.byte	0
	.uleb128 0x3
	.long	.LASF1471
	.byte	0xe
	.byte	0xe6
	.byte	0xe
	.long	0x2e1e
	.byte	0x8
	.uleb128 0x3
	.long	.LASF1472
	.byte	0xe
	.byte	0xe7
	.byte	0xa
	.long	0x114
	.byte	0xc
	.uleb128 0x3
	.long	.LASF1473
	.byte	0xe
	.byte	0xe8
	.byte	0xa
	.long	0x114
	.byte	0x10
	.uleb128 0x3
	.long	.LASF1431
	.byte	0xe
	.byte	0xe9
	.byte	0xd
	.long	0x2b28
	.byte	0x18
	.byte	0
	.uleb128 0x5
	.long	.LASF1474
	.byte	0xe
	.byte	0xeb
	.byte	0x3
	.long	0x2e2a
	.uleb128 0xa
	.long	0x2e74
	.long	0x2e90
	.uleb128 0xb
	.long	0x43
	.byte	0xf
	.byte	0
	.uleb128 0x15
	.long	.LASF1476
	.byte	0xe
	.byte	0xf9
	.byte	0x11
	.long	0x2e80
	.uleb128 0x10
	.long	0x84
	.byte	0xe
	.value	0x112
	.byte	0x1
	.long	0x2ec8
	.uleb128 0x1
	.long	.LASF1477
	.byte	0
	.uleb128 0x1
	.long	.LASF1478
	.byte	0x1
	.uleb128 0x1
	.long	.LASF1479
	.byte	0x2
	.uleb128 0x1
	.long	.LASF1480
	.byte	0x3
	.uleb128 0x1
	.long	.LASF1481
	.byte	0x4
	.byte	0
	.uleb128 0xd
	.long	.LASF1482
	.byte	0xe
	.value	0x119
	.long	0x2e9c
	.uleb128 0x10
	.long	0x84
	.byte	0xe
	.value	0x149
	.byte	0x1
	.long	0x2f12
	.uleb128 0x1
	.long	.LASF1483
	.byte	0
	.uleb128 0x1
	.long	.LASF1484
	.byte	0x1
	.uleb128 0x1
	.long	.LASF1485
	.byte	0x2
	.uleb128 0x1
	.long	.LASF1486
	.byte	0x3
	.uleb128 0x1
	.long	.LASF1487
	.byte	0x4
	.uleb128 0x1
	.long	.LASF1488
	.byte	0x5
	.uleb128 0x1
	.long	.LASF1489
	.byte	0x6
	.uleb128 0x1
	.long	.LASF1490
	.byte	0x7
	.byte	0
	.uleb128 0xd
	.long	.LASF1491
	.byte	0xe
	.value	0x153
	.long	0x2ed4
	.uleb128 0x10
	.long	0x84
	.byte	0xe
	.value	0x1e1
	.byte	0x1
	.long	0x2f50
	.uleb128 0x1
	.long	.LASF1492
	.byte	0
	.uleb128 0x1
	.long	.LASF1493
	.byte	0x1
	.uleb128 0x1
	.long	.LASF1494
	.byte	0x2
	.uleb128 0x1
	.long	.LASF1495
	.byte	0x3
	.uleb128 0x1
	.long	.LASF1496
	.byte	0x4
	.uleb128 0x1
	.long	.LASF1497
	.byte	0x5
	.byte	0
	.uleb128 0xd
	.long	.LASF1498
	.byte	0xe
	.value	0x1e9
	.long	0x2f1e
	.uleb128 0x10
	.long	0x84
	.byte	0xe
	.value	0x21a
	.byte	0x1
	.long	0x2fb8
	.uleb128 0x1
	.long	.LASF1499
	.byte	0
	.uleb128 0x1
	.long	.LASF1500
	.byte	0x1
	.uleb128 0x1
	.long	.LASF1501
	.byte	0x2
	.uleb128 0x1
	.long	.LASF1502
	.byte	0x3
	.uleb128 0x1
	.long	.LASF1503
	.byte	0x4
	.uleb128 0x1
	.long	.LASF1504
	.byte	0x5
	.uleb128 0x1
	.long	.LASF1505
	.byte	0x6
	.uleb128 0x1
	.long	.LASF1506
	.byte	0x7
	.uleb128 0x1
	.long	.LASF1507
	.byte	0x8
	.uleb128 0x1
	.long	.LASF1508
	.byte	0x9
	.uleb128 0x1
	.long	.LASF1509
	.byte	0xa
	.uleb128 0x1
	.long	.LASF1510
	.byte	0xb
	.uleb128 0x1
	.long	.LASF1511
	.byte	0xc
	.byte	0
	.uleb128 0xd
	.long	.LASF1512
	.byte	0xe
	.value	0x23a
	.long	0x2f5c
	.uleb128 0x10
	.long	0x84
	.byte	0xe
	.value	0x240
	.byte	0x1
	.long	0x2fde
	.uleb128 0x1
	.long	.LASF1513
	.byte	0
	.uleb128 0x1
	.long	.LASF1514
	.byte	0x1
	.byte	0
	.uleb128 0xd
	.long	.LASF1515
	.byte	0xe
	.value	0x244
	.long	0x2fc4
	.uleb128 0x9
	.long	0x84
	.byte	0x10
	.byte	0xb2
	.byte	0x1
	.long	0x328b
	.uleb128 0x1
	.long	.LASF1516
	.byte	0
	.uleb128 0x1
	.long	.LASF1517
	.byte	0x1
	.uleb128 0x1
	.long	.LASF1518
	.byte	0x2
	.uleb128 0x1
	.long	.LASF1519
	.byte	0x3
	.uleb128 0x1
	.long	.LASF1520
	.byte	0x4
	.uleb128 0x1
	.long	.LASF1521
	.byte	0x5
	.uleb128 0x1
	.long	.LASF1522
	.byte	0x6
	.uleb128 0x1
	.long	.LASF1523
	.byte	0x7
	.uleb128 0x1
	.long	.LASF1524
	.byte	0x8
	.uleb128 0x1
	.long	.LASF1525
	.byte	0x9
	.uleb128 0x1
	.long	.LASF1526
	.byte	0xa
	.uleb128 0x1
	.long	.LASF1527
	.byte	0xb
	.uleb128 0x1
	.long	.LASF1528
	.byte	0xc
	.uleb128 0x1
	.long	.LASF1529
	.byte	0xd
	.uleb128 0x1
	.long	.LASF1530
	.byte	0xe
	.uleb128 0x1
	.long	.LASF1531
	.byte	0xf
	.uleb128 0x1
	.long	.LASF1532
	.byte	0x10
	.uleb128 0x1
	.long	.LASF1533
	.byte	0x11
	.uleb128 0x1
	.long	.LASF1534
	.byte	0x12
	.uleb128 0x1
	.long	.LASF1535
	.byte	0x13
	.uleb128 0x1
	.long	.LASF1536
	.byte	0x14
	.uleb128 0x1
	.long	.LASF1537
	.byte	0x15
	.uleb128 0x1
	.long	.LASF1538
	.byte	0x16
	.uleb128 0x1
	.long	.LASF1539
	.byte	0x17
	.uleb128 0x1
	.long	.LASF1540
	.byte	0x18
	.uleb128 0x1
	.long	.LASF1541
	.byte	0x19
	.uleb128 0x1
	.long	.LASF1542
	.byte	0x1a
	.uleb128 0x1
	.long	.LASF1543
	.byte	0x1b
	.uleb128 0x1
	.long	.LASF1544
	.byte	0x1c
	.uleb128 0x1
	.long	.LASF1545
	.byte	0x1d
	.uleb128 0x1
	.long	.LASF1546
	.byte	0x1e
	.uleb128 0x1
	.long	.LASF1547
	.byte	0x1f
	.uleb128 0x1
	.long	.LASF1548
	.byte	0x20
	.uleb128 0x1
	.long	.LASF1549
	.byte	0x21
	.uleb128 0x1
	.long	.LASF1550
	.byte	0x22
	.uleb128 0x1
	.long	.LASF1551
	.byte	0x23
	.uleb128 0x1
	.long	.LASF1552
	.byte	0x24
	.uleb128 0x1
	.long	.LASF1553
	.byte	0x25
	.uleb128 0x1
	.long	.LASF1554
	.byte	0x26
	.uleb128 0x1
	.long	.LASF1555
	.byte	0x27
	.uleb128 0x1
	.long	.LASF1556
	.byte	0x28
	.uleb128 0x1
	.long	.LASF1557
	.byte	0x29
	.uleb128 0x1
	.long	.LASF1558
	.byte	0x2a
	.uleb128 0x1
	.long	.LASF1559
	.byte	0x2b
	.uleb128 0x1
	.long	.LASF1560
	.byte	0x2c
	.uleb128 0x1
	.long	.LASF1561
	.byte	0x2d
	.uleb128 0x1
	.long	.LASF1562
	.byte	0x2e
	.uleb128 0x1
	.long	.LASF1563
	.byte	0x2f
	.uleb128 0x1
	.long	.LASF1564
	.byte	0x30
	.uleb128 0x1
	.long	.LASF1565
	.byte	0x31
	.uleb128 0x1
	.long	.LASF1566
	.byte	0x32
	.uleb128 0x1
	.long	.LASF1567
	.byte	0x33
	.uleb128 0x1
	.long	.LASF1568
	.byte	0x34
	.uleb128 0x1
	.long	.LASF1569
	.byte	0x35
	.uleb128 0x1
	.long	.LASF1570
	.byte	0x36
	.uleb128 0x1
	.long	.LASF1571
	.byte	0x37
	.uleb128 0x1
	.long	.LASF1572
	.byte	0x38
	.uleb128 0x1
	.long	.LASF1573
	.byte	0x39
	.uleb128 0x1
	.long	.LASF1574
	.byte	0x3a
	.uleb128 0x1
	.long	.LASF1575
	.byte	0x3b
	.uleb128 0x1
	.long	.LASF1576
	.byte	0x3c
	.uleb128 0x1
	.long	.LASF1577
	.byte	0x3d
	.uleb128 0x1
	.long	.LASF1578
	.byte	0x3e
	.uleb128 0x1
	.long	.LASF1579
	.byte	0x3f
	.uleb128 0x1
	.long	.LASF1580
	.byte	0x40
	.uleb128 0x1
	.long	.LASF1581
	.byte	0x41
	.uleb128 0x1
	.long	.LASF1582
	.byte	0x42
	.uleb128 0x1
	.long	.LASF1583
	.byte	0x43
	.uleb128 0x1
	.long	.LASF1584
	.byte	0x44
	.uleb128 0x1
	.long	.LASF1585
	.byte	0x45
	.uleb128 0x1
	.long	.LASF1586
	.byte	0x46
	.uleb128 0x1
	.long	.LASF1587
	.byte	0x47
	.uleb128 0x1
	.long	.LASF1588
	.byte	0x48
	.uleb128 0x1
	.long	.LASF1589
	.byte	0x49
	.uleb128 0x1
	.long	.LASF1590
	.byte	0x4a
	.uleb128 0x1
	.long	.LASF1591
	.byte	0x4b
	.uleb128 0x1
	.long	.LASF1592
	.byte	0x4c
	.uleb128 0x1
	.long	.LASF1593
	.byte	0x4d
	.uleb128 0x1
	.long	.LASF1594
	.byte	0x4e
	.uleb128 0x1
	.long	.LASF1595
	.byte	0x4f
	.uleb128 0x1
	.long	.LASF1596
	.byte	0x50
	.uleb128 0x1
	.long	.LASF1597
	.byte	0x51
	.uleb128 0x1
	.long	.LASF1598
	.byte	0x52
	.uleb128 0x1
	.long	.LASF1599
	.byte	0x53
	.uleb128 0x1
	.long	.LASF1600
	.byte	0x54
	.uleb128 0x1
	.long	.LASF1601
	.byte	0x55
	.uleb128 0x1
	.long	.LASF1602
	.byte	0x56
	.uleb128 0x1
	.long	.LASF1603
	.byte	0x57
	.uleb128 0x1
	.long	.LASF1604
	.byte	0x58
	.uleb128 0x1
	.long	.LASF1605
	.byte	0x59
	.uleb128 0x1
	.long	.LASF1606
	.byte	0x5a
	.uleb128 0x1
	.long	.LASF1607
	.byte	0x5b
	.uleb128 0x1
	.long	.LASF1608
	.byte	0x5c
	.uleb128 0x1
	.long	.LASF1609
	.byte	0x5d
	.uleb128 0x1
	.long	.LASF1610
	.byte	0x5e
	.uleb128 0x1
	.long	.LASF1611
	.byte	0x5f
	.uleb128 0x1
	.long	.LASF1612
	.byte	0x60
	.uleb128 0x1
	.long	.LASF1613
	.byte	0x61
	.uleb128 0x1
	.long	.LASF1614
	.byte	0x62
	.uleb128 0x1
	.long	.LASF1615
	.byte	0x63
	.uleb128 0x1
	.long	.LASF1616
	.byte	0x64
	.uleb128 0x1
	.long	.LASF1617
	.byte	0x65
	.uleb128 0x1
	.long	.LASF1618
	.byte	0x66
	.uleb128 0x1
	.long	.LASF1619
	.byte	0x67
	.uleb128 0x1
	.long	.LASF1620
	.byte	0x68
	.uleb128 0x1
	.long	.LASF1621
	.byte	0x69
	.uleb128 0x1
	.long	.LASF1622
	.byte	0x6a
	.uleb128 0x1
	.long	.LASF1623
	.byte	0x6b
	.uleb128 0x1
	.long	.LASF1624
	.byte	0x6c
	.uleb128 0x1
	.long	.LASF1625
	.byte	0x6d
	.byte	0
	.uleb128 0x15
	.long	.LASF1626
	.byte	0x11
	.byte	0x3c
	.byte	0x13
	.long	0x162
	.uleb128 0xa
	.long	0x2df3
	.long	0x32a7
	.uleb128 0xb
	.long	0x43
	.byte	0x28
	.byte	0
	.uleb128 0x16
	.long	.LASF1627
	.byte	0x30
	.byte	0xe
	.long	0x3297
	.uleb128 0x9
	.byte	0x3
	.quad	alphSwitchList
	.uleb128 0xa
	.long	0x114
	.long	0x32cc
	.uleb128 0xb
	.long	0x43
	.byte	0x63
	.byte	0
	.uleb128 0x16
	.long	.LASF1628
	.byte	0x63
	.byte	0x6
	.long	0x32bc
	.uleb128 0x9
	.byte	0x3
	.quad	switchlist
	.uleb128 0x16
	.long	.LASF1629
	.byte	0x64
	.byte	0x6
	.long	0x114
	.uleb128 0x9
	.byte	0x3
	.quad	numswitches
	.uleb128 0x2a
	.long	0x2e90
	.byte	0x1
	.byte	0x65
	.uleb128 0x9
	.byte	0x3
	.quad	buttonlist
	.uleb128 0x17
	.long	.LASF1639
	.byte	0xe
	.byte	0xc4
	.byte	0x1
	.long	0x331e
	.uleb128 0x6
	.long	0x2cd1
	.uleb128 0x6
	.long	0x114
	.byte	0
	.uleb128 0x11
	.long	.LASF1630
	.value	0x17a
	.long	0x114
	.long	0x333d
	.uleb128 0x6
	.long	0x2cd1
	.uleb128 0x6
	.long	0x2f12
	.uleb128 0x6
	.long	0x2b28
	.byte	0
	.uleb128 0x1f
	.long	.LASF1635
	.byte	0x40
	.uleb128 0x11
	.long	.LASF1631
	.value	0x20b
	.long	0x114
	.long	0x335d
	.uleb128 0x6
	.long	0x2cd1
	.uleb128 0x6
	.long	0x2f50
	.byte	0
	.uleb128 0x11
	.long	.LASF1632
	.value	0x175
	.long	0x114
	.long	0x3377
	.uleb128 0x6
	.long	0x2cd1
	.uleb128 0x6
	.long	0x2f12
	.byte	0
	.uleb128 0x11
	.long	.LASF1633
	.value	0x271
	.long	0x114
	.long	0x3391
	.uleb128 0x6
	.long	0x2cd1
	.uleb128 0x6
	.long	0x2fb8
	.byte	0
	.uleb128 0x11
	.long	.LASF1634
	.value	0x13a
	.long	0x114
	.long	0x33b0
	.uleb128 0x6
	.long	0x2cd1
	.uleb128 0x6
	.long	0x2ec8
	.uleb128 0x6
	.long	0x114
	.byte	0
	.uleb128 0x1f
	.long	.LASF1636
	.byte	0x3f
	.uleb128 0x20
	.long	.LASF1637
	.byte	0xe
	.byte	0x75
	.long	0x114
	.long	0x33cb
	.uleb128 0x6
	.long	0x2cd1
	.byte	0
	.uleb128 0x11
	.long	.LASF1638
	.value	0x26c
	.long	0x114
	.long	0x33e5
	.uleb128 0x6
	.long	0x2cd1
	.uleb128 0x6
	.long	0x2fde
	.byte	0
	.uleb128 0x2b
	.long	.LASF1640
	.byte	0xe
	.value	0x170
	.byte	0x1
	.long	0x33fd
	.uleb128 0x6
	.long	0x2cd1
	.uleb128 0x6
	.long	0x2b28
	.byte	0
	.uleb128 0x17
	.long	.LASF1641
	.byte	0x13
	.byte	0x3b
	.byte	0x1
	.long	0x3414
	.uleb128 0x6
	.long	0x11b
	.uleb128 0x6
	.long	0x114
	.byte	0
	.uleb128 0x17
	.long	.LASF1642
	.byte	0x14
	.byte	0x59
	.byte	0x6
	.long	0x3427
	.uleb128 0x6
	.long	0x132
	.uleb128 0x1b
	.byte	0
	.uleb128 0x20
	.long	.LASF1643
	.byte	0x15
	.byte	0x36
	.long	0x114
	.long	0x343c
	.uleb128 0x6
	.long	0x132
	.byte	0
	.uleb128 0x2c
	.long	.LASF1658
	.byte	0x1
	.value	0x114
	.byte	0x1
	.long	0x8b
	.quad	.LFB3
	.quad	.LFE3-.LFB3
	.uleb128 0x1
	.byte	0x9c
	.long	0x348d
	.uleb128 0x18
	.long	.LASF1644
	.value	0x115
	.byte	0xb
	.long	0x2b28
	.uleb128 0x2
	.byte	0x91
	.sleb128 -24
	.uleb128 0x18
	.long	.LASF1470
	.value	0x116
	.byte	0xb
	.long	0x2cd1
	.uleb128 0x2
	.byte	0x91
	.sleb128 -32
	.uleb128 0x18
	.long	.LASF1645
	.value	0x117
	.byte	0x8
	.long	0x114
	.uleb128 0x2
	.byte	0x91
	.sleb128 -36
	.byte	0
	.uleb128 0x21
	.long	.LASF1652
	.byte	0xc9
	.quad	.LFB2
	.quad	.LFE2-.LFB2
	.uleb128 0x1
	.byte	0x9c
	.long	0x350a
	.uleb128 0x12
	.long	.LASF1470
	.byte	0xca
	.byte	0xb
	.long	0x2cd1
	.uleb128 0x2
	.byte	0x91
	.sleb128 -56
	.uleb128 0x12
	.long	.LASF1646
	.byte	0xcb
	.byte	0x9
	.long	0x114
	.uleb128 0x2
	.byte	0x91
	.sleb128 -60
	.uleb128 0xf
	.long	.LASF1648
	.byte	0xcd
	.byte	0xd
	.long	0x114
	.uleb128 0x2
	.byte	0x91
	.sleb128 -28
	.uleb128 0xf
	.long	.LASF1649
	.byte	0xce
	.byte	0xd
	.long	0x114
	.uleb128 0x2
	.byte	0x91
	.sleb128 -24
	.uleb128 0xf
	.long	.LASF1650
	.byte	0xcf
	.byte	0xd
	.long	0x114
	.uleb128 0x2
	.byte	0x91
	.sleb128 -20
	.uleb128 0x19
	.string	"i"
	.byte	0xd0
	.byte	0xd
	.long	0x114
	.uleb128 0x2
	.byte	0x91
	.sleb128 -36
	.uleb128 0xf
	.long	.LASF1651
	.byte	0xd1
	.byte	0xd
	.long	0x114
	.uleb128 0x2
	.byte	0x91
	.sleb128 -32
	.byte	0
	.uleb128 0x21
	.long	.LASF1653
	.byte	0x9b
	.quad	.LFB1
	.quad	.LFE1-.LFB1
	.uleb128 0x1
	.byte	0x9c
	.long	0x356a
	.uleb128 0x12
	.long	.LASF1470
	.byte	0x9c
	.byte	0xb
	.long	0x2cd1
	.uleb128 0x2
	.byte	0x91
	.sleb128 -40
	.uleb128 0x2d
	.string	"w"
	.byte	0x1
	.byte	0x9d
	.byte	0xc
	.long	0x2e1e
	.uleb128 0x2
	.byte	0x91
	.sleb128 -44
	.uleb128 0x12
	.long	.LASF1654
	.byte	0x9e
	.byte	0x8
	.long	0x114
	.uleb128 0x2
	.byte	0x91
	.sleb128 -48
	.uleb128 0x12
	.long	.LASF1655
	.byte	0x9f
	.byte	0x8
	.long	0x114
	.uleb128 0x2
	.byte	0x91
	.sleb128 -52
	.uleb128 0x19
	.string	"i"
	.byte	0xa1
	.byte	0xa
	.long	0x114
	.uleb128 0x2
	.byte	0x91
	.sleb128 -20
	.byte	0
	.uleb128 0x2e
	.long	.LASF1659
	.byte	0x1
	.byte	0x6b
	.byte	0x6
	.quad	.LFB0
	.quad	.LFE0-.LFB0
	.uleb128 0x1
	.byte	0x9c
	.uleb128 0x19
	.string	"i"
	.byte	0x6d
	.byte	0xa
	.long	0x114
	.uleb128 0x2
	.byte	0x91
	.sleb128 -44
	.uleb128 0xf
	.long	.LASF1656
	.byte	0x6e
	.byte	0xa
	.long	0x114
	.uleb128 0x2
	.byte	0x91
	.sleb128 -40
	.uleb128 0xf
	.long	.LASF1465
	.byte	0x6f
	.byte	0xa
	.long	0x114
	.uleb128 0x2
	.byte	0x91
	.sleb128 -36
	.byte	0
	.byte	0
	.section	.debug_abbrev,"",@progbits
.Ldebug_abbrev0:
	.uleb128 0x1
	.uleb128 0x28
	.byte	0
	.uleb128 0x3
	.uleb128 0xe
	.uleb128 0x1c
	.uleb128 0xb
	.byte	0
	.byte	0
	.uleb128 0x2
	.uleb128 0x28
	.byte	0
	.uleb128 0x3
	.uleb128 0xe
	.uleb128 0x1c
	.uleb128 0x5
	.byte	0
	.byte	0
	.uleb128 0x3
	.uleb128 0xd
	.byte	0
	.uleb128 0x3
	.uleb128 0xe
	.uleb128 0x3a
	.uleb128 0xb
	.uleb128 0x3b
	.uleb128 0xb
	.uleb128 0x39
	.uleb128 0xb
	.uleb128 0x49
	.uleb128 0x13
	.uleb128 0x38
	.uleb128 0xb
	.byte	0
	.byte	0
	.uleb128 0x4
	.uleb128 0xd
	.byte	0
	.uleb128 0x3
	.uleb128 0xe
	.uleb128 0x3a
	.uleb128 0xb
	.uleb128 0x3b
	.uleb128 0x5
	.uleb128 0x39
	.uleb128 0xb
	.uleb128 0x49
	.uleb128 0x13
	.uleb128 0x38
	.uleb128 0xb
	.byte	0
	.byte	0
	.uleb128 0x5
	.uleb128 0x16
	.byte	0
	.uleb128 0x3
	.uleb128 0xe
	.uleb128 0x3a
	.uleb128 0xb
	.uleb128 0x3b
	.uleb128 0xb
	.uleb128 0x39
	.uleb128 0xb
	.uleb128 0x49
	.uleb128 0x13
	.byte	0
	.byte	0
	.uleb128 0x6
	.uleb128 0x5
	.byte	0
	.uleb128 0x49
	.uleb128 0x13
	.byte	0
	.byte	0
	.uleb128 0x7
	.uleb128 0xd
	.byte	0
	.uleb128 0x3
	.uleb128 0x8
	.uleb128 0x3a
	.uleb128 0xb
	.uleb128 0x3b
	.uleb128 0xb
	.uleb128 0x39
	.uleb128 0xb
	.uleb128 0x49
	.uleb128 0x13
	.uleb128 0x38
	.uleb128 0xb
	.byte	0
	.byte	0
	.uleb128 0x8
	.uleb128 0xf
	.byte	0
	.uleb128 0xb
	.uleb128 0x21
	.sleb128 8
	.uleb128 0x49
	.uleb128 0x13
	.byte	0
	.byte	0
	.uleb128 0x9
	.uleb128 0x4
	.byte	0x1
	.uleb128 0x3e
	.uleb128 0x21
	.sleb128 7
	.uleb128 0xb
	.uleb128 0x21
	.sleb128 4
	.uleb128 0x49
	.uleb128 0x13
	.uleb128 0x3a
	.uleb128 0xb
	.uleb128 0x3b
	.uleb128 0xb
	.uleb128 0x39
	.uleb128 0xb
	.uleb128 0x1
	.uleb128 0x13
	.byte	0
	.byte	0
	.uleb128 0xa
	.uleb128 0x1
	.byte	0x1
	.uleb128 0x49
	.uleb128 0x13
	.uleb128 0x1
	.uleb128 0x13
	.byte	0
	.byte	0
	.uleb128 0xb
	.uleb128 0x21
	.byte	0
	.uleb128 0x49
	.uleb128 0x13
	.uleb128 0x2f
	.uleb128 0xb
	.byte	0
	.byte	0
	.uleb128 0xc
	.uleb128 0x24
	.byte	0
	.uleb128 0xb
	.uleb128 0xb
	.uleb128 0x3e
	.uleb128 0xb
	.uleb128 0x3
	.uleb128 0xe
	.byte	0
	.byte	0
	.uleb128 0xd
	.uleb128 0x16
	.byte	0
	.uleb128 0x3
	.uleb128 0xe
	.uleb128 0x3a
	.uleb128 0xb
	.uleb128 0x3b
	.uleb128 0x5
	.uleb128 0x39
	.uleb128 0x21
	.sleb128 3
	.uleb128 0x49
	.uleb128 0x13
	.byte	0
	.byte	0
	.uleb128 0xe
	.uleb128 0x13
	.byte	0x1
	.uleb128 0xb
	.uleb128 0xb
	.uleb128 0x3a
	.uleb128 0xb
	.uleb128 0x3b
	.uleb128 0xb
	.uleb128 0x39
	.uleb128 0x21
	.sleb128 9
	.uleb128 0x1
	.uleb128 0x13
	.byte	0
	.byte	0
	.uleb128 0xf
	.uleb128 0x34
	.byte	0
	.uleb128 0x3
	.uleb128 0xe
	.uleb128 0x3a
	.uleb128 0x21
	.sleb128 1
	.uleb128 0x3b
	.uleb128 0xb
	.uleb128 0x39
	.uleb128 0xb
	.uleb128 0x49
	.uleb128 0x13
	.uleb128 0x2
	.uleb128 0x18
	.byte	0
	.byte	0
	.uleb128 0x10
	.uleb128 0x4
	.byte	0x1
	.uleb128 0x3e
	.uleb128 0x21
	.sleb128 7
	.uleb128 0xb
	.uleb128 0x21
	.sleb128 4
	.uleb128 0x49
	.uleb128 0x13
	.uleb128 0x3a
	.uleb128 0xb
	.uleb128 0x3b
	.uleb128 0x5
	.uleb128 0x39
	.uleb128 0xb
	.uleb128 0x1
	.uleb128 0x13
	.byte	0
	.byte	0
	.uleb128 0x11
	.uleb128 0x2e
	.byte	0x1
	.uleb128 0x3f
	.uleb128 0x19
	.uleb128 0x3
	.uleb128 0xe
	.uleb128 0x3a
	.uleb128 0x21
	.sleb128 14
	.uleb128 0x3b
	.uleb128 0x5
	.uleb128 0x39
	.uleb128 0x21
	.sleb128 1
	.uleb128 0x27
	.uleb128 0x19
	.uleb128 0x49
	.uleb128 0x13
	.uleb128 0x3c
	.uleb128 0x19
	.uleb128 0x1
	.uleb128 0x13
	.byte	0
	.byte	0
	.uleb128 0x12
	.uleb128 0x5
	.byte	0
	.uleb128 0x3
	.uleb128 0xe
	.uleb128 0x3a
	.uleb128 0x21
	.sleb128 1
	.uleb128 0x3b
	.uleb128 0xb
	.uleb128 0x39
	.uleb128 0xb
	.uleb128 0x49
	.uleb128 0x13
	.uleb128 0x2
	.uleb128 0x18
	.byte	0
	.byte	0
	.uleb128 0x13
	.uleb128 0x13
	.byte	0x1
	.uleb128 0x3
	.uleb128 0xe
	.uleb128 0xb
	.uleb128 0xb
	.uleb128 0x3a
	.uleb128 0xb
	.uleb128 0x3b
	.uleb128 0xb
	.uleb128 0x39
	.uleb128 0x21
	.sleb128 16
	.uleb128 0x1
	.uleb128 0x13
	.byte	0
	.byte	0
	.uleb128 0x14
	.uleb128 0xd
	.byte	0
	.uleb128 0x3
	.uleb128 0xe
	.uleb128 0x3a
	.uleb128 0x21
	.sleb128 12
	.uleb128 0x3b
	.uleb128 0xb
	.uleb128 0x39
	.uleb128 0xb
	.uleb128 0x49
	.uleb128 0x13
	.uleb128 0x38
	.uleb128 0x5
	.byte	0
	.byte	0
	.uleb128 0x15
	.uleb128 0x34
	.byte	0
	.uleb128 0x3
	.uleb128 0xe
	.uleb128 0x3a
	.uleb128 0xb
	.uleb128 0x3b
	.uleb128 0xb
	.uleb128 0x39
	.uleb128 0xb
	.uleb128 0x49
	.uleb128 0x13
	.uleb128 0x3f
	.uleb128 0x19
	.uleb128 0x3c
	.uleb128 0x19
	.byte	0
	.byte	0
	.uleb128 0x16
	.uleb128 0x34
	.byte	0
	.uleb128 0x3
	.uleb128 0xe
	.uleb128 0x3a
	.uleb128 0x21
	.sleb128 1
	.uleb128 0x3b
	.uleb128 0xb
	.uleb128 0x39
	.uleb128 0xb
	.uleb128 0x49
	.uleb128 0x13
	.uleb128 0x3f
	.uleb128 0x19
	.uleb128 0x2
	.uleb128 0x18
	.byte	0
	.byte	0
	.uleb128 0x17
	.uleb128 0x2e
	.byte	0x1
	.uleb128 0x3f
	.uleb128 0x19
	.uleb128 0x3
	.uleb128 0xe
	.uleb128 0x3a
	.uleb128 0xb
	.uleb128 0x3b
	.uleb128 0xb
	.uleb128 0x39
	.uleb128 0xb
	.uleb128 0x27
	.uleb128 0x19
	.uleb128 0x3c
	.uleb128 0x19
	.uleb128 0x1
	.uleb128 0x13
	.byte	0
	.byte	0
	.uleb128 0x18
	.uleb128 0x5
	.byte	0
	.uleb128 0x3
	.uleb128 0xe
	.uleb128 0x3a
	.uleb128 0x21
	.sleb128 1
	.uleb128 0x3b
	.uleb128 0x5
	.uleb128 0x39
	.uleb128 0xb
	.uleb128 0x49
	.uleb128 0x13
	.uleb128 0x2
	.uleb128 0x18
	.byte	0
	.byte	0
	.uleb128 0x19
	.uleb128 0x34
	.byte	0
	.uleb128 0x3
	.uleb128 0x8
	.uleb128 0x3a
	.uleb128 0x21
	.sleb128 1
	.uleb128 0x3b
	.uleb128 0xb
	.uleb128 0x39
	.uleb128 0xb
	.uleb128 0x49
	.uleb128 0x13
	.uleb128 0x2
	.uleb128 0x18
	.byte	0
	.byte	0
	.uleb128 0x1a
	.uleb128 0x26
	.byte	0
	.uleb128 0x49
	.uleb128 0x13
	.byte	0
	.byte	0
	.uleb128 0x1b
	.uleb128 0x18
	.byte	0
	.byte	0
	.byte	0
	.uleb128 0x1c
	.uleb128 0x15
	.byte	0x1
	.uleb128 0x27
	.uleb128 0x19
	.uleb128 0x1
	.uleb128 0x13
	.byte	0
	.byte	0
	.uleb128 0x1d
	.uleb128 0xd
	.byte	0
	.uleb128 0x3
	.uleb128 0xe
	.uleb128 0x3a
	.uleb128 0x21
	.sleb128 7
	.uleb128 0x3b
	.uleb128 0xb
	.uleb128 0x39
	.uleb128 0x21
	.sleb128 14
	.uleb128 0x49
	.uleb128 0x13
	.byte	0
	.byte	0
	.uleb128 0x1e
	.uleb128 0x13
	.byte	0x1
	.uleb128 0xb
	.uleb128 0xb
	.uleb128 0x3a
	.uleb128 0x21
	.sleb128 9
	.uleb128 0x3b
	.uleb128 0x5
	.uleb128 0x39
	.uleb128 0x21
	.sleb128 9
	.uleb128 0x1
	.uleb128 0x13
	.byte	0
	.byte	0
	.uleb128 0x1f
	.uleb128 0x2e
	.byte	0
	.uleb128 0x3f
	.uleb128 0x19
	.uleb128 0x3
	.uleb128 0xe
	.uleb128 0x3a
	.uleb128 0x21
	.sleb128 18
	.uleb128 0x3b
	.uleb128 0xb
	.uleb128 0x39
	.uleb128 0x21
	.sleb128 6
	.uleb128 0x27
	.uleb128 0x19
	.uleb128 0x3c
	.uleb128 0x19
	.byte	0
	.byte	0
	.uleb128 0x20
	.uleb128 0x2e
	.byte	0x1
	.uleb128 0x3f
	.uleb128 0x19
	.uleb128 0x3
	.uleb128 0xe
	.uleb128 0x3a
	.uleb128 0xb
	.uleb128 0x3b
	.uleb128 0xb
	.uleb128 0x39
	.uleb128 0x21
	.sleb128 5
	.uleb128 0x27
	.uleb128 0x19
	.uleb128 0x49
	.uleb128 0x13
	.uleb128 0x3c
	.uleb128 0x19
	.uleb128 0x1
	.uleb128 0x13
	.byte	0
	.byte	0
	.uleb128 0x21
	.uleb128 0x2e
	.byte	0x1
	.uleb128 0x3f
	.uleb128 0x19
	.uleb128 0x3
	.uleb128 0xe
	.uleb128 0x3a
	.uleb128 0x21
	.sleb128 1
	.uleb128 0x3b
	.uleb128 0xb
	.uleb128 0x39
	.uleb128 0x21
	.sleb128 1
	.uleb128 0x27
	.uleb128 0x19
	.uleb128 0x11
	.uleb128 0x1
	.uleb128 0x12
	.uleb128 0x7
	.uleb128 0x40
	.uleb128 0x18
	.uleb128 0x7c
	.uleb128 0x19
	.uleb128 0x1
	.uleb128 0x13
	.byte	0
	.byte	0
	.uleb128 0x22
	.uleb128 0x11
	.byte	0x1
	.uleb128 0x25
	.uleb128 0xe
	.uleb128 0x13
	.uleb128 0xb
	.uleb128 0x3
	.uleb128 0x1f
	.uleb128 0x1b
	.uleb128 0x1f
	.uleb128 0x11
	.uleb128 0x1
	.uleb128 0x12
	.uleb128 0x7
	.uleb128 0x10
	.uleb128 0x17
	.byte	0
	.byte	0
	.uleb128 0x23
	.uleb128 0x24
	.byte	0
	.uleb128 0xb
	.uleb128 0xb
	.uleb128 0x3e
	.uleb128 0xb
	.uleb128 0x3
	.uleb128 0x8
	.byte	0
	.byte	0
	.uleb128 0x24
	.uleb128 0xf
	.byte	0
	.uleb128 0xb
	.uleb128 0xb
	.byte	0
	.byte	0
	.uleb128 0x25
	.uleb128 0x15
	.byte	0x1
	.uleb128 0x1
	.uleb128 0x13
	.byte	0
	.byte	0
	.uleb128 0x26
	.uleb128 0x17
	.byte	0x1
	.uleb128 0xb
	.uleb128 0xb
	.uleb128 0x3a
	.uleb128 0xb
	.uleb128 0x3b
	.uleb128 0xb
	.uleb128 0x39
	.uleb128 0xb
	.uleb128 0x1
	.uleb128 0x13
	.byte	0
	.byte	0
	.uleb128 0x27
	.uleb128 0xd
	.byte	0
	.uleb128 0x3
	.uleb128 0x8
	.uleb128 0x3a
	.uleb128 0xb
	.uleb128 0x3b
	.uleb128 0xb
	.uleb128 0x39
	.uleb128 0xb
	.uleb128 0x49
	.uleb128 0x13
	.byte	0
	.byte	0
	.uleb128 0x28
	.uleb128 0x13
	.byte	0x1
	.uleb128 0x3
	.uleb128 0xe
	.uleb128 0xb
	.uleb128 0x5
	.uleb128 0x3a
	.uleb128 0xb
	.uleb128 0x3b
	.uleb128 0xb
	.uleb128 0x39
	.uleb128 0xb
	.uleb128 0x1
	.uleb128 0x13
	.byte	0
	.byte	0
	.uleb128 0x29
	.uleb128 0x28
	.byte	0
	.uleb128 0x3
	.uleb128 0x8
	.uleb128 0x1c
	.uleb128 0xb
	.byte	0
	.byte	0
	.uleb128 0x2a
	.uleb128 0x34
	.byte	0
	.uleb128 0x47
	.uleb128 0x13
	.uleb128 0x3a
	.uleb128 0xb
	.uleb128 0x3b
	.uleb128 0xb
	.uleb128 0x2
	.uleb128 0x18
	.byte	0
	.byte	0
	.uleb128 0x2b
	.uleb128 0x2e
	.byte	0x1
	.uleb128 0x3f
	.uleb128 0x19
	.uleb128 0x3
	.uleb128 0xe
	.uleb128 0x3a
	.uleb128 0xb
	.uleb128 0x3b
	.uleb128 0x5
	.uleb128 0x39
	.uleb128 0xb
	.uleb128 0x27
	.uleb128 0x19
	.uleb128 0x3c
	.uleb128 0x19
	.uleb128 0x1
	.uleb128 0x13
	.byte	0
	.byte	0
	.uleb128 0x2c
	.uleb128 0x2e
	.byte	0x1
	.uleb128 0x3f
	.uleb128 0x19
	.uleb128 0x3
	.uleb128 0xe
	.uleb128 0x3a
	.uleb128 0xb
	.uleb128 0x3b
	.uleb128 0x5
	.uleb128 0x39
	.uleb128 0xb
	.uleb128 0x27
	.uleb128 0x19
	.uleb128 0x49
	.uleb128 0x13
	.uleb128 0x11
	.uleb128 0x1
	.uleb128 0x12
	.uleb128 0x7
	.uleb128 0x40
	.uleb128 0x18
	.uleb128 0x7c
	.uleb128 0x19
	.uleb128 0x1
	.uleb128 0x13
	.byte	0
	.byte	0
	.uleb128 0x2d
	.uleb128 0x5
	.byte	0
	.uleb128 0x3
	.uleb128 0x8
	.uleb128 0x3a
	.uleb128 0xb
	.uleb128 0x3b
	.uleb128 0xb
	.uleb128 0x39
	.uleb128 0xb
	.uleb128 0x49
	.uleb128 0x13
	.uleb128 0x2
	.uleb128 0x18
	.byte	0
	.byte	0
	.uleb128 0x2e
	.uleb128 0x2e
	.byte	0x1
	.uleb128 0x3f
	.uleb128 0x19
	.uleb128 0x3
	.uleb128 0xe
	.uleb128 0x3a
	.uleb128 0xb
	.uleb128 0x3b
	.uleb128 0xb
	.uleb128 0x39
	.uleb128 0xb
	.uleb128 0x27
	.uleb128 0x19
	.uleb128 0x11
	.uleb128 0x1
	.uleb128 0x12
	.uleb128 0x7
	.uleb128 0x40
	.uleb128 0x18
	.uleb128 0x7c
	.uleb128 0x19
	.byte	0
	.byte	0
	.byte	0
	.section	.debug_aranges,"",@progbits
	.long	0x2c
	.value	0x2
	.long	.Ldebug_info0
	.byte	0x8
	.byte	0
	.value	0
	.value	0
	.quad	.Ltext0
	.quad	.Letext0-.Ltext0
	.quad	0
	.quad	0
	.section	.debug_line,"",@progbits
.Ldebug_line0:
	.section	.debug_str,"MS",@progbits,1
.LASF855:
	.string	"S_BSPI_RUN3"
.LASF856:
	.string	"S_BSPI_RUN4"
.LASF857:
	.string	"S_BSPI_RUN5"
.LASF858:
	.string	"S_BSPI_RUN6"
.LASF859:
	.string	"S_BSPI_RUN7"
.LASF860:
	.string	"S_BSPI_RUN8"
.LASF861:
	.string	"S_BSPI_RUN9"
.LASF1560:
	.string	"sfx_cybsit"
.LASF145:
	.string	"SPR_YSKU"
.LASF1526:
	.string	"sfx_sawup"
.LASF1413:
	.string	"attacker"
.LASF508:
	.string	"S_FIRE10"
.LASF509:
	.string	"S_FIRE11"
.LASF510:
	.string	"S_FIRE12"
.LASF511:
	.string	"S_FIRE13"
.LASF512:
	.string	"S_FIRE14"
.LASF513:
	.string	"S_FIRE15"
.LASF514:
	.string	"S_FIRE16"
.LASF515:
	.string	"S_FIRE17"
.LASF516:
	.string	"S_FIRE18"
.LASF517:
	.string	"S_FIRE19"
.LASF1329:
	.string	"MT_MISC84"
.LASF1262:
	.string	"MT_MISC20"
.LASF1076:
	.string	"S_MEGA2"
.LASF1077:
	.string	"S_MEGA3"
.LASF1078:
	.string	"S_MEGA4"
.LASF1266:
	.string	"MT_MISC24"
.LASF1267:
	.string	"MT_MISC25"
.LASF1269:
	.string	"MT_MISC26"
.LASF1270:
	.string	"MT_MISC27"
.LASF1271:
	.string	"MT_MISC28"
.LASF1274:
	.string	"MT_MISC29"
.LASF707:
	.string	"S_SARG_PAIN2"
.LASF1378:
	.string	"threshold"
.LASF35:
	.string	"wp_pistol"
.LASF186:
	.string	"SPR_COL1"
.LASF187:
	.string	"SPR_COL2"
.LASF188:
	.string	"SPR_COL3"
.LASF189:
	.string	"SPR_COL4"
.LASF198:
	.string	"SPR_COL5"
.LASF192:
	.string	"SPR_COL6"
.LASF1655:
	.string	"time"
.LASF1622:
	.string	"sfx_skesit"
.LASF1603:
	.string	"sfx_tink"
.LASF518:
	.string	"S_FIRE20"
.LASF519:
	.string	"S_FIRE21"
.LASF520:
	.string	"S_FIRE22"
.LASF521:
	.string	"S_FIRE23"
.LASF522:
	.string	"S_FIRE24"
.LASF172:
	.string	"SPR_COLU"
.LASF524:
	.string	"S_FIRE26"
.LASF525:
	.string	"S_FIRE27"
.LASF526:
	.string	"S_FIRE28"
.LASF527:
	.string	"S_FIRE29"
.LASF1275:
	.string	"MT_MISC30"
.LASF1190:
	.string	"action"
.LASF1277:
	.string	"MT_MISC32"
.LASF1278:
	.string	"MT_MISC33"
.LASF869:
	.string	"S_BSPI_PAIN"
.LASF1280:
	.string	"MT_MISC35"
.LASF341:
	.string	"S_BFGEXP"
.LASF49:
	.string	"am_misl"
.LASF1283:
	.string	"MT_MISC38"
.LASF1284:
	.string	"MT_MISC39"
.LASF1494:
	.string	"lowerAndCrush"
.LASF1424:
	.string	"floorpic"
.LASF871:
	.string	"S_BSPI_DIE1"
.LASF1457:
	.string	"NUMPSPRITES"
.LASF876:
	.string	"S_BSPI_DIE6"
.LASF1609:
	.string	"sfx_getpow"
.LASF1451:
	.string	"ST_POSITIVE"
.LASF1389:
	.string	"viewz"
.LASF1445:
	.string	"toptexture"
.LASF767:
	.string	"S_BOSS_RAISE1"
.LASF768:
	.string	"S_BOSS_RAISE2"
.LASF1209:
	.string	"MT_HEAD"
.LASF769:
	.string	"S_BOSS_RAISE3"
.LASF528:
	.string	"S_FIRE30"
.LASF673:
	.string	"S_TROO_PAIN"
.LASF962:
	.string	"S_SSWV_DIE1"
.LASF772:
	.string	"S_BOSS_RAISE6"
.LASF964:
	.string	"S_SSWV_DIE3"
.LASF965:
	.string	"S_SSWV_DIE4"
.LASF966:
	.string	"S_SSWV_DIE5"
.LASF140:
	.string	"SPR_BKEY"
.LASF784:
	.string	"S_BOS2_ATK1"
.LASF785:
	.string	"S_BOS2_ATK2"
.LASF786:
	.string	"S_BOS2_ATK3"
.LASF174:
	.string	"SPR_GOR1"
.LASF181:
	.string	"SPR_GOR2"
.LASF182:
	.string	"SPR_GOR3"
.LASF183:
	.string	"SPR_GOR4"
.LASF184:
	.string	"SPR_GOR5"
.LASF1287:
	.string	"MT_MISC42"
.LASF1288:
	.string	"MT_MISC43"
.LASF541:
	.string	"S_SKEL_RUN1"
.LASF542:
	.string	"S_SKEL_RUN2"
.LASF543:
	.string	"S_SKEL_RUN3"
.LASF544:
	.string	"S_SKEL_RUN4"
.LASF545:
	.string	"S_SKEL_RUN5"
.LASF546:
	.string	"S_SKEL_RUN6"
.LASF547:
	.string	"S_SKEL_RUN7"
.LASF548:
	.string	"S_SKEL_RUN8"
.LASF549:
	.string	"S_SKEL_RUN9"
.LASF38:
	.string	"wp_missile"
.LASF1027:
	.string	"S_BEXP2"
.LASF1337:
	.string	"seestate"
.LASF722:
	.string	"S_HEAD_ATK1"
.LASF723:
	.string	"S_HEAD_ATK2"
.LASF724:
	.string	"S_HEAD_ATK3"
.LASF1439:
	.string	"slopetype"
.LASF976:
	.string	"S_SSWV_RAISE1"
.LASF977:
	.string	"S_SSWV_RAISE2"
.LASF978:
	.string	"S_SSWV_RAISE3"
.LASF979:
	.string	"S_SSWV_RAISE4"
.LASF980:
	.string	"S_SSWV_RAISE5"
.LASF74:
	.string	"angle"
.LASF1204:
	.string	"MT_FATSHOT"
.LASF160:
	.string	"SPR_CELL"
.LASF161:
	.string	"SPR_CELP"
.LASF1142:
	.string	"S_HEARTCOL"
.LASF1385:
	.string	"numlines"
.LASF1059:
	.string	"S_MEDI"
.LASF1066:
	.string	"S_PINV"
.LASF1253:
	.string	"MT_INS"
.LASF1296:
	.string	"MT_MISC51"
.LASF1297:
	.string	"MT_MISC52"
.LASF1251:
	.string	"MT_INV"
.LASF1299:
	.string	"MT_MISC54"
.LASF1156:
	.string	"S_BTORCHSHRT"
.LASF277:
	.string	"S_MISSILEUP"
.LASF1302:
	.string	"MT_MISC57"
.LASF1303:
	.string	"MT_MISC58"
.LASF1304:
	.string	"MT_MISC59"
.LASF1633:
	.string	"EV_DoFloor"
.LASF1473:
	.string	"btimer"
.LASF454:
	.string	"S_SPOS_RAISE1"
.LASF1467:
	.string	"middle"
.LASF1520:
	.string	"sfx_dshtgn"
.LASF1640:
	.string	"EV_VerticalDoor"
.LASF248:
	.string	"S_SGUNFLASH1"
.LASF249:
	.string	"S_SGUNFLASH2"
.LASF796:
	.string	"S_BOS2_RAISE1"
.LASF797:
	.string	"S_BOS2_RAISE2"
.LASF798:
	.string	"S_BOS2_RAISE3"
.LASF799:
	.string	"S_BOS2_RAISE4"
.LASF800:
	.string	"S_BOS2_RAISE5"
.LASF801:
	.string	"S_BOS2_RAISE6"
.LASF802:
	.string	"S_BOS2_RAISE7"
.LASF561:
	.string	"S_SKEL_PAIN"
.LASF1048:
	.string	"S_RKEY"
.LASF71:
	.string	"next"
.LASF1641:
	.string	"S_StartSound"
.LASF1532:
	.string	"sfx_firsht"
.LASF1524:
	.string	"sfx_plasma"
.LASF230:
	.string	"S_PISTOLUP"
.LASF916:
	.string	"S_CYBER_DIE8"
.LASF1630:
	.string	"EV_DoLockedDoor"
.LASF1444:
	.string	"rowoffset"
.LASF1305:
	.string	"MT_MISC60"
.LASF1306:
	.string	"MT_MISC61"
.LASF1307:
	.string	"MT_MISC62"
.LASF1308:
	.string	"MT_MISC63"
.LASF1309:
	.string	"MT_MISC64"
.LASF1310:
	.string	"MT_MISC65"
.LASF1311:
	.string	"MT_MISC66"
.LASF1312:
	.string	"MT_MISC67"
.LASF345:
	.string	"S_EXPLODE1"
.LASF346:
	.string	"S_EXPLODE2"
.LASF347:
	.string	"S_EXPLODE3"
.LASF1615:
	.string	"sfx_manatk"
.LASF536:
	.string	"S_TRACEEXP1"
.LASF537:
	.string	"S_TRACEEXP2"
.LASF538:
	.string	"S_TRACEEXP3"
.LASF924:
	.string	"S_PAIN_RUN5"
.LASF1026:
	.string	"S_BEXP"
.LASF925:
	.string	"S_PAIN_RUN6"
.LASF1414:
	.string	"extralight"
.LASF1462:
	.string	"playerstate_t"
.LASF1143:
	.string	"S_HEARTCOL2"
.LASF322:
	.string	"S_RBALLX1"
.LASF1523:
	.string	"sfx_dbload"
.LASF1351:
	.string	"height"
.LASF1236:
	.string	"MT_TELEPORTMAN"
.LASF1315:
	.string	"MT_MISC70"
.LASF105:
	.string	"SPR_IFOG"
.LASF1317:
	.string	"MT_MISC72"
.LASF1318:
	.string	"MT_MISC73"
.LASF1319:
	.string	"MT_MISC74"
.LASF1320:
	.string	"MT_MISC75"
.LASF1321:
	.string	"MT_MISC76"
.LASF1149:
	.string	"S_GREENTORCH2"
.LASF1150:
	.string	"S_GREENTORCH3"
.LASF1151:
	.string	"S_GREENTORCH4"
.LASF1498:
	.string	"ceiling_e"
.LASF990:
	.string	"S_COMMKEEN9"
.LASF1488:
	.string	"blazeRaise"
.LASF639:
	.string	"S_CPOS_PAIN2"
.LASF862:
	.string	"S_BSPI_RUN10"
.LASF863:
	.string	"S_BSPI_RUN11"
.LASF864:
	.string	"S_BSPI_RUN12"
.LASF946:
	.string	"S_SSWV_RUN1"
.LASF947:
	.string	"S_SSWV_RUN2"
.LASF948:
	.string	"S_SSWV_RUN3"
.LASF949:
	.string	"S_SSWV_RUN4"
.LASF950:
	.string	"S_SSWV_RUN5"
.LASF951:
	.string	"S_SSWV_RUN6"
.LASF952:
	.string	"S_SSWV_RUN7"
.LASF953:
	.string	"S_SSWV_RUN8"
.LASF1131:
	.string	"S_SKULLCOL"
.LASF1203:
	.string	"MT_FATSO"
.LASF675:
	.string	"S_TROO_DIE1"
.LASF676:
	.string	"S_TROO_DIE2"
.LASF677:
	.string	"S_TROO_DIE3"
.LASF678:
	.string	"S_TROO_DIE4"
.LASF679:
	.string	"S_TROO_DIE5"
.LASF21:
	.string	"shareware"
.LASF1056:
	.string	"S_YSKULL"
.LASF1057:
	.string	"S_YSKULL2"
.LASF158:
	.string	"SPR_ROCK"
.LASF1228:
	.string	"MT_ROCKET"
.LASF1326:
	.string	"MT_MISC81"
.LASF1327:
	.string	"MT_MISC82"
.LASF1328:
	.string	"MT_MISC83"
.LASF634:
	.string	"S_CPOS_ATK1"
.LASF635:
	.string	"S_CPOS_ATK2"
.LASF636:
	.string	"S_CPOS_ATK3"
.LASF637:
	.string	"S_CPOS_ATK4"
.LASF1195:
	.string	"MT_PLAYER"
.LASF170:
	.string	"SPR_SHOT"
.LASF363:
	.string	"S_IFOG2"
.LASF364:
	.string	"S_IFOG3"
.LASF365:
	.string	"S_IFOG4"
.LASF366:
	.string	"S_IFOG5"
.LASF99:
	.string	"SPR_PLSE"
.LASF91:
	.string	"SPR_PLSF"
.LASF90:
	.string	"SPR_PLSG"
.LASF759:
	.string	"S_BOSS_PAIN2"
.LASF459:
	.string	"S_VILE_STND"
.LASF987:
	.string	"S_COMMKEEN6"
.LASF988:
	.string	"S_COMMKEEN7"
.LASF989:
	.string	"S_COMMKEEN8"
.LASF98:
	.string	"SPR_PLSS"
.LASF838:
	.string	"S_SPID_PAIN2"
.LASF1550:
	.string	"sfx_oof"
.LASF1352:
	.string	"mass"
.LASF1591:
	.string	"sfx_posact"
.LASF1650:
	.string	"texBot"
.LASF1631:
	.string	"EV_DoCeiling"
.LASF211:
	.string	"SPR_POB1"
.LASF212:
	.string	"SPR_POB2"
.LASF1507:
	.string	"raiseFloor24AndChange"
.LASF1060:
	.string	"S_SOUL"
.LASF1582:
	.string	"sfx_skldth"
.LASF1070:
	.string	"S_PSTR"
.LASF902:
	.string	"S_CYBER_ATK1"
.LASF903:
	.string	"S_CYBER_ATK2"
.LASF904:
	.string	"S_CYBER_ATK3"
.LASF905:
	.string	"S_CYBER_ATK4"
.LASF906:
	.string	"S_CYBER_ATK5"
.LASF907:
	.string	"S_CYBER_ATK6"
.LASF1097:
	.string	"S_BFUG"
.LASF137:
	.string	"SPR_FCAN"
.LASF1454:
	.string	"line_t"
.LASF580:
	.string	"S_FATT_STND"
.LASF1017:
	.string	"S_BRAINEXPLODE1"
.LASF1018:
	.string	"S_BRAINEXPLODE2"
.LASF1019:
	.string	"S_BRAINEXPLODE3"
.LASF301:
	.string	"S_BFGUP"
.LASF142:
	.string	"SPR_YKEY"
.LASF688:
	.string	"S_TROO_RAISE1"
.LASF689:
	.string	"S_TROO_RAISE2"
.LASF690:
	.string	"S_TROO_RAISE3"
.LASF691:
	.string	"S_TROO_RAISE4"
.LASF692:
	.string	"S_TROO_RAISE5"
.LASF1101:
	.string	"S_PLAS"
.LASF983:
	.string	"S_COMMKEEN2"
.LASF984:
	.string	"S_COMMKEEN3"
.LASF985:
	.string	"S_COMMKEEN4"
.LASF986:
	.string	"S_COMMKEEN5"
.LASF367:
	.string	"S_PLAY"
.LASF933:
	.string	"S_PAIN_DIE2"
.LASF934:
	.string	"S_PAIN_DIE3"
.LASF935:
	.string	"S_PAIN_DIE4"
.LASF936:
	.string	"S_PAIN_DIE5"
.LASF937:
	.string	"S_PAIN_DIE6"
.LASF1206:
	.string	"MT_TROOP"
.LASF488:
	.string	"S_VILE_PAIN2"
.LASF616:
	.string	"S_FATT_RAISE1"
.LASF39:
	.string	"wp_plasma"
.LASF618:
	.string	"S_FATT_RAISE3"
.LASF619:
	.string	"S_FATT_RAISE4"
.LASF620:
	.string	"S_FATT_RAISE5"
.LASF621:
	.string	"S_FATT_RAISE6"
.LASF622:
	.string	"S_FATT_RAISE7"
.LASF623:
	.string	"S_FATT_RAISE8"
.LASF332:
	.string	"S_ROCKET"
.LASF1227:
	.string	"MT_HEADSHOT"
.LASF1434:
	.string	"linecount"
.LASF1659:
	.string	"P_InitSwitchList"
.LASF1437:
	.string	"sidenum"
.LASF885:
	.string	"S_ARACH_PLAZ"
.LASF1124:
	.string	"S_STALAGTITE"
.LASF726:
	.string	"S_HEAD_PAIN2"
.LASF727:
	.string	"S_HEAD_PAIN3"
.LASF8:
	.string	"byte"
.LASF1469:
	.string	"bwhere_e"
.LASF32:
	.string	"it_redskull"
.LASF20:
	.string	"long int"
.LASF1592:
	.string	"sfx_bgact"
.LASF1234:
	.string	"MT_TFOG"
.LASF435:
	.string	"S_SPOS_ATK1"
.LASF436:
	.string	"S_SPOS_ATK2"
.LASF437:
	.string	"S_SPOS_ATK3"
.LASF372:
	.string	"S_PLAY_ATK1"
.LASF373:
	.string	"S_PLAY_ATK2"
.LASF125:
	.string	"SPR_APLS"
.LASF1656:
	.string	"index"
.LASF1406:
	.string	"refire"
.LASF1653:
	.string	"P_StartButton"
.LASF1153:
	.string	"S_REDTORCH2"
.LASF1154:
	.string	"S_REDTORCH3"
.LASF1155:
	.string	"S_REDTORCH4"
.LASF662:
	.string	"S_TROO_RUN1"
.LASF663:
	.string	"S_TROO_RUN2"
.LASF664:
	.string	"S_TROO_RUN3"
.LASF665:
	.string	"S_TROO_RUN4"
.LASF666:
	.string	"S_TROO_RUN5"
.LASF667:
	.string	"S_TROO_RUN6"
.LASF668:
	.string	"S_TROO_RUN7"
.LASF669:
	.string	"S_TROO_RUN8"
.LASF1616:
	.string	"sfx_mandth"
.LASF116:
	.string	"SPR_CPOS"
.LASF577:
	.string	"S_FATSHOTX1"
.LASF578:
	.string	"S_FATSHOTX2"
.LASF579:
	.string	"S_FATSHOTX3"
.LASF657:
	.string	"S_CPOS_RAISE5"
.LASF658:
	.string	"S_CPOS_RAISE6"
.LASF659:
	.string	"S_CPOS_RAISE7"
.LASF1482:
	.string	"plattype_e"
.LASF34:
	.string	"wp_fist"
.LASF1345:
	.string	"missilestate"
.LASF146:
	.string	"SPR_STIM"
.LASF1487:
	.string	"raiseIn5Mins"
.LASF693:
	.string	"S_SARG_STND"
.LASF918:
	.string	"S_CYBER_DIE10"
.LASF96:
	.string	"SPR_BAL1"
.LASF97:
	.string	"SPR_BAL2"
.LASF119:
	.string	"SPR_BAL7"
.LASF1372:
	.string	"info"
.LASF1586:
	.string	"sfx_bspdth"
.LASF1112:
	.string	"S_HEADSONSTICK"
.LASF1621:
	.string	"sfx_skeact"
.LASF1367:
	.string	"ceilingz"
.LASF1617:
	.string	"sfx_sssit"
.LASF569:
	.string	"S_SKEL_RAISE1"
.LASF84:
	.string	"SPR_SHT2"
.LASF223:
	.string	"S_PUNCH1"
.LASF224:
	.string	"S_PUNCH2"
.LASF225:
	.string	"S_PUNCH3"
.LASF226:
	.string	"S_PUNCH4"
.LASF227:
	.string	"S_PUNCH5"
.LASF586:
	.string	"S_FATT_RUN5"
.LASF222:
	.string	"S_PUNCHUP"
.LASF1466:
	.string	"switchlist_t"
.LASF839:
	.string	"S_SPID_DIE1"
.LASF590:
	.string	"S_FATT_RUN9"
.LASF841:
	.string	"S_SPID_DIE3"
.LASF842:
	.string	"S_SPID_DIE4"
.LASF83:
	.string	"SPR_SHTF"
.LASF79:
	.string	"SPR_SHTG"
.LASF361:
	.string	"S_IFOG01"
.LASF362:
	.string	"S_IFOG02"
.LASF847:
	.string	"S_SPID_DIE9"
.LASF1089:
	.string	"S_AMMO"
.LASF1629:
	.string	"numswitches"
.LASF50:
	.string	"NUMAMMO"
.LASF920:
	.string	"S_PAIN_RUN1"
.LASF921:
	.string	"S_PAIN_RUN2"
.LASF922:
	.string	"S_PAIN_RUN3"
.LASF923:
	.string	"S_PAIN_RUN4"
.LASF205:
	.string	"SPR_HDB1"
.LASF206:
	.string	"SPR_HDB2"
.LASF207:
	.string	"SPR_HDB3"
.LASF208:
	.string	"SPR_HDB4"
.LASF209:
	.string	"SPR_HDB5"
.LASF210:
	.string	"SPR_HDB6"
.LASF1196:
	.string	"MT_POSSESSED"
.LASF255:
	.string	"S_DSGUN3"
.LASF256:
	.string	"S_DSGUN4"
.LASF1443:
	.string	"textureoffset"
.LASF75:
	.string	"type"
.LASF275:
	.string	"S_MISSILE"
.LASF1103:
	.string	"S_SHOT2"
.LASF1170:
	.string	"S_HANGTLOOKDN"
.LASF1375:
	.string	"movedir"
.LASF647:
	.string	"S_CPOS_XDIE1"
.LASF1626:
	.string	"gamemode"
.LASF68:
	.string	"actionf_t"
.LASF63:
	.string	"actionf_v"
.LASF166:
	.string	"SPR_MGUN"
.LASF1208:
	.string	"MT_SHADOWS"
.LASF550:
	.string	"S_SKEL_RUN10"
.LASF551:
	.string	"S_SKEL_RUN11"
.LASF552:
	.string	"S_SKEL_RUN12"
.LASF218:
	.string	"S_NULL"
.LASF760:
	.string	"S_BOSS_DIE1"
.LASF761:
	.string	"S_BOSS_DIE2"
.LASF762:
	.string	"S_BOSS_DIE3"
.LASF763:
	.string	"S_BOSS_DIE4"
.LASF764:
	.string	"S_BOSS_DIE5"
.LASF765:
	.string	"S_BOSS_DIE6"
.LASF766:
	.string	"S_BOSS_DIE7"
.LASF930:
	.string	"S_PAIN_PAIN"
.LASF299:
	.string	"S_BFG"
.LASF1343:
	.string	"painsound"
.LASF1632:
	.string	"EV_DoDoor"
.LASF1427:
	.string	"special"
.LASF945:
	.string	"S_SSWV_STND2"
.LASF167:
	.string	"SPR_CSAW"
.LASF1080:
	.string	"S_PMAP"
.LASF1086:
	.string	"S_PVIS"
.LASF300:
	.string	"S_BFGDOWN"
.LASF1564:
	.string	"sfx_vilsit"
.LASF1220:
	.string	"MT_BOSSBRAIN"
.LASF113:
	.string	"SPR_SKEL"
.LASF295:
	.string	"S_PLASMA1"
.LASF296:
	.string	"S_PLASMA2"
.LASF1160:
	.string	"S_GTORCHSHRT"
.LASF1551:
	.string	"sfx_telept"
.LASF1386:
	.string	"firstline"
.LASF1094:
	.string	"S_SHEL"
.LASF851:
	.string	"S_BSPI_STND2"
.LASF9:
	.string	"unsigned char"
.LASF1585:
	.string	"sfx_spidth"
.LASF111:
	.string	"SPR_FATB"
.LASF216:
	.string	"NUMSPRITES"
.LASF117:
	.string	"SPR_SARG"
.LASF334:
	.string	"S_BFGSHOT2"
.LASF115:
	.string	"SPR_FATT"
.LASF1572:
	.string	"sfx_skeswg"
.LASF1061:
	.string	"S_SOUL2"
.LASF1062:
	.string	"S_SOUL3"
.LASF1063:
	.string	"S_SOUL4"
.LASF1064:
	.string	"S_SOUL5"
.LASF1065:
	.string	"S_SOUL6"
.LASF821:
	.string	"S_SPID_RUN1"
.LASF822:
	.string	"S_SPID_RUN2"
.LASF823:
	.string	"S_SPID_RUN3"
.LASF824:
	.string	"S_SPID_RUN4"
.LASF825:
	.string	"S_SPID_RUN5"
.LASF826:
	.string	"S_SPID_RUN6"
.LASF827:
	.string	"S_SPID_RUN7"
.LASF828:
	.string	"S_SPID_RUN8"
.LASF59:
	.string	"float"
.LASF1028:
	.string	"S_BEXP3"
.LASF1029:
	.string	"S_BEXP4"
.LASF1530:
	.string	"sfx_rlaunc"
.LASF1117:
	.string	"S_DEADSTICK"
.LASF1415:
	.string	"fixedcolormap"
.LASF1400:
	.string	"weaponowned"
.LASF1237:
	.string	"MT_EXTRABFG"
.LASF407:
	.string	"S_POSS_DIE1"
.LASF408:
	.string	"S_POSS_DIE2"
.LASF409:
	.string	"S_POSS_DIE3"
.LASF410:
	.string	"S_POSS_DIE4"
.LASF411:
	.string	"S_POSS_DIE5"
.LASF237:
	.string	"S_SGUNDOWN"
.LASF1619:
	.string	"sfx_keenpn"
.LASF86:
	.string	"SPR_CHGF"
.LASF85:
	.string	"SPR_CHGG"
.LASF630:
	.string	"S_CPOS_RUN5"
.LASF889:
	.string	"S_ARACH_PLEX3"
.LASF631:
	.string	"S_CPOS_RUN6"
.LASF891:
	.string	"S_ARACH_PLEX5"
.LASF632:
	.string	"S_CPOS_RUN7"
.LASF1548:
	.string	"sfx_itemup"
.LASF1377:
	.string	"target"
.LASF196:
	.string	"SPR_CEYE"
.LASF1502:
	.string	"raiseFloor"
.LASF1449:
	.string	"ST_HORIZONTAL"
.LASF938:
	.string	"S_PAIN_RAISE1"
.LASF939:
	.string	"S_PAIN_RAISE2"
.LASF940:
	.string	"S_PAIN_RAISE3"
.LASF941:
	.string	"S_PAIN_RAISE4"
.LASF942:
	.string	"S_PAIN_RAISE5"
.LASF575:
	.string	"S_FATSHOT1"
.LASF576:
	.string	"S_FATSHOT2"
.LASF1450:
	.string	"ST_VERTICAL"
.LASF153:
	.string	"SPR_SUIT"
.LASF803:
	.string	"S_SKULL_STND"
.LASF1516:
	.string	"sfx_None"
.LASF837:
	.string	"S_SPID_PAIN"
.LASF1332:
	.string	"NUMMOBJTYPES"
.LASF135:
	.string	"SPR_BAR1"
.LASF1448:
	.string	"side_t"
.LASF250:
	.string	"S_DSGUN"
.LASF1129:
	.string	"S_CANDLESTIK"
.LASF56:
	.string	"pw_allmap"
.LASF1185:
	.string	"NUMSTATES"
.LASF829:
	.string	"S_SPID_RUN9"
.LASF315:
	.string	"S_TBALL1"
.LASF316:
	.string	"S_TBALL2"
.LASF529:
	.string	"S_SMOKE1"
.LASF530:
	.string	"S_SMOKE2"
.LASF531:
	.string	"S_SMOKE3"
.LASF532:
	.string	"S_SMOKE4"
.LASF533:
	.string	"S_SMOKE5"
.LASF752:
	.string	"S_BOSS_RUN6"
.LASF753:
	.string	"S_BOSS_RUN7"
.LASF754:
	.string	"S_BOSS_RUN8"
.LASF118:
	.string	"SPR_HEAD"
.LASF1364:
	.string	"bprev"
.LASF179:
	.string	"SPR_POL1"
.LASF175:
	.string	"SPR_POL2"
.LASF178:
	.string	"SPR_POL3"
.LASF177:
	.string	"SPR_POL4"
.LASF176:
	.string	"SPR_POL5"
.LASF180:
	.string	"SPR_POL6"
.LASF1024:
	.string	"S_BAR1"
.LASF1589:
	.string	"sfx_pedth"
.LASF1474:
	.string	"button_t"
.LASF1238:
	.string	"MT_MISC0"
.LASF1110:
	.string	"S_DEADTORSO"
.LASF252:
	.string	"S_DSGUNUP"
.LASF1611:
	.string	"sfx_boscub"
.LASF1573:
	.string	"sfx_pldeth"
.LASF1335:
	.string	"spawnstate"
.LASF1489:
	.string	"blazeOpen"
.LASF661:
	.string	"S_TROO_STND2"
.LASF1181:
	.string	"S_TECH2LAMP"
.LASF1536:
	.string	"sfx_doropn"
.LASF1224:
	.string	"MT_SPAWNFIRE"
.LASF1481:
	.string	"blazeDWUS"
.LASF1199:
	.string	"MT_FIRE"
.LASF1486:
	.string	"open"
.LASF1191:
	.string	"nextstate"
.LASF758:
	.string	"S_BOSS_PAIN"
.LASF129:
	.string	"SPR_SSWV"
.LASF1463:
	.string	"name1"
.LASF1464:
	.string	"name2"
.LASF320:
	.string	"S_RBALL1"
.LASF321:
	.string	"S_RBALL2"
.LASF1546:
	.string	"sfx_pepain"
.LASF1125:
	.string	"S_TALLGRNCOL"
.LASF1515:
	.string	"stair_e"
.LASF1380:
	.string	"lastlook"
.LASF1583:
	.string	"sfx_brsdth"
.LASF1475:
	.string	"sides"
.LASF1519:
	.string	"sfx_sgcock"
.LASF1446:
	.string	"bottomtexture"
.LASF1114:
	.string	"S_HEADONASTICK"
.LASF394:
	.string	"S_POSS_RUN1"
.LASF336:
	.string	"S_BFGLAND2"
.LASF337:
	.string	"S_BFGLAND3"
.LASF338:
	.string	"S_BFGLAND4"
.LASF339:
	.string	"S_BFGLAND5"
.LASF340:
	.string	"S_BFGLAND6"
.LASF400:
	.string	"S_POSS_RUN7"
.LASF401:
	.string	"S_POSS_RUN8"
.LASF383:
	.string	"S_PLAY_XDIE1"
.LASF384:
	.string	"S_PLAY_XDIE2"
.LASF385:
	.string	"S_PLAY_XDIE3"
.LASF386:
	.string	"S_PLAY_XDIE4"
.LASF387:
	.string	"S_PLAY_XDIE5"
.LASF388:
	.string	"S_PLAY_XDIE6"
.LASF389:
	.string	"S_PLAY_XDIE7"
.LASF390:
	.string	"S_PLAY_XDIE8"
.LASF391:
	.string	"S_PLAY_XDIE9"
.LASF789:
	.string	"S_BOS2_DIE1"
.LASF790:
	.string	"S_BOS2_DIE2"
.LASF791:
	.string	"S_BOS2_DIE3"
.LASF792:
	.string	"S_BOS2_DIE4"
.LASF793:
	.string	"S_BOS2_DIE5"
.LASF794:
	.string	"S_BOS2_DIE6"
.LASF795:
	.string	"S_BOS2_DIE7"
.LASF1355:
	.string	"flags"
.LASF715:
	.string	"S_SARG_RAISE2"
.LASF716:
	.string	"S_SARG_RAISE3"
.LASF359:
	.string	"S_TFOG10"
.LASF717:
	.string	"S_SARG_RAISE4"
.LASF1465:
	.string	"episode"
.LASF412:
	.string	"S_POSS_XDIE1"
.LASF413:
	.string	"S_POSS_XDIE2"
.LASF414:
	.string	"S_POSS_XDIE3"
.LASF415:
	.string	"S_POSS_XDIE4"
.LASF416:
	.string	"S_POSS_XDIE5"
.LASF417:
	.string	"S_POSS_XDIE6"
.LASF418:
	.string	"S_POSS_XDIE7"
.LASF46:
	.string	"am_clip"
.LASF420:
	.string	"S_POSS_XDIE9"
.LASF1113:
	.string	"S_GIBS"
.LASF728:
	.string	"S_HEAD_DIE1"
.LASF729:
	.string	"S_HEAD_DIE2"
.LASF730:
	.string	"S_HEAD_DIE3"
.LASF731:
	.string	"S_HEAD_DIE4"
.LASF732:
	.string	"S_HEAD_DIE5"
.LASF733:
	.string	"S_HEAD_DIE6"
.LASF581:
	.string	"S_FATT_STND2"
.LASF1104:
	.string	"S_COLU"
.LASF231:
	.string	"S_PISTOL1"
.LASF232:
	.string	"S_PISTOL2"
.LASF233:
	.string	"S_PISTOL3"
.LASF234:
	.string	"S_PISTOL4"
.LASF570:
	.string	"S_SKEL_RAISE2"
.LASF571:
	.string	"S_SKEL_RAISE3"
.LASF572:
	.string	"S_SKEL_RAISE4"
.LASF573:
	.string	"S_SKEL_RAISE5"
.LASF574:
	.string	"S_SKEL_RAISE6"
.LASF1133:
	.string	"S_BIGTREE"
.LASF1452:
	.string	"ST_NEGATIVE"
.LASF1043:
	.string	"S_BON2C"
.LASF1044:
	.string	"S_BON2D"
.LASF349:
	.string	"S_TFOG01"
.LASF350:
	.string	"S_TFOG02"
.LASF168:
	.string	"SPR_LAUN"
.LASF405:
	.string	"S_POSS_PAIN"
.LASF740:
	.string	"S_BRBALL1"
.LASF741:
	.string	"S_BRBALL2"
.LASF1202:
	.string	"MT_SMOKE"
.LASF1216:
	.string	"MT_CYBORG"
.LASF1353:
	.string	"damage"
.LASF445:
	.string	"S_SPOS_XDIE1"
.LASF446:
	.string	"S_SPOS_XDIE2"
.LASF447:
	.string	"S_SPOS_XDIE3"
.LASF448:
	.string	"S_SPOS_XDIE4"
.LASF449:
	.string	"S_SPOS_XDIE5"
.LASF450:
	.string	"S_SPOS_XDIE6"
.LASF451:
	.string	"S_SPOS_XDIE7"
.LASF452:
	.string	"S_SPOS_XDIE8"
.LASF453:
	.string	"S_SPOS_XDIE9"
.LASF1544:
	.string	"sfx_vipain"
.LASF1359:
	.string	"mobj_s"
.LASF1419:
	.string	"mobj_t"
.LASF1046:
	.string	"S_BKEY"
.LASF1497:
	.string	"silentCrushAndRaise"
.LASF54:
	.string	"pw_invisibility"
.LASF133:
	.string	"SPR_ARM1"
.LASF134:
	.string	"SPR_ARM2"
.LASF1198:
	.string	"MT_VILE"
.LASF1535:
	.string	"sfx_pstop"
.LASF30:
	.string	"it_blueskull"
.LASF1431:
	.string	"soundorg"
.LASF293:
	.string	"S_PLASMADOWN"
.LASF605:
	.string	"S_FATT_PAIN2"
.LASF1620:
	.string	"sfx_keendt"
.LASF1003:
	.string	"S_BRAINEYESEE"
.LASF1453:
	.string	"slopetype_t"
.LASF540:
	.string	"S_SKEL_STND2"
.LASF893:
	.string	"S_CYBER_STND2"
.LASF1194:
	.string	"state_t"
.LASF737:
	.string	"S_HEAD_RAISE4"
.LASF963:
	.string	"S_SSWV_DIE2"
.LASF22:
	.string	"registered"
.LASF1595:
	.string	"sfx_bspwlk"
.LASF419:
	.string	"S_POSS_XDIE8"
.LASF1093:
	.string	"S_CELP"
.LASF1135:
	.string	"S_EVILEYE"
.LASF1161:
	.string	"S_GTORCHSHRT2"
.LASF1162:
	.string	"S_GTORCHSHRT3"
.LASF1163:
	.string	"S_GTORCHSHRT4"
.LASF1390:
	.string	"viewheight"
.LASF1480:
	.string	"raiseToNearestAndChange"
.LASF1363:
	.string	"bnext"
.LASF1493:
	.string	"raiseToHighest"
.LASF1614:
	.string	"sfx_bosdth"
.LASF594:
	.string	"S_FATT_ATK1"
.LASF127:
	.string	"SPR_CYBR"
.LASF595:
	.string	"S_FATT_ATK2"
.LASF498:
	.string	"S_VILE_DIE10"
.LASF88:
	.string	"SPR_MISF"
.LASF87:
	.string	"SPR_MISG"
.LASF100:
	.string	"SPR_MISL"
.LASF1052:
	.string	"S_BSKULL"
.LASF131:
	.string	"SPR_BBRN"
.LASF473:
	.string	"S_VILE_ATK1"
.LASF474:
	.string	"S_VILE_ATK2"
.LASF475:
	.string	"S_VILE_ATK3"
.LASF476:
	.string	"S_VILE_ATK4"
.LASF477:
	.string	"S_VILE_ATK5"
.LASF478:
	.string	"S_VILE_ATK6"
.LASF479:
	.string	"S_VILE_ATK7"
.LASF220:
	.string	"S_PUNCH"
.LASF481:
	.string	"S_VILE_ATK9"
.LASF202:
	.string	"SPR_SMBT"
.LASF1600:
	.string	"sfx_hoof"
.LASF1477:
	.string	"perpetualRaise"
.LASF776:
	.string	"S_BOS2_RUN1"
.LASF777:
	.string	"S_BOS2_RUN2"
.LASF778:
	.string	"S_BOS2_RUN3"
.LASF779:
	.string	"S_BOS2_RUN4"
.LASF780:
	.string	"S_BOS2_RUN5"
.LASF781:
	.string	"S_BOS2_RUN6"
.LASF782:
	.string	"S_BOS2_RUN7"
.LASF783:
	.string	"S_BOS2_RUN8"
.LASF1426:
	.string	"lightlevel"
.LASF193:
	.string	"SPR_TRE1"
.LASF194:
	.string	"SPR_TRE2"
.LASF1476:
	.string	"buttonlist"
.LASF1471:
	.string	"where"
.LASF850:
	.string	"S_BSPI_STND"
.LASF1531:
	.string	"sfx_rxplod"
.LASF1344:
	.string	"meleestate"
.LASF1401:
	.string	"ammo"
.LASF640:
	.string	"S_CPOS_DIE1"
.LASF201:
	.string	"SPR_TRED"
.LASF94:
	.string	"SPR_BLUD"
.LASF596:
	.string	"S_FATT_ATK3"
.LASF597:
	.string	"S_FATT_ATK4"
.LASF598:
	.string	"S_FATT_ATK5"
.LASF599:
	.string	"S_FATT_ATK6"
.LASF600:
	.string	"S_FATT_ATK7"
.LASF601:
	.string	"S_FATT_ATK8"
.LASF602:
	.string	"S_FATT_ATK9"
.LASF104:
	.string	"SPR_TFOG"
.LASF308:
	.string	"S_BLOOD1"
.LASF309:
	.string	"S_BLOOD2"
.LASF310:
	.string	"S_BLOOD3"
.LASF1192:
	.string	"misc1"
.LASF1193:
	.string	"misc2"
.LASF1542:
	.string	"sfx_dmpain"
.LASF1100:
	.string	"S_LAUN"
.LASF1646:
	.string	"useAgain"
.LASF360:
	.string	"S_IFOG"
.LASF107:
	.string	"SPR_POSS"
.LASF112:
	.string	"SPR_FBXP"
.LASF909:
	.string	"S_CYBER_DIE1"
.LASF910:
	.string	"S_CYBER_DIE2"
.LASF911:
	.string	"S_CYBER_DIE3"
.LASF912:
	.string	"S_CYBER_DIE4"
.LASF913:
	.string	"S_CYBER_DIE5"
.LASF914:
	.string	"S_CYBER_DIE6"
.LASF915:
	.string	"S_CYBER_DIE7"
.LASF787:
	.string	"S_BOS2_PAIN"
.LASF917:
	.string	"S_CYBER_DIE9"
.LASF1381:
	.string	"spawnpoint"
.LASF1187:
	.string	"sprite"
.LASF1265:
	.string	"MT_MISC23"
.LASF1130:
	.string	"S_CANDELABRA"
.LASF470:
	.string	"S_VILE_RUN10"
.LASF471:
	.string	"S_VILE_RUN11"
.LASF472:
	.string	"S_VILE_RUN12"
.LASF1090:
	.string	"S_ROCK"
.LASF239:
	.string	"S_SGUN1"
.LASF240:
	.string	"S_SGUN2"
.LASF241:
	.string	"S_SGUN3"
.LASF242:
	.string	"S_SGUN4"
.LASF243:
	.string	"S_SGUN5"
.LASF244:
	.string	"S_SGUN6"
.LASF245:
	.string	"S_SGUN7"
.LASF246:
	.string	"S_SGUN8"
.LASF247:
	.string	"S_SGUN9"
.LASF1334:
	.string	"doomednum"
.LASF236:
	.string	"S_SGUN"
.LASF1126:
	.string	"S_SHRTGRNCOL"
.LASF1618:
	.string	"sfx_ssdth"
.LASF1608:
	.string	"sfx_flamst"
.LASF811:
	.string	"S_SKULL_PAIN"
.LASF1223:
	.string	"MT_SPAWNSHOT"
.LASF535:
	.string	"S_TRACER2"
.LASF1134:
	.string	"S_TECHPILLAR"
.LASF539:
	.string	"S_SKEL_STND"
.LASF694:
	.string	"S_SARG_STND2"
.LASF1601:
	.string	"sfx_metal"
.LASF25:
	.string	"indetermined"
.LASF440:
	.string	"S_SPOS_DIE1"
.LASF441:
	.string	"S_SPOS_DIE2"
.LASF442:
	.string	"S_SPOS_DIE3"
.LASF443:
	.string	"S_SPOS_DIE4"
.LASF444:
	.string	"S_SPOS_DIE5"
.LASF1461:
	.string	"PST_REBORN"
.LASF1568:
	.string	"sfx_sgtatk"
.LASF1169:
	.string	"S_HANGBNOBRAIN"
.LASF1479:
	.string	"raiseAndChange"
.LASF1565:
	.string	"sfx_mansit"
.LASF703:
	.string	"S_SARG_ATK1"
.LASF704:
	.string	"S_SARG_ATK2"
.LASF705:
	.string	"S_SARG_ATK3"
.LASF294:
	.string	"S_PLASMAUP"
.LASF1484:
	.string	"close30ThenOpen"
.LASF1628:
	.string	"switchlist"
.LASF1189:
	.string	"tics"
.LASF1050:
	.string	"S_YKEY"
.LASF1539:
	.string	"sfx_swtchn"
.LASF1349:
	.string	"speed"
.LASF263:
	.string	"S_DSNR1"
.LASF932:
	.string	"S_PAIN_DIE1"
.LASF1540:
	.string	"sfx_swtchx"
.LASF462:
	.string	"S_VILE_RUN2"
.LASF1606:
	.string	"sfx_itmbk"
.LASF1180:
	.string	"S_TECHLAMP4"
.LASF626:
	.string	"S_CPOS_RUN1"
.LASF627:
	.string	"S_CPOS_RUN2"
.LASF628:
	.string	"S_CPOS_RUN3"
.LASF629:
	.string	"S_CPOS_RUN4"
.LASF64:
	.string	"actionf_p1"
.LASF65:
	.string	"actionf_p2"
.LASF164:
	.string	"SPR_BPAK"
.LASF633:
	.string	"S_CPOS_RUN8"
.LASF1030:
	.string	"S_BEXP5"
.LASF1623:
	.string	"sfx_skeatk"
.LASF1491:
	.string	"vldoor_e"
.LASF77:
	.string	"mapthing_t"
.LASF395:
	.string	"S_POSS_RUN2"
.LASF396:
	.string	"S_POSS_RUN3"
.LASF397:
	.string	"S_POSS_RUN4"
.LASF714:
	.string	"S_SARG_RAISE1"
.LASF398:
	.string	"S_POSS_RUN5"
.LASF66:
	.string	"acp1"
.LASF67:
	.string	"acp2"
.LASF718:
	.string	"S_SARG_RAISE5"
.LASF719:
	.string	"S_SARG_RAISE6"
.LASF1575:
	.string	"sfx_podth1"
.LASF1576:
	.string	"sfx_podth2"
.LASF1577:
	.string	"sfx_podth3"
.LASF1298:
	.string	"MT_MISC53"
.LASF1625:
	.string	"NUMSFX"
.LASF203:
	.string	"SPR_SMGT"
.LASF994:
	.string	"S_KEENPAIN"
.LASF342:
	.string	"S_BFGEXP2"
.LASF343:
	.string	"S_BFGEXP3"
.LASF344:
	.string	"S_BFGEXP4"
.LASF273:
	.string	"S_CHAINFLASH1"
.LASF274:
	.string	"S_CHAINFLASH2"
.LASF229:
	.string	"S_PISTOLDOWN"
.LASF1470:
	.string	"line"
.LASF894:
	.string	"S_CYBER_RUN1"
.LASF895:
	.string	"S_CYBER_RUN2"
.LASF896:
	.string	"S_CYBER_RUN3"
.LASF897:
	.string	"S_CYBER_RUN4"
.LASF898:
	.string	"S_CYBER_RUN5"
.LASF899:
	.string	"S_CYBER_RUN6"
.LASF900:
	.string	"S_CYBER_RUN7"
.LASF901:
	.string	"S_CYBER_RUN8"
.LASF1338:
	.string	"seesound"
.LASF1081:
	.string	"S_PMAP2"
.LASF1082:
	.string	"S_PMAP3"
.LASF1083:
	.string	"S_PMAP4"
.LASF1084:
	.string	"S_PMAP5"
.LASF1085:
	.string	"S_PMAP6"
.LASF1412:
	.string	"bonuscount"
.LASF812:
	.string	"S_SKULL_PAIN2"
.LASF1342:
	.string	"painchance"
.LASF638:
	.string	"S_CPOS_PAIN"
.LASF1423:
	.string	"ceilingheight"
.LASF23:
	.string	"commercial"
.LASF943:
	.string	"S_PAIN_RAISE6"
.LASF1433:
	.string	"specialdata"
.LASF1281:
	.string	"MT_MISC36"
.LASF747:
	.string	"S_BOSS_RUN1"
.LASF748:
	.string	"S_BOSS_RUN2"
.LASF749:
	.string	"S_BOSS_RUN3"
.LASF750:
	.string	"S_BOSS_RUN4"
.LASF751:
	.string	"S_BOSS_RUN5"
.LASF269:
	.string	"S_CHAINUP"
.LASF1657:
	.string	"GNU C17 13.3.0 -mtune=generic -march=x86-64 -g -fasynchronous-unwind-tables -fstack-protector-strong -fstack-clash-protection -fcf-protection"
.LASF1407:
	.string	"killcount"
.LASF888:
	.string	"S_ARACH_PLEX2"
.LASF1132:
	.string	"S_TORCHTREE"
.LASF944:
	.string	"S_SSWV_STND"
.LASF890:
	.string	"S_ARACH_PLEX4"
.LASF991:
	.string	"S_COMMKEEN10"
.LASF992:
	.string	"S_COMMKEEN11"
.LASF993:
	.string	"S_COMMKEEN12"
.LASF1634:
	.string	"EV_DoPlat"
.LASF908:
	.string	"S_CYBER_PAIN"
.LASF427:
	.string	"S_SPOS_RUN1"
.LASF185:
	.string	"SPR_SMIT"
.LASF7:
	.string	"boolean"
.LASF430:
	.string	"S_SPOS_RUN4"
.LASF431:
	.string	"S_SPOS_RUN5"
.LASF122:
	.string	"SPR_SKUL"
.LASF433:
	.string	"S_SPOS_RUN7"
.LASF434:
	.string	"S_SPOS_RUN8"
.LASF1091:
	.string	"S_BROK"
.LASF1336:
	.string	"spawnhealth"
.LASF1584:
	.string	"sfx_cybdth"
.LASF221:
	.string	"S_PUNCHDOWN"
.LASF887:
	.string	"S_ARACH_PLEX"
.LASF1148:
	.string	"S_GREENTORCH"
.LASF42:
	.string	"wp_supershotgun"
.LASF287:
	.string	"S_SAWDOWN"
.LASF1529:
	.string	"sfx_sawhit"
.LASF1528:
	.string	"sfx_sawful"
.LASF1186:
	.string	"statenum_t"
.LASF1226:
	.string	"MT_TROOPSHOT"
.LASF1211:
	.string	"MT_BRUISERSHOT"
.LASF1596:
	.string	"sfx_vilact"
.LASF17:
	.string	"ticcmd_t"
.LASF1331:
	.string	"MT_MISC86"
.LASF1504:
	.string	"raiseToTexture"
.LASF1455:
	.string	"ps_weapon"
.LASF1561:
	.string	"sfx_spisit"
.LASF375:
	.string	"S_PLAY_PAIN2"
.LASF1527:
	.string	"sfx_sawidl"
.LASF770:
	.string	"S_BOSS_RAISE4"
.LASF771:
	.string	"S_BOSS_RAISE5"
.LASF1188:
	.string	"frame"
.LASF114:
	.string	"SPR_MANF"
.LASF625:
	.string	"S_CPOS_STND2"
.LASF1594:
	.string	"sfx_bspact"
.LASF438:
	.string	"S_SPOS_PAIN"
.LASF36:
	.string	"wp_shotgun"
.LASF406:
	.string	"S_POSS_PAIN2"
.LASF1232:
	.string	"MT_PUFF"
.LASF278:
	.string	"S_MISSILE1"
.LASF279:
	.string	"S_MISSILE2"
.LASF280:
	.string	"S_MISSILE3"
.LASF654:
	.string	"S_CPOS_RAISE2"
.LASF655:
	.string	"S_CPOS_RAISE3"
.LASF656:
	.string	"S_CPOS_RAISE4"
.LASF1417:
	.string	"psprites"
.LASF1098:
	.string	"S_MGUN"
.LASF1210:
	.string	"MT_BRUISER"
.LASF163:
	.string	"SPR_SBOX"
.LASF1409:
	.string	"secretcount"
.LASF1333:
	.string	"mobjtype_t"
.LASF1347:
	.string	"xdeathstate"
.LASF1394:
	.string	"powers"
.LASF807:
	.string	"S_SKULL_ATK1"
.LASF808:
	.string	"S_SKULL_ATK2"
.LASF809:
	.string	"S_SKULL_ATK3"
.LASF810:
	.string	"S_SKULL_ATK4"
.LASF788:
	.string	"S_BOS2_PAIN2"
.LASF18:
	.string	"short unsigned int"
.LASF1212:
	.string	"MT_KNIGHT"
.LASF19:
	.string	"signed char"
.LASF11:
	.string	"sidemove"
.LASF1354:
	.string	"activesound"
.LASF439:
	.string	"S_SPOS_PAIN2"
.LASF1599:
	.string	"sfx_punch"
.LASF603:
	.string	"S_FATT_ATK10"
.LASF200:
	.string	"SPR_TGRN"
.LASF1257:
	.string	"MT_MEGA"
.LASF102:
	.string	"SPR_BFE1"
.LASF103:
	.string	"SPR_BFE2"
.LASF1511:
	.string	"raiseFloor512"
.LASF1432:
	.string	"thinglist"
.LASF1291:
	.string	"MT_MISC46"
.LASF1499:
	.string	"lowerFloor"
.LASF1219:
	.string	"MT_KEEN"
.LASF1430:
	.string	"blockbox"
.LASF1004:
	.string	"S_BRAINEYE1"
.LASF660:
	.string	"S_TROO_STND"
.LASF607:
	.string	"S_FATT_DIE2"
.LASF298:
	.string	"S_PLASMAFLASH2"
.LASF45:
	.string	"weapontype_t"
.LASF14:
	.string	"chatchar"
.LASF351:
	.string	"S_TFOG2"
.LASF352:
	.string	"S_TFOG3"
.LASF353:
	.string	"S_TFOG4"
.LASF354:
	.string	"S_TFOG5"
.LASF355:
	.string	"S_TFOG6"
.LASF356:
	.string	"S_TFOG7"
.LASF357:
	.string	"S_TFOG8"
.LASF358:
	.string	"S_TFOG9"
.LASF773:
	.string	"S_BOSS_RAISE7"
.LASF1403:
	.string	"attackdown"
.LASF78:
	.string	"SPR_TROO"
.LASF89:
	.string	"SPR_SAWG"
.LASF1248:
	.string	"MT_MISC10"
.LASF1557:
	.string	"sfx_sgtsit"
.LASF1506:
	.string	"raiseFloor24"
.LASF138:
	.string	"SPR_BON1"
.LASF139:
	.string	"SPR_BON2"
.LASF29:
	.string	"it_redcard"
.LASF1127:
	.string	"S_TALLREDCOL"
.LASF1642:
	.string	"I_Error"
.LASF1638:
	.string	"EV_BuildStairs"
.LASF1373:
	.string	"state"
.LASF1102:
	.string	"S_SHOT"
.LASF958:
	.string	"S_SSWV_ATK5"
.LASF1652:
	.string	"P_ChangeSwitchTexture"
.LASF1107:
	.string	"S_BLOODYTWITCH2"
.LASF1108:
	.string	"S_BLOODYTWITCH3"
.LASF1109:
	.string	"S_BLOODYTWITCH4"
.LASF848:
	.string	"S_SPID_DIE10"
.LASF849:
	.string	"S_SPID_DIE11"
.LASF1395:
	.string	"cards"
.LASF195:
	.string	"SPR_ELEC"
.LASF996:
	.string	"S_BRAIN"
.LASF1214:
	.string	"MT_SPIDER"
.LASF1079:
	.string	"S_SUIT"
.LASF1468:
	.string	"bottom"
.LASF93:
	.string	"SPR_BFGF"
.LASF92:
	.string	"SPR_BFGG"
.LASF1495:
	.string	"crushAndRaise"
.LASF919:
	.string	"S_PAIN_STND"
.LASF1559:
	.string	"sfx_brssit"
.LASF335:
	.string	"S_BFGLAND"
.LASF1025:
	.string	"S_BAR2"
.LASF1399:
	.string	"pendingweapon"
.LASF72:
	.string	"function"
.LASF1602:
	.string	"sfx_chgun"
.LASF47:
	.string	"am_shell"
.LASF1371:
	.string	"validcount"
.LASF1410:
	.string	"message"
.LASF615:
	.string	"S_FATT_DIE10"
.LASF33:
	.string	"NUMCARDS"
.LASF1152:
	.string	"S_REDTORCH"
.LASF1636:
	.string	"G_ExitLevel"
.LASF1230:
	.string	"MT_BFG"
.LASF399:
	.string	"S_POSS_RUN6"
.LASF1570:
	.string	"sfx_vilatk"
.LASF1627:
	.string	"alphSwitchList"
.LASF109:
	.string	"SPR_VILE"
.LASF1485:
	.string	"close"
.LASF1605:
	.string	"sfx_bdcls"
.LASF1233:
	.string	"MT_BLOOD"
.LASF228:
	.string	"S_PISTOL"
.LASF5:
	.string	"true"
.LASF460:
	.string	"S_VILE_STND2"
.LASF878:
	.string	"S_BSPI_RAISE1"
.LASF879:
	.string	"S_BSPI_RAISE2"
.LASF880:
	.string	"S_BSPI_RAISE3"
.LASF881:
	.string	"S_BSPI_RAISE4"
.LASF882:
	.string	"S_BSPI_RAISE5"
.LASF883:
	.string	"S_BSPI_RAISE6"
.LASF884:
	.string	"S_BSPI_RAISE7"
.LASF1368:
	.string	"momx"
.LASF1369:
	.string	"momy"
.LASF12:
	.string	"angleturn"
.LASF967:
	.string	"S_SSWV_XDIE1"
.LASF968:
	.string	"S_SSWV_XDIE2"
.LASF969:
	.string	"S_SSWV_XDIE3"
.LASF970:
	.string	"S_SSWV_XDIE4"
.LASF971:
	.string	"S_SSWV_XDIE5"
.LASF972:
	.string	"S_SSWV_XDIE6"
.LASF973:
	.string	"S_SSWV_XDIE7"
.LASF974:
	.string	"S_SSWV_XDIE8"
.LASF975:
	.string	"S_SSWV_XDIE9"
.LASF265:
	.string	"S_DSGUNFLASH1"
.LASF266:
	.string	"S_DSGUNFLASH2"
.LASF1264:
	.string	"MT_MISC22"
.LASF1418:
	.string	"didsecret"
.LASF523:
	.string	"S_FIRE25"
.LASF617:
	.string	"S_FATT_RAISE2"
.LASF1300:
	.string	"MT_MISC55"
.LASF1391:
	.string	"deltaviewheight"
.LASF31:
	.string	"it_yellowskull"
.LASF1055:
	.string	"S_RSKULL2"
.LASF1382:
	.string	"tracer"
.LASF830:
	.string	"S_SPID_RUN10"
.LASF831:
	.string	"S_SPID_RUN11"
.LASF832:
	.string	"S_SPID_RUN12"
.LASF1647:
	.string	"rcsid"
.LASF1549:
	.string	"sfx_wpnup"
.LASF1512:
	.string	"floor_e"
.LASF1356:
	.string	"raisestate"
.LASF281:
	.string	"S_MISSILEFLASH1"
.LASF282:
	.string	"S_MISSILEFLASH2"
.LASF283:
	.string	"S_MISSILEFLASH3"
.LASF284:
	.string	"S_MISSILEFLASH4"
.LASF144:
	.string	"SPR_RSKU"
.LASF1569:
	.string	"sfx_skepch"
.LASF69:
	.string	"think_t"
.LASF10:
	.string	"forwardmove"
.LASF642:
	.string	"S_CPOS_DIE3"
.LASF643:
	.string	"S_CPOS_DIE4"
.LASF1447:
	.string	"midtexture"
.LASF644:
	.string	"S_CPOS_DIE5"
.LASF645:
	.string	"S_CPOS_DIE6"
.LASF646:
	.string	"S_CPOS_DIE7"
.LASF1087:
	.string	"S_PVIS2"
.LASF1225:
	.string	"MT_BARREL"
.LASF819:
	.string	"S_SPID_STND"
.LASF591:
	.string	"S_FATT_RUN10"
.LASF592:
	.string	"S_FATT_RUN11"
.LASF593:
	.string	"S_FATT_RUN12"
.LASF1217:
	.string	"MT_PAIN"
.LASF1145:
	.string	"S_BLUETORCH2"
.LASF1357:
	.string	"mobjinfo_t"
.LASF1146:
	.string	"S_BLUETORCH3"
.LASF1552:
	.string	"sfx_posit1"
.LASF1147:
	.string	"S_BLUETORCH4"
.LASF204:
	.string	"SPR_SMRT"
.LASF306:
	.string	"S_BFGFLASH1"
.LASF307:
	.string	"S_BFGFLASH2"
.LASF840:
	.string	"S_SPID_DIE2"
.LASF121:
	.string	"SPR_BOS2"
.LASF843:
	.string	"S_SPID_DIE5"
.LASF844:
	.string	"S_SPID_DIE6"
.LASF1612:
	.string	"sfx_bossit"
.LASF845:
	.string	"S_SPID_DIE7"
.LASF846:
	.string	"S_SPID_DIE8"
.LASF1136:
	.string	"S_EVILEYE2"
.LASF1137:
	.string	"S_EVILEYE3"
.LASF1138:
	.string	"S_EVILEYE4"
.LASF311:
	.string	"S_PUFF1"
.LASF312:
	.string	"S_PUFF2"
.LASF313:
	.string	"S_PUFF3"
.LASF132:
	.string	"SPR_BOSF"
.LASF1435:
	.string	"lines"
.LASF120:
	.string	"SPR_BOSS"
.LASF1229:
	.string	"MT_PLASMA"
.LASF1624:
	.string	"sfx_radio"
.LASF865:
	.string	"S_BSPI_ATK1"
.LASF866:
	.string	"S_BSPI_ATK2"
.LASF867:
	.string	"S_BSPI_ATK3"
.LASF868:
	.string	"S_BSPI_ATK4"
.LASF1047:
	.string	"S_BKEY2"
.LASF43:
	.string	"NUMWEAPONS"
.LASF852:
	.string	"S_BSPI_SIGHT"
.LASF1541:
	.string	"sfx_plpain"
.LASF2:
	.string	"long unsigned int"
.LASF854:
	.string	"S_BSPI_RUN2"
.LASF998:
	.string	"S_BRAIN_DIE1"
.LASF999:
	.string	"S_BRAIN_DIE2"
.LASF1000:
	.string	"S_BRAIN_DIE3"
.LASF1001:
	.string	"S_BRAIN_DIE4"
.LASF333:
	.string	"S_BFGSHOT"
.LASF1139:
	.string	"S_FLOATSKULL"
.LASF489:
	.string	"S_VILE_DIE1"
.LASF490:
	.string	"S_VILE_DIE2"
.LASF491:
	.string	"S_VILE_DIE3"
.LASF492:
	.string	"S_VILE_DIE4"
.LASF493:
	.string	"S_VILE_DIE5"
.LASF494:
	.string	"S_VILE_DIE6"
.LASF495:
	.string	"S_VILE_DIE7"
.LASF496:
	.string	"S_VILE_DIE8"
.LASF497:
	.string	"S_VILE_DIE9"
.LASF1411:
	.string	"damagecount"
.LASF1522:
	.string	"sfx_dbcls"
.LASF173:
	.string	"SPR_SMT2"
.LASF1049:
	.string	"S_RKEY2"
.LASF1020:
	.string	"S_ARM1"
.LASF1022:
	.string	"S_ARM2"
.LASF1115:
	.string	"S_HEADCANDLES"
.LASF151:
	.string	"SPR_PINS"
.LASF745:
	.string	"S_BOSS_STND"
.LASF1593:
	.string	"sfx_dmact"
.LASF725:
	.string	"S_HEAD_PAIN"
.LASF28:
	.string	"it_yellowcard"
.LASF1201:
	.string	"MT_TRACER"
.LASF606:
	.string	"S_FATT_DIE1"
.LASF3:
	.string	"char"
.LASF608:
	.string	"S_FATT_DIE3"
.LASF609:
	.string	"S_FATT_DIE4"
.LASF610:
	.string	"S_FATT_DIE5"
.LASF611:
	.string	"S_FATT_DIE6"
.LASF612:
	.string	"S_FATT_DIE7"
.LASF613:
	.string	"S_FATT_DIE8"
.LASF614:
	.string	"S_FATT_DIE9"
.LASF681:
	.string	"S_TROO_XDIE2"
.LASF682:
	.string	"S_TROO_XDIE3"
.LASF683:
	.string	"S_TROO_XDIE4"
.LASF684:
	.string	"S_TROO_XDIE5"
.LASF685:
	.string	"S_TROO_XDIE6"
.LASF686:
	.string	"S_TROO_XDIE7"
.LASF687:
	.string	"S_TROO_XDIE8"
.LASF156:
	.string	"SPR_CLIP"
.LASF1128:
	.string	"S_SHRTREDCOL"
.LASF1171:
	.string	"S_HANGTSKULL"
.LASF1500:
	.string	"lowerFloorToLowest"
.LASF58:
	.string	"NUMPOWERS"
.LASF956:
	.string	"S_SSWV_ATK3"
.LASF957:
	.string	"S_SSWV_ATK4"
.LASF262:
	.string	"S_DSGUN10"
.LASF1581:
	.string	"sfx_cacdth"
.LASF53:
	.string	"pw_strength"
.LASF190:
	.string	"SPR_CAND"
.LASF1538:
	.string	"sfx_stnmov"
.LASF1207:
	.string	"MT_SERGEANT"
.LASF1533:
	.string	"sfx_firxpl"
.LASF1118:
	.string	"S_LIVESTICK"
.LASF1058:
	.string	"S_STIM"
.LASF48:
	.string	"am_cell"
.LASF27:
	.string	"it_bluecard"
.LASF1366:
	.string	"floorz"
.LASF721:
	.string	"S_HEAD_RUN1"
.LASF376:
	.string	"S_PLAY_DIE1"
.LASF377:
	.string	"S_PLAY_DIE2"
.LASF378:
	.string	"S_PLAY_DIE3"
.LASF379:
	.string	"S_PLAY_DIE4"
.LASF380:
	.string	"S_PLAY_DIE5"
.LASF381:
	.string	"S_PLAY_DIE6"
.LASF382:
	.string	"S_PLAY_DIE7"
.LASF392:
	.string	"S_POSS_STND"
.LASF348:
	.string	"S_TFOG"
.LASF1285:
	.string	"MT_MISC40"
.LASF1286:
	.string	"MT_MISC41"
.LASF1383:
	.string	"subsector_s"
.LASF708:
	.string	"S_SARG_DIE1"
.LASF709:
	.string	"S_SARG_DIE2"
.LASF710:
	.string	"S_SARG_DIE3"
.LASF711:
	.string	"S_SARG_DIE4"
.LASF1009:
	.string	"S_SPAWNFIRE1"
.LASF1010:
	.string	"S_SPAWNFIRE2"
.LASF1011:
	.string	"S_SPAWNFIRE3"
.LASF1012:
	.string	"S_SPAWNFIRE4"
.LASF1013:
	.string	"S_SPAWNFIRE5"
.LASF1014:
	.string	"S_SPAWNFIRE6"
.LASF1015:
	.string	"S_SPAWNFIRE7"
.LASF1016:
	.string	"S_SPAWNFIRE8"
.LASF680:
	.string	"S_TROO_XDIE1"
.LASF13:
	.string	"consistancy"
.LASF1384:
	.string	"sector"
.LASF1173:
	.string	"S_HANGTNOBRAIN"
.LASF328:
	.string	"S_PLASEXP2"
.LASF329:
	.string	"S_PLASEXP3"
.LASF330:
	.string	"S_PLASEXP4"
.LASF331:
	.string	"S_PLASEXP5"
.LASF40:
	.string	"wp_bfg"
.LASF1157:
	.string	"S_BTORCHSHRT2"
.LASF1158:
	.string	"S_BTORCHSHRT3"
.LASF1159:
	.string	"S_BTORCHSHRT4"
.LASF1496:
	.string	"fastCrushAndRaise"
.LASF1588:
	.string	"sfx_kntdth"
.LASF461:
	.string	"S_VILE_RUN1"
.LASF251:
	.string	"S_DSGUNDOWN"
.LASF463:
	.string	"S_VILE_RUN3"
.LASF464:
	.string	"S_VILE_RUN4"
.LASF465:
	.string	"S_VILE_RUN5"
.LASF466:
	.string	"S_VILE_RUN6"
.LASF467:
	.string	"S_VILE_RUN7"
.LASF468:
	.string	"S_VILE_RUN8"
.LASF469:
	.string	"S_VILE_RUN9"
.LASF712:
	.string	"S_SARG_DIE5"
.LASF713:
	.string	"S_SARG_DIE6"
.LASF1580:
	.string	"sfx_sgtdth"
.LASF1360:
	.string	"thinker"
.LASF1610:
	.string	"sfx_bospit"
.LASF553:
	.string	"S_SKEL_FIST1"
.LASF554:
	.string	"S_SKEL_FIST2"
.LASF555:
	.string	"S_SKEL_FIST3"
.LASF556:
	.string	"S_SKEL_FIST4"
.LASF292:
	.string	"S_PLASMA"
.LASF1071:
	.string	"S_PINS"
.LASF1639:
	.string	"EV_LightTurnOn"
.LASF1654:
	.string	"texture"
.LASF1545:
	.string	"sfx_mnpain"
.LASF1648:
	.string	"texTop"
.LASF1144:
	.string	"S_BLUETORCH"
.LASF582:
	.string	"S_FATT_RUN1"
.LASF583:
	.string	"S_FATT_RUN2"
.LASF584:
	.string	"S_FATT_RUN3"
.LASF585:
	.string	"S_FATT_RUN4"
.LASF55:
	.string	"pw_ironfeet"
.LASF587:
	.string	"S_FATT_RUN6"
.LASF588:
	.string	"S_FATT_RUN7"
.LASF589:
	.string	"S_FATT_RUN8"
.LASF1120:
	.string	"S_MEAT2"
.LASF1121:
	.string	"S_MEAT3"
.LASF1122:
	.string	"S_MEAT4"
.LASF1123:
	.string	"S_MEAT5"
.LASF1566:
	.string	"sfx_pesit"
.LASF235:
	.string	"S_PISTOLFLASH"
.LASF1422:
	.string	"floorheight"
.LASF455:
	.string	"S_SPOS_RAISE2"
.LASF456:
	.string	"S_SPOS_RAISE3"
.LASF457:
	.string	"S_SPOS_RAISE4"
.LASF458:
	.string	"S_SPOS_RAISE5"
.LASF147:
	.string	"SPR_MEDI"
.LASF149:
	.string	"SPR_PINV"
.LASF1555:
	.string	"sfx_bgsit1"
.LASF1556:
	.string	"sfx_bgsit2"
.LASF1590:
	.string	"sfx_skedth"
.LASF1492:
	.string	"lowerToFloor"
.LASF997:
	.string	"S_BRAIN_PAIN"
.LASF268:
	.string	"S_CHAINDOWN"
.LASF487:
	.string	"S_VILE_PAIN"
.LASF534:
	.string	"S_TRACER"
.LASF954:
	.string	"S_SSWV_ATK1"
.LASF955:
	.string	"S_SSWV_ATK2"
.LASF484:
	.string	"S_VILE_HEAL1"
.LASF485:
	.string	"S_VILE_HEAL2"
.LASF486:
	.string	"S_VILE_HEAL3"
.LASF959:
	.string	"S_SSWV_ATK6"
.LASF1376:
	.string	"movecount"
.LASF141:
	.string	"SPR_RKEY"
.LASF1562:
	.string	"sfx_bspsit"
.LASF1105:
	.string	"S_STALAG"
.LASF1543:
	.string	"sfx_popain"
.LASF820:
	.string	"S_SPID_STND2"
.LASF62:
	.string	"angle_t"
.LASF1425:
	.string	"ceilingpic"
.LASF1106:
	.string	"S_BLOODYTWITCH"
.LASF1175:
	.string	"S_SMALLPOOL"
.LASF1458:
	.string	"pspdef_t"
.LASF1301:
	.string	"MT_MISC56"
.LASF604:
	.string	"S_FATT_PAIN"
.LASF1478:
	.string	"downWaitUpStay"
.LASF1508:
	.string	"raiseFloorCrush"
.LASF368:
	.string	"S_PLAY_RUN1"
.LASF369:
	.string	"S_PLAY_RUN2"
.LASF370:
	.string	"S_PLAY_RUN3"
.LASF371:
	.string	"S_PLAY_RUN4"
.LASF1096:
	.string	"S_BPAK"
.LASF60:
	.string	"double"
.LASF136:
	.string	"SPR_BEXP"
.LASF1387:
	.string	"player_s"
.LASF1053:
	.string	"S_BSKULL2"
.LASF95:
	.string	"SPR_PUFF"
.LASF982:
	.string	"S_COMMKEEN"
.LASF1534:
	.string	"sfx_pstart"
.LASF1404:
	.string	"usedown"
.LASF1644:
	.string	"thing"
.LASF774:
	.string	"S_BOS2_STND"
.LASF101:
	.string	"SPR_BFS1"
.LASF1005:
	.string	"S_SPAWN1"
.LASF1006:
	.string	"S_SPAWN2"
.LASF1007:
	.string	"S_SPAWN3"
.LASF1008:
	.string	"S_SPAWN4"
.LASF1178:
	.string	"S_TECHLAMP2"
.LASF1179:
	.string	"S_TECHLAMP3"
.LASF41:
	.string	"wp_chainsaw"
.LASF1215:
	.string	"MT_BABY"
.LASF1402:
	.string	"maxammo"
.LASF1607:
	.string	"sfx_flame"
.LASF1119:
	.string	"S_LIVESTICK2"
.LASF1164:
	.string	"S_RTORCHSHRT"
.LASF1261:
	.string	"MT_MISC19"
.LASF123:
	.string	"SPR_SPID"
.LASF720:
	.string	"S_HEAD_STND"
.LASF695:
	.string	"S_SARG_RUN1"
.LASF696:
	.string	"S_SARG_RUN2"
.LASF698:
	.string	"S_SARG_RUN4"
.LASF699:
	.string	"S_SARG_RUN5"
.LASF700:
	.string	"S_SARG_RUN6"
.LASF701:
	.string	"S_SARG_RUN7"
.LASF702:
	.string	"S_SARG_RUN8"
.LASF1239:
	.string	"MT_MISC1"
.LASF1240:
	.string	"MT_MISC2"
.LASF1241:
	.string	"MT_MISC3"
.LASF1242:
	.string	"MT_MISC4"
.LASF1243:
	.string	"MT_MISC5"
.LASF1244:
	.string	"MT_MISC6"
.LASF1245:
	.string	"MT_MISC7"
.LASF1246:
	.string	"MT_MISC8"
.LASF1247:
	.string	"MT_MISC9"
.LASF285:
	.string	"S_SAW"
.LASF152:
	.string	"SPR_MEGA"
.LASF374:
	.string	"S_PLAY_PAIN"
.LASF1571:
	.string	"sfx_claw"
.LASF326:
	.string	"S_PLASBALL2"
.LASF1456:
	.string	"ps_flash"
.LASF1388:
	.string	"playerstate"
.LASF130:
	.string	"SPR_KEEN"
.LASF960:
	.string	"S_SSWV_PAIN"
.LASF1341:
	.string	"painstate"
.LASF995:
	.string	"S_KEENPAIN2"
.LASF57:
	.string	"pw_infrared"
.LASF482:
	.string	"S_VILE_ATK10"
.LASF483:
	.string	"S_VILE_ATK11"
.LASF961:
	.string	"S_SSWV_PAIN2"
.LASF1325:
	.string	"MT_MISC80"
.LASF1348:
	.string	"deathsound"
.LASF1035:
	.string	"S_BON1A"
.LASF1036:
	.string	"S_BON1B"
.LASF1037:
	.string	"S_BON1C"
.LASF1038:
	.string	"S_BON1D"
.LASF1039:
	.string	"S_BON1E"
.LASF1442:
	.string	"sector_t"
.LASF150:
	.string	"SPR_PSTR"
.LASF1263:
	.string	"MT_MISC21"
.LASF1483:
	.string	"normal"
.LASF706:
	.string	"S_SARG_PAIN"
.LASF1258:
	.string	"MT_CLIP"
.LASF165:
	.string	"SPR_BFUG"
.LASF1313:
	.string	"MT_MISC68"
.LASF1031:
	.string	"S_BBAR1"
.LASF1032:
	.string	"S_BBAR2"
.LASF1033:
	.string	"S_BBAR3"
.LASF219:
	.string	"S_LIGHTDONE"
.LASF870:
	.string	"S_BSPI_PAIN2"
.LASF1396:
	.string	"backpack"
.LASF670:
	.string	"S_TROO_ATK1"
.LASF671:
	.string	"S_TROO_ATK2"
.LASF672:
	.string	"S_TROO_ATK3"
.LASF814:
	.string	"S_SKULL_DIE2"
.LASF815:
	.string	"S_SKULL_DIE3"
.LASF816:
	.string	"S_SKULL_DIE4"
.LASF817:
	.string	"S_SKULL_DIE5"
.LASF818:
	.string	"S_SKULL_DIE6"
.LASF169:
	.string	"SPR_PLAS"
.LASF1041:
	.string	"S_BON2A"
.LASF1042:
	.string	"S_BON2B"
.LASF82:
	.string	"SPR_PISF"
.LASF81:
	.string	"SPR_PISG"
.LASF1045:
	.string	"S_BON2E"
.LASF1268:
	.string	"MT_CHAINGUN"
.LASF1503:
	.string	"raiseFloorToNearest"
.LASF317:
	.string	"S_TBALLX1"
.LASF318:
	.string	"S_TBALLX2"
.LASF319:
	.string	"S_TBALLX3"
.LASF44:
	.string	"wp_nochange"
.LASF1205:
	.string	"MT_CHAINGUY"
.LASF1421:
	.string	"degenmobj_t"
.LASF1553:
	.string	"sfx_posit2"
.LASF1554:
	.string	"sfx_posit3"
.LASF813:
	.string	"S_SKULL_DIE1"
.LASF1460:
	.string	"PST_DEAD"
.LASF1176:
	.string	"S_BRAINSTEM"
.LASF981:
	.string	"S_KEENSTND"
.LASF106:
	.string	"SPR_PLAY"
.LASF1398:
	.string	"readyweapon"
.LASF1558:
	.string	"sfx_cacsit"
.LASF1567:
	.string	"sfx_sklatk"
.LASF1116:
	.string	"S_HEADCANDLES2"
.LASF1235:
	.string	"MT_IFOG"
.LASF1513:
	.string	"build8"
.LASF197:
	.string	"SPR_FSKU"
.LASF1613:
	.string	"sfx_bospn"
.LASF432:
	.string	"S_SPOS_RUN6"
.LASF1514:
	.string	"turbo16"
.LASF288:
	.string	"S_SAWUP"
.LASF1021:
	.string	"S_ARM1A"
.LASF624:
	.string	"S_CPOS_STND"
.LASF1276:
	.string	"MT_MISC31"
.LASF1370:
	.string	"momz"
.LASF1095:
	.string	"S_SBOX"
.LASF1428:
	.string	"soundtraversed"
.LASF1279:
	.string	"MT_MISC34"
.LASF1438:
	.string	"bbox"
.LASF327:
	.string	"S_PLASEXP"
.LASF1282:
	.string	"MT_MISC37"
.LASF1547:
	.string	"sfx_slop"
.LASF1490:
	.string	"blazeClose"
.LASF1111:
	.string	"S_DEADBOTTOM"
.LASF1604:
	.string	"sfx_bdopn"
.LASF1168:
	.string	"S_HANGNOGUTS"
.LASF1340:
	.string	"attacksound"
.LASF1072:
	.string	"S_PINS2"
.LASF1073:
	.string	"S_PINS3"
.LASF1074:
	.string	"S_PINS4"
.LASF926:
	.string	"S_PAIN_ATK1"
.LASF927:
	.string	"S_PAIN_ATK2"
.LASF928:
	.string	"S_PAIN_ATK3"
.LASF929:
	.string	"S_PAIN_ATK4"
.LASF238:
	.string	"S_SGUNUP"
.LASF1440:
	.string	"frontsector"
.LASF191:
	.string	"SPR_CBRA"
.LASF1346:
	.string	"deathstate"
.LASF1023:
	.string	"S_ARM2A"
.LASF892:
	.string	"S_CYBER_STND"
.LASF1051:
	.string	"S_YKEY2"
.LASF501:
	.string	"S_FIRE3"
.LASF1339:
	.string	"reactiontime"
.LASF506:
	.string	"S_FIRE8"
.LASF746:
	.string	"S_BOSS_STND2"
.LASF1597:
	.string	"sfx_noway"
.LASF641:
	.string	"S_CPOS_DIE2"
.LASF1362:
	.string	"sprev"
.LASF289:
	.string	"S_SAW1"
.LASF290:
	.string	"S_SAW2"
.LASF291:
	.string	"S_SAW3"
.LASF1034:
	.string	"S_BON1"
.LASF1040:
	.string	"S_BON2"
.LASF1379:
	.string	"player"
.LASF286:
	.string	"S_SAWB"
.LASF674:
	.string	"S_TROO_PAIN2"
.LASF1221:
	.string	"MT_BOSSSPIT"
.LASF499:
	.string	"S_FIRE1"
.LASF500:
	.string	"S_FIRE2"
.LASF61:
	.string	"fixed_t"
.LASF502:
	.string	"S_FIRE4"
.LASF503:
	.string	"S_FIRE5"
.LASF504:
	.string	"S_FIRE6"
.LASF505:
	.string	"S_FIRE7"
.LASF159:
	.string	"SPR_BROK"
.LASF507:
	.string	"S_FIRE9"
.LASF1289:
	.string	"MT_MISC44"
.LASF1290:
	.string	"MT_MISC45"
.LASF1092:
	.string	"S_CELL"
.LASF1292:
	.string	"MT_MISC47"
.LASF157:
	.string	"SPR_AMMO"
.LASF1293:
	.string	"MT_MISC48"
.LASF1294:
	.string	"MT_MISC49"
.LASF805:
	.string	"S_SKULL_RUN1"
.LASF806:
	.string	"S_SKULL_RUN2"
.LASF1172:
	.string	"S_HANGTLOOKUP"
.LASF267:
	.string	"S_CHAIN"
.LASF1637:
	.string	"EV_DoDonut"
.LASF297:
	.string	"S_PLASMAFLASH1"
.LASF253:
	.string	"S_DSGUN1"
.LASF254:
	.string	"S_DSGUN2"
.LASF148:
	.string	"SPR_SOUL"
.LASF108:
	.string	"SPR_SPOS"
.LASF257:
	.string	"S_DSGUN5"
.LASF258:
	.string	"S_DSGUN6"
.LASF259:
	.string	"S_DSGUN7"
.LASF260:
	.string	"S_DSGUN8"
.LASF261:
	.string	"S_DSGUN9"
.LASF425:
	.string	"S_SPOS_STND"
.LASF128:
	.string	"SPR_PAIN"
.LASF653:
	.string	"S_CPOS_RAISE1"
.LASF1397:
	.string	"frags"
.LASF1587:
	.string	"sfx_vildth"
.LASF1392:
	.string	"armorpoints"
.LASF15:
	.string	"buttons"
.LASF1472:
	.string	"btexture"
.LASF302:
	.string	"S_BFG1"
.LASF303:
	.string	"S_BFG2"
.LASF304:
	.string	"S_BFG3"
.LASF305:
	.string	"S_BFG4"
.LASF217:
	.string	"spritenum_t"
.LASF264:
	.string	"S_DSNR2"
.LASF804:
	.string	"S_SKULL_STND2"
.LASF1067:
	.string	"S_PINV2"
.LASF1068:
	.string	"S_PINV3"
.LASF697:
	.string	"S_SARG_RUN3"
.LASF1182:
	.string	"S_TECH2LAMP2"
.LASF1183:
	.string	"S_TECH2LAMP3"
.LASF1184:
	.string	"S_TECH2LAMP4"
.LASF1436:
	.string	"line_s"
.LASF80:
	.string	"SPR_PUNG"
.LASF648:
	.string	"S_CPOS_XDIE2"
.LASF649:
	.string	"S_CPOS_XDIE3"
.LASF650:
	.string	"S_CPOS_XDIE4"
.LASF651:
	.string	"S_CPOS_XDIE5"
.LASF652:
	.string	"S_CPOS_XDIE6"
.LASF833:
	.string	"S_SPID_ATK1"
.LASF834:
	.string	"S_SPID_ATK2"
.LASF835:
	.string	"S_SPID_ATK3"
.LASF836:
	.string	"S_SPID_ATK4"
.LASF557:
	.string	"S_SKEL_MISS1"
.LASF558:
	.string	"S_SKEL_MISS2"
.LASF559:
	.string	"S_SKEL_MISS3"
.LASF560:
	.string	"S_SKEL_MISS4"
.LASF314:
	.string	"S_PUFF4"
.LASF1054:
	.string	"S_RSKULL"
.LASF886:
	.string	"S_ARACH_PLAZ2"
.LASF1295:
	.string	"MT_MISC50"
.LASF734:
	.string	"S_HEAD_RAISE1"
.LASF1330:
	.string	"MT_MISC85"
.LASF735:
	.string	"S_HEAD_RAISE2"
.LASF736:
	.string	"S_HEAD_RAISE3"
.LASF1405:
	.string	"cheats"
.LASF143:
	.string	"SPR_BSKU"
.LASF738:
	.string	"S_HEAD_RAISE5"
.LASF739:
	.string	"S_HEAD_RAISE6"
.LASF1501:
	.string	"turboLower"
.LASF1273:
	.string	"MT_SUPERSHOTGUN"
.LASF154:
	.string	"SPR_PMAP"
.LASF1002:
	.string	"S_BRAINEYE"
.LASF155:
	.string	"SPR_PVIS"
.LASF1459:
	.string	"PST_LIVE"
.LASF1231:
	.string	"MT_ARACHPLAZ"
.LASF480:
	.string	"S_VILE_ATK8"
.LASF421:
	.string	"S_POSS_RAISE1"
.LASF422:
	.string	"S_POSS_RAISE2"
.LASF423:
	.string	"S_POSS_RAISE3"
.LASF424:
	.string	"S_POSS_RAISE4"
.LASF276:
	.string	"S_MISSILEDOWN"
.LASF1509:
	.string	"raiseFloorTurbo"
.LASF1598:
	.string	"sfx_barexp"
.LASF1140:
	.string	"S_FLOATSKULL2"
.LASF1141:
	.string	"S_FLOATSKULL3"
.LASF1521:
	.string	"sfx_dbopn"
.LASF1525:
	.string	"sfx_bfg"
.LASF1075:
	.string	"S_MEGA"
.LASF755:
	.string	"S_BOSS_ATK1"
.LASF756:
	.string	"S_BOSS_ATK2"
.LASF757:
	.string	"S_BOSS_ATK3"
.LASF1365:
	.string	"subsector"
.LASF213:
	.string	"SPR_BRS1"
.LASF1420:
	.string	"vertex_t"
.LASF562:
	.string	"S_SKEL_PAIN2"
.LASF1099:
	.string	"S_CSAW"
.LASF52:
	.string	"pw_invulnerability"
.LASF742:
	.string	"S_BRBALLX1"
.LASF743:
	.string	"S_BRBALLX2"
.LASF744:
	.string	"S_BRBALLX3"
.LASF872:
	.string	"S_BSPI_DIE2"
.LASF873:
	.string	"S_BSPI_DIE3"
.LASF874:
	.string	"S_BSPI_DIE4"
.LASF875:
	.string	"S_BSPI_DIE5"
.LASF37:
	.string	"wp_chaingun"
.LASF877:
	.string	"S_BSPI_DIE7"
.LASF428:
	.string	"S_SPOS_RUN2"
.LASF1441:
	.string	"backsector"
.LASF429:
	.string	"S_SPOS_RUN3"
.LASF931:
	.string	"S_PAIN_PAIN2"
.LASF566:
	.string	"S_SKEL_DIE4"
.LASF1517:
	.string	"sfx_pistol"
.LASF162:
	.string	"SPR_SHEL"
.LASF1314:
	.string	"MT_MISC69"
.LASF1393:
	.string	"armortype"
.LASF4:
	.string	"false"
.LASF214:
	.string	"SPR_TLMP"
.LASF393:
	.string	"S_POSS_STND2"
.LASF1272:
	.string	"MT_SHOTGUN"
.LASF1635:
	.string	"G_SecretExitLevel"
.LASF1197:
	.string	"MT_SHOTGUY"
.LASF1408:
	.string	"itemcount"
.LASF1177:
	.string	"S_TECHLAMP"
.LASF1218:
	.string	"MT_WOLFSS"
.LASF1649:
	.string	"texMid"
.LASF1537:
	.string	"sfx_dorcls"
.LASF1643:
	.string	"R_TextureNumForName"
.LASF1658:
	.string	"P_UseSpecialLine"
.LASF775:
	.string	"S_BOS2_STND2"
.LASF1429:
	.string	"soundtarget"
.LASF270:
	.string	"S_CHAIN1"
.LASF271:
	.string	"S_CHAIN2"
.LASF272:
	.string	"S_CHAIN3"
.LASF323:
	.string	"S_RBALLX2"
.LASF324:
	.string	"S_RBALLX3"
.LASF199:
	.string	"SPR_TBLU"
.LASF426:
	.string	"S_SPOS_STND2"
.LASF6:
	.string	"unsigned int"
.LASF1518:
	.string	"sfx_shotgn"
.LASF1361:
	.string	"snext"
.LASF51:
	.string	"am_noammo"
.LASF1358:
	.string	"thinker_s"
.LASF73:
	.string	"thinker_t"
.LASF1578:
	.string	"sfx_bgdth1"
.LASF1579:
	.string	"sfx_bgdth2"
.LASF402:
	.string	"S_POSS_ATK1"
.LASF403:
	.string	"S_POSS_ATK2"
.LASF404:
	.string	"S_POSS_ATK3"
.LASF1645:
	.string	"side"
.LASF1316:
	.string	"MT_MISC71"
.LASF1165:
	.string	"S_RTORCHSHRT2"
.LASF1166:
	.string	"S_RTORCHSHRT3"
.LASF1167:
	.string	"S_RTORCHSHRT4"
.LASF1069:
	.string	"S_PINV4"
.LASF16:
	.string	"short int"
.LASF853:
	.string	"S_BSPI_RUN1"
.LASF1510:
	.string	"donutRaise"
.LASF1322:
	.string	"MT_MISC77"
.LASF1323:
	.string	"MT_MISC78"
.LASF1324:
	.string	"MT_MISC79"
.LASF1213:
	.string	"MT_SKULL"
.LASF1200:
	.string	"MT_UNDEAD"
.LASF26:
	.string	"GameMode_t"
.LASF70:
	.string	"prev"
.LASF563:
	.string	"S_SKEL_DIE1"
.LASF564:
	.string	"S_SKEL_DIE2"
.LASF565:
	.string	"S_SKEL_DIE3"
.LASF110:
	.string	"SPR_FIRE"
.LASF567:
	.string	"S_SKEL_DIE5"
.LASF568:
	.string	"S_SKEL_DIE6"
.LASF1174:
	.string	"S_COLONGIBS"
.LASF1505:
	.string	"lowerAndChange"
.LASF215:
	.string	"SPR_TLP2"
.LASF325:
	.string	"S_PLASBALL"
.LASF1574:
	.string	"sfx_pdiehi"
.LASF171:
	.string	"SPR_SGN2"
.LASF76:
	.string	"options"
.LASF124:
	.string	"SPR_BSPI"
.LASF126:
	.string	"SPR_APBX"
.LASF1416:
	.string	"colormap"
.LASF24:
	.string	"retail"
.LASF1249:
	.string	"MT_MISC11"
.LASF1250:
	.string	"MT_MISC12"
.LASF1252:
	.string	"MT_MISC13"
.LASF1254:
	.string	"MT_MISC14"
.LASF1255:
	.string	"MT_MISC15"
.LASF1256:
	.string	"MT_MISC16"
.LASF1259:
	.string	"MT_MISC17"
.LASF1260:
	.string	"MT_MISC18"
.LASF1088:
	.string	"S_CLIP"
.LASF1350:
	.string	"radius"
.LASF1651:
	.string	"sound"
.LASF1374:
	.string	"health"
.LASF1222:
	.string	"MT_BOSSTARGET"
.LASF1563:
	.string	"sfx_kntsit"
	.section	.debug_line_str,"MS",@progbits,1
.LASF0:
	.string	"p_switch.c"
.LASF1:
	.string	"/home/astrid/Documents/enseignements/DOOM/linuxdoom-1.10"
	.ident	"GCC: (Ubuntu 13.3.0-6ubuntu2~24.04) 13.3.0"
	.section	.note.GNU-stack,"",@progbits
	.section	.note.gnu.property,"a"
	.align 8
	.long	1f - 0f
	.long	4f - 1f
	.long	5
0:
	.string	"GNU"
1:
	.align 8
	.long	0xc0000002
	.long	3f - 2f
2:
	.long	0x3
3:
	.align 8
4:
