	.file	"p_user.c"
# GNU C17 (Ubuntu 13.3.0-6ubuntu2~24.04) version 13.3.0 (x86_64-linux-gnu)
#	compiled by GNU C version 13.3.0, GMP version 6.3.0, MPFR version 4.2.1, MPC version 1.3.1, isl version isl-0.26-GMP

# GGC heuristics: --param ggc-min-expand=100 --param ggc-min-heapsize=131072
# options passed: -mtune=generic -march=x86-64 -g -fasynchronous-unwind-tables -fstack-protector-strong -fstack-clash-protection -fcf-protection
	.text
.Ltext0:
	.file 0 "/home/astrid/Documents/enseignements/DOOM/linuxdoom-1.10" "p_user.c"
	.section	.rodata
	.align 32
	.type	rcsid, @object
	.size	rcsid, 49
rcsid:
	.string	"$Id: p_user.c,v 1.3 1997/01/28 22:08:29 b1 Exp $"
	.globl	onground
	.bss
	.align 4
	.type	onground, @object
	.size	onground, 4
onground:
	.zero	4
	.text
	.globl	P_Thrust
	.type	P_Thrust, @function
P_Thrust:
.LFB0:
	.file 1 "p_user.c"
	.loc 1 63 1
	.cfi_startproc
	endbr64	
	pushq	%rbp	#
	.cfi_def_cfa_offset 16
	.cfi_offset 6, -16
	movq	%rsp, %rbp	#,
	.cfi_def_cfa_register 6
	subq	$16, %rsp	#,
	movq	%rdi, -8(%rbp)	# player, player
	movl	%esi, -12(%rbp)	# angle, angle
	movl	%edx, -16(%rbp)	# move, move
# p_user.c:64:     angle >>= ANGLETOFINESHIFT;
	.loc 1 64 11
	shrl	$19, -12(%rbp)	#, angle
# p_user.c:66:     player->mo->momx += FixedMul(move,finecosine[angle]); 
	.loc 1 66 49
	movq	finecosine(%rip), %rax	# finecosine, finecosine.0_1
	movl	-12(%rbp), %edx	# angle, _2
	salq	$2, %rdx	#, _3
	addq	%rdx, %rax	# _3, _4
# p_user.c:66:     player->mo->momx += FixedMul(move,finecosine[angle]); 
	.loc 1 66 25
	movl	(%rax), %edx	# *_4, _5
	movl	-16(%rbp), %eax	# move, tmp98
	movl	%edx, %esi	# _5,
	movl	%eax, %edi	# tmp98,
	call	FixedMul@PLT	#
	movl	%eax, %edx	#, _20
# p_user.c:66:     player->mo->momx += FixedMul(move,finecosine[angle]); 
	.loc 1 66 11 discriminator 1
	movq	-8(%rbp), %rax	# player, tmp99
	movq	(%rax), %rax	# player_21(D)->mo, _6
# p_user.c:66:     player->mo->momx += FixedMul(move,finecosine[angle]); 
	.loc 1 66 15 discriminator 1
	movl	112(%rax), %ecx	# _6->momx, _7
# p_user.c:66:     player->mo->momx += FixedMul(move,finecosine[angle]); 
	.loc 1 66 11 discriminator 1
	movq	-8(%rbp), %rax	# player, tmp100
	movq	(%rax), %rax	# player_21(D)->mo, _8
# p_user.c:66:     player->mo->momx += FixedMul(move,finecosine[angle]); 
	.loc 1 66 22 discriminator 1
	addl	%ecx, %edx	# _7, _9
	movl	%edx, 112(%rax)	# _9, _8->momx
# p_user.c:67:     player->mo->momy += FixedMul(move,finesine[angle]);
	.loc 1 67 25
	movl	-12(%rbp), %eax	# angle, tmp101
	leaq	0(,%rax,4), %rdx	#, tmp102
	leaq	finesine(%rip), %rax	#, tmp103
	movl	(%rdx,%rax), %edx	# finesine[angle_16], _10
	movl	-16(%rbp), %eax	# move, tmp104
	movl	%edx, %esi	# _10,
	movl	%eax, %edi	# tmp104,
	call	FixedMul@PLT	#
	movl	%eax, %edx	#, _24
# p_user.c:67:     player->mo->momy += FixedMul(move,finesine[angle]);
	.loc 1 67 11 discriminator 1
	movq	-8(%rbp), %rax	# player, tmp105
	movq	(%rax), %rax	# player_21(D)->mo, _11
# p_user.c:67:     player->mo->momy += FixedMul(move,finesine[angle]);
	.loc 1 67 15 discriminator 1
	movl	116(%rax), %ecx	# _11->momy, _12
# p_user.c:67:     player->mo->momy += FixedMul(move,finesine[angle]);
	.loc 1 67 11 discriminator 1
	movq	-8(%rbp), %rax	# player, tmp106
	movq	(%rax), %rax	# player_21(D)->mo, _13
# p_user.c:67:     player->mo->momy += FixedMul(move,finesine[angle]);
	.loc 1 67 22 discriminator 1
	addl	%ecx, %edx	# _12, _14
	movl	%edx, 116(%rax)	# _14, _13->momy
# p_user.c:68: }
	.loc 1 68 1
	nop	
	leave	
	.cfi_def_cfa 7, 8
	ret	
	.cfi_endproc
.LFE0:
	.size	P_Thrust, .-P_Thrust
	.globl	P_CalcHeight
	.type	P_CalcHeight, @function
P_CalcHeight:
.LFB1:
	.loc 1 78 1
	.cfi_startproc
	endbr64	
	pushq	%rbp	#
	.cfi_def_cfa_offset 16
	.cfi_offset 6, -16
	movq	%rsp, %rbp	#,
	.cfi_def_cfa_register 6
	pushq	%rbx	#
	subq	$40, %rsp	#,
	.cfi_offset 3, -24
	movq	%rdi, -40(%rbp)	# player, player
# p_user.c:89: 	FixedMul (player->mo->momx, player->mo->momx)
	.loc 1 89 36
	movq	-40(%rbp), %rax	# player, tmp141
	movq	(%rax), %rax	# player_67(D)->mo, _1
# p_user.c:89: 	FixedMul (player->mo->momx, player->mo->momx)
	.loc 1 89 2
	movl	112(%rax), %edx	# _1->momx, _2
# p_user.c:89: 	FixedMul (player->mo->momx, player->mo->momx)
	.loc 1 89 18
	movq	-40(%rbp), %rax	# player, tmp142
	movq	(%rax), %rax	# player_67(D)->mo, _3
# p_user.c:89: 	FixedMul (player->mo->momx, player->mo->momx)
	.loc 1 89 2
	movl	112(%rax), %eax	# _3->momx, _4
	movl	%edx, %esi	# _2,
	movl	%eax, %edi	# _4,
	call	FixedMul@PLT	#
	movl	%eax, %ebx	#, _5
# p_user.c:90: 	+ FixedMul (player->mo->momy,player->mo->momy);
	.loc 1 90 37
	movq	-40(%rbp), %rax	# player, tmp143
	movq	(%rax), %rax	# player_67(D)->mo, _6
# p_user.c:90: 	+ FixedMul (player->mo->momy,player->mo->momy);
	.loc 1 90 4
	movl	116(%rax), %edx	# _6->momy, _7
# p_user.c:90: 	+ FixedMul (player->mo->momy,player->mo->momy);
	.loc 1 90 20
	movq	-40(%rbp), %rax	# player, tmp144
	movq	(%rax), %rax	# player_67(D)->mo, _8
# p_user.c:90: 	+ FixedMul (player->mo->momy,player->mo->momy);
	.loc 1 90 4
	movl	116(%rax), %eax	# _8->momy, _9
	movl	%edx, %esi	# _7,
	movl	%eax, %edi	# _9,
	call	FixedMul@PLT	#
# p_user.c:90: 	+ FixedMul (player->mo->momy,player->mo->momy);
	.loc 1 90 2 discriminator 1
	leal	(%rbx,%rax), %edx	#, _11
# p_user.c:88:     player->bob =
	.loc 1 88 17
	movq	-40(%rbp), %rax	# player, tmp145
	movl	%edx, 32(%rax)	# _11, player_67(D)->bob
# p_user.c:92:     player->bob >>= 2;
	.loc 1 92 11
	movq	-40(%rbp), %rax	# player, tmp146
	movl	32(%rax), %eax	# player_67(D)->bob, _12
# p_user.c:92:     player->bob >>= 2;
	.loc 1 92 17
	sarl	$2, %eax	#, _12
	movl	%eax, %edx	# _12, _13
	movq	-40(%rbp), %rax	# player, tmp147
	movl	%edx, 32(%rax)	# _13, player_67(D)->bob
# p_user.c:94:     if (player->bob>MAXBOB)
	.loc 1 94 15
	movq	-40(%rbp), %rax	# player, tmp148
	movl	32(%rax), %eax	# player_67(D)->bob, _14
# p_user.c:94:     if (player->bob>MAXBOB)
	.loc 1 94 8
	cmpl	$1048576, %eax	#, _14
	jle	.L3	#,
# p_user.c:95: 	player->bob = MAXBOB;
	.loc 1 95 14
	movq	-40(%rbp), %rax	# player, tmp149
	movl	$1048576, 32(%rax)	#, player_67(D)->bob
.L3:
# p_user.c:97:     if ((player->cheats & CF_NOMOMENTUM) || !onground)
	.loc 1 97 16
	movq	-40(%rbp), %rax	# player, tmp150
	movl	200(%rax), %eax	# player_67(D)->cheats, _15
# p_user.c:97:     if ((player->cheats & CF_NOMOMENTUM) || !onground)
	.loc 1 97 25
	andl	$4, %eax	#, _16
# p_user.c:97:     if ((player->cheats & CF_NOMOMENTUM) || !onground)
	.loc 1 97 8
	testl	%eax, %eax	# _16
	jne	.L4	#,
# p_user.c:97:     if ((player->cheats & CF_NOMOMENTUM) || !onground)
	.loc 1 97 45 discriminator 1
	movl	onground(%rip), %eax	# onground, onground.1_17
# p_user.c:97:     if ((player->cheats & CF_NOMOMENTUM) || !onground)
	.loc 1 97 42 discriminator 1
	testl	%eax, %eax	# onground.1_17
	jne	.L5	#,
.L4:
# p_user.c:99: 	player->viewz = player->mo->z + VIEWHEIGHT;
	.loc 1 99 24
	movq	-40(%rbp), %rax	# player, tmp151
	movq	(%rax), %rax	# player_67(D)->mo, _18
# p_user.c:99: 	player->viewz = player->mo->z + VIEWHEIGHT;
	.loc 1 99 28
	movl	32(%rax), %eax	# _18->z, _19
# p_user.c:99: 	player->viewz = player->mo->z + VIEWHEIGHT;
	.loc 1 99 32
	leal	2686976(%rax), %edx	#, _20
# p_user.c:99: 	player->viewz = player->mo->z + VIEWHEIGHT;
	.loc 1 99 16
	movq	-40(%rbp), %rax	# player, tmp152
	movl	%edx, 20(%rax)	# _20, player_67(D)->viewz
# p_user.c:101: 	if (player->viewz > player->mo->ceilingz-4*FRACUNIT)
	.loc 1 101 28
	movq	-40(%rbp), %rax	# player, tmp153
	movq	(%rax), %rax	# player_67(D)->mo, _21
# p_user.c:101: 	if (player->viewz > player->mo->ceilingz-4*FRACUNIT)
	.loc 1 101 32
	movl	100(%rax), %eax	# _21->ceilingz, _22
# p_user.c:101: 	if (player->viewz > player->mo->ceilingz-4*FRACUNIT)
	.loc 1 101 20
	leal	-262143(%rax), %edx	#, _23
# p_user.c:101: 	if (player->viewz > player->mo->ceilingz-4*FRACUNIT)
	.loc 1 101 12
	movq	-40(%rbp), %rax	# player, tmp154
	movl	20(%rax), %eax	# player_67(D)->viewz, _24
# p_user.c:101: 	if (player->viewz > player->mo->ceilingz-4*FRACUNIT)
	.loc 1 101 5
	cmpl	%eax, %edx	# _24, _23
	jg	.L6	#,
# p_user.c:102: 	    player->viewz = player->mo->ceilingz-4*FRACUNIT;
	.loc 1 102 28
	movq	-40(%rbp), %rax	# player, tmp155
	movq	(%rax), %rax	# player_67(D)->mo, _25
# p_user.c:102: 	    player->viewz = player->mo->ceilingz-4*FRACUNIT;
	.loc 1 102 32
	movl	100(%rax), %eax	# _25->ceilingz, _26
# p_user.c:102: 	    player->viewz = player->mo->ceilingz-4*FRACUNIT;
	.loc 1 102 42
	leal	-262144(%rax), %edx	#, _27
# p_user.c:102: 	    player->viewz = player->mo->ceilingz-4*FRACUNIT;
	.loc 1 102 20
	movq	-40(%rbp), %rax	# player, tmp156
	movl	%edx, 20(%rax)	# _27, player_67(D)->viewz
.L6:
# p_user.c:104: 	player->viewz = player->mo->z + player->viewheight;
	.loc 1 104 24
	movq	-40(%rbp), %rax	# player, tmp157
	movq	(%rax), %rax	# player_67(D)->mo, _28
# p_user.c:104: 	player->viewz = player->mo->z + player->viewheight;
	.loc 1 104 28
	movl	32(%rax), %edx	# _28->z, _29
# p_user.c:104: 	player->viewz = player->mo->z + player->viewheight;
	.loc 1 104 40
	movq	-40(%rbp), %rax	# player, tmp158
	movl	24(%rax), %eax	# player_67(D)->viewheight, _30
# p_user.c:104: 	player->viewz = player->mo->z + player->viewheight;
	.loc 1 104 32
	addl	%eax, %edx	# _30, _31
# p_user.c:104: 	player->viewz = player->mo->z + player->viewheight;
	.loc 1 104 16
	movq	-40(%rbp), %rax	# player, tmp159
	movl	%edx, 20(%rax)	# _31, player_67(D)->viewz
# p_user.c:105: 	return;
	.loc 1 105 2
	jmp	.L2	#
.L5:
# p_user.c:108:     angle = (FINEANGLES/20*leveltime)&FINEMASK;
	.loc 1 108 27
	movl	leveltime(%rip), %eax	# leveltime, leveltime.2_32
	imull	$409, %eax, %eax	#, leveltime.2_32, _33
# p_user.c:108:     angle = (FINEANGLES/20*leveltime)&FINEMASK;
	.loc 1 108 11
	andl	$8191, %eax	#, tmp160
	movl	%eax, -24(%rbp)	# tmp160, angle
# p_user.c:109:     bob = FixedMul ( player->bob/2, finesine[angle]);
	.loc 1 109 11
	movl	-24(%rbp), %eax	# angle, tmp162
	cltq
	leaq	0(,%rax,4), %rdx	#, tmp163
	leaq	finesine(%rip), %rax	#, tmp164
	movl	(%rdx,%rax), %edx	# finesine[angle_73], _34
# p_user.c:109:     bob = FixedMul ( player->bob/2, finesine[angle]);
	.loc 1 109 28
	movq	-40(%rbp), %rax	# player, tmp165
	movl	32(%rax), %eax	# player_67(D)->bob, _35
# p_user.c:109:     bob = FixedMul ( player->bob/2, finesine[angle]);
	.loc 1 109 11
	movl	%eax, %ecx	# _35, tmp166
	shrl	$31, %ecx	#, tmp166
	addl	%ecx, %eax	# tmp166, tmp167
	sarl	%eax	# tmp168
	movl	%edx, %esi	# _34,
	movl	%eax, %edi	# _36,
	call	FixedMul@PLT	#
	movl	%eax, -20(%rbp)	# tmp169, bob
# p_user.c:113:     if (player->playerstate == PST_LIVE)
	.loc 1 113 15
	movq	-40(%rbp), %rax	# player, tmp170
	movl	8(%rax), %eax	# player_67(D)->playerstate, _37
# p_user.c:113:     if (player->playerstate == PST_LIVE)
	.loc 1 113 8
	testl	%eax, %eax	# _37
	jne	.L8	#,
# p_user.c:115: 	player->viewheight += player->deltaviewheight;
	.loc 1 115 8
	movq	-40(%rbp), %rax	# player, tmp171
	movl	24(%rax), %edx	# player_67(D)->viewheight, _38
# p_user.c:115: 	player->viewheight += player->deltaviewheight;
	.loc 1 115 30
	movq	-40(%rbp), %rax	# player, tmp172
	movl	28(%rax), %eax	# player_67(D)->deltaviewheight, _39
# p_user.c:115: 	player->viewheight += player->deltaviewheight;
	.loc 1 115 21
	addl	%eax, %edx	# _39, _40
	movq	-40(%rbp), %rax	# player, tmp173
	movl	%edx, 24(%rax)	# _40, player_67(D)->viewheight
# p_user.c:117: 	if (player->viewheight > VIEWHEIGHT)
	.loc 1 117 12
	movq	-40(%rbp), %rax	# player, tmp174
	movl	24(%rax), %eax	# player_67(D)->viewheight, _41
# p_user.c:117: 	if (player->viewheight > VIEWHEIGHT)
	.loc 1 117 5
	cmpl	$2686976, %eax	#, _41
	jle	.L9	#,
# p_user.c:119: 	    player->viewheight = VIEWHEIGHT;
	.loc 1 119 25
	movq	-40(%rbp), %rax	# player, tmp175
	movl	$2686976, 24(%rax)	#, player_67(D)->viewheight
# p_user.c:120: 	    player->deltaviewheight = 0;
	.loc 1 120 30
	movq	-40(%rbp), %rax	# player, tmp176
	movl	$0, 28(%rax)	#, player_67(D)->deltaviewheight
.L9:
# p_user.c:123: 	if (player->viewheight < VIEWHEIGHT/2)
	.loc 1 123 12
	movq	-40(%rbp), %rax	# player, tmp177
	movl	24(%rax), %eax	# player_67(D)->viewheight, _42
# p_user.c:123: 	if (player->viewheight < VIEWHEIGHT/2)
	.loc 1 123 5
	cmpl	$1343487, %eax	#, _42
	jg	.L10	#,
# p_user.c:125: 	    player->viewheight = VIEWHEIGHT/2;
	.loc 1 125 25
	movq	-40(%rbp), %rax	# player, tmp178
	movl	$1343488, 24(%rax)	#, player_67(D)->viewheight
# p_user.c:126: 	    if (player->deltaviewheight <= 0)
	.loc 1 126 16
	movq	-40(%rbp), %rax	# player, tmp179
	movl	28(%rax), %eax	# player_67(D)->deltaviewheight, _43
# p_user.c:126: 	    if (player->deltaviewheight <= 0)
	.loc 1 126 9
	testl	%eax, %eax	# _43
	jg	.L10	#,
# p_user.c:127: 		player->deltaviewheight = 1;
	.loc 1 127 27
	movq	-40(%rbp), %rax	# player, tmp180
	movl	$1, 28(%rax)	#, player_67(D)->deltaviewheight
.L10:
# p_user.c:130: 	if (player->deltaviewheight)	
	.loc 1 130 12
	movq	-40(%rbp), %rax	# player, tmp181
	movl	28(%rax), %eax	# player_67(D)->deltaviewheight, _44
# p_user.c:130: 	if (player->deltaviewheight)	
	.loc 1 130 5
	testl	%eax, %eax	# _44
	je	.L8	#,
# p_user.c:132: 	    player->deltaviewheight += FRACUNIT/4;
	.loc 1 132 12
	movq	-40(%rbp), %rax	# player, tmp182
	movl	28(%rax), %eax	# player_67(D)->deltaviewheight, _45
# p_user.c:132: 	    player->deltaviewheight += FRACUNIT/4;
	.loc 1 132 30
	leal	16384(%rax), %edx	#, _46
	movq	-40(%rbp), %rax	# player, tmp183
	movl	%edx, 28(%rax)	# _46, player_67(D)->deltaviewheight
# p_user.c:133: 	    if (!player->deltaviewheight)
	.loc 1 133 17
	movq	-40(%rbp), %rax	# player, tmp184
	movl	28(%rax), %eax	# player_67(D)->deltaviewheight, _47
# p_user.c:133: 	    if (!player->deltaviewheight)
	.loc 1 133 9
	testl	%eax, %eax	# _47
	jne	.L8	#,
# p_user.c:134: 		player->deltaviewheight = 1;
	.loc 1 134 27
	movq	-40(%rbp), %rax	# player, tmp185
	movl	$1, 28(%rax)	#, player_67(D)->deltaviewheight
.L8:
# p_user.c:137:     player->viewz = player->mo->z + player->viewheight + bob;
	.loc 1 137 27
	movq	-40(%rbp), %rax	# player, tmp186
	movq	(%rax), %rax	# player_67(D)->mo, _48
# p_user.c:137:     player->viewz = player->mo->z + player->viewheight + bob;
	.loc 1 137 31
	movl	32(%rax), %edx	# _48->z, _49
# p_user.c:137:     player->viewz = player->mo->z + player->viewheight + bob;
	.loc 1 137 43
	movq	-40(%rbp), %rax	# player, tmp187
	movl	24(%rax), %eax	# player_67(D)->viewheight, _50
# p_user.c:137:     player->viewz = player->mo->z + player->viewheight + bob;
	.loc 1 137 35
	addl	%eax, %edx	# _50, _51
# p_user.c:137:     player->viewz = player->mo->z + player->viewheight + bob;
	.loc 1 137 56
	movl	-20(%rbp), %eax	# bob, tmp188
	addl	%eax, %edx	# tmp188, _52
# p_user.c:137:     player->viewz = player->mo->z + player->viewheight + bob;
	.loc 1 137 19
	movq	-40(%rbp), %rax	# player, tmp189
	movl	%edx, 20(%rax)	# _52, player_67(D)->viewz
# p_user.c:139:     if (player->viewz > player->mo->ceilingz-4*FRACUNIT)
	.loc 1 139 31
	movq	-40(%rbp), %rax	# player, tmp190
	movq	(%rax), %rax	# player_67(D)->mo, _53
# p_user.c:139:     if (player->viewz > player->mo->ceilingz-4*FRACUNIT)
	.loc 1 139 35
	movl	100(%rax), %eax	# _53->ceilingz, _54
# p_user.c:139:     if (player->viewz > player->mo->ceilingz-4*FRACUNIT)
	.loc 1 139 23
	leal	-262143(%rax), %edx	#, _55
# p_user.c:139:     if (player->viewz > player->mo->ceilingz-4*FRACUNIT)
	.loc 1 139 15
	movq	-40(%rbp), %rax	# player, tmp191
	movl	20(%rax), %eax	# player_67(D)->viewz, _56
# p_user.c:139:     if (player->viewz > player->mo->ceilingz-4*FRACUNIT)
	.loc 1 139 8
	cmpl	%eax, %edx	# _56, _55
	jg	.L2	#,
# p_user.c:140: 	player->viewz = player->mo->ceilingz-4*FRACUNIT;
	.loc 1 140 24
	movq	-40(%rbp), %rax	# player, tmp192
	movq	(%rax), %rax	# player_67(D)->mo, _57
# p_user.c:140: 	player->viewz = player->mo->ceilingz-4*FRACUNIT;
	.loc 1 140 28
	movl	100(%rax), %eax	# _57->ceilingz, _58
# p_user.c:140: 	player->viewz = player->mo->ceilingz-4*FRACUNIT;
	.loc 1 140 38
	leal	-262144(%rax), %edx	#, _59
# p_user.c:140: 	player->viewz = player->mo->ceilingz-4*FRACUNIT;
	.loc 1 140 16
	movq	-40(%rbp), %rax	# player, tmp193
	movl	%edx, 20(%rax)	# _59, player_67(D)->viewz
.L2:
# p_user.c:141: }
	.loc 1 141 1
	movq	-8(%rbp), %rbx	#,
	leave	
	.cfi_def_cfa 7, 8
	ret	
	.cfi_endproc
.LFE1:
	.size	P_CalcHeight, .-P_CalcHeight
	.globl	P_MovePlayer
	.type	P_MovePlayer, @function
P_MovePlayer:
.LFB2:
	.loc 1 149 1
	.cfi_startproc
	endbr64	
	pushq	%rbp	#
	.cfi_def_cfa_offset 16
	.cfi_offset 6, -16
	movq	%rsp, %rbp	#,
	.cfi_def_cfa_register 6
	subq	$32, %rsp	#,
	movq	%rdi, -24(%rbp)	# player, player
# p_user.c:152:     cmd = &player->cmd;
	.loc 1 152 9
	movq	-24(%rbp), %rax	# player, tmp118
	addq	$12, %rax	#, tmp117
	movq	%rax, -8(%rbp)	# tmp117, cmd
# p_user.c:154:     player->mo->angle += (cmd->angleturn<<16);
	.loc 1 154 11
	movq	-24(%rbp), %rax	# player, tmp119
	movq	(%rax), %rax	# player_37(D)->mo, _1
# p_user.c:154:     player->mo->angle += (cmd->angleturn<<16);
	.loc 1 154 15
	movl	56(%rax), %edx	# _1->angle, _2
# p_user.c:154:     player->mo->angle += (cmd->angleturn<<16);
	.loc 1 154 30
	movq	-8(%rbp), %rax	# cmd, tmp120
	movzwl	2(%rax), %eax	# cmd_38->angleturn, _3
# p_user.c:154:     player->mo->angle += (cmd->angleturn<<16);
	.loc 1 154 41
	cwtl
	sall	$16, %eax	#, _4
	movl	%eax, %ecx	# _4, _5
# p_user.c:154:     player->mo->angle += (cmd->angleturn<<16);
	.loc 1 154 11
	movq	-24(%rbp), %rax	# player, tmp121
	movq	(%rax), %rax	# player_37(D)->mo, _6
# p_user.c:154:     player->mo->angle += (cmd->angleturn<<16);
	.loc 1 154 23
	addl	%ecx, %edx	# _5, _7
	movl	%edx, 56(%rax)	# _7, _6->angle
# p_user.c:158:     onground = (player->mo->z <= player->mo->floorz);
	.loc 1 158 23
	movq	-24(%rbp), %rax	# player, tmp122
	movq	(%rax), %rax	# player_37(D)->mo, _8
# p_user.c:158:     onground = (player->mo->z <= player->mo->floorz);
	.loc 1 158 27
	movl	32(%rax), %edx	# _8->z, _9
# p_user.c:158:     onground = (player->mo->z <= player->mo->floorz);
	.loc 1 158 40
	movq	-24(%rbp), %rax	# player, tmp123
	movq	(%rax), %rax	# player_37(D)->mo, _10
# p_user.c:158:     onground = (player->mo->z <= player->mo->floorz);
	.loc 1 158 44
	movl	96(%rax), %eax	# _10->floorz, _11
# p_user.c:158:     onground = (player->mo->z <= player->mo->floorz);
	.loc 1 158 31
	cmpl	%eax, %edx	# _11, _9
	setle	%al	#, _12
	movzbl	%al, %eax	# _12, _13
# p_user.c:158:     onground = (player->mo->z <= player->mo->floorz);
	.loc 1 158 14
	movl	%eax, onground(%rip)	# _13, onground
# p_user.c:160:     if (cmd->forwardmove && onground)
	.loc 1 160 12
	movq	-8(%rbp), %rax	# cmd, tmp124
	movzbl	(%rax), %eax	# cmd_38->forwardmove, _14
# p_user.c:160:     if (cmd->forwardmove && onground)
	.loc 1 160 8
	testb	%al, %al	# _14
	je	.L12	#,
# p_user.c:160:     if (cmd->forwardmove && onground)
	.loc 1 160 26 discriminator 1
	movl	onground(%rip), %eax	# onground, onground.3_15
	testl	%eax, %eax	# onground.3_15
	je	.L12	#,
# p_user.c:161: 	P_Thrust (player, player->mo->angle, cmd->forwardmove*2048);
	.loc 1 161 42
	movq	-8(%rbp), %rax	# cmd, tmp125
	movzbl	(%rax), %eax	# cmd_38->forwardmove, _16
	movsbl	%al, %eax	# _16, _17
# p_user.c:161: 	P_Thrust (player, player->mo->angle, cmd->forwardmove*2048);
	.loc 1 161 2
	sall	$11, %eax	#, _17
	movl	%eax, %edx	# _17, _18
# p_user.c:161: 	P_Thrust (player, player->mo->angle, cmd->forwardmove*2048);
	.loc 1 161 26
	movq	-24(%rbp), %rax	# player, tmp126
	movq	(%rax), %rax	# player_37(D)->mo, _19
# p_user.c:161: 	P_Thrust (player, player->mo->angle, cmd->forwardmove*2048);
	.loc 1 161 2
	movl	56(%rax), %ecx	# _19->angle, _20
	movq	-24(%rbp), %rax	# player, tmp127
	movl	%ecx, %esi	# _20,
	movq	%rax, %rdi	# tmp127,
	call	P_Thrust	#
.L12:
# p_user.c:163:     if (cmd->sidemove && onground)
	.loc 1 163 12
	movq	-8(%rbp), %rax	# cmd, tmp128
	movzbl	1(%rax), %eax	# cmd_38->sidemove, _21
# p_user.c:163:     if (cmd->sidemove && onground)
	.loc 1 163 8
	testb	%al, %al	# _21
	je	.L13	#,
# p_user.c:163:     if (cmd->sidemove && onground)
	.loc 1 163 23 discriminator 1
	movl	onground(%rip), %eax	# onground, onground.4_22
	testl	%eax, %eax	# onground.4_22
	je	.L13	#,
# p_user.c:164: 	P_Thrust (player, player->mo->angle-ANG90, cmd->sidemove*2048);
	.loc 1 164 48
	movq	-8(%rbp), %rax	# cmd, tmp129
	movzbl	1(%rax), %eax	# cmd_38->sidemove, _23
	movsbl	%al, %eax	# _23, _24
# p_user.c:164: 	P_Thrust (player, player->mo->angle-ANG90, cmd->sidemove*2048);
	.loc 1 164 2
	sall	$11, %eax	#, _24
	movl	%eax, %edx	# _24, _25
# p_user.c:164: 	P_Thrust (player, player->mo->angle-ANG90, cmd->sidemove*2048);
	.loc 1 164 26
	movq	-24(%rbp), %rax	# player, tmp130
	movq	(%rax), %rax	# player_37(D)->mo, _26
# p_user.c:164: 	P_Thrust (player, player->mo->angle-ANG90, cmd->sidemove*2048);
	.loc 1 164 30
	movl	56(%rax), %eax	# _26->angle, _27
# p_user.c:164: 	P_Thrust (player, player->mo->angle-ANG90, cmd->sidemove*2048);
	.loc 1 164 2
	leal	-1073741824(%rax), %ecx	#, _28
	movq	-24(%rbp), %rax	# player, tmp131
	movl	%ecx, %esi	# _28,
	movq	%rax, %rdi	# tmp131,
	call	P_Thrust	#
.L13:
# p_user.c:166:     if ( (cmd->forwardmove || cmd->sidemove) 
	.loc 1 166 14
	movq	-8(%rbp), %rax	# cmd, tmp132
	movzbl	(%rax), %eax	# cmd_38->forwardmove, _29
# p_user.c:166:     if ( (cmd->forwardmove || cmd->sidemove) 
	.loc 1 166 8
	testb	%al, %al	# _29
	jne	.L14	#,
# p_user.c:166:     if ( (cmd->forwardmove || cmd->sidemove) 
	.loc 1 166 34 discriminator 1
	movq	-8(%rbp), %rax	# cmd, tmp133
	movzbl	1(%rax), %eax	# cmd_38->sidemove, _30
# p_user.c:166:     if ( (cmd->forwardmove || cmd->sidemove) 
	.loc 1 166 28 discriminator 1
	testb	%al, %al	# _30
	je	.L16	#,
.L14:
# p_user.c:167: 	 && player->mo->state == &states[S_PLAY] )
	.loc 1 167 12
	movq	-24(%rbp), %rax	# player, tmp134
	movq	(%rax), %rax	# player_37(D)->mo, _31
# p_user.c:167: 	 && player->mo->state == &states[S_PLAY] )
	.loc 1 167 16
	movq	152(%rax), %rdx	# _31->state, _32
# p_user.c:167: 	 && player->mo->state == &states[S_PLAY] )
	.loc 1 167 3
	leaq	8344+states(%rip), %rax	#, tmp135
	cmpq	%rax, %rdx	# tmp135, _32
	jne	.L16	#,
# p_user.c:169: 	P_SetMobjState (player->mo, S_PLAY_RUN1);
	.loc 1 169 2
	movq	-24(%rbp), %rax	# player, tmp136
	movq	(%rax), %rax	# player_37(D)->mo, _33
	movl	$150, %esi	#,
	movq	%rax, %rdi	# _33,
	call	P_SetMobjState@PLT	#
.L16:
# p_user.c:171: }	
	.loc 1 171 1
	nop	
	leave	
	.cfi_def_cfa 7, 8
	ret	
	.cfi_endproc
.LFE2:
	.size	P_MovePlayer, .-P_MovePlayer
	.globl	P_DeathThink
	.type	P_DeathThink, @function
P_DeathThink:
.LFB3:
	.loc 1 183 1
	.cfi_startproc
	endbr64	
	pushq	%rbp	#
	.cfi_def_cfa_offset 16
	.cfi_offset 6, -16
	movq	%rsp, %rbp	#,
	.cfi_def_cfa_register 6
	subq	$32, %rsp	#,
	movq	%rdi, -24(%rbp)	# player, player
# p_user.c:187:     P_MovePsprites (player);
	.loc 1 187 5
	movq	-24(%rbp), %rax	# player, tmp124
	movq	%rax, %rdi	# tmp124,
	call	P_MovePsprites@PLT	#
# p_user.c:190:     if (player->viewheight > 6*FRACUNIT)
	.loc 1 190 15
	movq	-24(%rbp), %rax	# player, tmp125
	movl	24(%rax), %eax	# player_50(D)->viewheight, _1
# p_user.c:190:     if (player->viewheight > 6*FRACUNIT)
	.loc 1 190 8
	cmpl	$393216, %eax	#, _1
	jle	.L18	#,
# p_user.c:191: 	player->viewheight -= FRACUNIT;
	.loc 1 191 8
	movq	-24(%rbp), %rax	# player, tmp126
	movl	24(%rax), %eax	# player_50(D)->viewheight, _2
# p_user.c:191: 	player->viewheight -= FRACUNIT;
	.loc 1 191 21
	leal	-65536(%rax), %edx	#, _3
	movq	-24(%rbp), %rax	# player, tmp127
	movl	%edx, 24(%rax)	# _3, player_50(D)->viewheight
.L18:
# p_user.c:193:     if (player->viewheight < 6*FRACUNIT)
	.loc 1 193 15
	movq	-24(%rbp), %rax	# player, tmp128
	movl	24(%rax), %eax	# player_50(D)->viewheight, _4
# p_user.c:193:     if (player->viewheight < 6*FRACUNIT)
	.loc 1 193 8
	cmpl	$393215, %eax	#, _4
	jg	.L19	#,
# p_user.c:194: 	player->viewheight = 6*FRACUNIT;
	.loc 1 194 21
	movq	-24(%rbp), %rax	# player, tmp129
	movl	$393216, 24(%rax)	#, player_50(D)->viewheight
.L19:
# p_user.c:196:     player->deltaviewheight = 0;
	.loc 1 196 29
	movq	-24(%rbp), %rax	# player, tmp130
	movl	$0, 28(%rax)	#, player_50(D)->deltaviewheight
# p_user.c:197:     onground = (player->mo->z <= player->mo->floorz);
	.loc 1 197 23
	movq	-24(%rbp), %rax	# player, tmp131
	movq	(%rax), %rax	# player_50(D)->mo, _5
# p_user.c:197:     onground = (player->mo->z <= player->mo->floorz);
	.loc 1 197 27
	movl	32(%rax), %edx	# _5->z, _6
# p_user.c:197:     onground = (player->mo->z <= player->mo->floorz);
	.loc 1 197 40
	movq	-24(%rbp), %rax	# player, tmp132
	movq	(%rax), %rax	# player_50(D)->mo, _7
# p_user.c:197:     onground = (player->mo->z <= player->mo->floorz);
	.loc 1 197 44
	movl	96(%rax), %eax	# _7->floorz, _8
# p_user.c:197:     onground = (player->mo->z <= player->mo->floorz);
	.loc 1 197 31
	cmpl	%eax, %edx	# _8, _6
	setle	%al	#, _9
	movzbl	%al, %eax	# _9, _10
# p_user.c:197:     onground = (player->mo->z <= player->mo->floorz);
	.loc 1 197 14
	movl	%eax, onground(%rip)	# _10, onground
# p_user.c:198:     P_CalcHeight (player);
	.loc 1 198 5
	movq	-24(%rbp), %rax	# player, tmp133
	movq	%rax, %rdi	# tmp133,
	call	P_CalcHeight	#
# p_user.c:200:     if (player->attacker && player->attacker != player->mo)
	.loc 1 200 15
	movq	-24(%rbp), %rax	# player, tmp134
	movq	240(%rax), %rax	# player_50(D)->attacker, _11
# p_user.c:200:     if (player->attacker && player->attacker != player->mo)
	.loc 1 200 8
	testq	%rax, %rax	# _11
	je	.L20	#,
# p_user.c:200:     if (player->attacker && player->attacker != player->mo)
	.loc 1 200 35 discriminator 1
	movq	-24(%rbp), %rax	# player, tmp135
	movq	240(%rax), %rdx	# player_50(D)->attacker, _12
# p_user.c:200:     if (player->attacker && player->attacker != player->mo)
	.loc 1 200 55 discriminator 1
	movq	-24(%rbp), %rax	# player, tmp136
	movq	(%rax), %rax	# player_50(D)->mo, _13
# p_user.c:200:     if (player->attacker && player->attacker != player->mo)
	.loc 1 200 26 discriminator 1
	cmpq	%rax, %rdx	# _13, _12
	je	.L20	#,
# p_user.c:205: 				 player->attacker->y);
	.loc 1 205 12
	movq	-24(%rbp), %rax	# player, tmp137
	movq	240(%rax), %rax	# player_50(D)->attacker, _14
# p_user.c:202: 	angle = R_PointToAngle2 (player->mo->x,
	.loc 1 202 10
	movl	28(%rax), %ecx	# _14->y, _15
# p_user.c:204: 				 player->attacker->x,
	.loc 1 204 12
	movq	-24(%rbp), %rax	# player, tmp138
	movq	240(%rax), %rax	# player_50(D)->attacker, _16
# p_user.c:202: 	angle = R_PointToAngle2 (player->mo->x,
	.loc 1 202 10
	movl	24(%rax), %edx	# _16->x, _17
# p_user.c:203: 				 player->mo->y,
	.loc 1 203 12
	movq	-24(%rbp), %rax	# player, tmp139
	movq	(%rax), %rax	# player_50(D)->mo, _18
# p_user.c:202: 	angle = R_PointToAngle2 (player->mo->x,
	.loc 1 202 10
	movl	28(%rax), %esi	# _18->y, _19
# p_user.c:202: 	angle = R_PointToAngle2 (player->mo->x,
	.loc 1 202 33
	movq	-24(%rbp), %rax	# player, tmp140
	movq	(%rax), %rax	# player_50(D)->mo, _20
# p_user.c:202: 	angle = R_PointToAngle2 (player->mo->x,
	.loc 1 202 10
	movl	24(%rax), %eax	# _20->x, _21
	movl	%eax, %edi	# _21,
	call	R_PointToAngle2@PLT	#
	movl	%eax, -8(%rbp)	# tmp141, angle
# p_user.c:207: 	delta = angle - player->mo->angle;
	.loc 1 207 24
	movq	-24(%rbp), %rax	# player, tmp142
	movq	(%rax), %rax	# player_50(D)->mo, _22
# p_user.c:207: 	delta = angle - player->mo->angle;
	.loc 1 207 28
	movl	56(%rax), %eax	# _22->angle, _23
# p_user.c:207: 	delta = angle - player->mo->angle;
	.loc 1 207 8
	movl	-8(%rbp), %edx	# angle, tmp146
	subl	%eax, %edx	# _23, tmp145
	movl	%edx, -4(%rbp)	# tmp145, delta
# p_user.c:209: 	if (delta < ANG5 || delta > (unsigned)-ANG5)
	.loc 1 209 5
	cmpl	$59652322, -4(%rbp)	#, delta
	jbe	.L21	#,
# p_user.c:209: 	if (delta < ANG5 || delta > (unsigned)-ANG5)
	.loc 1 209 19 discriminator 1
	cmpl	$-59652323, -4(%rbp)	#, delta
	jbe	.L22	#,
.L21:
# p_user.c:213: 	    player->mo->angle = angle;
	.loc 1 213 12
	movq	-24(%rbp), %rax	# player, tmp147
	movq	(%rax), %rax	# player_50(D)->mo, _24
# p_user.c:213: 	    player->mo->angle = angle;
	.loc 1 213 24
	movl	-8(%rbp), %edx	# angle, tmp148
	movl	%edx, 56(%rax)	# tmp148, _24->angle
# p_user.c:215: 	    if (player->damagecount)
	.loc 1 215 16
	movq	-24(%rbp), %rax	# player, tmp149
	movl	232(%rax), %eax	# player_50(D)->damagecount, _25
# p_user.c:215: 	    if (player->damagecount)
	.loc 1 215 9
	testl	%eax, %eax	# _25
	je	.L24	#,
# p_user.c:216: 		player->damagecount--;
	.loc 1 216 9
	movq	-24(%rbp), %rax	# player, tmp150
	movl	232(%rax), %eax	# player_50(D)->damagecount, _26
# p_user.c:216: 		player->damagecount--;
	.loc 1 216 22
	leal	-1(%rax), %edx	#, _27
	movq	-24(%rbp), %rax	# player, tmp151
	movl	%edx, 232(%rax)	# _27, player_50(D)->damagecount
# p_user.c:215: 	    if (player->damagecount)
	.loc 1 215 9
	jmp	.L24	#
.L22:
# p_user.c:218: 	else if (delta < ANG180)
	.loc 1 218 17
	movl	-4(%rbp), %eax	# delta, delta.5_28
# p_user.c:218: 	else if (delta < ANG180)
	.loc 1 218 10
	testl	%eax, %eax	# delta.5_28
	js	.L25	#,
# p_user.c:219: 	    player->mo->angle += ANG5;
	.loc 1 219 12
	movq	-24(%rbp), %rax	# player, tmp152
	movq	(%rax), %rax	# player_50(D)->mo, _29
# p_user.c:219: 	    player->mo->angle += ANG5;
	.loc 1 219 16
	movl	56(%rax), %edx	# _29->angle, _30
# p_user.c:219: 	    player->mo->angle += ANG5;
	.loc 1 219 12
	movq	-24(%rbp), %rax	# player, tmp153
	movq	(%rax), %rax	# player_50(D)->mo, _31
# p_user.c:219: 	    player->mo->angle += ANG5;
	.loc 1 219 24
	addl	$59652323, %edx	#, _32
	movl	%edx, 56(%rax)	# _32, _31->angle
# p_user.c:209: 	if (delta < ANG5 || delta > (unsigned)-ANG5)
	.loc 1 209 5
	jmp	.L26	#
.L25:
# p_user.c:221: 	    player->mo->angle -= ANG5;
	.loc 1 221 12
	movq	-24(%rbp), %rax	# player, tmp154
	movq	(%rax), %rax	# player_50(D)->mo, _33
# p_user.c:221: 	    player->mo->angle -= ANG5;
	.loc 1 221 16
	movl	56(%rax), %edx	# _33->angle, _34
# p_user.c:221: 	    player->mo->angle -= ANG5;
	.loc 1 221 12
	movq	-24(%rbp), %rax	# player, tmp155
	movq	(%rax), %rax	# player_50(D)->mo, _35
# p_user.c:221: 	    player->mo->angle -= ANG5;
	.loc 1 221 24
	subl	$59652323, %edx	#, _36
	movl	%edx, 56(%rax)	# _36, _35->angle
# p_user.c:209: 	if (delta < ANG5 || delta > (unsigned)-ANG5)
	.loc 1 209 5
	jmp	.L26	#
.L24:
	jmp	.L26	#
.L20:
# p_user.c:223:     else if (player->damagecount)
	.loc 1 223 20
	movq	-24(%rbp), %rax	# player, tmp156
	movl	232(%rax), %eax	# player_50(D)->damagecount, _37
# p_user.c:223:     else if (player->damagecount)
	.loc 1 223 13
	testl	%eax, %eax	# _37
	je	.L26	#,
# p_user.c:224: 	player->damagecount--;
	.loc 1 224 8
	movq	-24(%rbp), %rax	# player, tmp157
	movl	232(%rax), %eax	# player_50(D)->damagecount, _38
# p_user.c:224: 	player->damagecount--;
	.loc 1 224 21
	leal	-1(%rax), %edx	#, _39
	movq	-24(%rbp), %rax	# player, tmp158
	movl	%edx, 232(%rax)	# _39, player_50(D)->damagecount
.L26:
# p_user.c:227:     if (player->cmd.buttons & BT_USE)
	.loc 1 227 20
	movq	-24(%rbp), %rax	# player, tmp159
	movzbl	19(%rax), %eax	# player_50(D)->cmd.buttons, _40
# p_user.c:227:     if (player->cmd.buttons & BT_USE)
	.loc 1 227 29
	movzbl	%al, %eax	# _40, _41
	andl	$2, %eax	#, _42
# p_user.c:227:     if (player->cmd.buttons & BT_USE)
	.loc 1 227 8
	testl	%eax, %eax	# _42
	je	.L28	#,
# p_user.c:228: 	player->playerstate = PST_REBORN;
	.loc 1 228 22
	movq	-24(%rbp), %rax	# player, tmp160
	movl	$2, 8(%rax)	#, player_50(D)->playerstate
.L28:
# p_user.c:229: }
	.loc 1 229 1
	nop	
	leave	
	.cfi_def_cfa 7, 8
	ret	
	.cfi_endproc
.LFE3:
	.size	P_DeathThink, .-P_DeathThink
	.globl	P_PlayerThink
	.type	P_PlayerThink, @function
P_PlayerThink:
.LFB4:
	.loc 1 237 1
	.cfi_startproc
	endbr64	
	pushq	%rbp	#
	.cfi_def_cfa_offset 16
	.cfi_offset 6, -16
	movq	%rsp, %rbp	#,
	.cfi_def_cfa_register 6
	subq	$32, %rsp	#,
	movq	%rdi, -24(%rbp)	# player, player
# p_user.c:242:     if (player->cheats & CF_NOCLIP)
	.loc 1 242 15
	movq	-24(%rbp), %rax	# player, tmp165
	movl	200(%rax), %eax	# player_104(D)->cheats, _1
# p_user.c:242:     if (player->cheats & CF_NOCLIP)
	.loc 1 242 24
	andl	$1, %eax	#, _2
# p_user.c:242:     if (player->cheats & CF_NOCLIP)
	.loc 1 242 8
	testl	%eax, %eax	# _2
	je	.L30	#,
# p_user.c:243: 	player->mo->flags |= MF_NOCLIP;
	.loc 1 243 8
	movq	-24(%rbp), %rax	# player, tmp166
	movq	(%rax), %rax	# player_104(D)->mo, _3
# p_user.c:243: 	player->mo->flags |= MF_NOCLIP;
	.loc 1 243 12
	movl	160(%rax), %edx	# _3->flags, _4
# p_user.c:243: 	player->mo->flags |= MF_NOCLIP;
	.loc 1 243 8
	movq	-24(%rbp), %rax	# player, tmp167
	movq	(%rax), %rax	# player_104(D)->mo, _5
# p_user.c:243: 	player->mo->flags |= MF_NOCLIP;
	.loc 1 243 20
	orb	$16, %dh	#, _6
	movl	%edx, 160(%rax)	# _6, _5->flags
	jmp	.L31	#
.L30:
# p_user.c:245: 	player->mo->flags &= ~MF_NOCLIP;
	.loc 1 245 8
	movq	-24(%rbp), %rax	# player, tmp168
	movq	(%rax), %rax	# player_104(D)->mo, _7
# p_user.c:245: 	player->mo->flags &= ~MF_NOCLIP;
	.loc 1 245 12
	movl	160(%rax), %edx	# _7->flags, _8
# p_user.c:245: 	player->mo->flags &= ~MF_NOCLIP;
	.loc 1 245 8
	movq	-24(%rbp), %rax	# player, tmp169
	movq	(%rax), %rax	# player_104(D)->mo, _9
# p_user.c:245: 	player->mo->flags &= ~MF_NOCLIP;
	.loc 1 245 20
	andb	$-17, %dh	#, _10
	movl	%edx, 160(%rax)	# _10, _9->flags
.L31:
# p_user.c:248:     cmd = &player->cmd;
	.loc 1 248 9
	movq	-24(%rbp), %rax	# player, tmp173
	addq	$12, %rax	#, tmp172
	movq	%rax, -8(%rbp)	# tmp172, cmd
# p_user.c:249:     if (player->mo->flags & MF_JUSTATTACKED)
	.loc 1 249 15
	movq	-24(%rbp), %rax	# player, tmp174
	movq	(%rax), %rax	# player_104(D)->mo, _11
# p_user.c:249:     if (player->mo->flags & MF_JUSTATTACKED)
	.loc 1 249 19
	movl	160(%rax), %eax	# _11->flags, _12
# p_user.c:249:     if (player->mo->flags & MF_JUSTATTACKED)
	.loc 1 249 27
	andl	$128, %eax	#, _13
# p_user.c:249:     if (player->mo->flags & MF_JUSTATTACKED)
	.loc 1 249 8
	testl	%eax, %eax	# _13
	je	.L32	#,
# p_user.c:251: 	cmd->angleturn = 0;
	.loc 1 251 17
	movq	-8(%rbp), %rax	# cmd, tmp175
	movw	$0, 2(%rax)	#, cmd_107->angleturn
# p_user.c:252: 	cmd->forwardmove = 0xc800/512;
	.loc 1 252 19
	movq	-8(%rbp), %rax	# cmd, tmp176
	movb	$100, (%rax)	#, cmd_107->forwardmove
# p_user.c:253: 	cmd->sidemove = 0;
	.loc 1 253 16
	movq	-8(%rbp), %rax	# cmd, tmp177
	movb	$0, 1(%rax)	#, cmd_107->sidemove
# p_user.c:254: 	player->mo->flags &= ~MF_JUSTATTACKED;
	.loc 1 254 8
	movq	-24(%rbp), %rax	# player, tmp178
	movq	(%rax), %rax	# player_104(D)->mo, _14
# p_user.c:254: 	player->mo->flags &= ~MF_JUSTATTACKED;
	.loc 1 254 12
	movl	160(%rax), %edx	# _14->flags, _15
# p_user.c:254: 	player->mo->flags &= ~MF_JUSTATTACKED;
	.loc 1 254 8
	movq	-24(%rbp), %rax	# player, tmp179
	movq	(%rax), %rax	# player_104(D)->mo, _16
# p_user.c:254: 	player->mo->flags &= ~MF_JUSTATTACKED;
	.loc 1 254 20
	andb	$127, %dl	#, _17
	movl	%edx, 160(%rax)	# _17, _16->flags
.L32:
# p_user.c:258:     if (player->playerstate == PST_DEAD)
	.loc 1 258 15
	movq	-24(%rbp), %rax	# player, tmp180
	movl	8(%rax), %eax	# player_104(D)->playerstate, _18
# p_user.c:258:     if (player->playerstate == PST_DEAD)
	.loc 1 258 8
	cmpl	$1, %eax	#, _18
	jne	.L33	#,
# p_user.c:260: 	P_DeathThink (player);
	.loc 1 260 2
	movq	-24(%rbp), %rax	# player, tmp181
	movq	%rax, %rdi	# tmp181,
	call	P_DeathThink	#
# p_user.c:261: 	return;
	.loc 1 261 2
	jmp	.L29	#
.L33:
# p_user.c:267:     if (player->mo->reactiontime)
	.loc 1 267 15
	movq	-24(%rbp), %rax	# player, tmp182
	movq	(%rax), %rax	# player_104(D)->mo, _19
# p_user.c:267:     if (player->mo->reactiontime)
	.loc 1 267 19
	movl	184(%rax), %eax	# _19->reactiontime, _20
# p_user.c:267:     if (player->mo->reactiontime)
	.loc 1 267 8
	testl	%eax, %eax	# _20
	je	.L35	#,
# p_user.c:268: 	player->mo->reactiontime--;
	.loc 1 268 8
	movq	-24(%rbp), %rax	# player, tmp183
	movq	(%rax), %rax	# player_104(D)->mo, _21
# p_user.c:268: 	player->mo->reactiontime--;
	.loc 1 268 12
	movl	184(%rax), %edx	# _21->reactiontime, _22
# p_user.c:268: 	player->mo->reactiontime--;
	.loc 1 268 26
	subl	$1, %edx	#, _23
	movl	%edx, 184(%rax)	# _23, _21->reactiontime
	jmp	.L36	#
.L35:
# p_user.c:270: 	P_MovePlayer (player);
	.loc 1 270 2
	movq	-24(%rbp), %rax	# player, tmp184
	movq	%rax, %rdi	# tmp184,
	call	P_MovePlayer	#
.L36:
# p_user.c:272:     P_CalcHeight (player);
	.loc 1 272 5
	movq	-24(%rbp), %rax	# player, tmp185
	movq	%rax, %rdi	# tmp185,
	call	P_CalcHeight	#
# p_user.c:274:     if (player->mo->subsector->sector->special)
	.loc 1 274 15
	movq	-24(%rbp), %rax	# player, tmp186
	movq	(%rax), %rax	# player_104(D)->mo, _24
# p_user.c:274:     if (player->mo->subsector->sector->special)
	.loc 1 274 19
	movq	88(%rax), %rax	# _24->subsector, _25
# p_user.c:274:     if (player->mo->subsector->sector->special)
	.loc 1 274 30
	movq	(%rax), %rax	# _25->sector, _26
# p_user.c:274:     if (player->mo->subsector->sector->special)
	.loc 1 274 38
	movzwl	14(%rax), %eax	# _26->special, _27
# p_user.c:274:     if (player->mo->subsector->sector->special)
	.loc 1 274 8
	testw	%ax, %ax	# _27
	je	.L37	#,
# p_user.c:275: 	P_PlayerInSpecialSector (player);
	.loc 1 275 2
	movq	-24(%rbp), %rax	# player, tmp187
	movq	%rax, %rdi	# tmp187,
	call	P_PlayerInSpecialSector@PLT	#
.L37:
# p_user.c:280:     if (cmd->buttons & BT_SPECIAL)
	.loc 1 280 12
	movq	-8(%rbp), %rax	# cmd, tmp188
	movzbl	7(%rax), %eax	# cmd_107->buttons, _28
# p_user.c:280:     if (cmd->buttons & BT_SPECIAL)
	.loc 1 280 8
	testb	%al, %al	# _29
	jns	.L38	#,
# p_user.c:281: 	cmd->buttons = 0;			
	.loc 1 281 15
	movq	-8(%rbp), %rax	# cmd, tmp189
	movb	$0, 7(%rax)	#, cmd_107->buttons
.L38:
# p_user.c:283:     if (cmd->buttons & BT_CHANGE)
	.loc 1 283 12
	movq	-8(%rbp), %rax	# cmd, tmp190
	movzbl	7(%rax), %eax	# cmd_107->buttons, _30
# p_user.c:283:     if (cmd->buttons & BT_CHANGE)
	.loc 1 283 22
	movzbl	%al, %eax	# _30, _31
	andl	$4, %eax	#, _32
# p_user.c:283:     if (cmd->buttons & BT_CHANGE)
	.loc 1 283 8
	testl	%eax, %eax	# _32
	je	.L39	#,
# p_user.c:288: 	newweapon = (cmd->buttons&BT_WEAPONMASK)>>BT_WEAPONSHIFT;
	.loc 1 288 18
	movq	-8(%rbp), %rax	# cmd, tmp191
	movzbl	7(%rax), %eax	# cmd_107->buttons, _33
# p_user.c:288: 	newweapon = (cmd->buttons&BT_WEAPONMASK)>>BT_WEAPONSHIFT;
	.loc 1 288 42
	movzbl	%al, %eax	# _33, _34
	sarl	$3, %eax	#, _35
	andl	$7, %eax	#, _36
# p_user.c:288: 	newweapon = (cmd->buttons&BT_WEAPONMASK)>>BT_WEAPONSHIFT;
	.loc 1 288 12
	movl	%eax, -12(%rbp)	# _36, newweapon
# p_user.c:290: 	if (newweapon == wp_fist
	.loc 1 290 5
	cmpl	$0, -12(%rbp)	#, newweapon
	jne	.L40	#,
# p_user.c:291: 	    && player->weaponowned[wp_chainsaw]
	.loc 1 291 28
	movq	-24(%rbp), %rax	# player, tmp192
	movl	152(%rax), %eax	# player_104(D)->weaponowned[7], _37
# p_user.c:291: 	    && player->weaponowned[wp_chainsaw]
	.loc 1 291 6
	testl	%eax, %eax	# _37
	je	.L40	#,
# p_user.c:292: 	    && !(player->readyweapon == wp_chainsaw
	.loc 1 292 17
	movq	-24(%rbp), %rax	# player, tmp193
	movl	116(%rax), %eax	# player_104(D)->readyweapon, _38
# p_user.c:292: 	    && !(player->readyweapon == wp_chainsaw
	.loc 1 292 6
	cmpl	$7, %eax	#, _38
	jne	.L41	#,
# p_user.c:293: 		 && player->powers[pw_strength]))
	.loc 1 293 21
	movq	-24(%rbp), %rax	# player, tmp194
	movl	52(%rax), %eax	# player_104(D)->powers[1], _39
# p_user.c:292: 	    && !(player->readyweapon == wp_chainsaw
	.loc 1 292 9 discriminator 1
	testl	%eax, %eax	# _39
	jne	.L40	#,
.L41:
# p_user.c:295: 	    newweapon = wp_chainsaw;
	.loc 1 295 16
	movl	$7, -12(%rbp)	#, newweapon
.L40:
# p_user.c:298: 	if ( (gamemode == commercial)
	.loc 1 298 17
	movl	gamemode(%rip), %eax	# gamemode, gamemode.6_40
# p_user.c:298: 	if ( (gamemode == commercial)
	.loc 1 298 5
	cmpl	$2, %eax	#, gamemode.6_40
	jne	.L42	#,
# p_user.c:299: 	    && newweapon == wp_shotgun 
	.loc 1 299 6
	cmpl	$2, -12(%rbp)	#, newweapon
	jne	.L42	#,
# p_user.c:300: 	    && player->weaponowned[wp_supershotgun]
	.loc 1 300 28
	movq	-24(%rbp), %rax	# player, tmp195
	movl	156(%rax), %eax	# player_104(D)->weaponowned[8], _41
# p_user.c:300: 	    && player->weaponowned[wp_supershotgun]
	.loc 1 300 6
	testl	%eax, %eax	# _41
	je	.L42	#,
# p_user.c:301: 	    && player->readyweapon != wp_supershotgun)
	.loc 1 301 15
	movq	-24(%rbp), %rax	# player, tmp196
	movl	116(%rax), %eax	# player_104(D)->readyweapon, _42
# p_user.c:301: 	    && player->readyweapon != wp_supershotgun)
	.loc 1 301 6
	cmpl	$8, %eax	#, _42
	je	.L42	#,
# p_user.c:303: 	    newweapon = wp_supershotgun;
	.loc 1 303 16
	movl	$8, -12(%rbp)	#, newweapon
.L42:
# p_user.c:307: 	if (player->weaponowned[newweapon]
	.loc 1 307 25
	movq	-24(%rbp), %rax	# player, tmp197
	movl	-12(%rbp), %edx	# newweapon, tmp198
	addq	$28, %rdx	#, tmp199
	movl	12(%rax,%rdx,4), %eax	# player_104(D)->weaponowned[newweapon_85], _43
# p_user.c:307: 	if (player->weaponowned[newweapon]
	.loc 1 307 5
	testl	%eax, %eax	# _43
	je	.L39	#,
# p_user.c:308: 	    && newweapon != player->readyweapon)
	.loc 1 308 28
	movq	-24(%rbp), %rax	# player, tmp200
	movl	116(%rax), %eax	# player_104(D)->readyweapon, _44
# p_user.c:308: 	    && newweapon != player->readyweapon)
	.loc 1 308 6
	cmpl	%eax, -12(%rbp)	# _44, newweapon
	je	.L39	#,
# p_user.c:312: 	    if ((newweapon != wp_plasma
	.loc 1 312 9
	cmpl	$5, -12(%rbp)	#, newweapon
	je	.L43	#,
# p_user.c:313: 		 && newweapon != wp_bfg)
	.loc 1 313 4
	cmpl	$6, -12(%rbp)	#, newweapon
	jne	.L44	#,
.L43:
# p_user.c:314: 		|| (gamemode != shareware) )
	.loc 1 314 16
	movl	gamemode(%rip), %eax	# gamemode, gamemode.7_45
# p_user.c:314: 		|| (gamemode != shareware) )
	.loc 1 314 3
	testl	%eax, %eax	# gamemode.7_45
	je	.L39	#,
.L44:
# p_user.c:316: 		player->pendingweapon = newweapon;
	.loc 1 316 25
	movq	-24(%rbp), %rax	# player, tmp201
	movl	-12(%rbp), %edx	# newweapon, tmp202
	movl	%edx, 120(%rax)	# tmp202, player_104(D)->pendingweapon
.L39:
# p_user.c:322:     if (cmd->buttons & BT_USE)
	.loc 1 322 12
	movq	-8(%rbp), %rax	# cmd, tmp203
	movzbl	7(%rax), %eax	# cmd_107->buttons, _46
# p_user.c:322:     if (cmd->buttons & BT_USE)
	.loc 1 322 22
	movzbl	%al, %eax	# _46, _47
	andl	$2, %eax	#, _48
# p_user.c:322:     if (cmd->buttons & BT_USE)
	.loc 1 322 8
	testl	%eax, %eax	# _48
	je	.L45	#,
# p_user.c:324: 	if (!player->usedown)
	.loc 1 324 13
	movq	-24(%rbp), %rax	# player, tmp204
	movl	196(%rax), %eax	# player_104(D)->usedown, _49
# p_user.c:324: 	if (!player->usedown)
	.loc 1 324 5
	testl	%eax, %eax	# _49
	jne	.L46	#,
# p_user.c:326: 	    P_UseLines (player);
	.loc 1 326 6
	movq	-24(%rbp), %rax	# player, tmp205
	movq	%rax, %rdi	# tmp205,
	call	P_UseLines@PLT	#
# p_user.c:327: 	    player->usedown = true;
	.loc 1 327 22
	movq	-24(%rbp), %rax	# player, tmp206
	movl	$1, 196(%rax)	#, player_104(D)->usedown
	jmp	.L46	#
.L45:
# p_user.c:331: 	player->usedown = false;
	.loc 1 331 18
	movq	-24(%rbp), %rax	# player, tmp207
	movl	$0, 196(%rax)	#, player_104(D)->usedown
.L46:
# p_user.c:334:     P_MovePsprites (player);
	.loc 1 334 5
	movq	-24(%rbp), %rax	# player, tmp208
	movq	%rax, %rdi	# tmp208,
	call	P_MovePsprites@PLT	#
# p_user.c:339:     if (player->powers[pw_strength])
	.loc 1 339 23
	movq	-24(%rbp), %rax	# player, tmp209
	movl	52(%rax), %eax	# player_104(D)->powers[1], _50
# p_user.c:339:     if (player->powers[pw_strength])
	.loc 1 339 8
	testl	%eax, %eax	# _50
	je	.L47	#,
# p_user.c:340: 	player->powers[pw_strength]++;	
	.loc 1 340 16
	movq	-24(%rbp), %rax	# player, tmp210
	movl	52(%rax), %eax	# player_104(D)->powers[1], _51
# p_user.c:340: 	player->powers[pw_strength]++;	
	.loc 1 340 29
	leal	1(%rax), %edx	#, _52
	movq	-24(%rbp), %rax	# player, tmp211
	movl	%edx, 52(%rax)	# _52, player_104(D)->powers[1]
.L47:
# p_user.c:342:     if (player->powers[pw_invulnerability])
	.loc 1 342 23
	movq	-24(%rbp), %rax	# player, tmp212
	movl	48(%rax), %eax	# player_104(D)->powers[0], _53
# p_user.c:342:     if (player->powers[pw_invulnerability])
	.loc 1 342 8
	testl	%eax, %eax	# _53
	je	.L48	#,
# p_user.c:343: 	player->powers[pw_invulnerability]--;
	.loc 1 343 16
	movq	-24(%rbp), %rax	# player, tmp213
	movl	48(%rax), %eax	# player_104(D)->powers[0], _54
# p_user.c:343: 	player->powers[pw_invulnerability]--;
	.loc 1 343 36
	leal	-1(%rax), %edx	#, _55
	movq	-24(%rbp), %rax	# player, tmp214
	movl	%edx, 48(%rax)	# _55, player_104(D)->powers[0]
.L48:
# p_user.c:345:     if (player->powers[pw_invisibility])
	.loc 1 345 23
	movq	-24(%rbp), %rax	# player, tmp215
	movl	56(%rax), %eax	# player_104(D)->powers[2], _56
# p_user.c:345:     if (player->powers[pw_invisibility])
	.loc 1 345 8
	testl	%eax, %eax	# _56
	je	.L49	#,
# p_user.c:346: 	if (! --player->powers[pw_invisibility] )
	.loc 1 346 24
	movq	-24(%rbp), %rax	# player, tmp216
	movl	56(%rax), %eax	# player_104(D)->powers[2], _57
# p_user.c:346: 	if (! --player->powers[pw_invisibility] )
	.loc 1 346 8
	leal	-1(%rax), %edx	#, _58
# p_user.c:346: 	if (! --player->powers[pw_invisibility] )
	.loc 1 346 5
	movq	-24(%rbp), %rax	# player, tmp217
	movl	%edx, 56(%rax)	# _58, player_104(D)->powers[2]
# p_user.c:346: 	if (! --player->powers[pw_invisibility] )
	.loc 1 346 24
	movq	-24(%rbp), %rax	# player, tmp218
	movl	56(%rax), %eax	# player_104(D)->powers[2], _59
# p_user.c:346: 	if (! --player->powers[pw_invisibility] )
	.loc 1 346 5
	testl	%eax, %eax	# _59
	jne	.L49	#,
# p_user.c:347: 	    player->mo->flags &= ~MF_SHADOW;
	.loc 1 347 12
	movq	-24(%rbp), %rax	# player, tmp219
	movq	(%rax), %rax	# player_104(D)->mo, _60
# p_user.c:347: 	    player->mo->flags &= ~MF_SHADOW;
	.loc 1 347 16
	movl	160(%rax), %edx	# _60->flags, _61
# p_user.c:347: 	    player->mo->flags &= ~MF_SHADOW;
	.loc 1 347 12
	movq	-24(%rbp), %rax	# player, tmp220
	movq	(%rax), %rax	# player_104(D)->mo, _62
# p_user.c:347: 	    player->mo->flags &= ~MF_SHADOW;
	.loc 1 347 24
	andl	$-262145, %edx	#, _63
	movl	%edx, 160(%rax)	# _63, _62->flags
.L49:
# p_user.c:349:     if (player->powers[pw_infrared])
	.loc 1 349 23
	movq	-24(%rbp), %rax	# player, tmp221
	movl	68(%rax), %eax	# player_104(D)->powers[5], _64
# p_user.c:349:     if (player->powers[pw_infrared])
	.loc 1 349 8
	testl	%eax, %eax	# _64
	je	.L50	#,
# p_user.c:350: 	player->powers[pw_infrared]--;
	.loc 1 350 16
	movq	-24(%rbp), %rax	# player, tmp222
	movl	68(%rax), %eax	# player_104(D)->powers[5], _65
# p_user.c:350: 	player->powers[pw_infrared]--;
	.loc 1 350 29
	leal	-1(%rax), %edx	#, _66
	movq	-24(%rbp), %rax	# player, tmp223
	movl	%edx, 68(%rax)	# _66, player_104(D)->powers[5]
.L50:
# p_user.c:352:     if (player->powers[pw_ironfeet])
	.loc 1 352 23
	movq	-24(%rbp), %rax	# player, tmp224
	movl	60(%rax), %eax	# player_104(D)->powers[3], _67
# p_user.c:352:     if (player->powers[pw_ironfeet])
	.loc 1 352 8
	testl	%eax, %eax	# _67
	je	.L51	#,
# p_user.c:353: 	player->powers[pw_ironfeet]--;
	.loc 1 353 16
	movq	-24(%rbp), %rax	# player, tmp225
	movl	60(%rax), %eax	# player_104(D)->powers[3], _68
# p_user.c:353: 	player->powers[pw_ironfeet]--;
	.loc 1 353 29
	leal	-1(%rax), %edx	#, _69
	movq	-24(%rbp), %rax	# player, tmp226
	movl	%edx, 60(%rax)	# _69, player_104(D)->powers[3]
.L51:
# p_user.c:355:     if (player->damagecount)
	.loc 1 355 15
	movq	-24(%rbp), %rax	# player, tmp227
	movl	232(%rax), %eax	# player_104(D)->damagecount, _70
# p_user.c:355:     if (player->damagecount)
	.loc 1 355 8
	testl	%eax, %eax	# _70
	je	.L52	#,
# p_user.c:356: 	player->damagecount--;
	.loc 1 356 8
	movq	-24(%rbp), %rax	# player, tmp228
	movl	232(%rax), %eax	# player_104(D)->damagecount, _71
# p_user.c:356: 	player->damagecount--;
	.loc 1 356 21
	leal	-1(%rax), %edx	#, _72
	movq	-24(%rbp), %rax	# player, tmp229
	movl	%edx, 232(%rax)	# _72, player_104(D)->damagecount
.L52:
# p_user.c:358:     if (player->bonuscount)
	.loc 1 358 15
	movq	-24(%rbp), %rax	# player, tmp230
	movl	236(%rax), %eax	# player_104(D)->bonuscount, _73
# p_user.c:358:     if (player->bonuscount)
	.loc 1 358 8
	testl	%eax, %eax	# _73
	je	.L53	#,
# p_user.c:359: 	player->bonuscount--;
	.loc 1 359 8
	movq	-24(%rbp), %rax	# player, tmp231
	movl	236(%rax), %eax	# player_104(D)->bonuscount, _74
# p_user.c:359: 	player->bonuscount--;
	.loc 1 359 20
	leal	-1(%rax), %edx	#, _75
	movq	-24(%rbp), %rax	# player, tmp232
	movl	%edx, 236(%rax)	# _75, player_104(D)->bonuscount
.L53:
# p_user.c:363:     if (player->powers[pw_invulnerability])
	.loc 1 363 23
	movq	-24(%rbp), %rax	# player, tmp233
	movl	48(%rax), %eax	# player_104(D)->powers[0], _76
# p_user.c:363:     if (player->powers[pw_invulnerability])
	.loc 1 363 8
	testl	%eax, %eax	# _76
	je	.L54	#,
# p_user.c:365: 	if (player->powers[pw_invulnerability] > 4*32
	.loc 1 365 20
	movq	-24(%rbp), %rax	# player, tmp234
	movl	48(%rax), %eax	# player_104(D)->powers[0], _77
# p_user.c:365: 	if (player->powers[pw_invulnerability] > 4*32
	.loc 1 365 5
	cmpl	$128, %eax	#, _77
	jg	.L55	#,
# p_user.c:366: 	    || (player->powers[pw_invulnerability]&8) )
	.loc 1 366 24
	movq	-24(%rbp), %rax	# player, tmp235
	movl	48(%rax), %eax	# player_104(D)->powers[0], _78
# p_user.c:366: 	    || (player->powers[pw_invulnerability]&8) )
	.loc 1 366 44
	andl	$8, %eax	#, _79
# p_user.c:366: 	    || (player->powers[pw_invulnerability]&8) )
	.loc 1 366 6
	testl	%eax, %eax	# _79
	je	.L56	#,
.L55:
# p_user.c:367: 	    player->fixedcolormap = INVERSECOLORMAP;
	.loc 1 367 28
	movq	-24(%rbp), %rax	# player, tmp236
	movl	$32, 252(%rax)	#, player_104(D)->fixedcolormap
	jmp	.L29	#
.L56:
# p_user.c:369: 	    player->fixedcolormap = 0;
	.loc 1 369 28
	movq	-24(%rbp), %rax	# player, tmp237
	movl	$0, 252(%rax)	#, player_104(D)->fixedcolormap
	jmp	.L29	#
.L54:
# p_user.c:371:     else if (player->powers[pw_infrared])	
	.loc 1 371 28
	movq	-24(%rbp), %rax	# player, tmp238
	movl	68(%rax), %eax	# player_104(D)->powers[5], _80
# p_user.c:371:     else if (player->powers[pw_infrared])	
	.loc 1 371 13
	testl	%eax, %eax	# _80
	je	.L58	#,
# p_user.c:373: 	if (player->powers[pw_infrared] > 4*32
	.loc 1 373 20
	movq	-24(%rbp), %rax	# player, tmp239
	movl	68(%rax), %eax	# player_104(D)->powers[5], _81
# p_user.c:373: 	if (player->powers[pw_infrared] > 4*32
	.loc 1 373 5
	cmpl	$128, %eax	#, _81
	jg	.L59	#,
# p_user.c:374: 	    || (player->powers[pw_infrared]&8) )
	.loc 1 374 24
	movq	-24(%rbp), %rax	# player, tmp240
	movl	68(%rax), %eax	# player_104(D)->powers[5], _82
# p_user.c:374: 	    || (player->powers[pw_infrared]&8) )
	.loc 1 374 37
	andl	$8, %eax	#, _83
# p_user.c:374: 	    || (player->powers[pw_infrared]&8) )
	.loc 1 374 6
	testl	%eax, %eax	# _83
	je	.L60	#,
.L59:
# p_user.c:377: 	    player->fixedcolormap = 1;
	.loc 1 377 28
	movq	-24(%rbp), %rax	# player, tmp241
	movl	$1, 252(%rax)	#, player_104(D)->fixedcolormap
	jmp	.L29	#
.L60:
# p_user.c:380: 	    player->fixedcolormap = 0;
	.loc 1 380 28
	movq	-24(%rbp), %rax	# player, tmp242
	movl	$0, 252(%rax)	#, player_104(D)->fixedcolormap
	jmp	.L29	#
.L58:
# p_user.c:383: 	player->fixedcolormap = 0;
	.loc 1 383 24
	movq	-24(%rbp), %rax	# player, tmp243
	movl	$0, 252(%rax)	#, player_104(D)->fixedcolormap
.L29:
# p_user.c:384: }
	.loc 1 384 1
	leave	
	.cfi_def_cfa 7, 8
	ret	
	.cfi_endproc
.LFE4:
	.size	P_PlayerThink, .-P_PlayerThink
.Letext0:
	.file 2 "doomdef.h"
	.file 3 "doomtype.h"
	.file 4 "d_event.h"
	.file 5 "m_fixed.h"
	.file 6 "tables.h"
	.file 7 "d_think.h"
	.file 8 "doomdata.h"
	.file 9 "info.h"
	.file 10 "p_mobj.h"
	.file 11 "r_defs.h"
	.file 12 "d_player.h"
	.file 13 "p_pspr.h"
	.file 14 "d_ticcmd.h"
	.file 15 "doomstat.h"
	.file 16 "p_local.h"
	.file 17 "p_spec.h"
	.file 18 "r_main.h"
	.section	.note.GNU-stack,"",@progbits
	.section	.note.gnu.property,"a"
	.align 8
	.long	1f - 0f
	.long	4f - 1f
	.long	5
0:
	.string	"GNU"
1:
	.align 8
	.long	0xc0000002
	.long	3f - 2f
2:
	.long	0x3
3:
	.align 8
4:
