	.file	"r_data.c"
# GNU C17 (Ubuntu 13.3.0-6ubuntu2~24.04) version 13.3.0 (x86_64-linux-gnu)
#	compiled by GNU C version 13.3.0, GMP version 6.3.0, MPFR version 4.2.1, MPC version 1.3.1, isl version isl-0.26-GMP

# GGC heuristics: --param ggc-min-expand=100 --param ggc-min-heapsize=131072
# options passed: -mtune=generic -march=x86-64 -g -fasynchronous-unwind-tables -fstack-protector-strong -fstack-clash-protection -fcf-protection
	.text
.Ltext0:
	.file 0 "/home/astrid/Documents/enseignements/DOOM/linuxdoom-1.10" "r_data.c"
	.section	.rodata
	.align 32
	.type	rcsid, @object
	.size	rcsid, 49
rcsid:
	.string	"$Id: r_data.c,v 1.4 1997/02/03 16:47:55 b1 Exp $"
	.globl	firstflat
	.bss
	.align 4
	.type	firstflat, @object
	.size	firstflat, 4
firstflat:
	.zero	4
	.globl	lastflat
	.align 4
	.type	lastflat, @object
	.size	lastflat, 4
lastflat:
	.zero	4
	.globl	numflats
	.align 4
	.type	numflats, @object
	.size	numflats, 4
numflats:
	.zero	4
	.globl	firstpatch
	.align 4
	.type	firstpatch, @object
	.size	firstpatch, 4
firstpatch:
	.zero	4
	.globl	lastpatch
	.align 4
	.type	lastpatch, @object
	.size	lastpatch, 4
lastpatch:
	.zero	4
	.globl	numpatches
	.align 4
	.type	numpatches, @object
	.size	numpatches, 4
numpatches:
	.zero	4
	.globl	firstspritelump
	.align 4
	.type	firstspritelump, @object
	.size	firstspritelump, 4
firstspritelump:
	.zero	4
	.globl	lastspritelump
	.align 4
	.type	lastspritelump, @object
	.size	lastspritelump, 4
lastspritelump:
	.zero	4
	.globl	numspritelumps
	.align 4
	.type	numspritelumps, @object
	.size	numspritelumps, 4
numspritelumps:
	.zero	4
	.globl	numtextures
	.align 4
	.type	numtextures, @object
	.size	numtextures, 4
numtextures:
	.zero	4
	.globl	textures
	.align 8
	.type	textures, @object
	.size	textures, 8
textures:
	.zero	8
	.globl	texturewidthmask
	.align 8
	.type	texturewidthmask, @object
	.size	texturewidthmask, 8
texturewidthmask:
	.zero	8
	.globl	textureheight
	.align 8
	.type	textureheight, @object
	.size	textureheight, 8
textureheight:
	.zero	8
	.globl	texturecompositesize
	.align 8
	.type	texturecompositesize, @object
	.size	texturecompositesize, 8
texturecompositesize:
	.zero	8
	.globl	texturecolumnlump
	.align 8
	.type	texturecolumnlump, @object
	.size	texturecolumnlump, 8
texturecolumnlump:
	.zero	8
	.globl	texturecolumnofs
	.align 8
	.type	texturecolumnofs, @object
	.size	texturecolumnofs, 8
texturecolumnofs:
	.zero	8
	.globl	texturecomposite
	.align 8
	.type	texturecomposite, @object
	.size	texturecomposite, 8
texturecomposite:
	.zero	8
	.globl	flattranslation
	.align 8
	.type	flattranslation, @object
	.size	flattranslation, 8
flattranslation:
	.zero	8
	.globl	texturetranslation
	.align 8
	.type	texturetranslation, @object
	.size	texturetranslation, 8
texturetranslation:
	.zero	8
	.globl	spritewidth
	.align 8
	.type	spritewidth, @object
	.size	spritewidth, 8
spritewidth:
	.zero	8
	.globl	spriteoffset
	.align 8
	.type	spriteoffset, @object
	.size	spriteoffset, 8
spriteoffset:
	.zero	8
	.globl	spritetopoffset
	.align 8
	.type	spritetopoffset, @object
	.size	spritetopoffset, 8
spritetopoffset:
	.zero	8
	.globl	colormaps
	.align 8
	.type	colormaps, @object
	.size	colormaps, 8
colormaps:
	.zero	8
	.text
	.globl	R_DrawColumnInCache
	.type	R_DrawColumnInCache, @function
R_DrawColumnInCache:
.LFB0:
	.file 1 "r_data.c"
	.loc 1 192 1
	.cfi_startproc
	endbr64	
	pushq	%rbp	#
	.cfi_def_cfa_offset 16
	.cfi_offset 6, -16
	movq	%rsp, %rbp	#,
	.cfi_def_cfa_register 6
	subq	$64, %rsp	#,
	movq	%rdi, -40(%rbp)	# patch, patch
	movq	%rsi, -48(%rbp)	# cache, cache
	movl	%edx, -52(%rbp)	# originy, originy
	movl	%ecx, -56(%rbp)	# cacheheight, cacheheight
# r_data.c:198:     dest = (byte *)cache + 3;
	.loc 1 198 10
	movq	-48(%rbp), %rax	# cache, tmp96
	addq	$3, %rax	#, tmp95
	movq	%rax, -16(%rbp)	# tmp95, dest
# r_data.c:200:     while (patch->topdelta != 0xff)
	.loc 1 200 11
	jmp	.L2	#
.L6:
# r_data.c:202: 	source = (byte *)patch + 3;
	.loc 1 202 9
	movq	-40(%rbp), %rax	# patch, tmp100
	addq	$3, %rax	#, tmp99
	movq	%rax, -8(%rbp)	# tmp99, source
# r_data.c:203: 	count = patch->length;
	.loc 1 203 15
	movq	-40(%rbp), %rax	# patch, tmp101
	movzbl	1(%rax), %eax	# patch_12->length, _1
# r_data.c:203: 	count = patch->length;
	.loc 1 203 8
	movzbl	%al, %eax	# _1, tmp102
	movl	%eax, -24(%rbp)	# tmp102, count
# r_data.c:204: 	position = originy + patch->topdelta;
	.loc 1 204 28
	movq	-40(%rbp), %rax	# patch, tmp103
	movzbl	(%rax), %eax	# patch_12->topdelta, _2
	movzbl	%al, %edx	# _2, _3
# r_data.c:204: 	position = originy + patch->topdelta;
	.loc 1 204 11
	movl	-52(%rbp), %eax	# originy, tmp107
	addl	%edx, %eax	# _3, tmp106
	movl	%eax, -20(%rbp)	# tmp106, position
# r_data.c:206: 	if (position < 0)
	.loc 1 206 5
	cmpl	$0, -20(%rbp)	#, position
	jns	.L3	#,
# r_data.c:208: 	    count += position;
	.loc 1 208 12
	movl	-20(%rbp), %eax	# position, tmp108
	addl	%eax, -24(%rbp)	# tmp108, count
# r_data.c:209: 	    position = 0;
	.loc 1 209 15
	movl	$0, -20(%rbp)	#, position
.L3:
# r_data.c:212: 	if (position + count > cacheheight)
	.loc 1 212 15
	movl	-20(%rbp), %edx	# position, tmp109
	movl	-24(%rbp), %eax	# count, tmp110
	addl	%edx, %eax	# tmp109, _4
# r_data.c:212: 	if (position + count > cacheheight)
	.loc 1 212 5
	cmpl	%eax, -56(%rbp)	# _4, cacheheight
	jge	.L4	#,
# r_data.c:213: 	    count = cacheheight - position;
	.loc 1 213 12
	movl	-56(%rbp), %eax	# cacheheight, tmp114
	subl	-20(%rbp), %eax	# position, tmp113
	movl	%eax, -24(%rbp)	# tmp113, count
.L4:
# r_data.c:215: 	if (count > 0)
	.loc 1 215 5
	cmpl	$0, -24(%rbp)	#, count
	jle	.L5	#,
# r_data.c:216: 	    memcpy (cache + position, source, count);
	.loc 1 216 6
	movl	-24(%rbp), %eax	# count, tmp115
	movslq	%eax, %rdx	# tmp115, _5
	movl	-20(%rbp), %eax	# position, tmp116
	movslq	%eax, %rcx	# tmp116, _6
# r_data.c:216: 	    memcpy (cache + position, source, count);
	.loc 1 216 20
	movq	-48(%rbp), %rax	# cache, tmp117
	addq	%rax, %rcx	# tmp117, _7
# r_data.c:216: 	    memcpy (cache + position, source, count);
	.loc 1 216 6
	movq	-8(%rbp), %rax	# source, tmp118
	movq	%rax, %rsi	# tmp118,
	movq	%rcx, %rdi	# _7,
	call	memcpy@PLT	#
.L5:
# r_data.c:218: 	patch = (column_t *)(  (byte *)patch + patch->length + 4); 
	.loc 1 218 46
	movq	-40(%rbp), %rax	# patch, tmp119
	movzbl	1(%rax), %eax	# patch_12->length, _8
	movzbl	%al, %eax	# _8, _9
# r_data.c:218: 	patch = (column_t *)(  (byte *)patch + patch->length + 4); 
	.loc 1 218 55
	addq	$4, %rax	#, _10
# r_data.c:218: 	patch = (column_t *)(  (byte *)patch + patch->length + 4); 
	.loc 1 218 8
	addq	%rax, -40(%rbp)	# _10, patch
.L2:
# r_data.c:200:     while (patch->topdelta != 0xff)
	.loc 1 200 17
	movq	-40(%rbp), %rax	# patch, tmp120
	movzbl	(%rax), %eax	# patch_12->topdelta, _11
# r_data.c:200:     while (patch->topdelta != 0xff)
	.loc 1 200 28
	cmpb	$-1, %al	#, _11
	jne	.L6	#,
# r_data.c:220: }
	.loc 1 220 1
	nop	
	nop	
	leave	
	.cfi_def_cfa 7, 8
	ret	
	.cfi_endproc
.LFE0:
	.size	R_DrawColumnInCache, .-R_DrawColumnInCache
	.section	.rodata
.LC0:
	.string	"Z_CT at r_data.c:%i"
	.text
	.globl	R_GenerateComposite
	.type	R_GenerateComposite, @function
R_GenerateComposite:
.LFB1:
	.loc 1 231 1
	.cfi_startproc
	endbr64	
	pushq	%rbp	#
	.cfi_def_cfa_offset 16
	.cfi_offset 6, -16
	movq	%rsp, %rbp	#,
	.cfi_def_cfa_register 6
	subq	$96, %rsp	#,
	movl	%edi, -84(%rbp)	# texnum, texnum
# r_data.c:244:     texture = textures[texnum];
	.loc 1 244 23
	movq	textures(%rip), %rax	# textures, textures.0_1
	movl	-84(%rbp), %edx	# texnum, tmp129
	movslq	%edx, %rdx	# tmp129, _2
	salq	$3, %rdx	#, _3
	addq	%rdx, %rax	# _3, _4
# r_data.c:244:     texture = textures[texnum];
	.loc 1 244 13
	movq	(%rax), %rax	# *_4, tmp130
	movq	%rax, -48(%rbp)	# tmp130, texture
# r_data.c:246:     block = Z_Malloc (texturecompositesize[texnum],
	.loc 1 246 13
	movq	texturecomposite(%rip), %rax	# texturecomposite, texturecomposite.1_5
# r_data.c:248: 		      &texturecomposite[texnum]);	
	.loc 1 248 26
	movl	-84(%rbp), %edx	# texnum, tmp131
	movslq	%edx, %rdx	# tmp131, _6
	salq	$3, %rdx	#, _7
# r_data.c:248: 		      &texturecomposite[texnum]);	
	.loc 1 248 9
	addq	%rax, %rdx	# texturecomposite.1_5, _8
# r_data.c:246:     block = Z_Malloc (texturecompositesize[texnum],
	.loc 1 246 43
	movq	texturecompositesize(%rip), %rax	# texturecompositesize, texturecompositesize.2_9
	movl	-84(%rbp), %ecx	# texnum, tmp132
	movslq	%ecx, %rcx	# tmp132, _10
	salq	$2, %rcx	#, _11
	addq	%rcx, %rax	# _11, _12
# r_data.c:246:     block = Z_Malloc (texturecompositesize[texnum],
	.loc 1 246 13
	movl	(%rax), %eax	# *_12, _13
	movl	$1, %esi	#,
	movl	%eax, %edi	# _13,
	call	Z_Malloc@PLT	#
	movq	%rax, -40(%rbp)	# tmp133, block
# r_data.c:250:     collump = texturecolumnlump[texnum];
	.loc 1 250 32
	movq	texturecolumnlump(%rip), %rax	# texturecolumnlump, texturecolumnlump.3_14
	movl	-84(%rbp), %edx	# texnum, tmp134
	movslq	%edx, %rdx	# tmp134, _15
	salq	$3, %rdx	#, _16
	addq	%rdx, %rax	# _16, _17
# r_data.c:250:     collump = texturecolumnlump[texnum];
	.loc 1 250 13
	movq	(%rax), %rax	# *_17, tmp135
	movq	%rax, -32(%rbp)	# tmp135, collump
# r_data.c:251:     colofs = texturecolumnofs[texnum];
	.loc 1 251 30
	movq	texturecolumnofs(%rip), %rax	# texturecolumnofs, texturecolumnofs.4_18
	movl	-84(%rbp), %edx	# texnum, tmp136
	movslq	%edx, %rdx	# tmp136, _19
	salq	$3, %rdx	#, _20
	addq	%rdx, %rax	# _20, _21
# r_data.c:251:     colofs = texturecolumnofs[texnum];
	.loc 1 251 12
	movq	(%rax), %rax	# *_21, tmp137
	movq	%rax, -24(%rbp)	# tmp137, colofs
# r_data.c:254:     patch = texture->patches;
	.loc 1 254 11
	movq	-48(%rbp), %rax	# texture, tmp141
	addq	$16, %rax	#, tmp140
	movq	%rax, -56(%rbp)	# tmp140, patch
# r_data.c:256:     for (i=0 , patch = texture->patches;
	.loc 1 256 11
	movl	$0, -64(%rbp)	#, i
# r_data.c:256:     for (i=0 , patch = texture->patches;
	.loc 1 256 22
	movq	-48(%rbp), %rax	# texture, tmp145
	addq	$16, %rax	#, tmp144
	movq	%rax, -56(%rbp)	# tmp144, patch
# r_data.c:256:     for (i=0 , patch = texture->patches;
	.loc 1 256 5
	jmp	.L8	#
.L16:
# r_data.c:260: 	realpatch = W_CacheLumpNum (patch->patch, PU_CACHE);
	.loc 1 260 14
	movq	-56(%rbp), %rax	# patch, tmp146
	movl	8(%rax), %eax	# patch_48->patch, _22
	movl	$101, %esi	#,
	movl	%eax, %edi	# _22,
	call	W_CacheLumpNum@PLT	#
	movq	%rax, -16(%rbp)	# tmp147, realpatch
# r_data.c:261: 	x1 = patch->originx;
	.loc 1 261 5
	movq	-56(%rbp), %rax	# patch, tmp148
	movl	(%rax), %eax	# patch_48->originx, tmp149
	movl	%eax, -60(%rbp)	# tmp149, x1
# r_data.c:262: 	x2 = x1 + SHORT(realpatch->width);
	.loc 1 262 12
	movq	-16(%rbp), %rax	# realpatch, tmp150
	movzwl	(%rax), %eax	# realpatch_70->width, _23
	movswl	%ax, %edx	# _23, _24
# r_data.c:262: 	x2 = x1 + SHORT(realpatch->width);
	.loc 1 262 5
	movl	-60(%rbp), %eax	# x1, tmp154
	addl	%edx, %eax	# _24, tmp153
	movl	%eax, -68(%rbp)	# tmp153, x2
# r_data.c:264: 	if (x1<0)
	.loc 1 264 5
	cmpl	$0, -60(%rbp)	#, x1
	jns	.L9	#,
# r_data.c:265: 	    x = 0;
	.loc 1 265 8
	movl	$0, -72(%rbp)	#, x
	jmp	.L10	#
.L9:
# r_data.c:267: 	    x = x1;
	.loc 1 267 8
	movl	-60(%rbp), %eax	# x1, tmp155
	movl	%eax, -72(%rbp)	# tmp155, x
.L10:
# r_data.c:269: 	if (x2 > texture->width)
	.loc 1 269 18
	movq	-48(%rbp), %rax	# texture, tmp156
	movzwl	8(%rax), %eax	# texture_59->width, _25
	cwtl
# r_data.c:269: 	if (x2 > texture->width)
	.loc 1 269 5
	cmpl	%eax, -68(%rbp)	# _26, x2
	jle	.L12	#,
# r_data.c:270: 	    x2 = texture->width;
	.loc 1 270 18
	movq	-48(%rbp), %rax	# texture, tmp157
	movzwl	8(%rax), %eax	# texture_59->width, _27
# r_data.c:270: 	    x2 = texture->width;
	.loc 1 270 9
	cwtl
	movl	%eax, -68(%rbp)	# tmp158, x2
# r_data.c:272: 	for ( ; x<x2 ; x++)
	.loc 1 272 2
	jmp	.L12	#
.L15:
# r_data.c:275: 	    if (collump[x] >= 0)
	.loc 1 275 17
	movl	-72(%rbp), %eax	# x, tmp159
	cltq
	leaq	(%rax,%rax), %rdx	#, _29
	movq	-32(%rbp), %rax	# collump, tmp160
	addq	%rdx, %rax	# _29, _30
	movzwl	(%rax), %eax	# *_30, _31
# r_data.c:275: 	    if (collump[x] >= 0)
	.loc 1 275 9
	testw	%ax, %ax	# _31
	jns	.L18	#,
# r_data.c:279: 				    + LONG(realpatch->columnofs[x-x1]));
	.loc 1 279 11
	movl	-72(%rbp), %eax	# x, tmp161
	subl	-60(%rbp), %eax	# x1, tmp161
	movl	%eax, %edx	# tmp161, _32
	movq	-16(%rbp), %rax	# realpatch, tmp162
	movslq	%edx, %rdx	# _32, tmp163
	movl	8(%rax,%rdx,4), %eax	# realpatch_70->columnofs[_32], _33
	movslq	%eax, %rdx	# _33, _34
# r_data.c:278: 	    patchcol = (column_t *)((byte *)realpatch
	.loc 1 278 15
	movq	-16(%rbp), %rax	# realpatch, tmp167
	addq	%rdx, %rax	# _34, tmp166
	movq	%rax, -8(%rbp)	# tmp166, patchcol
# r_data.c:283: 				 texture->height);
	.loc 1 283 13
	movq	-48(%rbp), %rax	# texture, tmp168
	movzwl	10(%rax), %eax	# texture_59->height, _35
# r_data.c:280: 	    R_DrawColumnInCache (patchcol,
	.loc 1 280 6
	movswl	%ax, %ecx	# _35, _36
	movq	-56(%rbp), %rax	# patch, tmp169
	movl	4(%rax), %edx	# patch_48->originy, _37
# r_data.c:281: 				 block + colofs[x],
	.loc 1 281 20
	movl	-72(%rbp), %eax	# x, tmp170
	cltq
	leaq	(%rax,%rax), %rsi	#, _39
	movq	-24(%rbp), %rax	# colofs, tmp171
	addq	%rsi, %rax	# _39, _40
	movzwl	(%rax), %eax	# *_40, _41
	movzwl	%ax, %esi	# _41, _42
# r_data.c:280: 	    R_DrawColumnInCache (patchcol,
	.loc 1 280 6
	movq	-40(%rbp), %rax	# block, tmp172
	addq	%rax, %rsi	# tmp172, _43
	movq	-8(%rbp), %rax	# patchcol, tmp173
	movq	%rax, %rdi	# tmp173,
	call	R_DrawColumnInCache	#
	jmp	.L14	#
.L18:
# r_data.c:276: 		continue;
	.loc 1 276 3
	nop	
.L14:
# r_data.c:272: 	for ( ; x<x2 ; x++)
	.loc 1 272 18
	addl	$1, -72(%rbp)	#, x
.L12:
# r_data.c:272: 	for ( ; x<x2 ; x++)
	.loc 1 272 11 discriminator 1
	movl	-72(%rbp), %eax	# x, tmp174
	cmpl	-68(%rbp), %eax	# x2, tmp174
	jl	.L15	#,
# r_data.c:258: 	 i++, patch++)
	.loc 1 258 4
	addl	$1, -64(%rbp)	#, i
# r_data.c:258: 	 i++, patch++)
	.loc 1 258 13
	addq	$12, -56(%rbp)	#, patch
.L8:
# r_data.c:257: 	 i<texture->patchcount;
	.loc 1 257 12
	movq	-48(%rbp), %rax	# texture, tmp175
	movzwl	12(%rax), %eax	# texture_59->patchcount, _44
	cwtl
# r_data.c:257: 	 i<texture->patchcount;
	.loc 1 257 4
	cmpl	%eax, -64(%rbp)	# _45, i
	jl	.L16	#,
# r_data.c:290:     Z_ChangeTag (block, PU_CACHE);
	.loc 1 290 5
	movq	-40(%rbp), %rax	# block, tmp176
	subq	$40, %rax	#, _46
	movl	20(%rax), %eax	# MEM[(struct memblock_t *)_46].id, _47
	cmpl	$1919505, %eax	#, _47
	je	.L17	#,
# r_data.c:290:     Z_ChangeTag (block, PU_CACHE);
	.loc 1 290 5 is_stmt 0 discriminator 1
	movl	$290, %esi	#,
	leaq	.LC0(%rip), %rax	#, tmp177
	movq	%rax, %rdi	# tmp177,
	movl	$0, %eax	#,
	call	I_Error@PLT	#
.L17:
# r_data.c:290:     Z_ChangeTag (block, PU_CACHE);
	.loc 1 290 5 discriminator 3
	movq	-40(%rbp), %rax	# block, tmp178
	movl	$101, %esi	#,
	movq	%rax, %rdi	# tmp178,
	call	Z_ChangeTag2@PLT	#
# r_data.c:291: }
	.loc 1 291 1 is_stmt 1
	nop	
	leave	
	.cfi_def_cfa 7, 8
	ret	
	.cfi_endproc
.LFE1:
	.size	R_GenerateComposite, .-R_GenerateComposite
	.section	.rodata
	.align 8
.LC1:
	.string	"R_GenerateLookup: column without a patch (%s)\n"
	.align 8
.LC2:
	.string	"R_GenerateLookup: texture %i is >64k"
	.text
	.globl	R_GenerateLookup
	.type	R_GenerateLookup, @function
R_GenerateLookup:
.LFB2:
	.loc 1 299 1
	.cfi_startproc
	endbr64	
	pushq	%rbp	#
	.cfi_def_cfa_offset 16
	.cfi_offset 6, -16
	movq	%rsp, %rbp	#,
	.cfi_def_cfa_register 6
	subq	$96, %rsp	#,
	movl	%edi, -84(%rbp)	# texnum, texnum
# r_data.c:299: {
	.loc 1 299 1
	movq	%fs:40, %rax	# MEM[(<address-space-1> long unsigned int *)40B], tmp253
	movq	%rax, -8(%rbp)	# tmp253, D.7613
	xorl	%eax, %eax	# tmp253
# r_data.c:311:     texture = textures[texnum];
	.loc 1 311 23
	movq	textures(%rip), %rax	# textures, textures.5_1
	movl	-84(%rbp), %edx	# texnum, tmp171
	movslq	%edx, %rdx	# tmp171, _2
	salq	$3, %rdx	#, _3
	addq	%rdx, %rax	# _3, _4
# r_data.c:311:     texture = textures[texnum];
	.loc 1 311 13
	movq	(%rax), %rax	# *_4, tmp172
	movq	%rax, -48(%rbp)	# tmp172, texture
# r_data.c:314:     texturecomposite[texnum] = 0;
	.loc 1 314 21
	movq	texturecomposite(%rip), %rax	# texturecomposite, texturecomposite.6_5
	movl	-84(%rbp), %edx	# texnum, tmp173
	movslq	%edx, %rdx	# tmp173, _6
	salq	$3, %rdx	#, _7
	addq	%rdx, %rax	# _7, _8
# r_data.c:314:     texturecomposite[texnum] = 0;
	.loc 1 314 30
	movq	$0, (%rax)	#, *_8
# r_data.c:316:     texturecompositesize[texnum] = 0;
	.loc 1 316 25
	movq	texturecompositesize(%rip), %rax	# texturecompositesize, texturecompositesize.7_9
	movl	-84(%rbp), %edx	# texnum, tmp174
	movslq	%edx, %rdx	# tmp174, _10
	salq	$2, %rdx	#, _11
	addq	%rdx, %rax	# _11, _12
# r_data.c:316:     texturecompositesize[texnum] = 0;
	.loc 1 316 34
	movl	$0, (%rax)	#, *_12
# r_data.c:317:     collump = texturecolumnlump[texnum];
	.loc 1 317 32
	movq	texturecolumnlump(%rip), %rax	# texturecolumnlump, texturecolumnlump.8_13
	movl	-84(%rbp), %edx	# texnum, tmp175
	movslq	%edx, %rdx	# tmp175, _14
	salq	$3, %rdx	#, _15
	addq	%rdx, %rax	# _15, _16
# r_data.c:317:     collump = texturecolumnlump[texnum];
	.loc 1 317 13
	movq	(%rax), %rax	# *_16, tmp176
	movq	%rax, -40(%rbp)	# tmp176, collump
# r_data.c:318:     colofs = texturecolumnofs[texnum];
	.loc 1 318 30
	movq	texturecolumnofs(%rip), %rax	# texturecolumnofs, texturecolumnofs.9_17
	movl	-84(%rbp), %edx	# texnum, tmp177
	movslq	%edx, %rdx	# tmp177, _18
	salq	$3, %rdx	#, _19
	addq	%rdx, %rax	# _19, _20
# r_data.c:318:     colofs = texturecolumnofs[texnum];
	.loc 1 318 12
	movq	(%rax), %rax	# *_20, tmp178
	movq	%rax, -32(%rbp)	# tmp178, colofs
# r_data.c:324:     patchcount = (byte *)alloca (texture->width);
	.loc 1 324 26
	movq	-48(%rbp), %rax	# texture, tmp179
	movzwl	8(%rax), %eax	# texture_105->width, _21
	movswq	%ax, %rax	# _21, _22
	leaq	8(%rax), %rdx	#, tmp180
	movl	$16, %eax	#, tmp251
	subq	$1, %rax	#, tmp181
	addq	%rdx, %rax	# tmp180, tmp182
	movl	$16, %edi	#, tmp252
	movl	$0, %edx	#, tmp185
	divq	%rdi	# tmp252
	imulq	$16, %rax, %rax	#, tmp184, tmp186
	movq	%rax, %rcx	# tmp186, tmp188
	andq	$-4096, %rcx	#, tmp188
	movq	%rsp, %rdx	#, tmp189
	subq	%rcx, %rdx	# tmp188, tmp189
.L20:
	cmpq	%rdx, %rsp	# tmp189,
	je	.L21	#,
	subq	$4096, %rsp	#,
	orq	$0, 4088(%rsp)	#,
	jmp	.L20	#
.L21:
	movq	%rax, %rdx	# tmp186, tmp190
	andl	$4095, %edx	#, tmp190
	subq	%rdx, %rsp	# tmp190,
	movq	%rax, %rdx	# tmp186, tmp191
	andl	$4095, %edx	#, tmp191
	testq	%rdx, %rdx	# tmp191
	je	.L22	#,
	andl	$4095, %eax	#, tmp192
	subq	$8, %rax	#, tmp192
	addq	%rsp, %rax	#, tmp193
	orq	$0, (%rax)	#,
.L22:
	movq	%rsp, %rax	#, tmp187
	addq	$15, %rax	#, tmp194
	shrq	$4, %rax	#, tmp195
	salq	$4, %rax	#, tmp196
	movq	%rax, -24(%rbp)	# tmp196, patchcount
# r_data.c:325:     memset (patchcount, 0, texture->width);
	.loc 1 325 35
	movq	-48(%rbp), %rax	# texture, tmp197
	movzwl	8(%rax), %eax	# texture_105->width, _23
# r_data.c:325:     memset (patchcount, 0, texture->width);
	.loc 1 325 5
	movswq	%ax, %rdx	# _23, _24
	movq	-24(%rbp), %rax	# patchcount, tmp198
	movl	$0, %esi	#,
	movq	%rax, %rdi	# tmp198,
	call	memset@PLT	#
# r_data.c:326:     patch = texture->patches;
	.loc 1 326 11
	movq	-48(%rbp), %rax	# texture, tmp202
	addq	$16, %rax	#, tmp201
	movq	%rax, -56(%rbp)	# tmp201, patch
# r_data.c:328:     for (i=0 , patch = texture->patches;
	.loc 1 328 11
	movl	$0, -64(%rbp)	#, i
# r_data.c:328:     for (i=0 , patch = texture->patches;
	.loc 1 328 22
	movq	-48(%rbp), %rax	# texture, tmp206
	addq	$16, %rax	#, tmp205
	movq	%rax, -56(%rbp)	# tmp205, patch
# r_data.c:328:     for (i=0 , patch = texture->patches;
	.loc 1 328 5
	jmp	.L23	#
.L29:
# r_data.c:332: 	realpatch = W_CacheLumpNum (patch->patch, PU_CACHE);
	.loc 1 332 14
	movq	-56(%rbp), %rax	# patch, tmp207
	movl	8(%rax), %eax	# patch_91->patch, _25
	movl	$101, %esi	#,
	movl	%eax, %edi	# _25,
	call	W_CacheLumpNum@PLT	#
	movq	%rax, -16(%rbp)	# tmp208, realpatch
# r_data.c:333: 	x1 = patch->originx;
	.loc 1 333 5
	movq	-56(%rbp), %rax	# patch, tmp209
	movl	(%rax), %eax	# patch_91->originx, tmp210
	movl	%eax, -60(%rbp)	# tmp210, x1
# r_data.c:334: 	x2 = x1 + SHORT(realpatch->width);
	.loc 1 334 12
	movq	-16(%rbp), %rax	# realpatch, tmp211
	movzwl	(%rax), %eax	# realpatch_124->width, _26
	movswl	%ax, %edx	# _26, _27
# r_data.c:334: 	x2 = x1 + SHORT(realpatch->width);
	.loc 1 334 5
	movl	-60(%rbp), %eax	# x1, tmp215
	addl	%edx, %eax	# _27, tmp214
	movl	%eax, -68(%rbp)	# tmp214, x2
# r_data.c:336: 	if (x1 < 0)
	.loc 1 336 5
	cmpl	$0, -60(%rbp)	#, x1
	jns	.L24	#,
# r_data.c:337: 	    x = 0;
	.loc 1 337 8
	movl	$0, -72(%rbp)	#, x
	jmp	.L25	#
.L24:
# r_data.c:339: 	    x = x1;
	.loc 1 339 8
	movl	-60(%rbp), %eax	# x1, tmp216
	movl	%eax, -72(%rbp)	# tmp216, x
.L25:
# r_data.c:341: 	if (x2 > texture->width)
	.loc 1 341 18
	movq	-48(%rbp), %rax	# texture, tmp217
	movzwl	8(%rax), %eax	# texture_105->width, _28
	cwtl
# r_data.c:341: 	if (x2 > texture->width)
	.loc 1 341 5
	cmpl	%eax, -68(%rbp)	# _29, x2
	jle	.L27	#,
# r_data.c:342: 	    x2 = texture->width;
	.loc 1 342 18
	movq	-48(%rbp), %rax	# texture, tmp218
	movzwl	8(%rax), %eax	# texture_105->width, _30
# r_data.c:342: 	    x2 = texture->width;
	.loc 1 342 9
	cwtl
	movl	%eax, -68(%rbp)	# tmp219, x2
# r_data.c:343: 	for ( ; x<x2 ; x++)
	.loc 1 343 2
	jmp	.L27	#
.L28:
# r_data.c:345: 	    patchcount[x]++;
	.loc 1 345 16
	movl	-72(%rbp), %eax	# x, tmp220
	movslq	%eax, %rdx	# tmp220, _31
	movq	-24(%rbp), %rax	# patchcount, tmp221
	addq	%rdx, %rax	# _31, _32
	movzbl	(%rax), %edx	# *_32, _33
# r_data.c:345: 	    patchcount[x]++;
	.loc 1 345 19
	addl	$1, %edx	#, _35
	movb	%dl, (%rax)	# _35, *_32
# r_data.c:346: 	    collump[x] = patch->patch;
	.loc 1 346 24
	movq	-56(%rbp), %rax	# patch, tmp222
	movl	8(%rax), %ecx	# patch_91->patch, _36
# r_data.c:346: 	    collump[x] = patch->patch;
	.loc 1 346 13
	movl	-72(%rbp), %eax	# x, tmp223
	cltq
	leaq	(%rax,%rax), %rdx	#, _38
	movq	-40(%rbp), %rax	# collump, tmp224
	addq	%rdx, %rax	# _38, _39
# r_data.c:346: 	    collump[x] = patch->patch;
	.loc 1 346 17
	movl	%ecx, %edx	# _36, _40
	movw	%dx, (%rax)	# _40, *_39
# r_data.c:347: 	    colofs[x] = LONG(realpatch->columnofs[x-x1])+3;
	.loc 1 347 18
	movl	-72(%rbp), %eax	# x, tmp225
	subl	-60(%rbp), %eax	# x1, tmp225
	movl	%eax, %edx	# tmp225, _41
	movq	-16(%rbp), %rax	# realpatch, tmp226
	movslq	%edx, %rdx	# _41, tmp227
	movl	8(%rax,%rdx,4), %eax	# realpatch_124->columnofs[_41], _42
# r_data.c:347: 	    colofs[x] = LONG(realpatch->columnofs[x-x1])+3;
	.loc 1 347 50
	movl	%eax, %ecx	# _42, _43
# r_data.c:347: 	    colofs[x] = LONG(realpatch->columnofs[x-x1])+3;
	.loc 1 347 12
	movl	-72(%rbp), %eax	# x, tmp228
	cltq
	leaq	(%rax,%rax), %rdx	#, _45
	movq	-32(%rbp), %rax	# colofs, tmp229
	addq	%rdx, %rax	# _45, _46
# r_data.c:347: 	    colofs[x] = LONG(realpatch->columnofs[x-x1])+3;
	.loc 1 347 50
	leal	3(%rcx), %edx	#, _47
# r_data.c:347: 	    colofs[x] = LONG(realpatch->columnofs[x-x1])+3;
	.loc 1 347 16
	movw	%dx, (%rax)	# _47, *_46
# r_data.c:343: 	for ( ; x<x2 ; x++)
	.loc 1 343 18 discriminator 2
	addl	$1, -72(%rbp)	#, x
.L27:
# r_data.c:343: 	for ( ; x<x2 ; x++)
	.loc 1 343 11 discriminator 1
	movl	-72(%rbp), %eax	# x, tmp230
	cmpl	-68(%rbp), %eax	# x2, tmp230
	jl	.L28	#,
# r_data.c:330: 	 i++, patch++)
	.loc 1 330 4
	addl	$1, -64(%rbp)	#, i
# r_data.c:330: 	 i++, patch++)
	.loc 1 330 13
	addq	$12, -56(%rbp)	#, patch
.L23:
# r_data.c:329: 	 i<texture->patchcount;
	.loc 1 329 12
	movq	-48(%rbp), %rax	# texture, tmp231
	movzwl	12(%rax), %eax	# texture_105->patchcount, _48
	cwtl
# r_data.c:329: 	 i<texture->patchcount;
	.loc 1 329 4
	cmpl	%eax, -64(%rbp)	# _49, i
	jl	.L29	#,
# r_data.c:351:     for (x=0 ; x<texture->width ; x++)
	.loc 1 351 11
	movl	$0, -72(%rbp)	#, x
# r_data.c:351:     for (x=0 ; x<texture->width ; x++)
	.loc 1 351 5
	jmp	.L30	#
.L35:
# r_data.c:353: 	if (!patchcount[x])
	.loc 1 353 17
	movl	-72(%rbp), %eax	# x, tmp232
	movslq	%eax, %rdx	# tmp232, _50
	movq	-24(%rbp), %rax	# patchcount, tmp233
	addq	%rdx, %rax	# _50, _51
	movzbl	(%rax), %eax	# *_51, _52
# r_data.c:353: 	if (!patchcount[x])
	.loc 1 353 5
	testb	%al, %al	# _52
	jne	.L31	#,
# r_data.c:356: 		    texture->name);
	.loc 1 356 14
	movq	-48(%rbp), %rax	# texture, _53
# r_data.c:355: 	    printf ("R_GenerateLookup: column without a patch (%s)\n",
	.loc 1 355 6
	movq	%rax, %rsi	# _53,
	leaq	.LC1(%rip), %rax	#, tmp234
	movq	%rax, %rdi	# tmp234,
	movl	$0, %eax	#,
	call	printf@PLT	#
# r_data.c:357: 	    return;
	.loc 1 357 6
	jmp	.L19	#
.L31:
# r_data.c:361: 	if (patchcount[x] > 1)
	.loc 1 361 16
	movl	-72(%rbp), %eax	# x, tmp235
	movslq	%eax, %rdx	# tmp235, _54
	movq	-24(%rbp), %rax	# patchcount, tmp236
	addq	%rdx, %rax	# _54, _55
	movzbl	(%rax), %eax	# *_55, _56
# r_data.c:361: 	if (patchcount[x] > 1)
	.loc 1 361 5
	cmpb	$1, %al	#, _56
	jbe	.L33	#,
# r_data.c:364: 	    collump[x] = -1;	
	.loc 1 364 13
	movl	-72(%rbp), %eax	# x, tmp237
	cltq
	leaq	(%rax,%rax), %rdx	#, _58
	movq	-40(%rbp), %rax	# collump, tmp238
	addq	%rdx, %rax	# _58, _59
# r_data.c:364: 	    collump[x] = -1;	
	.loc 1 364 17
	movw	$-1, (%rax)	#, *_59
# r_data.c:365: 	    colofs[x] = texturecompositesize[texnum];
	.loc 1 365 38
	movq	texturecompositesize(%rip), %rax	# texturecompositesize, texturecompositesize.10_60
	movl	-84(%rbp), %edx	# texnum, tmp239
	movslq	%edx, %rdx	# tmp239, _61
	salq	$2, %rdx	#, _62
	addq	%rdx, %rax	# _62, _63
	movl	(%rax), %ecx	# *_63, _64
# r_data.c:365: 	    colofs[x] = texturecompositesize[texnum];
	.loc 1 365 12
	movl	-72(%rbp), %eax	# x, tmp240
	cltq
	leaq	(%rax,%rax), %rdx	#, _66
	movq	-32(%rbp), %rax	# colofs, tmp241
	addq	%rdx, %rax	# _66, _67
# r_data.c:365: 	    colofs[x] = texturecompositesize[texnum];
	.loc 1 365 16
	movl	%ecx, %edx	# _64, _68
	movw	%dx, (%rax)	# _68, *_67
# r_data.c:367: 	    if (texturecompositesize[texnum] > 0x10000-texture->height)
	.loc 1 367 30
	movq	texturecompositesize(%rip), %rax	# texturecompositesize, texturecompositesize.11_69
	movl	-84(%rbp), %edx	# texnum, tmp242
	movslq	%edx, %rdx	# tmp242, _70
	salq	$2, %rdx	#, _71
	addq	%rdx, %rax	# _71, _72
	movl	(%rax), %ecx	# *_72, _73
# r_data.c:367: 	    if (texturecompositesize[texnum] > 0x10000-texture->height)
	.loc 1 367 56
	movq	-48(%rbp), %rax	# texture, tmp243
	movzwl	10(%rax), %eax	# texture_105->height, _74
	cwtl
# r_data.c:367: 	    if (texturecompositesize[texnum] > 0x10000-texture->height)
	.loc 1 367 48
	movl	$65536, %edx	#, tmp244
	subl	%eax, %edx	# _75, _76
# r_data.c:367: 	    if (texturecompositesize[texnum] > 0x10000-texture->height)
	.loc 1 367 9
	cmpl	%edx, %ecx	# _76, _73
	jle	.L34	#,
# r_data.c:369: 		I_Error ("R_GenerateLookup: texture %i is >64k",
	.loc 1 369 3
	movl	-84(%rbp), %eax	# texnum, tmp245
	movl	%eax, %esi	# tmp245,
	leaq	.LC2(%rip), %rax	#, tmp246
	movq	%rax, %rdi	# tmp246,
	movl	$0, %eax	#,
	call	I_Error@PLT	#
.L34:
# r_data.c:373: 	    texturecompositesize[texnum] += texture->height;
	.loc 1 373 26
	movq	texturecompositesize(%rip), %rax	# texturecompositesize, texturecompositesize.12_77
	movl	-84(%rbp), %edx	# texnum, tmp247
	movslq	%edx, %rdx	# tmp247, _78
	salq	$2, %rdx	#, _79
	addq	%rdx, %rax	# _79, _80
	movl	(%rax), %ecx	# *_80, _81
# r_data.c:373: 	    texturecompositesize[texnum] += texture->height;
	.loc 1 373 45
	movq	-48(%rbp), %rax	# texture, tmp248
	movzwl	10(%rax), %eax	# texture_105->height, _82
	movswl	%ax, %edx	# _82, _83
# r_data.c:373: 	    texturecompositesize[texnum] += texture->height;
	.loc 1 373 26
	movq	texturecompositesize(%rip), %rax	# texturecompositesize, texturecompositesize.13_84
	movl	-84(%rbp), %esi	# texnum, tmp249
	movslq	%esi, %rsi	# tmp249, _85
	salq	$2, %rsi	#, _86
	addq	%rsi, %rax	# _86, _87
# r_data.c:373: 	    texturecompositesize[texnum] += texture->height;
	.loc 1 373 35
	addl	%ecx, %edx	# _81, _88
	movl	%edx, (%rax)	# _88, *_87
.L33:
# r_data.c:351:     for (x=0 ; x<texture->width ; x++)
	.loc 1 351 36 discriminator 2
	addl	$1, -72(%rbp)	#, x
.L30:
# r_data.c:351:     for (x=0 ; x<texture->width ; x++)
	.loc 1 351 25 discriminator 1
	movq	-48(%rbp), %rax	# texture, tmp250
	movzwl	8(%rax), %eax	# texture_105->width, _89
	cwtl
# r_data.c:351:     for (x=0 ; x<texture->width ; x++)
	.loc 1 351 17 discriminator 1
	cmpl	%eax, -72(%rbp)	# _90, x
	jl	.L35	#,
.L19:
# r_data.c:376: }
	.loc 1 376 1
	movq	-8(%rbp), %rax	# D.7613, tmp254
	subq	%fs:40, %rax	# MEM[(<address-space-1> long unsigned int *)40B], tmp254
	je	.L36	#,
	call	__stack_chk_fail@PLT	#
.L36:
	leave	
	.cfi_def_cfa 7, 8
	ret	
	.cfi_endproc
.LFE2:
	.size	R_GenerateLookup, .-R_GenerateLookup
	.globl	R_GetColumn
	.type	R_GetColumn, @function
R_GetColumn:
.LFB3:
	.loc 1 388 1
	.cfi_startproc
	endbr64	
	pushq	%rbp	#
	.cfi_def_cfa_offset 16
	.cfi_offset 6, -16
	movq	%rsp, %rbp	#,
	.cfi_def_cfa_register 6
	subq	$32, %rsp	#,
	movl	%edi, -20(%rbp)	# tex, tex
	movl	%esi, -24(%rbp)	# col, col
# r_data.c:392:     col &= texturewidthmask[tex];
	.loc 1 392 28
	movq	texturewidthmask(%rip), %rax	# texturewidthmask, texturewidthmask.14_1
	movl	-20(%rbp), %edx	# tex, tmp120
	movslq	%edx, %rdx	# tmp120, _2
	salq	$2, %rdx	#, _3
	addq	%rdx, %rax	# _3, _4
	movl	(%rax), %eax	# *_4, _5
# r_data.c:392:     col &= texturewidthmask[tex];
	.loc 1 392 9
	andl	%eax, -24(%rbp)	# _5, col
# r_data.c:393:     lump = texturecolumnlump[tex][col];
	.loc 1 393 29
	movq	texturecolumnlump(%rip), %rax	# texturecolumnlump, texturecolumnlump.15_6
	movl	-20(%rbp), %edx	# tex, tmp121
	movslq	%edx, %rdx	# tmp121, _7
	salq	$3, %rdx	#, _8
	addq	%rdx, %rax	# _8, _9
	movq	(%rax), %rax	# *_9, _10
# r_data.c:393:     lump = texturecolumnlump[tex][col];
	.loc 1 393 34
	movl	-24(%rbp), %edx	# col, tmp122
	movslq	%edx, %rdx	# tmp122, _11
	addq	%rdx, %rdx	# _12
	addq	%rdx, %rax	# _12, _13
	movzwl	(%rax), %eax	# *_13, _14
# r_data.c:393:     lump = texturecolumnlump[tex][col];
	.loc 1 393 10
	cwtl
	movl	%eax, -8(%rbp)	# tmp123, lump
# r_data.c:394:     ofs = texturecolumnofs[tex][col];
	.loc 1 394 27
	movq	texturecolumnofs(%rip), %rax	# texturecolumnofs, texturecolumnofs.16_15
	movl	-20(%rbp), %edx	# tex, tmp124
	movslq	%edx, %rdx	# tmp124, _16
	salq	$3, %rdx	#, _17
	addq	%rdx, %rax	# _17, _18
	movq	(%rax), %rax	# *_18, _19
# r_data.c:394:     ofs = texturecolumnofs[tex][col];
	.loc 1 394 32
	movl	-24(%rbp), %edx	# col, tmp125
	movslq	%edx, %rdx	# tmp125, _20
	addq	%rdx, %rdx	# _21
	addq	%rdx, %rax	# _21, _22
	movzwl	(%rax), %eax	# *_22, _23
# r_data.c:394:     ofs = texturecolumnofs[tex][col];
	.loc 1 394 9
	movzwl	%ax, %eax	# _23, tmp126
	movl	%eax, -4(%rbp)	# tmp126, ofs
# r_data.c:396:     if (lump > 0)
	.loc 1 396 8
	cmpl	$0, -8(%rbp)	#, lump
	jle	.L38	#,
# r_data.c:397: 	return (byte *)W_CacheLumpNum(lump,PU_CACHE)+ofs;
	.loc 1 397 17
	movl	-8(%rbp), %eax	# lump, tmp127
	movl	$101, %esi	#,
	movl	%eax, %edi	# tmp127,
	call	W_CacheLumpNum@PLT	#
# r_data.c:397: 	return (byte *)W_CacheLumpNum(lump,PU_CACHE)+ofs;
	.loc 1 397 46 discriminator 1
	movl	-4(%rbp), %edx	# ofs, tmp128
	movslq	%edx, %rdx	# tmp128, _25
	addq	%rdx, %rax	# _25, _37
# r_data.c:397: 	return (byte *)W_CacheLumpNum(lump,PU_CACHE)+ofs;
	.loc 1 397 46 is_stmt 0
	jmp	.L39	#
.L38:
# r_data.c:399:     if (!texturecomposite[tex])
	.loc 1 399 26 is_stmt 1
	movq	texturecomposite(%rip), %rax	# texturecomposite, texturecomposite.17_26
	movl	-20(%rbp), %edx	# tex, tmp129
	movslq	%edx, %rdx	# tmp129, _27
	salq	$3, %rdx	#, _28
	addq	%rdx, %rax	# _28, _29
	movq	(%rax), %rax	# *_29, _30
# r_data.c:399:     if (!texturecomposite[tex])
	.loc 1 399 8
	testq	%rax, %rax	# _30
	jne	.L40	#,
# r_data.c:400: 	R_GenerateComposite (tex);
	.loc 1 400 2
	movl	-20(%rbp), %eax	# tex, tmp130
	movl	%eax, %edi	# tmp130,
	call	R_GenerateComposite	#
.L40:
# r_data.c:402:     return texturecomposite[tex] + ofs;
	.loc 1 402 28
	movq	texturecomposite(%rip), %rax	# texturecomposite, texturecomposite.18_31
	movl	-20(%rbp), %edx	# tex, tmp131
	movslq	%edx, %rdx	# tmp131, _32
	salq	$3, %rdx	#, _33
	addq	%rdx, %rax	# _33, _34
	movq	(%rax), %rdx	# *_34, _35
# r_data.c:402:     return texturecomposite[tex] + ofs;
	.loc 1 402 34
	movl	-4(%rbp), %eax	# ofs, tmp132
	cltq
	addq	%rdx, %rax	# _35, _37
.L39:
# r_data.c:403: }
	.loc 1 403 1
	leave	
	.cfi_def_cfa 7, 8
	ret	
	.cfi_endproc
.LFE3:
	.size	R_GetColumn, .-R_GetColumn
	.section	.rodata
.LC3:
	.string	"PNAMES"
.LC4:
	.string	"TEXTURE1"
.LC5:
	.string	"TEXTURE2"
.LC6:
	.string	"S_START"
.LC7:
	.string	"S_END"
.LC8:
	.string	"         ]"
.LC9:
	.string	"\b\b\b\b\b\b\b\b\b\b"
	.align 8
.LC10:
	.string	"R_InitTextures: bad texture directory"
	.align 8
.LC11:
	.string	"R_InitTextures: Missing patch in texture %s"
	.text
	.globl	R_InitTextures
	.type	R_InitTextures, @function
R_InitTextures:
.LFB4:
	.loc 1 414 1
	.cfi_startproc
	endbr64	
	pushq	%rbp	#
	.cfi_def_cfa_offset 16
	.cfi_offset 6, -16
	movq	%rsp, %rbp	#,
	.cfi_def_cfa_register 6
	pushq	%rbx	#
	subq	$168, %rsp	#,
	.cfi_offset 3, -24
# r_data.c:414: {
	.loc 1 414 1
	movq	%fs:40, %rax	# MEM[(<address-space-1> long unsigned int *)40B], tmp347
	movq	%rax, -24(%rbp)	# tmp347, D.7618
	xorl	%eax, %eax	# tmp347
# r_data.c:449:     name[8] = 0;	
	.loc 1 449 13
	movb	$0, -25(%rbp)	#, name[8]
# r_data.c:450:     names = W_CacheLumpName ("PNAMES", PU_STATIC);
	.loc 1 450 13
	movl	$1, %esi	#,
	leaq	.LC3(%rip), %rax	#, tmp213
	movq	%rax, %rdi	# tmp213,
	call	W_CacheLumpName@PLT	#
	movq	%rax, -88(%rbp)	# tmp214, names
# r_data.c:451:     nummappatches = LONG ( *((int *)names) );
	.loc 1 451 19
	movq	-88(%rbp), %rax	# names, tmp215
	movl	(%rax), %eax	# MEM[(int *)names_166], tmp216
	movl	%eax, -152(%rbp)	# tmp216, nummappatches
# r_data.c:452:     name_p = names+4;
	.loc 1 452 12
	movq	-88(%rbp), %rax	# names, tmp220
	addq	$4, %rax	#, tmp219
	movq	%rax, -80(%rbp)	# tmp219, name_p
# r_data.c:453:     patchlookup = alloca (nummappatches*sizeof(*patchlookup));
	.loc 1 453 19
	movl	-152(%rbp), %eax	# nummappatches, tmp221
	cltq
	salq	$2, %rax	#, _2
	leaq	8(%rax), %rdx	#, tmp222
	movl	$16, %eax	#, tmp345
	subq	$1, %rax	#, tmp223
	addq	%rdx, %rax	# tmp222, tmp224
	movl	$16, %ebx	#, tmp346
	movl	$0, %edx	#, tmp227
	divq	%rbx	# tmp346
	imulq	$16, %rax, %rax	#, tmp226, tmp228
	movq	%rax, %rcx	# tmp228, tmp230
	andq	$-4096, %rcx	#, tmp230
	movq	%rsp, %rdx	#, tmp231
	subq	%rcx, %rdx	# tmp230, tmp231
.L42:
	cmpq	%rdx, %rsp	# tmp231,
	je	.L43	#,
	subq	$4096, %rsp	#,
	orq	$0, 4088(%rsp)	#,
	jmp	.L42	#
.L43:
	movq	%rax, %rdx	# tmp228, tmp232
	andl	$4095, %edx	#, tmp232
	subq	%rdx, %rsp	# tmp232,
	movq	%rax, %rdx	# tmp228, tmp233
	andl	$4095, %edx	#, tmp233
	testq	%rdx, %rdx	# tmp233
	je	.L44	#,
	andl	$4095, %eax	#, tmp234
	subq	$8, %rax	#, tmp234
	addq	%rsp, %rax	#, tmp235
	orq	$0, (%rax)	#,
.L44:
	movq	%rsp, %rax	#, tmp229
	addq	$15, %rax	#, tmp236
	shrq	$4, %rax	#, tmp237
	salq	$4, %rax	#, tmp238
	movq	%rax, -72(%rbp)	# tmp238, patchlookup
# r_data.c:455:     for (i=0 ; i<nummappatches ; i++)
	.loc 1 455 11
	movl	$0, -176(%rbp)	#, i
# r_data.c:455:     for (i=0 ; i<nummappatches ; i++)
	.loc 1 455 5
	jmp	.L45	#
.L46:
# r_data.c:457: 	strncpy (name,name_p+i*8, 8);
	.loc 1 457 24
	movl	-176(%rbp), %eax	# i, tmp239
	sall	$3, %eax	#, _3
	movslq	%eax, %rdx	# _3, _4
# r_data.c:457: 	strncpy (name,name_p+i*8, 8);
	.loc 1 457 22
	movq	-80(%rbp), %rax	# name_p, tmp240
	leaq	(%rdx,%rax), %rcx	#, _5
# r_data.c:457: 	strncpy (name,name_p+i*8, 8);
	.loc 1 457 2
	leaq	-33(%rbp), %rax	#, tmp241
	movl	$8, %edx	#,
	movq	%rcx, %rsi	# _5,
	movq	%rax, %rdi	# tmp241,
	call	strncpy@PLT	#
# r_data.c:458: 	patchlookup[i] = W_CheckNumForName (name);
	.loc 1 458 13
	movl	-176(%rbp), %eax	# i, tmp242
	cltq
	leaq	0(,%rax,4), %rdx	#, _7
	movq	-72(%rbp), %rax	# patchlookup, tmp243
	leaq	(%rdx,%rax), %rbx	#, _8
# r_data.c:458: 	patchlookup[i] = W_CheckNumForName (name);
	.loc 1 458 19
	leaq	-33(%rbp), %rax	#, tmp244
	movq	%rax, %rdi	# tmp244,
	call	W_CheckNumForName@PLT	#
# r_data.c:458: 	patchlookup[i] = W_CheckNumForName (name);
	.loc 1 458 17 discriminator 1
	movl	%eax, (%rbx)	# _9, *_8
# r_data.c:455:     for (i=0 ; i<nummappatches ; i++)
	.loc 1 455 35 discriminator 3
	addl	$1, -176(%rbp)	#, i
.L45:
# r_data.c:455:     for (i=0 ; i<nummappatches ; i++)
	.loc 1 455 17 discriminator 1
	movl	-176(%rbp), %eax	# i, tmp245
	cmpl	-152(%rbp), %eax	# nummappatches, tmp245
	jl	.L46	#,
# r_data.c:460:     Z_Free (names);
	.loc 1 460 5
	movq	-88(%rbp), %rax	# names, tmp246
	movq	%rax, %rdi	# tmp246,
	call	Z_Free@PLT	#
# r_data.c:465:     maptex = maptex1 = W_CacheLumpName ("TEXTURE1", PU_STATIC);
	.loc 1 465 24
	movl	$1, %esi	#,
	leaq	.LC4(%rip), %rax	#, tmp247
	movq	%rax, %rdi	# tmp247,
	call	W_CacheLumpName@PLT	#
	movq	%rax, -64(%rbp)	# tmp248, maptex1
# r_data.c:465:     maptex = maptex1 = W_CacheLumpName ("TEXTURE1", PU_STATIC);
	.loc 1 465 12 discriminator 1
	movq	-64(%rbp), %rax	# maptex1, tmp249
	movq	%rax, -112(%rbp)	# tmp249, maptex
# r_data.c:466:     numtextures1 = LONG(*maptex);
	.loc 1 466 18
	movq	-112(%rbp), %rax	# maptex, tmp250
	movl	(%rax), %eax	# *maptex_175, tmp251
	movl	%eax, -148(%rbp)	# tmp251, numtextures1
# r_data.c:467:     maxoff = W_LumpLength (W_GetNumForName ("TEXTURE1"));
	.loc 1 467 14
	leaq	.LC4(%rip), %rax	#, tmp252
	movq	%rax, %rdi	# tmp252,
	call	W_GetNumForName@PLT	#
# r_data.c:467:     maxoff = W_LumpLength (W_GetNumForName ("TEXTURE1"));
	.loc 1 467 14 is_stmt 0 discriminator 1
	movl	%eax, %edi	# _10,
	call	W_LumpLength@PLT	#
	movl	%eax, -164(%rbp)	# tmp253, maxoff
# r_data.c:468:     directory = maptex+1;
	.loc 1 468 15 is_stmt 1
	movq	-112(%rbp), %rax	# maptex, tmp257
	addq	$4, %rax	#, tmp256
	movq	%rax, -96(%rbp)	# tmp256, directory
# r_data.c:470:     if (W_CheckNumForName ("TEXTURE2") != -1)
	.loc 1 470 9
	leaq	.LC5(%rip), %rax	#, tmp258
	movq	%rax, %rdi	# tmp258,
	call	W_CheckNumForName@PLT	#
# r_data.c:470:     if (W_CheckNumForName ("TEXTURE2") != -1)
	.loc 1 470 8 discriminator 1
	cmpl	$-1, %eax	#, _11
	je	.L47	#,
# r_data.c:472: 	maptex2 = W_CacheLumpName ("TEXTURE2", PU_STATIC);
	.loc 1 472 12
	movl	$1, %esi	#,
	leaq	.LC5(%rip), %rax	#, tmp259
	movq	%rax, %rdi	# tmp259,
	call	W_CacheLumpName@PLT	#
	movq	%rax, -104(%rbp)	# tmp260, maptex2
# r_data.c:473: 	numtextures2 = LONG(*maptex2);
	.loc 1 473 15
	movq	-104(%rbp), %rax	# maptex2, tmp261
	movl	(%rax), %eax	# *maptex2_186, tmp262
	movl	%eax, -156(%rbp)	# tmp262, numtextures2
# r_data.c:474: 	maxoff2 = W_LumpLength (W_GetNumForName ("TEXTURE2"));
	.loc 1 474 12
	leaq	.LC5(%rip), %rax	#, tmp263
	movq	%rax, %rdi	# tmp263,
	call	W_GetNumForName@PLT	#
# r_data.c:474: 	maxoff2 = W_LumpLength (W_GetNumForName ("TEXTURE2"));
	.loc 1 474 12 is_stmt 0 discriminator 1
	movl	%eax, %edi	# _12,
	call	W_LumpLength@PLT	#
	movl	%eax, -160(%rbp)	# tmp264, maxoff2
	jmp	.L48	#
.L47:
# r_data.c:478: 	maptex2 = NULL;
	.loc 1 478 10 is_stmt 1
	movq	$0, -104(%rbp)	#, maptex2
# r_data.c:479: 	numtextures2 = 0;
	.loc 1 479 15
	movl	$0, -156(%rbp)	#, numtextures2
# r_data.c:480: 	maxoff2 = 0;
	.loc 1 480 10
	movl	$0, -160(%rbp)	#, maxoff2
.L48:
# r_data.c:482:     numtextures = numtextures1 + numtextures2;
	.loc 1 482 32
	movl	-148(%rbp), %edx	# numtextures1, tmp265
	movl	-156(%rbp), %eax	# numtextures2, tmp266
	addl	%edx, %eax	# tmp265, _13
# r_data.c:482:     numtextures = numtextures1 + numtextures2;
	.loc 1 482 17
	movl	%eax, numtextures(%rip)	# _13, numtextures
# r_data.c:484:     textures = Z_Malloc (numtextures*sizeof(*textures), PU_STATIC, 0);
	.loc 1 484 16
	movl	numtextures(%rip), %eax	# numtextures, numtextures.19_14
	cltq
	sall	$3, %eax	#, _17
	movl	$0, %edx	#,
	movl	$1, %esi	#,
	movl	%eax, %edi	# _18,
	call	Z_Malloc@PLT	#
# r_data.c:484:     textures = Z_Malloc (numtextures*sizeof(*textures), PU_STATIC, 0);
	.loc 1 484 14 discriminator 1
	movq	%rax, textures(%rip)	# _19, textures
# r_data.c:485:     texturecolumnlump = Z_Malloc (numtextures*sizeof(*texturecolumnlump), PU_STATIC, 0);
	.loc 1 485 25
	movl	numtextures(%rip), %eax	# numtextures, numtextures.20_20
	cltq
	sall	$3, %eax	#, _23
	movl	$0, %edx	#,
	movl	$1, %esi	#,
	movl	%eax, %edi	# _24,
	call	Z_Malloc@PLT	#
# r_data.c:485:     texturecolumnlump = Z_Malloc (numtextures*sizeof(*texturecolumnlump), PU_STATIC, 0);
	.loc 1 485 23 discriminator 1
	movq	%rax, texturecolumnlump(%rip)	# _25, texturecolumnlump
# r_data.c:486:     texturecolumnofs = Z_Malloc (numtextures*sizeof(*texturecolumnofs), PU_STATIC, 0);
	.loc 1 486 24
	movl	numtextures(%rip), %eax	# numtextures, numtextures.21_26
	cltq
	sall	$3, %eax	#, _29
	movl	$0, %edx	#,
	movl	$1, %esi	#,
	movl	%eax, %edi	# _30,
	call	Z_Malloc@PLT	#
# r_data.c:486:     texturecolumnofs = Z_Malloc (numtextures*sizeof(*texturecolumnofs), PU_STATIC, 0);
	.loc 1 486 22 discriminator 1
	movq	%rax, texturecolumnofs(%rip)	# _31, texturecolumnofs
# r_data.c:487:     texturecomposite = Z_Malloc (numtextures*sizeof(*texturecomposite), PU_STATIC, 0);
	.loc 1 487 24
	movl	numtextures(%rip), %eax	# numtextures, numtextures.22_32
	cltq
	sall	$3, %eax	#, _35
	movl	$0, %edx	#,
	movl	$1, %esi	#,
	movl	%eax, %edi	# _36,
	call	Z_Malloc@PLT	#
# r_data.c:487:     texturecomposite = Z_Malloc (numtextures*sizeof(*texturecomposite), PU_STATIC, 0);
	.loc 1 487 22 discriminator 1
	movq	%rax, texturecomposite(%rip)	# _37, texturecomposite
# r_data.c:488:     texturecompositesize = Z_Malloc (numtextures*4, PU_STATIC, 0);
	.loc 1 488 28
	movl	numtextures(%rip), %eax	# numtextures, numtextures.23_38
	sall	$2, %eax	#, _39
	movl	$0, %edx	#,
	movl	$1, %esi	#,
	movl	%eax, %edi	# _39,
	call	Z_Malloc@PLT	#
# r_data.c:488:     texturecompositesize = Z_Malloc (numtextures*4, PU_STATIC, 0);
	.loc 1 488 26 discriminator 1
	movq	%rax, texturecompositesize(%rip)	# _40, texturecompositesize
# r_data.c:489:     texturewidthmask = Z_Malloc (numtextures*4, PU_STATIC, 0);
	.loc 1 489 24
	movl	numtextures(%rip), %eax	# numtextures, numtextures.24_41
	sall	$2, %eax	#, _42
	movl	$0, %edx	#,
	movl	$1, %esi	#,
	movl	%eax, %edi	# _42,
	call	Z_Malloc@PLT	#
# r_data.c:489:     texturewidthmask = Z_Malloc (numtextures*4, PU_STATIC, 0);
	.loc 1 489 22 discriminator 1
	movq	%rax, texturewidthmask(%rip)	# _43, texturewidthmask
# r_data.c:490:     textureheight = Z_Malloc (numtextures*4, PU_STATIC, 0);
	.loc 1 490 21
	movl	numtextures(%rip), %eax	# numtextures, numtextures.25_44
	sall	$2, %eax	#, _45
	movl	$0, %edx	#,
	movl	$1, %esi	#,
	movl	%eax, %edi	# _45,
	call	Z_Malloc@PLT	#
# r_data.c:490:     textureheight = Z_Malloc (numtextures*4, PU_STATIC, 0);
	.loc 1 490 19 discriminator 1
	movq	%rax, textureheight(%rip)	# _46, textureheight
# r_data.c:492:     totalwidth = 0;
	.loc 1 492 16
	movl	$0, -168(%rbp)	#, totalwidth
# r_data.c:495:     temp1 = W_GetNumForName ("S_START");  // P_???????
	.loc 1 495 13
	leaq	.LC6(%rip), %rax	#, tmp267
	movq	%rax, %rdi	# tmp267,
	call	W_GetNumForName@PLT	#
	movl	%eax, -144(%rbp)	# tmp268, temp1
# r_data.c:496:     temp2 = W_GetNumForName ("S_END") - 1;
	.loc 1 496 13
	leaq	.LC7(%rip), %rax	#, tmp269
	movq	%rax, %rdi	# tmp269,
	call	W_GetNumForName@PLT	#
# r_data.c:496:     temp2 = W_GetNumForName ("S_END") - 1;
	.loc 1 496 11 discriminator 1
	subl	$1, %eax	#, tmp270
	movl	%eax, -140(%rbp)	# tmp270, temp2
# r_data.c:497:     temp3 = ((temp2-temp1+63)/64) + ((numtextures+63)/64);
	.loc 1 497 20
	movl	-140(%rbp), %eax	# temp2, tmp271
	subl	-144(%rbp), %eax	# temp1, _48
# r_data.c:497:     temp3 = ((temp2-temp1+63)/64) + ((numtextures+63)/64);
	.loc 1 497 26
	addl	$63, %eax	#, _49
# r_data.c:497:     temp3 = ((temp2-temp1+63)/64) + ((numtextures+63)/64);
	.loc 1 497 30
	leal	63(%rax), %edx	#, tmp273
	testl	%eax, %eax	# tmp272
	cmovs	%edx, %eax	# tmp273,, tmp272
	sarl	$6, %eax	#, tmp274
	movl	%eax, %ecx	# tmp274, _50
# r_data.c:497:     temp3 = ((temp2-temp1+63)/64) + ((numtextures+63)/64);
	.loc 1 497 50
	movl	numtextures(%rip), %eax	# numtextures, numtextures.26_51
	addl	$63, %eax	#, _52
# r_data.c:497:     temp3 = ((temp2-temp1+63)/64) + ((numtextures+63)/64);
	.loc 1 497 54
	leal	63(%rax), %edx	#, tmp276
	testl	%eax, %eax	# tmp275
	cmovs	%edx, %eax	# tmp276,, tmp275
	sarl	$6, %eax	#, tmp277
# r_data.c:497:     temp3 = ((temp2-temp1+63)/64) + ((numtextures+63)/64);
	.loc 1 497 11
	addl	%ecx, %eax	# _50, tmp278
	movl	%eax, -136(%rbp)	# tmp278, temp3
# r_data.c:498:     printf("[");
	.loc 1 498 5
	movl	$91, %edi	#,
	call	putchar@PLT	#
# r_data.c:499:     for (i = 0; i < temp3; i++)
	.loc 1 499 12
	movl	$0, -176(%rbp)	#, i
# r_data.c:499:     for (i = 0; i < temp3; i++)
	.loc 1 499 5
	jmp	.L49	#
.L50:
# r_data.c:500: 	printf(" ");
	.loc 1 500 2
	movl	$32, %edi	#,
	call	putchar@PLT	#
# r_data.c:499:     for (i = 0; i < temp3; i++)
	.loc 1 499 29 discriminator 3
	addl	$1, -176(%rbp)	#, i
.L49:
# r_data.c:499:     for (i = 0; i < temp3; i++)
	.loc 1 499 19 discriminator 1
	movl	-176(%rbp), %eax	# i, tmp279
	cmpl	-136(%rbp), %eax	# temp3, tmp279
	jl	.L50	#,
# r_data.c:501:     printf("         ]");
	.loc 1 501 5
	leaq	.LC8(%rip), %rax	#, tmp280
	movq	%rax, %rdi	# tmp280,
	movl	$0, %eax	#,
	call	printf@PLT	#
# r_data.c:502:     for (i = 0; i < temp3; i++)
	.loc 1 502 12
	movl	$0, -176(%rbp)	#, i
# r_data.c:502:     for (i = 0; i < temp3; i++)
	.loc 1 502 5
	jmp	.L51	#
.L52:
# r_data.c:503: 	printf("\x8");
	.loc 1 503 2
	movl	$8, %edi	#,
	call	putchar@PLT	#
# r_data.c:502:     for (i = 0; i < temp3; i++)
	.loc 1 502 29 discriminator 3
	addl	$1, -176(%rbp)	#, i
.L51:
# r_data.c:502:     for (i = 0; i < temp3; i++)
	.loc 1 502 19 discriminator 1
	movl	-176(%rbp), %eax	# i, tmp281
	cmpl	-136(%rbp), %eax	# temp3, tmp281
	jl	.L52	#,
# r_data.c:504:     printf("\x8\x8\x8\x8\x8\x8\x8\x8\x8\x8");	
	.loc 1 504 5
	leaq	.LC9(%rip), %rax	#, tmp282
	movq	%rax, %rdi	# tmp282,
	movl	$0, %eax	#,
	call	printf@PLT	#
# r_data.c:506:     for (i=0 ; i<numtextures ; i++, directory++)
	.loc 1 506 11
	movl	$0, -176(%rbp)	#, i
# r_data.c:506:     for (i=0 ; i<numtextures ; i++, directory++)
	.loc 1 506 5
	jmp	.L53	#
.L62:
# r_data.c:508: 	if (!(i&63))
	.loc 1 508 9
	movl	-176(%rbp), %eax	# i, tmp283
	andl	$63, %eax	#, _54
# r_data.c:508: 	if (!(i&63))
	.loc 1 508 5
	testl	%eax, %eax	# _54
	jne	.L54	#,
# r_data.c:509: 	    printf (".");
	.loc 1 509 6
	movl	$46, %edi	#,
	call	putchar@PLT	#
.L54:
# r_data.c:511: 	if (i == numtextures1)
	.loc 1 511 5
	movl	-176(%rbp), %eax	# i, tmp284
	cmpl	-148(%rbp), %eax	# numtextures1, tmp284
	jne	.L55	#,
# r_data.c:514: 	    maptex = maptex2;
	.loc 1 514 13
	movq	-104(%rbp), %rax	# maptex2, tmp285
	movq	%rax, -112(%rbp)	# tmp285, maptex
# r_data.c:515: 	    maxoff = maxoff2;
	.loc 1 515 13
	movl	-160(%rbp), %eax	# maxoff2, tmp286
	movl	%eax, -164(%rbp)	# tmp286, maxoff
# r_data.c:516: 	    directory = maptex+1;
	.loc 1 516 16
	movq	-112(%rbp), %rax	# maptex, tmp290
	addq	$4, %rax	#, tmp289
	movq	%rax, -96(%rbp)	# tmp289, directory
.L55:
# r_data.c:519: 	offset = LONG(*directory);
	.loc 1 519 9
	movq	-96(%rbp), %rax	# directory, tmp291
	movl	(%rax), %eax	# *directory_149, tmp292
	movl	%eax, -132(%rbp)	# tmp292, offset
# r_data.c:521: 	if (offset > maxoff)
	.loc 1 521 5
	movl	-132(%rbp), %eax	# offset, tmp293
	cmpl	-164(%rbp), %eax	# maxoff, tmp293
	jle	.L56	#,
# r_data.c:522: 	    I_Error ("R_InitTextures: bad texture directory");
	.loc 1 522 6
	leaq	.LC10(%rip), %rax	#, tmp294
	movq	%rax, %rdi	# tmp294,
	movl	$0, %eax	#,
	call	I_Error@PLT	#
.L56:
# r_data.c:524: 	mtexture = (maptexture_t *) ( (byte *)maptex + offset);
	.loc 1 524 13
	movl	-132(%rbp), %eax	# offset, tmp295
	movslq	%eax, %rdx	# tmp295, _55
# r_data.c:524: 	mtexture = (maptexture_t *) ( (byte *)maptex + offset);
	.loc 1 524 11
	movq	-112(%rbp), %rax	# maptex, tmp299
	addq	%rdx, %rax	# _55, tmp298
	movq	%rax, -56(%rbp)	# tmp298, mtexture
# r_data.c:528: 		      + sizeof(texpatch_t)*(SHORT(mtexture->patchcount)-1),
	.loc 1 528 31
	movq	-56(%rbp), %rax	# mtexture, tmp300
	movzwl	20(%rax), %eax	# mtexture_235->patchcount, _56
	cwtl
# r_data.c:528: 		      + sizeof(texpatch_t)*(SHORT(mtexture->patchcount)-1),
	.loc 1 528 58
	subl	$1, %eax	#, _58
	cltq
# r_data.c:528: 		      + sizeof(texpatch_t)*(SHORT(mtexture->patchcount)-1),
	.loc 1 528 9
	movl	%eax, %edx	# _59, _60
	movl	%edx, %eax	# _60, tmp301
	addl	%eax, %eax	# tmp301
	addl	%edx, %eax	# _60, tmp301
	sall	$2, %eax	#, tmp302
	addl	$28, %eax	#, _62
# r_data.c:527: 	    Z_Malloc (sizeof(texture_t)
	.loc 1 527 6
	movl	%eax, %ecx	# _62, _63
# r_data.c:526: 	texture = textures[i] =
	.loc 1 526 20
	movq	textures(%rip), %rax	# textures, textures.27_64
	movl	-176(%rbp), %edx	# i, tmp303
	movslq	%edx, %rdx	# tmp303, _65
	salq	$3, %rdx	#, _66
	leaq	(%rax,%rdx), %rbx	#, _67
# r_data.c:527: 	    Z_Malloc (sizeof(texture_t)
	.loc 1 527 6
	movl	$0, %edx	#,
	movl	$1, %esi	#,
	movl	%ecx, %edi	# _63,
	call	Z_Malloc@PLT	#
# r_data.c:526: 	texture = textures[i] =
	.loc 1 526 24
	movq	%rax, (%rbx)	# _68, *_67
# r_data.c:526: 	texture = textures[i] =
	.loc 1 526 10
	movq	(%rbx), %rax	# *_67, tmp304
	movq	%rax, -48(%rbp)	# tmp304, texture
# r_data.c:531: 	texture->width = SHORT(mtexture->width);
	.loc 1 531 19
	movq	-56(%rbp), %rax	# mtexture, tmp305
	movzwl	12(%rax), %edx	# mtexture_235->width, _69
# r_data.c:531: 	texture->width = SHORT(mtexture->width);
	.loc 1 531 17
	movq	-48(%rbp), %rax	# texture, tmp306
	movw	%dx, 8(%rax)	# _69, texture_238->width
# r_data.c:532: 	texture->height = SHORT(mtexture->height);
	.loc 1 532 20
	movq	-56(%rbp), %rax	# mtexture, tmp307
	movzwl	14(%rax), %edx	# mtexture_235->height, _70
# r_data.c:532: 	texture->height = SHORT(mtexture->height);
	.loc 1 532 18
	movq	-48(%rbp), %rax	# texture, tmp308
	movw	%dx, 10(%rax)	# _70, texture_238->height
# r_data.c:533: 	texture->patchcount = SHORT(mtexture->patchcount);
	.loc 1 533 24
	movq	-56(%rbp), %rax	# mtexture, tmp309
	movzwl	20(%rax), %edx	# mtexture_235->patchcount, _71
# r_data.c:533: 	texture->patchcount = SHORT(mtexture->patchcount);
	.loc 1 533 22
	movq	-48(%rbp), %rax	# texture, tmp310
	movw	%dx, 12(%rax)	# _71, texture_238->patchcount
# r_data.c:535: 	memcpy (texture->name, mtexture->name, sizeof(texture->name));
	.loc 1 535 33
	movq	-56(%rbp), %rdx	# mtexture, _72
# r_data.c:535: 	memcpy (texture->name, mtexture->name, sizeof(texture->name));
	.loc 1 535 17
	movq	-48(%rbp), %rax	# texture, _73
# r_data.c:535: 	memcpy (texture->name, mtexture->name, sizeof(texture->name));
	.loc 1 535 2
	movq	(%rdx), %rdx	# MEM <unsigned long> [(char * {ref-all})_72], _242
	movq	%rdx, (%rax)	# _242, MEM <unsigned long> [(char * {ref-all})_73]
# r_data.c:536: 	mpatch = &mtexture->patches[0];
	.loc 1 536 9
	movq	-56(%rbp), %rax	# mtexture, tmp314
	addq	$22, %rax	#, tmp313
	movq	%rax, -128(%rbp)	# tmp313, mpatch
# r_data.c:537: 	patch = &texture->patches[0];
	.loc 1 537 8
	movq	-48(%rbp), %rax	# texture, tmp318
	addq	$16, %rax	#, tmp317
	movq	%rax, -120(%rbp)	# tmp317, patch
# r_data.c:539: 	for (j=0 ; j<texture->patchcount ; j++, mpatch++, patch++)
	.loc 1 539 8
	movl	$0, -172(%rbp)	#, j
# r_data.c:539: 	for (j=0 ; j<texture->patchcount ; j++, mpatch++, patch++)
	.loc 1 539 2
	jmp	.L57	#
.L59:
# r_data.c:541: 	    patch->originx = SHORT(mpatch->originx);
	.loc 1 541 23
	movq	-128(%rbp), %rax	# mpatch, tmp319
	movzwl	(%rax), %eax	# mpatch_131->originx, _74
	movswl	%ax, %edx	# _74, _75
# r_data.c:541: 	    patch->originx = SHORT(mpatch->originx);
	.loc 1 541 21
	movq	-120(%rbp), %rax	# patch, tmp320
	movl	%edx, (%rax)	# _75, patch_132->originx
# r_data.c:542: 	    patch->originy = SHORT(mpatch->originy);
	.loc 1 542 23
	movq	-128(%rbp), %rax	# mpatch, tmp321
	movzwl	2(%rax), %eax	# mpatch_131->originy, _76
	movswl	%ax, %edx	# _76, _77
# r_data.c:542: 	    patch->originy = SHORT(mpatch->originy);
	.loc 1 542 21
	movq	-120(%rbp), %rax	# patch, tmp322
	movl	%edx, 4(%rax)	# _77, patch_132->originy
# r_data.c:543: 	    patch->patch = patchlookup[SHORT(mpatch->patch)];
	.loc 1 543 33
	movq	-128(%rbp), %rax	# mpatch, tmp323
	movzwl	4(%rax), %eax	# mpatch_131->patch, _78
	movswq	%ax, %rax	# _78, _79
# r_data.c:543: 	    patch->patch = patchlookup[SHORT(mpatch->patch)];
	.loc 1 543 32
	leaq	0(,%rax,4), %rdx	#, _80
	movq	-72(%rbp), %rax	# patchlookup, tmp324
	addq	%rdx, %rax	# _80, _81
	movl	(%rax), %edx	# *_81, _82
# r_data.c:543: 	    patch->patch = patchlookup[SHORT(mpatch->patch)];
	.loc 1 543 19
	movq	-120(%rbp), %rax	# patch, tmp325
	movl	%edx, 8(%rax)	# _82, patch_132->patch
# r_data.c:544: 	    if (patch->patch == -1)
	.loc 1 544 15
	movq	-120(%rbp), %rax	# patch, tmp326
	movl	8(%rax), %eax	# patch_132->patch, _83
# r_data.c:544: 	    if (patch->patch == -1)
	.loc 1 544 9
	cmpl	$-1, %eax	#, _83
	jne	.L58	#,
# r_data.c:547: 			 texture->name);
	.loc 1 547 12
	movq	-48(%rbp), %rax	# texture, _84
# r_data.c:546: 		I_Error ("R_InitTextures: Missing patch in texture %s",
	.loc 1 546 3
	movq	%rax, %rsi	# _84,
	leaq	.LC11(%rip), %rax	#, tmp327
	movq	%rax, %rdi	# tmp327,
	movl	$0, %eax	#,
	call	I_Error@PLT	#
.L58:
# r_data.c:539: 	for (j=0 ; j<texture->patchcount ; j++, mpatch++, patch++)
	.loc 1 539 38 discriminator 2
	addl	$1, -172(%rbp)	#, j
# r_data.c:539: 	for (j=0 ; j<texture->patchcount ; j++, mpatch++, patch++)
	.loc 1 539 48 discriminator 2
	addq	$10, -128(%rbp)	#, mpatch
# r_data.c:539: 	for (j=0 ; j<texture->patchcount ; j++, mpatch++, patch++)
	.loc 1 539 57 discriminator 2
	addq	$12, -120(%rbp)	#, patch
.L57:
# r_data.c:539: 	for (j=0 ; j<texture->patchcount ; j++, mpatch++, patch++)
	.loc 1 539 22 discriminator 1
	movq	-48(%rbp), %rax	# texture, tmp328
	movzwl	12(%rax), %eax	# texture_238->patchcount, _85
	cwtl
# r_data.c:539: 	for (j=0 ; j<texture->patchcount ; j++, mpatch++, patch++)
	.loc 1 539 14 discriminator 1
	cmpl	%eax, -172(%rbp)	# _86, j
	jl	.L59	#,
# r_data.c:550: 	texturecolumnlump[i] = Z_Malloc (texture->width*2, PU_STATIC,0);
	.loc 1 550 42
	movq	-48(%rbp), %rax	# texture, tmp329
	movzwl	8(%rax), %eax	# texture_238->width, _87
	cwtl
# r_data.c:550: 	texturecolumnlump[i] = Z_Malloc (texture->width*2, PU_STATIC,0);
	.loc 1 550 25
	addl	%eax, %eax	# _89
# r_data.c:550: 	texturecolumnlump[i] = Z_Malloc (texture->width*2, PU_STATIC,0);
	.loc 1 550 19
	movq	texturecolumnlump(%rip), %rdx	# texturecolumnlump, texturecolumnlump.28_90
	movl	-176(%rbp), %ecx	# i, tmp330
	movslq	%ecx, %rcx	# tmp330, _91
	salq	$3, %rcx	#, _92
	leaq	(%rdx,%rcx), %rbx	#, _93
# r_data.c:550: 	texturecolumnlump[i] = Z_Malloc (texture->width*2, PU_STATIC,0);
	.loc 1 550 25
	movl	$0, %edx	#,
	movl	$1, %esi	#,
	movl	%eax, %edi	# _89,
	call	Z_Malloc@PLT	#
# r_data.c:550: 	texturecolumnlump[i] = Z_Malloc (texture->width*2, PU_STATIC,0);
	.loc 1 550 23 discriminator 1
	movq	%rax, (%rbx)	# _94, *_93
# r_data.c:551: 	texturecolumnofs[i] = Z_Malloc (texture->width*2, PU_STATIC,0);
	.loc 1 551 41
	movq	-48(%rbp), %rax	# texture, tmp331
	movzwl	8(%rax), %eax	# texture_238->width, _95
	cwtl
# r_data.c:551: 	texturecolumnofs[i] = Z_Malloc (texture->width*2, PU_STATIC,0);
	.loc 1 551 24
	addl	%eax, %eax	# _97
# r_data.c:551: 	texturecolumnofs[i] = Z_Malloc (texture->width*2, PU_STATIC,0);
	.loc 1 551 18
	movq	texturecolumnofs(%rip), %rdx	# texturecolumnofs, texturecolumnofs.29_98
	movl	-176(%rbp), %ecx	# i, tmp332
	movslq	%ecx, %rcx	# tmp332, _99
	salq	$3, %rcx	#, _100
	leaq	(%rdx,%rcx), %rbx	#, _101
# r_data.c:551: 	texturecolumnofs[i] = Z_Malloc (texture->width*2, PU_STATIC,0);
	.loc 1 551 24
	movl	$0, %edx	#,
	movl	$1, %esi	#,
	movl	%eax, %edi	# _97,
	call	Z_Malloc@PLT	#
# r_data.c:551: 	texturecolumnofs[i] = Z_Malloc (texture->width*2, PU_STATIC,0);
	.loc 1 551 22 discriminator 1
	movq	%rax, (%rbx)	# _102, *_101
# r_data.c:553: 	j = 1;
	.loc 1 553 4
	movl	$1, -172(%rbp)	#, j
# r_data.c:554: 	while (j*2 <= texture->width)
	.loc 1 554 8
	jmp	.L60	#
.L61:
# r_data.c:555: 	    j<<=1;
	.loc 1 555 7
	sall	-172(%rbp)	# j
.L60:
# r_data.c:554: 	while (j*2 <= texture->width)
	.loc 1 554 10
	movl	-172(%rbp), %eax	# j, tmp333
	leal	(%rax,%rax), %edx	#, _103
# r_data.c:554: 	while (j*2 <= texture->width)
	.loc 1 554 23
	movq	-48(%rbp), %rax	# texture, tmp334
	movzwl	8(%rax), %eax	# texture_238->width, _104
	cwtl
# r_data.c:554: 	while (j*2 <= texture->width)
	.loc 1 554 13
	cmpl	%eax, %edx	# _105, _103
	jle	.L61	#,
# r_data.c:557: 	texturewidthmask[i] = j-1;
	.loc 1 557 18
	movq	texturewidthmask(%rip), %rax	# texturewidthmask, texturewidthmask.30_106
	movl	-176(%rbp), %edx	# i, tmp335
	movslq	%edx, %rdx	# tmp335, _107
	salq	$2, %rdx	#, _108
	addq	%rdx, %rax	# _108, _109
# r_data.c:557: 	texturewidthmask[i] = j-1;
	.loc 1 557 25
	movl	-172(%rbp), %edx	# j, tmp336
	subl	$1, %edx	#, _110
# r_data.c:557: 	texturewidthmask[i] = j-1;
	.loc 1 557 22
	movl	%edx, (%rax)	# _110, *_109
# r_data.c:558: 	textureheight[i] = texture->height<<FRACBITS;
	.loc 1 558 28
	movq	-48(%rbp), %rax	# texture, tmp337
	movzwl	10(%rax), %eax	# texture_238->height, _111
	movswl	%ax, %edx	# _111, _112
# r_data.c:558: 	textureheight[i] = texture->height<<FRACBITS;
	.loc 1 558 15
	movq	textureheight(%rip), %rax	# textureheight, textureheight.31_113
	movl	-176(%rbp), %ecx	# i, tmp338
	movslq	%ecx, %rcx	# tmp338, _114
	salq	$2, %rcx	#, _115
	addq	%rcx, %rax	# _115, _116
# r_data.c:558: 	textureheight[i] = texture->height<<FRACBITS;
	.loc 1 558 36
	sall	$16, %edx	#, _117
# r_data.c:558: 	textureheight[i] = texture->height<<FRACBITS;
	.loc 1 558 19
	movl	%edx, (%rax)	# _117, *_116
# r_data.c:560: 	totalwidth += texture->width;
	.loc 1 560 23
	movq	-48(%rbp), %rax	# texture, tmp339
	movzwl	8(%rax), %eax	# texture_238->width, _118
	cwtl
# r_data.c:560: 	totalwidth += texture->width;
	.loc 1 560 13
	addl	%eax, -168(%rbp)	# _119, totalwidth
# r_data.c:506:     for (i=0 ; i<numtextures ; i++, directory++)
	.loc 1 506 33 discriminator 2
	addl	$1, -176(%rbp)	#, i
# r_data.c:506:     for (i=0 ; i<numtextures ; i++, directory++)
	.loc 1 506 46 discriminator 2
	addq	$4, -96(%rbp)	#, directory
.L53:
# r_data.c:506:     for (i=0 ; i<numtextures ; i++, directory++)
	.loc 1 506 17 discriminator 1
	movl	numtextures(%rip), %eax	# numtextures, numtextures.32_120
	cmpl	%eax, -176(%rbp)	# numtextures.32_120, i
	jl	.L62	#,
# r_data.c:563:     Z_Free (maptex1);
	.loc 1 563 5
	movq	-64(%rbp), %rax	# maptex1, tmp340
	movq	%rax, %rdi	# tmp340,
	call	Z_Free@PLT	#
# r_data.c:564:     if (maptex2)
	.loc 1 564 8
	cmpq	$0, -104(%rbp)	#, maptex2
	je	.L63	#,
# r_data.c:565: 	Z_Free (maptex2);
	.loc 1 565 2
	movq	-104(%rbp), %rax	# maptex2, tmp341
	movq	%rax, %rdi	# tmp341,
	call	Z_Free@PLT	#
.L63:
# r_data.c:568:     for (i=0 ; i<numtextures ; i++)
	.loc 1 568 11
	movl	$0, -176(%rbp)	#, i
# r_data.c:568:     for (i=0 ; i<numtextures ; i++)
	.loc 1 568 5
	jmp	.L64	#
.L65:
# r_data.c:569: 	R_GenerateLookup (i);
	.loc 1 569 2
	movl	-176(%rbp), %eax	# i, tmp342
	movl	%eax, %edi	# tmp342,
	call	R_GenerateLookup	#
# r_data.c:568:     for (i=0 ; i<numtextures ; i++)
	.loc 1 568 33 discriminator 3
	addl	$1, -176(%rbp)	#, i
.L64:
# r_data.c:568:     for (i=0 ; i<numtextures ; i++)
	.loc 1 568 17 discriminator 1
	movl	numtextures(%rip), %eax	# numtextures, numtextures.33_121
	cmpl	%eax, -176(%rbp)	# numtextures.33_121, i
	jl	.L65	#,
# r_data.c:572:     texturetranslation = Z_Malloc ((numtextures+1)*4, PU_STATIC, 0);
	.loc 1 572 48
	movl	numtextures(%rip), %eax	# numtextures, numtextures.34_122
	addl	$1, %eax	#, _123
# r_data.c:572:     texturetranslation = Z_Malloc ((numtextures+1)*4, PU_STATIC, 0);
	.loc 1 572 26
	sall	$2, %eax	#, _124
	movl	$0, %edx	#,
	movl	$1, %esi	#,
	movl	%eax, %edi	# _124,
	call	Z_Malloc@PLT	#
# r_data.c:572:     texturetranslation = Z_Malloc ((numtextures+1)*4, PU_STATIC, 0);
	.loc 1 572 24 discriminator 1
	movq	%rax, texturetranslation(%rip)	# _125, texturetranslation
# r_data.c:574:     for (i=0 ; i<numtextures ; i++)
	.loc 1 574 11
	movl	$0, -176(%rbp)	#, i
# r_data.c:574:     for (i=0 ; i<numtextures ; i++)
	.loc 1 574 5
	jmp	.L66	#
.L67:
# r_data.c:575: 	texturetranslation[i] = i;
	.loc 1 575 20
	movq	texturetranslation(%rip), %rax	# texturetranslation, texturetranslation.35_126
	movl	-176(%rbp), %edx	# i, tmp343
	movslq	%edx, %rdx	# tmp343, _127
	salq	$2, %rdx	#, _128
	addq	%rax, %rdx	# texturetranslation.35_126, _129
# r_data.c:575: 	texturetranslation[i] = i;
	.loc 1 575 24
	movl	-176(%rbp), %eax	# i, tmp344
	movl	%eax, (%rdx)	# tmp344, *_129
# r_data.c:574:     for (i=0 ; i<numtextures ; i++)
	.loc 1 574 33 discriminator 3
	addl	$1, -176(%rbp)	#, i
.L66:
# r_data.c:574:     for (i=0 ; i<numtextures ; i++)
	.loc 1 574 17 discriminator 1
	movl	numtextures(%rip), %eax	# numtextures, numtextures.36_130
	cmpl	%eax, -176(%rbp)	# numtextures.36_130, i
	jl	.L67	#,
# r_data.c:576: }
	.loc 1 576 1
	nop	
	movq	-24(%rbp), %rax	# D.7618, tmp348
	subq	%fs:40, %rax	# MEM[(<address-space-1> long unsigned int *)40B], tmp348
	je	.L68	#,
	call	__stack_chk_fail@PLT	#
.L68:
	movq	-8(%rbp), %rbx	#,
	leave	
	.cfi_def_cfa 7, 8
	ret	
	.cfi_endproc
.LFE4:
	.size	R_InitTextures, .-R_InitTextures
	.section	.rodata
.LC12:
	.string	"F_START"
.LC13:
	.string	"F_END"
	.text
	.globl	R_InitFlats
	.type	R_InitFlats, @function
R_InitFlats:
.LFB5:
	.loc 1 584 1
	.cfi_startproc
	endbr64	
	pushq	%rbp	#
	.cfi_def_cfa_offset 16
	.cfi_offset 6, -16
	movq	%rsp, %rbp	#,
	.cfi_def_cfa_register 6
	subq	$16, %rsp	#,
# r_data.c:587:     firstflat = W_GetNumForName ("F_START") + 1;
	.loc 1 587 17
	leaq	.LC12(%rip), %rax	#, tmp99
	movq	%rax, %rdi	# tmp99,
	call	W_GetNumForName@PLT	#
# r_data.c:587:     firstflat = W_GetNumForName ("F_START") + 1;
	.loc 1 587 45 discriminator 1
	addl	$1, %eax	#, _2
# r_data.c:587:     firstflat = W_GetNumForName ("F_START") + 1;
	.loc 1 587 15 discriminator 1
	movl	%eax, firstflat(%rip)	# _2, firstflat
# r_data.c:588:     lastflat = W_GetNumForName ("F_END") - 1;
	.loc 1 588 16
	leaq	.LC13(%rip), %rax	#, tmp100
	movq	%rax, %rdi	# tmp100,
	call	W_GetNumForName@PLT	#
# r_data.c:588:     lastflat = W_GetNumForName ("F_END") - 1;
	.loc 1 588 42 discriminator 1
	subl	$1, %eax	#, _4
# r_data.c:588:     lastflat = W_GetNumForName ("F_END") - 1;
	.loc 1 588 14 discriminator 1
	movl	%eax, lastflat(%rip)	# _4, lastflat
# r_data.c:589:     numflats = lastflat - firstflat + 1;
	.loc 1 589 25
	movl	lastflat(%rip), %edx	# lastflat, lastflat.37_5
	movl	firstflat(%rip), %eax	# firstflat, firstflat.38_6
	subl	%eax, %edx	# firstflat.38_6, _7
# r_data.c:589:     numflats = lastflat - firstflat + 1;
	.loc 1 589 37
	leal	1(%rdx), %eax	#, _8
# r_data.c:589:     numflats = lastflat - firstflat + 1;
	.loc 1 589 14
	movl	%eax, numflats(%rip)	# _8, numflats
# r_data.c:592:     flattranslation = Z_Malloc ((numflats+1)*4, PU_STATIC, 0);
	.loc 1 592 42
	movl	numflats(%rip), %eax	# numflats, numflats.39_9
	addl	$1, %eax	#, _10
# r_data.c:592:     flattranslation = Z_Malloc ((numflats+1)*4, PU_STATIC, 0);
	.loc 1 592 23
	sall	$2, %eax	#, _11
	movl	$0, %edx	#,
	movl	$1, %esi	#,
	movl	%eax, %edi	# _11,
	call	Z_Malloc@PLT	#
# r_data.c:592:     flattranslation = Z_Malloc ((numflats+1)*4, PU_STATIC, 0);
	.loc 1 592 21 discriminator 1
	movq	%rax, flattranslation(%rip)	# _12, flattranslation
# r_data.c:594:     for (i=0 ; i<numflats ; i++)
	.loc 1 594 11
	movl	$0, -4(%rbp)	#, i
# r_data.c:594:     for (i=0 ; i<numflats ; i++)
	.loc 1 594 5
	jmp	.L70	#
.L71:
# r_data.c:595: 	flattranslation[i] = i;
	.loc 1 595 17
	movq	flattranslation(%rip), %rax	# flattranslation, flattranslation.40_13
	movl	-4(%rbp), %edx	# i, tmp101
	movslq	%edx, %rdx	# tmp101, _14
	salq	$2, %rdx	#, _15
	addq	%rax, %rdx	# flattranslation.40_13, _16
# r_data.c:595: 	flattranslation[i] = i;
	.loc 1 595 21
	movl	-4(%rbp), %eax	# i, tmp102
	movl	%eax, (%rdx)	# tmp102, *_16
# r_data.c:594:     for (i=0 ; i<numflats ; i++)
	.loc 1 594 30 discriminator 3
	addl	$1, -4(%rbp)	#, i
.L70:
# r_data.c:594:     for (i=0 ; i<numflats ; i++)
	.loc 1 594 17 discriminator 1
	movl	numflats(%rip), %eax	# numflats, numflats.41_17
	cmpl	%eax, -4(%rbp)	# numflats.41_17, i
	jl	.L71	#,
# r_data.c:596: }
	.loc 1 596 1
	nop	
	nop	
	leave	
	.cfi_def_cfa 7, 8
	ret	
	.cfi_endproc
.LFE5:
	.size	R_InitFlats, .-R_InitFlats
	.globl	R_InitSpriteLumps
	.type	R_InitSpriteLumps, @function
R_InitSpriteLumps:
.LFB6:
	.loc 1 606 1
	.cfi_startproc
	endbr64	
	pushq	%rbp	#
	.cfi_def_cfa_offset 16
	.cfi_offset 6, -16
	movq	%rsp, %rbp	#,
	.cfi_def_cfa_register 6
	subq	$16, %rsp	#,
# r_data.c:610:     firstspritelump = W_GetNumForName ("S_START") + 1;
	.loc 1 610 23
	leaq	.LC6(%rip), %rax	#, tmp124
	movq	%rax, %rdi	# tmp124,
	call	W_GetNumForName@PLT	#
# r_data.c:610:     firstspritelump = W_GetNumForName ("S_START") + 1;
	.loc 1 610 51 discriminator 1
	addl	$1, %eax	#, _2
# r_data.c:610:     firstspritelump = W_GetNumForName ("S_START") + 1;
	.loc 1 610 21 discriminator 1
	movl	%eax, firstspritelump(%rip)	# _2, firstspritelump
# r_data.c:611:     lastspritelump = W_GetNumForName ("S_END") - 1;
	.loc 1 611 22
	leaq	.LC7(%rip), %rax	#, tmp125
	movq	%rax, %rdi	# tmp125,
	call	W_GetNumForName@PLT	#
# r_data.c:611:     lastspritelump = W_GetNumForName ("S_END") - 1;
	.loc 1 611 48 discriminator 1
	subl	$1, %eax	#, _4
# r_data.c:611:     lastspritelump = W_GetNumForName ("S_END") - 1;
	.loc 1 611 20 discriminator 1
	movl	%eax, lastspritelump(%rip)	# _4, lastspritelump
# r_data.c:613:     numspritelumps = lastspritelump - firstspritelump + 1;
	.loc 1 613 37
	movl	lastspritelump(%rip), %edx	# lastspritelump, lastspritelump.42_5
	movl	firstspritelump(%rip), %eax	# firstspritelump, firstspritelump.43_6
	subl	%eax, %edx	# firstspritelump.43_6, _7
# r_data.c:613:     numspritelumps = lastspritelump - firstspritelump + 1;
	.loc 1 613 55
	leal	1(%rdx), %eax	#, _8
# r_data.c:613:     numspritelumps = lastspritelump - firstspritelump + 1;
	.loc 1 613 20
	movl	%eax, numspritelumps(%rip)	# _8, numspritelumps
# r_data.c:614:     spritewidth = Z_Malloc (numspritelumps*4, PU_STATIC, 0);
	.loc 1 614 19
	movl	numspritelumps(%rip), %eax	# numspritelumps, numspritelumps.44_9
	sall	$2, %eax	#, _10
	movl	$0, %edx	#,
	movl	$1, %esi	#,
	movl	%eax, %edi	# _10,
	call	Z_Malloc@PLT	#
# r_data.c:614:     spritewidth = Z_Malloc (numspritelumps*4, PU_STATIC, 0);
	.loc 1 614 17 discriminator 1
	movq	%rax, spritewidth(%rip)	# _11, spritewidth
# r_data.c:615:     spriteoffset = Z_Malloc (numspritelumps*4, PU_STATIC, 0);
	.loc 1 615 20
	movl	numspritelumps(%rip), %eax	# numspritelumps, numspritelumps.45_12
	sall	$2, %eax	#, _13
	movl	$0, %edx	#,
	movl	$1, %esi	#,
	movl	%eax, %edi	# _13,
	call	Z_Malloc@PLT	#
# r_data.c:615:     spriteoffset = Z_Malloc (numspritelumps*4, PU_STATIC, 0);
	.loc 1 615 18 discriminator 1
	movq	%rax, spriteoffset(%rip)	# _14, spriteoffset
# r_data.c:616:     spritetopoffset = Z_Malloc (numspritelumps*4, PU_STATIC, 0);
	.loc 1 616 23
	movl	numspritelumps(%rip), %eax	# numspritelumps, numspritelumps.46_15
	sall	$2, %eax	#, _16
	movl	$0, %edx	#,
	movl	$1, %esi	#,
	movl	%eax, %edi	# _16,
	call	Z_Malloc@PLT	#
# r_data.c:616:     spritetopoffset = Z_Malloc (numspritelumps*4, PU_STATIC, 0);
	.loc 1 616 21 discriminator 1
	movq	%rax, spritetopoffset(%rip)	# _17, spritetopoffset
# r_data.c:618:     for (i=0 ; i< numspritelumps ; i++)
	.loc 1 618 11
	movl	$0, -12(%rbp)	#, i
# r_data.c:618:     for (i=0 ; i< numspritelumps ; i++)
	.loc 1 618 5
	jmp	.L73	#
.L75:
# r_data.c:620: 	if (!(i&63))
	.loc 1 620 9
	movl	-12(%rbp), %eax	# i, tmp126
	andl	$63, %eax	#, _18
# r_data.c:620: 	if (!(i&63))
	.loc 1 620 5
	testl	%eax, %eax	# _18
	jne	.L74	#,
# r_data.c:621: 	    printf (".");
	.loc 1 621 6
	movl	$46, %edi	#,
	call	putchar@PLT	#
.L74:
# r_data.c:623: 	patch = W_CacheLumpNum (firstspritelump+i, PU_CACHE);
	.loc 1 623 10
	movl	firstspritelump(%rip), %edx	# firstspritelump, firstspritelump.47_19
	movl	-12(%rbp), %eax	# i, tmp127
	addl	%edx, %eax	# firstspritelump.47_19, _20
	movl	$101, %esi	#,
	movl	%eax, %edi	# _20,
	call	W_CacheLumpNum@PLT	#
	movq	%rax, -8(%rbp)	# tmp128, patch
# r_data.c:624: 	spritewidth[i] = SHORT(patch->width)<<FRACBITS;
	.loc 1 624 19
	movq	-8(%rbp), %rax	# patch, tmp129
	movzwl	(%rax), %eax	# patch_61->width, _21
	movswl	%ax, %edx	# _21, _22
# r_data.c:624: 	spritewidth[i] = SHORT(patch->width)<<FRACBITS;
	.loc 1 624 13
	movq	spritewidth(%rip), %rax	# spritewidth, spritewidth.48_23
	movl	-12(%rbp), %ecx	# i, tmp130
	movslq	%ecx, %rcx	# tmp130, _24
	salq	$2, %rcx	#, _25
	addq	%rcx, %rax	# _25, _26
# r_data.c:624: 	spritewidth[i] = SHORT(patch->width)<<FRACBITS;
	.loc 1 624 38
	sall	$16, %edx	#, _27
# r_data.c:624: 	spritewidth[i] = SHORT(patch->width)<<FRACBITS;
	.loc 1 624 17
	movl	%edx, (%rax)	# _27, *_26
# r_data.c:625: 	spriteoffset[i] = SHORT(patch->leftoffset)<<FRACBITS;
	.loc 1 625 20
	movq	-8(%rbp), %rax	# patch, tmp131
	movzwl	4(%rax), %eax	# patch_61->leftoffset, _28
	movswl	%ax, %edx	# _28, _29
# r_data.c:625: 	spriteoffset[i] = SHORT(patch->leftoffset)<<FRACBITS;
	.loc 1 625 14
	movq	spriteoffset(%rip), %rax	# spriteoffset, spriteoffset.49_30
	movl	-12(%rbp), %ecx	# i, tmp132
	movslq	%ecx, %rcx	# tmp132, _31
	salq	$2, %rcx	#, _32
	addq	%rcx, %rax	# _32, _33
# r_data.c:625: 	spriteoffset[i] = SHORT(patch->leftoffset)<<FRACBITS;
	.loc 1 625 44
	sall	$16, %edx	#, _34
# r_data.c:625: 	spriteoffset[i] = SHORT(patch->leftoffset)<<FRACBITS;
	.loc 1 625 18
	movl	%edx, (%rax)	# _34, *_33
# r_data.c:626: 	spritetopoffset[i] = SHORT(patch->topoffset)<<FRACBITS;
	.loc 1 626 23
	movq	-8(%rbp), %rax	# patch, tmp133
	movzwl	6(%rax), %eax	# patch_61->topoffset, _35
	movswl	%ax, %edx	# _35, _36
# r_data.c:626: 	spritetopoffset[i] = SHORT(patch->topoffset)<<FRACBITS;
	.loc 1 626 17
	movq	spritetopoffset(%rip), %rax	# spritetopoffset, spritetopoffset.50_37
	movl	-12(%rbp), %ecx	# i, tmp134
	movslq	%ecx, %rcx	# tmp134, _38
	salq	$2, %rcx	#, _39
	addq	%rcx, %rax	# _39, _40
# r_data.c:626: 	spritetopoffset[i] = SHORT(patch->topoffset)<<FRACBITS;
	.loc 1 626 46
	sall	$16, %edx	#, _41
# r_data.c:626: 	spritetopoffset[i] = SHORT(patch->topoffset)<<FRACBITS;
	.loc 1 626 21
	movl	%edx, (%rax)	# _41, *_40
# r_data.c:618:     for (i=0 ; i< numspritelumps ; i++)
	.loc 1 618 37 discriminator 2
	addl	$1, -12(%rbp)	#, i
.L73:
# r_data.c:618:     for (i=0 ; i< numspritelumps ; i++)
	.loc 1 618 17 discriminator 1
	movl	numspritelumps(%rip), %eax	# numspritelumps, numspritelumps.51_42
	cmpl	%eax, -12(%rbp)	# numspritelumps.51_42, i
	jl	.L75	#,
# r_data.c:628: }
	.loc 1 628 1
	nop	
	nop	
	leave	
	.cfi_def_cfa 7, 8
	ret	
	.cfi_endproc
.LFE6:
	.size	R_InitSpriteLumps, .-R_InitSpriteLumps
	.section	.rodata
.LC14:
	.string	"COLORMAP"
	.text
	.globl	R_InitColormaps
	.type	R_InitColormaps, @function
R_InitColormaps:
.LFB7:
	.loc 1 636 1
	.cfi_startproc
	endbr64	
	pushq	%rbp	#
	.cfi_def_cfa_offset 16
	.cfi_offset 6, -16
	movq	%rsp, %rbp	#,
	.cfi_def_cfa_register 6
	subq	$16, %rsp	#,
# r_data.c:641:     lump = W_GetNumForName("COLORMAP"); 
	.loc 1 641 12
	leaq	.LC14(%rip), %rax	#, tmp90
	movq	%rax, %rdi	# tmp90,
	call	W_GetNumForName@PLT	#
	movl	%eax, -8(%rbp)	# tmp91, lump
# r_data.c:642:     length = W_LumpLength (lump) + 255; 
	.loc 1 642 14
	movl	-8(%rbp), %eax	# lump, tmp92
	movl	%eax, %edi	# tmp92,
	call	W_LumpLength@PLT	#
# r_data.c:642:     length = W_LumpLength (lump) + 255; 
	.loc 1 642 12 discriminator 1
	addl	$255, %eax	#, tmp93
	movl	%eax, -4(%rbp)	# tmp93, length
# r_data.c:643:     colormaps = Z_Malloc (length, PU_STATIC, 0); 
	.loc 1 643 17
	movl	-4(%rbp), %eax	# length, tmp94
	movl	$0, %edx	#,
	movl	$1, %esi	#,
	movl	%eax, %edi	# tmp94,
	call	Z_Malloc@PLT	#
# r_data.c:643:     colormaps = Z_Malloc (length, PU_STATIC, 0); 
	.loc 1 643 15 discriminator 1
	movq	%rax, colormaps(%rip)	# _2, colormaps
# r_data.c:644:     colormaps = (byte *)( ((intptr_t)colormaps + 255)&~0xff); 
	.loc 1 644 28
	movq	colormaps(%rip), %rax	# colormaps, colormaps.52_3
# r_data.c:644:     colormaps = (byte *)( ((intptr_t)colormaps + 255)&~0xff); 
	.loc 1 644 48
	addq	$255, %rax	#, _5
# r_data.c:644:     colormaps = (byte *)( ((intptr_t)colormaps + 255)&~0xff); 
	.loc 1 644 54
	movb	$0, %al	#, _6
# r_data.c:644:     colormaps = (byte *)( ((intptr_t)colormaps + 255)&~0xff); 
	.loc 1 644 15
	movq	%rax, colormaps(%rip)	# _7, colormaps
# r_data.c:645:     W_ReadLump (lump,colormaps); 
	.loc 1 645 5
	movq	colormaps(%rip), %rdx	# colormaps, colormaps.54_8
	movl	-8(%rbp), %eax	# lump, tmp95
	movq	%rdx, %rsi	# colormaps.54_8,
	movl	%eax, %edi	# tmp95,
	call	W_ReadLump@PLT	#
# r_data.c:646: }
	.loc 1 646 1
	nop	
	leave	
	.cfi_def_cfa 7, 8
	ret	
	.cfi_endproc
.LFE7:
	.size	R_InitColormaps, .-R_InitColormaps
	.section	.rodata
.LC15:
	.string	"\nInitTextures"
.LC16:
	.string	"\nInitFlats"
.LC17:
	.string	"\nInitSprites"
.LC18:
	.string	"\nInitColormaps"
	.text
	.globl	R_InitData
	.type	R_InitData, @function
R_InitData:
.LFB8:
	.loc 1 657 1
	.cfi_startproc
	endbr64	
	pushq	%rbp	#
	.cfi_def_cfa_offset 16
	.cfi_offset 6, -16
	movq	%rsp, %rbp	#,
	.cfi_def_cfa_register 6
# r_data.c:658:     R_InitTextures ();
	.loc 1 658 5
	call	R_InitTextures	#
# r_data.c:659:     printf ("\nInitTextures");
	.loc 1 659 5
	leaq	.LC15(%rip), %rax	#, tmp82
	movq	%rax, %rdi	# tmp82,
	movl	$0, %eax	#,
	call	printf@PLT	#
# r_data.c:660:     R_InitFlats ();
	.loc 1 660 5
	call	R_InitFlats	#
# r_data.c:661:     printf ("\nInitFlats");
	.loc 1 661 5
	leaq	.LC16(%rip), %rax	#, tmp83
	movq	%rax, %rdi	# tmp83,
	movl	$0, %eax	#,
	call	printf@PLT	#
# r_data.c:662:     R_InitSpriteLumps ();
	.loc 1 662 5
	call	R_InitSpriteLumps	#
# r_data.c:663:     printf ("\nInitSprites");
	.loc 1 663 5
	leaq	.LC17(%rip), %rax	#, tmp84
	movq	%rax, %rdi	# tmp84,
	movl	$0, %eax	#,
	call	printf@PLT	#
# r_data.c:664:     R_InitColormaps ();
	.loc 1 664 5
	call	R_InitColormaps	#
# r_data.c:665:     printf ("\nInitColormaps");
	.loc 1 665 5
	leaq	.LC18(%rip), %rax	#, tmp85
	movq	%rax, %rdi	# tmp85,
	movl	$0, %eax	#,
	call	printf@PLT	#
# r_data.c:666: }
	.loc 1 666 1
	nop	
	popq	%rbp	#
	.cfi_def_cfa 7, 8
	ret	
	.cfi_endproc
.LFE8:
	.size	R_InitData, .-R_InitData
	.section	.rodata
	.align 8
.LC19:
	.string	"R_FlatNumForName: %s not found"
	.text
	.globl	R_FlatNumForName
	.type	R_FlatNumForName, @function
R_FlatNumForName:
.LFB9:
	.loc 1 675 1
	.cfi_startproc
	endbr64	
	pushq	%rbp	#
	.cfi_def_cfa_offset 16
	.cfi_offset 6, -16
	movq	%rsp, %rbp	#,
	.cfi_def_cfa_register 6
	subq	$48, %rsp	#,
	movq	%rdi, -40(%rbp)	# name, name
# r_data.c:675: {
	.loc 1 675 1
	movq	%fs:40, %rax	# MEM[(<address-space-1> long unsigned int *)40B], tmp93
	movq	%rax, -8(%rbp)	# tmp93, D.7635
	xorl	%eax, %eax	# tmp93
# r_data.c:679:     i = W_CheckNumForName (name);
	.loc 1 679 9
	movq	-40(%rbp), %rax	# name, tmp86
	movq	%rax, %rdi	# tmp86,
	call	W_CheckNumForName@PLT	#
	movl	%eax, -24(%rbp)	# tmp87, i
# r_data.c:681:     if (i == -1)
	.loc 1 681 8
	cmpl	$-1, -24(%rbp)	#, i
	jne	.L79	#,
# r_data.c:683: 	namet[8] = 0;
	.loc 1 683 11
	movb	$0, -9(%rbp)	#, namet[8]
# r_data.c:684: 	memcpy (namet, name,8);
	.loc 1 684 2
	movq	-40(%rbp), %rax	# name, tmp88
	movq	(%rax), %rax	# MEM <unsigned long> [(char * {ref-all})name_4(D)], _8
	movq	%rax, -17(%rbp)	# _8, MEM <unsigned long> [(char * {ref-all})&namet]
# r_data.c:685: 	I_Error ("R_FlatNumForName: %s not found",namet);
	.loc 1 685 2
	leaq	-17(%rbp), %rax	#, tmp89
	movq	%rax, %rsi	# tmp89,
	leaq	.LC19(%rip), %rax	#, tmp90
	movq	%rax, %rdi	# tmp90,
	movl	$0, %eax	#,
	call	I_Error@PLT	#
.L79:
# r_data.c:687:     return i - firstflat;
	.loc 1 687 14
	movl	firstflat(%rip), %eax	# firstflat, firstflat.55_1
	movl	-24(%rbp), %edx	# i, tmp91
	subl	%eax, %edx	# firstflat.55_1, _11
	movl	%edx, %eax	# _11, <retval>
# r_data.c:688: }
	.loc 1 688 1
	movq	-8(%rbp), %rdx	# D.7635, tmp94
	subq	%fs:40, %rdx	# MEM[(<address-space-1> long unsigned int *)40B], tmp94
	je	.L81	#,
	call	__stack_chk_fail@PLT	#
.L81:
	leave	
	.cfi_def_cfa 7, 8
	ret	
	.cfi_endproc
.LFE9:
	.size	R_FlatNumForName, .-R_FlatNumForName
	.globl	R_CheckTextureNumForName
	.type	R_CheckTextureNumForName, @function
R_CheckTextureNumForName:
.LFB10:
	.loc 1 699 1
	.cfi_startproc
	endbr64	
	pushq	%rbp	#
	.cfi_def_cfa_offset 16
	.cfi_offset 6, -16
	movq	%rsp, %rbp	#,
	.cfi_def_cfa_register 6
	subq	$32, %rsp	#,
	movq	%rdi, -24(%rbp)	# name, name
# r_data.c:703:     if (name[0] == '-')		
	.loc 1 703 13
	movq	-24(%rbp), %rax	# name, tmp93
	movzbl	(%rax), %eax	# *name_13(D), _1
# r_data.c:703:     if (name[0] == '-')		
	.loc 1 703 8
	cmpb	$45, %al	#, _1
	jne	.L83	#,
# r_data.c:704: 	return 0;
	.loc 1 704 9
	movl	$0, %eax	#, _11
	jmp	.L84	#
.L83:
# r_data.c:706:     for (i=0 ; i<numtextures ; i++)
	.loc 1 706 11
	movl	$0, -4(%rbp)	#, i
# r_data.c:706:     for (i=0 ; i<numtextures ; i++)
	.loc 1 706 5
	jmp	.L85	#
.L87:
# r_data.c:707: 	if (!strncasecmp (textures[i]->name, name, 8) )
	.loc 1 707 28
	movq	textures(%rip), %rax	# textures, textures.56_2
	movl	-4(%rbp), %edx	# i, tmp94
	movslq	%edx, %rdx	# tmp94, _3
	salq	$3, %rdx	#, _4
	addq	%rdx, %rax	# _4, _5
	movq	(%rax), %rax	# *_5, _6
# r_data.c:707: 	if (!strncasecmp (textures[i]->name, name, 8) )
	.loc 1 707 31
	movq	%rax, %rcx	# _6, _7
# r_data.c:707: 	if (!strncasecmp (textures[i]->name, name, 8) )
	.loc 1 707 7
	movq	-24(%rbp), %rax	# name, tmp95
	movl	$8, %edx	#,
	movq	%rax, %rsi	# tmp95,
	movq	%rcx, %rdi	# _7,
	call	strncasecmp@PLT	#
# r_data.c:707: 	if (!strncasecmp (textures[i]->name, name, 8) )
	.loc 1 707 5 discriminator 1
	testl	%eax, %eax	# _8
	jne	.L86	#,
# r_data.c:708: 	    return i;
	.loc 1 708 13
	movl	-4(%rbp), %eax	# i, _11
	jmp	.L84	#
.L86:
# r_data.c:706:     for (i=0 ; i<numtextures ; i++)
	.loc 1 706 33 discriminator 2
	addl	$1, -4(%rbp)	#, i
.L85:
# r_data.c:706:     for (i=0 ; i<numtextures ; i++)
	.loc 1 706 17 discriminator 1
	movl	numtextures(%rip), %eax	# numtextures, numtextures.57_9
	cmpl	%eax, -4(%rbp)	# numtextures.57_9, i
	jl	.L87	#,
# r_data.c:710:     return -1;
	.loc 1 710 12
	movl	$-1, %eax	#, _11
.L84:
# r_data.c:711: }
	.loc 1 711 1
	leave	
	.cfi_def_cfa 7, 8
	ret	
	.cfi_endproc
.LFE10:
	.size	R_CheckTextureNumForName, .-R_CheckTextureNumForName
	.section	.rodata
	.align 8
.LC20:
	.string	"R_TextureNumForName: %s not found"
	.text
	.globl	R_TextureNumForName
	.type	R_TextureNumForName, @function
R_TextureNumForName:
.LFB11:
	.loc 1 721 1
	.cfi_startproc
	endbr64	
	pushq	%rbp	#
	.cfi_def_cfa_offset 16
	.cfi_offset 6, -16
	movq	%rsp, %rbp	#,
	.cfi_def_cfa_register 6
	subq	$32, %rsp	#,
	movq	%rdi, -24(%rbp)	# name, name
# r_data.c:724:     i = R_CheckTextureNumForName (name);
	.loc 1 724 9
	movq	-24(%rbp), %rax	# name, tmp84
	movq	%rax, %rdi	# tmp84,
	call	R_CheckTextureNumForName	#
	movl	%eax, -4(%rbp)	# tmp85, i
# r_data.c:726:     if (i==-1)
	.loc 1 726 8
	cmpl	$-1, -4(%rbp)	#, i
	jne	.L89	#,
# r_data.c:728: 	I_Error ("R_TextureNumForName: %s not found",
	.loc 1 728 2
	movq	-24(%rbp), %rax	# name, tmp86
	movq	%rax, %rsi	# tmp86,
	leaq	.LC20(%rip), %rax	#, tmp87
	movq	%rax, %rdi	# tmp87,
	movl	$0, %eax	#,
	call	I_Error@PLT	#
.L89:
# r_data.c:731:     return i;
	.loc 1 731 12
	movl	-4(%rbp), %eax	# i, _7
# r_data.c:732: }
	.loc 1 732 1
	leave	
	.cfi_def_cfa 7, 8
	ret	
	.cfi_endproc
.LFE11:
	.size	R_TextureNumForName, .-R_TextureNumForName
	.globl	flatmemory
	.bss
	.align 4
	.type	flatmemory, @object
	.size	flatmemory, 4
flatmemory:
	.zero	4
	.globl	texturememory
	.align 4
	.type	texturememory, @object
	.size	texturememory, 4
texturememory:
	.zero	4
	.globl	spritememory
	.align 4
	.type	spritememory, @object
	.size	spritememory, 4
spritememory:
	.zero	4
	.text
	.globl	R_PrecacheLevel
	.type	R_PrecacheLevel, @function
R_PrecacheLevel:
.LFB12:
	.loc 1 746 1
	.cfi_startproc
	endbr64	
	pushq	%rbp	#
	.cfi_def_cfa_offset 16
	.cfi_offset 6, -16
	movq	%rsp, %rbp	#,
	.cfi_def_cfa_register 6
	subq	$80, %rsp	#,
# r_data.c:746: {
	.loc 1 746 1
	movq	%fs:40, %rax	# MEM[(<address-space-1> long unsigned int *)40B], tmp324
	movq	%rax, -8(%rbp)	# tmp324, D.7638
	xorl	%eax, %eax	# tmp324
# r_data.c:760:     if (demoplayback)
	.loc 1 760 9
	movl	demoplayback(%rip), %eax	# demoplayback, demoplayback.58_1
# r_data.c:760:     if (demoplayback)
	.loc 1 760 8
	testl	%eax, %eax	# demoplayback.58_1
	jne	.L128	#,
# r_data.c:764:     flatpresent = alloca(numflats);
	.loc 1 764 19
	movl	numflats(%rip), %eax	# numflats, numflats.59_2
	cltq
	leaq	8(%rax), %rdx	#, tmp194
	movl	$16, %eax	#, tmp318
	subq	$1, %rax	#, tmp195
	addq	%rdx, %rax	# tmp194, tmp196
	movl	$16, %esi	#, tmp319
	movl	$0, %edx	#, tmp199
	divq	%rsi	# tmp319
	imulq	$16, %rax, %rax	#, tmp198, tmp200
	movq	%rax, %rcx	# tmp200, tmp202
	andq	$-4096, %rcx	#, tmp202
	movq	%rsp, %rdx	#, tmp203
	subq	%rcx, %rdx	# tmp202, tmp203
.L94:
	cmpq	%rdx, %rsp	# tmp203,
	je	.L95	#,
	subq	$4096, %rsp	#,
	orq	$0, 4088(%rsp)	#,
	jmp	.L94	#
.L95:
	movq	%rax, %rdx	# tmp200, tmp204
	andl	$4095, %edx	#, tmp204
	subq	%rdx, %rsp	# tmp204,
	movq	%rax, %rdx	# tmp200, tmp205
	andl	$4095, %edx	#, tmp205
	testq	%rdx, %rdx	# tmp205
	je	.L96	#,
	andl	$4095, %eax	#, tmp206
	subq	$8, %rax	#, tmp206
	addq	%rsp, %rax	#, tmp207
	orq	$0, (%rax)	#,
.L96:
	movq	%rsp, %rax	#, tmp201
	addq	$15, %rax	#, tmp208
	shrq	$4, %rax	#, tmp209
	salq	$4, %rax	#, tmp210
	movq	%rax, -48(%rbp)	# tmp210, flatpresent
# r_data.c:765:     memset (flatpresent,0,numflats);	
	.loc 1 765 5
	movl	numflats(%rip), %eax	# numflats, numflats.60_4
	movslq	%eax, %rdx	# numflats.60_4, _5
	movq	-48(%rbp), %rax	# flatpresent, tmp211
	movl	$0, %esi	#,
	movq	%rax, %rdi	# tmp211,
	call	memset@PLT	#
# r_data.c:767:     for (i=0 ; i<numsectors ; i++)
	.loc 1 767 11
	movl	$0, -72(%rbp)	#, i
# r_data.c:767:     for (i=0 ; i<numsectors ; i++)
	.loc 1 767 5
	jmp	.L97	#
.L98:
# r_data.c:769: 	flatpresent[sectors[i].floorpic] = 1;
	.loc 1 769 21
	movq	sectors(%rip), %rax	# sectors, sectors.61_6
	movl	-72(%rbp), %edx	# i, tmp212
	movslq	%edx, %rdx	# tmp212, _7
	salq	$7, %rdx	#, _8
	addq	%rdx, %rax	# _8, _9
# r_data.c:769: 	flatpresent[sectors[i].floorpic] = 1;
	.loc 1 769 24
	movzwl	8(%rax), %eax	# _9->floorpic, _10
	movswq	%ax, %rdx	# _10, _11
# r_data.c:769: 	flatpresent[sectors[i].floorpic] = 1;
	.loc 1 769 13
	movq	-48(%rbp), %rax	# flatpresent, tmp213
	addq	%rdx, %rax	# _11, _12
# r_data.c:769: 	flatpresent[sectors[i].floorpic] = 1;
	.loc 1 769 35
	movb	$1, (%rax)	#, *_12
# r_data.c:770: 	flatpresent[sectors[i].ceilingpic] = 1;
	.loc 1 770 21
	movq	sectors(%rip), %rax	# sectors, sectors.62_13
	movl	-72(%rbp), %edx	# i, tmp214
	movslq	%edx, %rdx	# tmp214, _14
	salq	$7, %rdx	#, _15
	addq	%rdx, %rax	# _15, _16
# r_data.c:770: 	flatpresent[sectors[i].ceilingpic] = 1;
	.loc 1 770 24
	movzwl	10(%rax), %eax	# _16->ceilingpic, _17
	movswq	%ax, %rdx	# _17, _18
# r_data.c:770: 	flatpresent[sectors[i].ceilingpic] = 1;
	.loc 1 770 13
	movq	-48(%rbp), %rax	# flatpresent, tmp215
	addq	%rdx, %rax	# _18, _19
# r_data.c:770: 	flatpresent[sectors[i].ceilingpic] = 1;
	.loc 1 770 37
	movb	$1, (%rax)	#, *_19
# r_data.c:767:     for (i=0 ; i<numsectors ; i++)
	.loc 1 767 32 discriminator 3
	addl	$1, -72(%rbp)	#, i
.L97:
# r_data.c:767:     for (i=0 ; i<numsectors ; i++)
	.loc 1 767 17 discriminator 1
	movl	numsectors(%rip), %eax	# numsectors, numsectors.63_20
	cmpl	%eax, -72(%rbp)	# numsectors.63_20, i
	jl	.L98	#,
# r_data.c:773:     flatmemory = 0;
	.loc 1 773 16
	movl	$0, flatmemory(%rip)	#, flatmemory
# r_data.c:775:     for (i=0 ; i<numflats ; i++)
	.loc 1 775 11
	movl	$0, -72(%rbp)	#, i
# r_data.c:775:     for (i=0 ; i<numflats ; i++)
	.loc 1 775 5
	jmp	.L99	#
.L101:
# r_data.c:777: 	if (flatpresent[i])
	.loc 1 777 17
	movl	-72(%rbp), %eax	# i, tmp216
	movslq	%eax, %rdx	# tmp216, _21
	movq	-48(%rbp), %rax	# flatpresent, tmp217
	addq	%rdx, %rax	# _21, _22
	movzbl	(%rax), %eax	# *_22, _23
# r_data.c:777: 	if (flatpresent[i])
	.loc 1 777 5
	testb	%al, %al	# _23
	je	.L100	#,
# r_data.c:779: 	    lump = firstflat + i;
	.loc 1 779 23
	movl	firstflat(%rip), %edx	# firstflat, firstflat.64_24
# r_data.c:779: 	    lump = firstflat + i;
	.loc 1 779 11
	movl	-72(%rbp), %eax	# i, tmp221
	addl	%edx, %eax	# firstflat.64_24, tmp220
	movl	%eax, -60(%rbp)	# tmp220, lump
# r_data.c:780: 	    flatmemory += lumpinfo[lump].size;
	.loc 1 780 28
	movq	lumpinfo(%rip), %rcx	# lumpinfo, lumpinfo.65_25
	movl	-60(%rbp), %eax	# lump, tmp222
	movslq	%eax, %rdx	# tmp222, _26
	movq	%rdx, %rax	# _26, tmp223
	salq	$2, %rax	#, tmp223
	addq	%rdx, %rax	# _26, tmp223
	salq	$2, %rax	#, tmp224
	addq	%rcx, %rax	# lumpinfo.65_25, _28
# r_data.c:780: 	    flatmemory += lumpinfo[lump].size;
	.loc 1 780 34
	movl	16(%rax), %edx	# _28->size, _29
# r_data.c:780: 	    flatmemory += lumpinfo[lump].size;
	.loc 1 780 17
	movl	flatmemory(%rip), %eax	# flatmemory, flatmemory.66_30
	addl	%edx, %eax	# _29, _31
	movl	%eax, flatmemory(%rip)	# _31, flatmemory
# r_data.c:781: 	    W_CacheLumpNum(lump, PU_CACHE);
	.loc 1 781 6
	movl	-60(%rbp), %eax	# lump, tmp225
	movl	$101, %esi	#,
	movl	%eax, %edi	# tmp225,
	call	W_CacheLumpNum@PLT	#
.L100:
# r_data.c:775:     for (i=0 ; i<numflats ; i++)
	.loc 1 775 30 discriminator 2
	addl	$1, -72(%rbp)	#, i
.L99:
# r_data.c:775:     for (i=0 ; i<numflats ; i++)
	.loc 1 775 17 discriminator 1
	movl	numflats(%rip), %eax	# numflats, numflats.67_32
	cmpl	%eax, -72(%rbp)	# numflats.67_32, i
	jl	.L101	#,
# r_data.c:786:     texturepresent = alloca(numtextures);
	.loc 1 786 22
	movl	numtextures(%rip), %eax	# numtextures, numtextures.68_33
	cltq
	leaq	8(%rax), %rdx	#, tmp226
	movl	$16, %eax	#, tmp320
	subq	$1, %rax	#, tmp227
	addq	%rdx, %rax	# tmp226, tmp228
	movl	$16, %edi	#, tmp321
	movl	$0, %edx	#, tmp231
	divq	%rdi	# tmp321
	imulq	$16, %rax, %rax	#, tmp230, tmp232
	movq	%rax, %rcx	# tmp232, tmp234
	andq	$-4096, %rcx	#, tmp234
	movq	%rsp, %rdx	#, tmp235
	subq	%rcx, %rdx	# tmp234, tmp235
.L102:
	cmpq	%rdx, %rsp	# tmp235,
	je	.L103	#,
	subq	$4096, %rsp	#,
	orq	$0, 4088(%rsp)	#,
	jmp	.L102	#
.L103:
	movq	%rax, %rdx	# tmp232, tmp236
	andl	$4095, %edx	#, tmp236
	subq	%rdx, %rsp	# tmp236,
	movq	%rax, %rdx	# tmp232, tmp237
	andl	$4095, %edx	#, tmp237
	testq	%rdx, %rdx	# tmp237
	je	.L104	#,
	andl	$4095, %eax	#, tmp238
	subq	$8, %rax	#, tmp238
	addq	%rsp, %rax	#, tmp239
	orq	$0, (%rax)	#,
.L104:
	movq	%rsp, %rax	#, tmp233
	addq	$15, %rax	#, tmp240
	shrq	$4, %rax	#, tmp241
	salq	$4, %rax	#, tmp242
	movq	%rax, -40(%rbp)	# tmp242, texturepresent
# r_data.c:787:     memset (texturepresent,0, numtextures);
	.loc 1 787 5
	movl	numtextures(%rip), %eax	# numtextures, numtextures.69_35
	movslq	%eax, %rdx	# numtextures.69_35, _36
	movq	-40(%rbp), %rax	# texturepresent, tmp243
	movl	$0, %esi	#,
	movq	%rax, %rdi	# tmp243,
	call	memset@PLT	#
# r_data.c:789:     for (i=0 ; i<numsides ; i++)
	.loc 1 789 11
	movl	$0, -72(%rbp)	#, i
# r_data.c:789:     for (i=0 ; i<numsides ; i++)
	.loc 1 789 5
	jmp	.L105	#
.L106:
# r_data.c:791: 	texturepresent[sides[i].toptexture] = 1;
	.loc 1 791 22
	movq	sides(%rip), %rcx	# sides, sides.70_37
	movl	-72(%rbp), %eax	# i, tmp244
	movslq	%eax, %rdx	# tmp244, _38
	movq	%rdx, %rax	# _38, tmp245
	addq	%rax, %rax	# tmp245
	addq	%rdx, %rax	# _38, tmp245
	salq	$3, %rax	#, tmp246
	addq	%rcx, %rax	# sides.70_37, _40
# r_data.c:791: 	texturepresent[sides[i].toptexture] = 1;
	.loc 1 791 25
	movzwl	8(%rax), %eax	# _40->toptexture, _41
	movswq	%ax, %rdx	# _41, _42
# r_data.c:791: 	texturepresent[sides[i].toptexture] = 1;
	.loc 1 791 16
	movq	-40(%rbp), %rax	# texturepresent, tmp247
	addq	%rdx, %rax	# _42, _43
# r_data.c:791: 	texturepresent[sides[i].toptexture] = 1;
	.loc 1 791 38
	movb	$1, (%rax)	#, *_43
# r_data.c:792: 	texturepresent[sides[i].midtexture] = 1;
	.loc 1 792 22
	movq	sides(%rip), %rcx	# sides, sides.71_44
	movl	-72(%rbp), %eax	# i, tmp248
	movslq	%eax, %rdx	# tmp248, _45
	movq	%rdx, %rax	# _45, tmp249
	addq	%rax, %rax	# tmp249
	addq	%rdx, %rax	# _45, tmp249
	salq	$3, %rax	#, tmp250
	addq	%rcx, %rax	# sides.71_44, _47
# r_data.c:792: 	texturepresent[sides[i].midtexture] = 1;
	.loc 1 792 25
	movzwl	12(%rax), %eax	# _47->midtexture, _48
	movswq	%ax, %rdx	# _48, _49
# r_data.c:792: 	texturepresent[sides[i].midtexture] = 1;
	.loc 1 792 16
	movq	-40(%rbp), %rax	# texturepresent, tmp251
	addq	%rdx, %rax	# _49, _50
# r_data.c:792: 	texturepresent[sides[i].midtexture] = 1;
	.loc 1 792 38
	movb	$1, (%rax)	#, *_50
# r_data.c:793: 	texturepresent[sides[i].bottomtexture] = 1;
	.loc 1 793 22
	movq	sides(%rip), %rcx	# sides, sides.72_51
	movl	-72(%rbp), %eax	# i, tmp252
	movslq	%eax, %rdx	# tmp252, _52
	movq	%rdx, %rax	# _52, tmp253
	addq	%rax, %rax	# tmp253
	addq	%rdx, %rax	# _52, tmp253
	salq	$3, %rax	#, tmp254
	addq	%rcx, %rax	# sides.72_51, _54
# r_data.c:793: 	texturepresent[sides[i].bottomtexture] = 1;
	.loc 1 793 25
	movzwl	10(%rax), %eax	# _54->bottomtexture, _55
	movswq	%ax, %rdx	# _55, _56
# r_data.c:793: 	texturepresent[sides[i].bottomtexture] = 1;
	.loc 1 793 16
	movq	-40(%rbp), %rax	# texturepresent, tmp255
	addq	%rdx, %rax	# _56, _57
# r_data.c:793: 	texturepresent[sides[i].bottomtexture] = 1;
	.loc 1 793 41
	movb	$1, (%rax)	#, *_57
# r_data.c:789:     for (i=0 ; i<numsides ; i++)
	.loc 1 789 30 discriminator 3
	addl	$1, -72(%rbp)	#, i
.L105:
# r_data.c:789:     for (i=0 ; i<numsides ; i++)
	.loc 1 789 17 discriminator 1
	movl	numsides(%rip), %eax	# numsides, numsides.73_58
	cmpl	%eax, -72(%rbp)	# numsides.73_58, i
	jl	.L106	#,
# r_data.c:802:     texturepresent[skytexture] = 1;
	.loc 1 802 19
	movl	skytexture(%rip), %eax	# skytexture, skytexture.74_59
	movslq	%eax, %rdx	# skytexture.74_59, _60
	movq	-40(%rbp), %rax	# texturepresent, tmp256
	addq	%rdx, %rax	# _60, _61
# r_data.c:802:     texturepresent[skytexture] = 1;
	.loc 1 802 32
	movb	$1, (%rax)	#, *_61
# r_data.c:804:     texturememory = 0;
	.loc 1 804 19
	movl	$0, texturememory(%rip)	#, texturememory
# r_data.c:805:     for (i=0 ; i<numtextures ; i++)
	.loc 1 805 11
	movl	$0, -72(%rbp)	#, i
# r_data.c:805:     for (i=0 ; i<numtextures ; i++)
	.loc 1 805 5
	jmp	.L107	#
.L112:
# r_data.c:807: 	if (!texturepresent[i])
	.loc 1 807 21
	movl	-72(%rbp), %eax	# i, tmp257
	movslq	%eax, %rdx	# tmp257, _62
	movq	-40(%rbp), %rax	# texturepresent, tmp258
	addq	%rdx, %rax	# _62, _63
	movzbl	(%rax), %eax	# *_63, _64
# r_data.c:807: 	if (!texturepresent[i])
	.loc 1 807 5
	testb	%al, %al	# _64
	je	.L129	#,
# r_data.c:810: 	texture = textures[i];
	.loc 1 810 20
	movq	textures(%rip), %rax	# textures, textures.75_65
	movl	-72(%rbp), %edx	# i, tmp259
	movslq	%edx, %rdx	# tmp259, _66
	salq	$3, %rdx	#, _67
	addq	%rdx, %rax	# _67, _68
# r_data.c:810: 	texture = textures[i];
	.loc 1 810 10
	movq	(%rax), %rax	# *_68, tmp260
	movq	%rax, -16(%rbp)	# tmp260, texture
# r_data.c:812: 	for (j=0 ; j<texture->patchcount ; j++)
	.loc 1 812 8
	movl	$0, -68(%rbp)	#, j
# r_data.c:812: 	for (j=0 ; j<texture->patchcount ; j++)
	.loc 1 812 2
	jmp	.L110	#
.L111:
# r_data.c:814: 	    lump = texture->patches[j].patch;
	.loc 1 814 11
	movq	-16(%rbp), %rcx	# texture, tmp261
	movl	-68(%rbp), %eax	# j, tmp263
	movslq	%eax, %rdx	# tmp263, tmp262
	movq	%rdx, %rax	# tmp262, tmp264
	addq	%rax, %rax	# tmp264
	addq	%rdx, %rax	# tmp262, tmp264
	salq	$2, %rax	#, tmp265
	addq	%rcx, %rax	# tmp261, tmp266
	addq	$24, %rax	#, tmp267
	movl	(%rax), %eax	# texture_167->patches[j_118].patch, tmp268
	movl	%eax, -60(%rbp)	# tmp268, lump
# r_data.c:815: 	    texturememory += lumpinfo[lump].size;
	.loc 1 815 31
	movq	lumpinfo(%rip), %rcx	# lumpinfo, lumpinfo.76_69
	movl	-60(%rbp), %eax	# lump, tmp269
	movslq	%eax, %rdx	# tmp269, _70
	movq	%rdx, %rax	# _70, tmp270
	salq	$2, %rax	#, tmp270
	addq	%rdx, %rax	# _70, tmp270
	salq	$2, %rax	#, tmp271
	addq	%rcx, %rax	# lumpinfo.76_69, _72
# r_data.c:815: 	    texturememory += lumpinfo[lump].size;
	.loc 1 815 37
	movl	16(%rax), %edx	# _72->size, _73
# r_data.c:815: 	    texturememory += lumpinfo[lump].size;
	.loc 1 815 20
	movl	texturememory(%rip), %eax	# texturememory, texturememory.77_74
	addl	%edx, %eax	# _73, _75
	movl	%eax, texturememory(%rip)	# _75, texturememory
# r_data.c:816: 	    W_CacheLumpNum(lump , PU_CACHE);
	.loc 1 816 6
	movl	-60(%rbp), %eax	# lump, tmp272
	movl	$101, %esi	#,
	movl	%eax, %edi	# tmp272,
	call	W_CacheLumpNum@PLT	#
# r_data.c:812: 	for (j=0 ; j<texture->patchcount ; j++)
	.loc 1 812 38 discriminator 3
	addl	$1, -68(%rbp)	#, j
.L110:
# r_data.c:812: 	for (j=0 ; j<texture->patchcount ; j++)
	.loc 1 812 22 discriminator 1
	movq	-16(%rbp), %rax	# texture, tmp273
	movzwl	12(%rax), %eax	# texture_167->patchcount, _76
	cwtl
# r_data.c:812: 	for (j=0 ; j<texture->patchcount ; j++)
	.loc 1 812 14 discriminator 1
	cmpl	%eax, -68(%rbp)	# _77, j
	jl	.L111	#,
	jmp	.L109	#
.L129:
# r_data.c:808: 	    continue;
	.loc 1 808 6
	nop	
.L109:
# r_data.c:805:     for (i=0 ; i<numtextures ; i++)
	.loc 1 805 33 discriminator 2
	addl	$1, -72(%rbp)	#, i
.L107:
# r_data.c:805:     for (i=0 ; i<numtextures ; i++)
	.loc 1 805 17 discriminator 1
	movl	numtextures(%rip), %eax	# numtextures, numtextures.78_78
	cmpl	%eax, -72(%rbp)	# numtextures.78_78, i
	jl	.L112	#,
# r_data.c:821:     spritepresent = alloca(numsprites);
	.loc 1 821 21
	movl	numsprites(%rip), %eax	# numsprites, numsprites.79_79
	cltq
	leaq	8(%rax), %rdx	#, tmp274
	movl	$16, %eax	#, tmp322
	subq	$1, %rax	#, tmp275
	addq	%rdx, %rax	# tmp274, tmp276
	movl	$16, %esi	#, tmp323
	movl	$0, %edx	#, tmp279
	divq	%rsi	# tmp323
	imulq	$16, %rax, %rax	#, tmp278, tmp280
	movq	%rax, %rcx	# tmp280, tmp282
	andq	$-4096, %rcx	#, tmp282
	movq	%rsp, %rdx	#, tmp283
	subq	%rcx, %rdx	# tmp282, tmp283
.L113:
	cmpq	%rdx, %rsp	# tmp283,
	je	.L114	#,
	subq	$4096, %rsp	#,
	orq	$0, 4088(%rsp)	#,
	jmp	.L113	#
.L114:
	movq	%rax, %rdx	# tmp280, tmp284
	andl	$4095, %edx	#, tmp284
	subq	%rdx, %rsp	# tmp284,
	movq	%rax, %rdx	# tmp280, tmp285
	andl	$4095, %edx	#, tmp285
	testq	%rdx, %rdx	# tmp285
	je	.L115	#,
	andl	$4095, %eax	#, tmp286
	subq	$8, %rax	#, tmp286
	addq	%rsp, %rax	#, tmp287
	orq	$0, (%rax)	#,
.L115:
	movq	%rsp, %rax	#, tmp281
	addq	$15, %rax	#, tmp288
	shrq	$4, %rax	#, tmp289
	salq	$4, %rax	#, tmp290
	movq	%rax, -32(%rbp)	# tmp290, spritepresent
# r_data.c:822:     memset (spritepresent,0, numsprites);
	.loc 1 822 5
	movl	numsprites(%rip), %eax	# numsprites, numsprites.80_81
	movslq	%eax, %rdx	# numsprites.80_81, _82
	movq	-32(%rbp), %rax	# spritepresent, tmp291
	movl	$0, %esi	#,
	movq	%rax, %rdi	# tmp291,
	call	memset@PLT	#
# r_data.c:824:     for (th = thinkercap.next ; th != &thinkercap ; th=th->next)
	.loc 1 824 13
	movq	8+thinkercap(%rip), %rax	# thinkercap.next, tmp292
	movq	%rax, -56(%rbp)	# tmp292, th
# r_data.c:824:     for (th = thinkercap.next ; th != &thinkercap ; th=th->next)
	.loc 1 824 5
	jmp	.L116	#
.L118:
# r_data.c:826: 	if (th->function.acp1 == (actionf_p1)P_MobjThinker)
	.loc 1 826 18
	movq	-56(%rbp), %rax	# th, tmp293
	movq	16(%rax), %rax	# th_121->function.acp1, _83
# r_data.c:826: 	if (th->function.acp1 == (actionf_p1)P_MobjThinker)
	.loc 1 826 5
	movq	P_MobjThinker@GOTPCREL(%rip), %rdx	#, tmp295
	cmpq	%rdx, %rax	# tmp294, _83
	jne	.L117	#,
# r_data.c:827: 	    spritepresent[((mobj_t *)th)->sprite] = 1;
	.loc 1 827 34
	movq	-56(%rbp), %rax	# th, tmp296
	movl	60(%rax), %eax	# MEM[(struct mobj_t *)th_121].sprite, _84
	movl	%eax, %edx	# _84, _85
# r_data.c:827: 	    spritepresent[((mobj_t *)th)->sprite] = 1;
	.loc 1 827 19
	movq	-32(%rbp), %rax	# spritepresent, tmp297
	addq	%rdx, %rax	# _85, _86
# r_data.c:827: 	    spritepresent[((mobj_t *)th)->sprite] = 1;
	.loc 1 827 44
	movb	$1, (%rax)	#, *_86
.L117:
# r_data.c:824:     for (th = thinkercap.next ; th != &thinkercap ; th=th->next)
	.loc 1 824 55 discriminator 2
	movq	-56(%rbp), %rax	# th, tmp298
	movq	8(%rax), %rax	# th_121->next, tmp299
	movq	%rax, -56(%rbp)	# tmp299, th
.L116:
# r_data.c:824:     for (th = thinkercap.next ; th != &thinkercap ; th=th->next)
	.loc 1 824 36 discriminator 1
	leaq	thinkercap(%rip), %rax	#, tmp300
	cmpq	%rax, -56(%rbp)	# tmp300, th
	jne	.L118	#,
# r_data.c:830:     spritememory = 0;
	.loc 1 830 18
	movl	$0, spritememory(%rip)	#, spritememory
# r_data.c:831:     for (i=0 ; i<numsprites ; i++)
	.loc 1 831 11
	movl	$0, -72(%rbp)	#, i
# r_data.c:831:     for (i=0 ; i<numsprites ; i++)
	.loc 1 831 5
	jmp	.L119	#
.L126:
# r_data.c:833: 	if (!spritepresent[i])
	.loc 1 833 20
	movl	-72(%rbp), %eax	# i, tmp301
	movslq	%eax, %rdx	# tmp301, _87
	movq	-32(%rbp), %rax	# spritepresent, tmp302
	addq	%rdx, %rax	# _87, _88
	movzbl	(%rax), %eax	# *_88, _89
# r_data.c:833: 	if (!spritepresent[i])
	.loc 1 833 5
	testb	%al, %al	# _89
	je	.L130	#,
# r_data.c:836: 	for (j=0 ; j<sprites[i].numframes ; j++)
	.loc 1 836 8
	movl	$0, -68(%rbp)	#, j
# r_data.c:836: 	for (j=0 ; j<sprites[i].numframes ; j++)
	.loc 1 836 2
	jmp	.L122	#
.L125:
# r_data.c:838: 	    sf = &sprites[i].spriteframes[j];
	.loc 1 838 19
	movq	sprites(%rip), %rax	# sprites, sprites.81_90
	movl	-72(%rbp), %edx	# i, tmp303
	movslq	%edx, %rdx	# tmp303, _91
	salq	$4, %rdx	#, _92
	addq	%rdx, %rax	# _92, _93
# r_data.c:838: 	    sf = &sprites[i].spriteframes[j];
	.loc 1 838 22
	movq	8(%rax), %rcx	# _93->spriteframes, _94
# r_data.c:838: 	    sf = &sprites[i].spriteframes[j];
	.loc 1 838 35
	movl	-68(%rbp), %eax	# j, tmp304
	movslq	%eax, %rdx	# tmp304, _95
	movq	%rdx, %rax	# _95, tmp305
	salq	$3, %rax	#, tmp306
	subq	%rdx, %rax	# _95, tmp305
	salq	$2, %rax	#, tmp307
# r_data.c:838: 	    sf = &sprites[i].spriteframes[j];
	.loc 1 838 9
	addq	%rcx, %rax	# _94, tmp308
	movq	%rax, -24(%rbp)	# tmp308, sf
# r_data.c:839: 	    for (k=0 ; k<8 ; k++)
	.loc 1 839 12
	movl	$0, -64(%rbp)	#, k
# r_data.c:839: 	    for (k=0 ; k<8 ; k++)
	.loc 1 839 6
	jmp	.L123	#
.L124:
# r_data.c:841: 		lump = firstspritelump + sf->lump[k];
	.loc 1 841 36
	movq	-24(%rbp), %rax	# sf, tmp309
	movl	-64(%rbp), %edx	# k, tmp311
	movslq	%edx, %rdx	# tmp311, tmp310
	movzwl	4(%rax,%rdx,2), %eax	# sf_157->lump[k_120], _97
	movswl	%ax, %edx	# _97, _98
# r_data.c:841: 		lump = firstspritelump + sf->lump[k];
	.loc 1 841 26
	movl	firstspritelump(%rip), %eax	# firstspritelump, firstspritelump.82_99
# r_data.c:841: 		lump = firstspritelump + sf->lump[k];
	.loc 1 841 8
	addl	%edx, %eax	# _98, tmp312
	movl	%eax, -60(%rbp)	# tmp312, lump
# r_data.c:842: 		spritememory += lumpinfo[lump].size;
	.loc 1 842 27
	movq	lumpinfo(%rip), %rcx	# lumpinfo, lumpinfo.83_100
	movl	-60(%rbp), %eax	# lump, tmp313
	movslq	%eax, %rdx	# tmp313, _101
	movq	%rdx, %rax	# _101, tmp314
	salq	$2, %rax	#, tmp314
	addq	%rdx, %rax	# _101, tmp314
	salq	$2, %rax	#, tmp315
	addq	%rcx, %rax	# lumpinfo.83_100, _103
# r_data.c:842: 		spritememory += lumpinfo[lump].size;
	.loc 1 842 33
	movl	16(%rax), %edx	# _103->size, _104
# r_data.c:842: 		spritememory += lumpinfo[lump].size;
	.loc 1 842 16
	movl	spritememory(%rip), %eax	# spritememory, spritememory.84_105
	addl	%edx, %eax	# _104, _106
	movl	%eax, spritememory(%rip)	# _106, spritememory
# r_data.c:843: 		W_CacheLumpNum(lump , PU_CACHE);
	.loc 1 843 3
	movl	-60(%rbp), %eax	# lump, tmp316
	movl	$101, %esi	#,
	movl	%eax, %edi	# tmp316,
	call	W_CacheLumpNum@PLT	#
# r_data.c:839: 	    for (k=0 ; k<8 ; k++)
	.loc 1 839 24 discriminator 3
	addl	$1, -64(%rbp)	#, k
.L123:
# r_data.c:839: 	    for (k=0 ; k<8 ; k++)
	.loc 1 839 18 discriminator 1
	cmpl	$7, -64(%rbp)	#, k
	jle	.L124	#,
# r_data.c:836: 	for (j=0 ; j<sprites[i].numframes ; j++)
	.loc 1 836 39 discriminator 2
	addl	$1, -68(%rbp)	#, j
.L122:
# r_data.c:836: 	for (j=0 ; j<sprites[i].numframes ; j++)
	.loc 1 836 22 discriminator 1
	movq	sprites(%rip), %rax	# sprites, sprites.85_107
	movl	-72(%rbp), %edx	# i, tmp317
	movslq	%edx, %rdx	# tmp317, _108
	salq	$4, %rdx	#, _109
	addq	%rdx, %rax	# _109, _110
# r_data.c:836: 	for (j=0 ; j<sprites[i].numframes ; j++)
	.loc 1 836 25 discriminator 1
	movl	(%rax), %eax	# _110->numframes, _111
# r_data.c:836: 	for (j=0 ; j<sprites[i].numframes ; j++)
	.loc 1 836 14 discriminator 1
	cmpl	%eax, -68(%rbp)	# _111, j
	jl	.L125	#,
	jmp	.L121	#
.L130:
# r_data.c:834: 	    continue;
	.loc 1 834 6
	nop	
.L121:
# r_data.c:831:     for (i=0 ; i<numsprites ; i++)
	.loc 1 831 32 discriminator 2
	addl	$1, -72(%rbp)	#, i
.L119:
# r_data.c:831:     for (i=0 ; i<numsprites ; i++)
	.loc 1 831 17 discriminator 1
	movl	numsprites(%rip), %eax	# numsprites, numsprites.86_112
	cmpl	%eax, -72(%rbp)	# numsprites.86_112, i
	jl	.L126	#,
	jmp	.L91	#
.L128:
# r_data.c:761: 	return;
	.loc 1 761 2
	nop	
.L91:
# r_data.c:847: }
	.loc 1 847 1
	movq	-8(%rbp), %rax	# D.7638, tmp325
	subq	%fs:40, %rax	# MEM[(<address-space-1> long unsigned int *)40B], tmp325
	je	.L127	#,
	call	__stack_chk_fail@PLT	#
.L127:
	leave	
	.cfi_def_cfa 7, 8
	ret	
	.cfi_endproc
.LFE12:
	.size	R_PrecacheLevel, .-R_PrecacheLevel
.Letext0:
	.file 2 "/usr/include/stdint.h"
	.file 3 "doomtype.h"
	.file 4 "d_ticcmd.h"
	.file 5 "/usr/lib/gcc/x86_64-linux-gnu/13/include/stddef.h"
	.file 6 "z_zone.h"
	.file 7 "w_wad.h"
	.file 8 "doomdef.h"
	.file 9 "m_fixed.h"
	.file 10 "tables.h"
	.file 11 "d_think.h"
	.file 12 "doomdata.h"
	.file 13 "info.h"
	.file 14 "p_mobj.h"
	.file 15 "r_defs.h"
	.file 16 "d_player.h"
	.file 17 "p_pspr.h"
	.file 18 "r_state.h"
	.file 19 "p_local.h"
	.file 20 "doomstat.h"
	.file 21 "r_sky.h"
	.file 22 "/usr/include/strings.h"
	.file 23 "/usr/include/string.h"
	.file 24 "/usr/include/stdio.h"
	.file 25 "i_system.h"
	.section	.note.GNU-stack,"",@progbits
	.section	.note.gnu.property,"a"
	.align 8
	.long	1f - 0f
	.long	4f - 1f
	.long	5
0:
	.string	"GNU"
1:
	.align 8
	.long	0xc0000002
	.long	3f - 2f
2:
	.long	0x3
3:
	.align 8
4:
