	.file	"r_things.c"
# GNU C17 (Ubuntu 13.3.0-6ubuntu2~24.04) version 13.3.0 (x86_64-linux-gnu)
#	compiled by GNU C version 13.3.0, GMP version 6.3.0, MPFR version 4.2.1, MPC version 1.3.1, isl version isl-0.26-GMP

# GGC heuristics: --param ggc-min-expand=100 --param ggc-min-heapsize=131072
# options passed: -mtune=generic -march=x86-64 -g -fasynchronous-unwind-tables -fstack-protector-strong -fstack-clash-protection -fcf-protection
	.text
.Ltext0:
	.file 0 "/home/astrid/Documents/enseignements/DOOM/linuxdoom-1.10" "r_things.c"
	.section	.rodata
	.align 32
	.type	rcsid, @object
	.size	rcsid, 51
rcsid:
	.string	"$Id: r_things.c,v 1.5 1997/02/03 16:47:56 b1 Exp $"
	.globl	pspritescale
	.bss
	.align 4
	.type	pspritescale, @object
	.size	pspritescale, 4
pspritescale:
	.zero	4
	.globl	pspriteiscale
	.align 4
	.type	pspriteiscale, @object
	.size	pspriteiscale, 4
pspriteiscale:
	.zero	4
	.globl	spritelights
	.align 8
	.type	spritelights, @object
	.size	spritelights, 8
spritelights:
	.zero	8
	.globl	negonearray
	.align 32
	.type	negonearray, @object
	.size	negonearray, 640
negonearray:
	.zero	640
	.globl	screenheightarray
	.align 32
	.type	screenheightarray, @object
	.size	screenheightarray, 640
screenheightarray:
	.zero	640
	.globl	sprites
	.align 8
	.type	sprites, @object
	.size	sprites, 8
sprites:
	.zero	8
	.globl	numsprites
	.align 4
	.type	numsprites, @object
	.size	numsprites, 4
numsprites:
	.zero	4
	.globl	sprtemp
	.align 32
	.type	sprtemp, @object
	.size	sprtemp, 812
sprtemp:
	.zero	812
	.globl	maxframe
	.align 4
	.type	maxframe, @object
	.size	maxframe, 4
maxframe:
	.zero	4
	.globl	spritename
	.align 8
	.type	spritename, @object
	.size	spritename, 8
spritename:
	.zero	8
	.section	.rodata
	.align 8
.LC0:
	.string	"R_InstallSpriteLump: Bad frame characters in lump %i"
	.align 8
.LC1:
	.string	"R_InitSprites: Sprite %s frame %c has multip rot=0 lump"
	.align 8
.LC2:
	.string	"R_InitSprites: Sprite %s frame %c has rotations and a rot=0 lump"
	.align 8
.LC3:
	.string	"R_InitSprites: Sprite %s : %c : %c has two lumps mapped to it"
	.text
	.globl	R_InstallSpriteLump
	.type	R_InstallSpriteLump, @function
R_InstallSpriteLump:
.LFB6:
	.file 1 "r_things.c"
	.loc 1 111 1
	.cfi_startproc
	endbr64	
	pushq	%rbp	#
	.cfi_def_cfa_offset 16
	.cfi_offset 6, -16
	movq	%rsp, %rbp	#,
	.cfi_def_cfa_register 6
	subq	$32, %rsp	#,
	movl	%edi, -20(%rbp)	# lump, lump
	movl	%esi, -24(%rbp)	# frame, frame
	movl	%edx, -28(%rbp)	# rotation, rotation
	movl	%ecx, -32(%rbp)	# flipped, flipped
# r_things.c:114:     if (frame >= 29 || rotation > 8)
	.loc 1 114 8
	cmpl	$28, -24(%rbp)	#, frame
	ja	.L2	#,
# r_things.c:114:     if (frame >= 29 || rotation > 8)
	.loc 1 114 21 discriminator 1
	cmpl	$8, -28(%rbp)	#, rotation
	jbe	.L3	#,
.L2:
# r_things.c:115: 	I_Error("R_InstallSpriteLump: "
	.loc 1 115 2
	movl	-20(%rbp), %eax	# lump, tmp110
	movl	%eax, %esi	# tmp110,
	leaq	.LC0(%rip), %rax	#, tmp111
	movq	%rax, %rdi	# tmp111,
	movl	$0, %eax	#,
	call	I_Error@PLT	#
.L3:
# r_things.c:118:     if ((int)frame > maxframe)
	.loc 1 118 9
	movl	-24(%rbp), %edx	# frame, frame.0_1
# r_things.c:118:     if ((int)frame > maxframe)
	.loc 1 118 20
	movl	maxframe(%rip), %eax	# maxframe, maxframe.1_2
# r_things.c:118:     if ((int)frame > maxframe)
	.loc 1 118 8
	cmpl	%eax, %edx	# maxframe.1_2, frame.0_1
	jle	.L4	#,
# r_things.c:119: 	maxframe = frame;
	.loc 1 119 11
	movl	-24(%rbp), %eax	# frame, frame.2_3
	movl	%eax, maxframe(%rip)	# frame.2_3, maxframe
.L4:
# r_things.c:121:     if (rotation == 0)
	.loc 1 121 8
	cmpl	$0, -28(%rbp)	#, rotation
	jne	.L5	#,
# r_things.c:124: 	if (sprtemp[frame].rotate == false)
	.loc 1 124 20
	movl	-24(%rbp), %edx	# frame, tmp112
	movq	%rdx, %rax	# tmp112, tmp114
	salq	$3, %rax	#, tmp115
	subq	%rdx, %rax	# tmp112, tmp114
	salq	$2, %rax	#, tmp116
	movq	%rax, %rdx	# tmp114, tmp113
	leaq	sprtemp(%rip), %rax	#, tmp117
	movl	(%rdx,%rax), %eax	# sprtemp[frame_38(D)].rotate, _4
# r_things.c:124: 	if (sprtemp[frame].rotate == false)
	.loc 1 124 5
	testl	%eax, %eax	# _4
	jne	.L6	#,
# r_things.c:125: 	    I_Error ("R_InitSprites: Sprite %s frame %c has "
	.loc 1 125 6
	movl	-24(%rbp), %eax	# frame, tmp118
	leal	65(%rax), %edx	#, _5
	movq	spritename(%rip), %rax	# spritename, spritename.3_6
	movq	%rax, %rsi	# spritename.3_6,
	leaq	.LC1(%rip), %rax	#, tmp119
	movq	%rax, %rdi	# tmp119,
	movl	$0, %eax	#,
	call	I_Error@PLT	#
.L6:
# r_things.c:128: 	if (sprtemp[frame].rotate == true)
	.loc 1 128 20
	movl	-24(%rbp), %edx	# frame, tmp120
	movq	%rdx, %rax	# tmp120, tmp122
	salq	$3, %rax	#, tmp123
	subq	%rdx, %rax	# tmp120, tmp122
	salq	$2, %rax	#, tmp124
	movq	%rax, %rdx	# tmp122, tmp121
	leaq	sprtemp(%rip), %rax	#, tmp125
	movl	(%rdx,%rax), %eax	# sprtemp[frame_38(D)].rotate, _7
# r_things.c:128: 	if (sprtemp[frame].rotate == true)
	.loc 1 128 5
	cmpl	$1, %eax	#, _7
	jne	.L7	#,
# r_things.c:129: 	    I_Error ("R_InitSprites: Sprite %s frame %c has rotations "
	.loc 1 129 6
	movl	-24(%rbp), %eax	# frame, tmp126
	leal	65(%rax), %edx	#, _8
	movq	spritename(%rip), %rax	# spritename, spritename.4_9
	movq	%rax, %rsi	# spritename.4_9,
	leaq	.LC2(%rip), %rax	#, tmp127
	movq	%rax, %rdi	# tmp127,
	movl	$0, %eax	#,
	call	I_Error@PLT	#
.L7:
# r_things.c:132: 	sprtemp[frame].rotate = false;
	.loc 1 132 24
	movl	-24(%rbp), %edx	# frame, tmp128
	movq	%rdx, %rax	# tmp128, tmp130
	salq	$3, %rax	#, tmp131
	subq	%rdx, %rax	# tmp128, tmp130
	salq	$2, %rax	#, tmp132
	movq	%rax, %rdx	# tmp130, tmp129
	leaq	sprtemp(%rip), %rax	#, tmp133
	movl	$0, (%rdx,%rax)	#, sprtemp[frame_38(D)].rotate
# r_things.c:133: 	for (r=0 ; r<8 ; r++)
	.loc 1 133 8
	movl	$0, -4(%rbp)	#, r
# r_things.c:133: 	for (r=0 ; r<8 ; r++)
	.loc 1 133 2
	jmp	.L8	#
.L9:
# r_things.c:135: 	    sprtemp[frame].lump[r] = lump - firstspritelump;
	.loc 1 135 36
	movl	-20(%rbp), %eax	# lump, tmp134
	movl	%eax, %edx	# tmp134, _10
	movl	firstspritelump(%rip), %eax	# firstspritelump, firstspritelump.5_11
	movl	%eax, %ecx	# firstspritelump.5_11, _12
	movl	%edx, %eax	# _10, _10
	subl	%ecx, %eax	# _12, _10
	movl	%eax, %esi	# _13, _14
# r_things.c:135: 	    sprtemp[frame].lump[r] = lump - firstspritelump;
	.loc 1 135 29
	movl	-4(%rbp), %eax	# r, tmp136
	movslq	%eax, %rcx	# tmp136, tmp135
	movl	-24(%rbp), %edx	# frame, tmp137
	movq	%rdx, %rax	# tmp137, tmp138
	salq	$3, %rax	#, tmp139
	subq	%rdx, %rax	# tmp137, tmp138
	addq	%rax, %rax	# tmp140
	addq	%rcx, %rax	# tmp135, tmp141
	leaq	(%rax,%rax), %rdx	#, tmp142
	leaq	4+sprtemp(%rip), %rax	#, tmp143
	movw	%si, (%rdx,%rax)	# _14, sprtemp[frame_38(D)].lump[r_29]
# r_things.c:136: 	    sprtemp[frame].flip[r] = (byte)flipped;
	.loc 1 136 31
	movl	-32(%rbp), %eax	# flipped, tmp144
	movl	%eax, %esi	# tmp144, _15
# r_things.c:136: 	    sprtemp[frame].flip[r] = (byte)flipped;
	.loc 1 136 29
	movl	-4(%rbp), %eax	# r, tmp146
	movslq	%eax, %rcx	# tmp146, tmp145
	movl	-24(%rbp), %edx	# frame, tmp147
	movq	%rdx, %rax	# tmp147, tmp148
	salq	$3, %rax	#, tmp149
	subq	%rdx, %rax	# tmp147, tmp148
	salq	$2, %rax	#, tmp150
	leaq	(%rax,%rcx), %rdx	#, tmp151
	leaq	20+sprtemp(%rip), %rax	#, tmp153
	addq	%rdx, %rax	# tmp151, tmp152
	movb	%sil, (%rax)	# _15, sprtemp[frame_38(D)].flip[r_29]
# r_things.c:133: 	for (r=0 ; r<8 ; r++)
	.loc 1 133 20 discriminator 3
	addl	$1, -4(%rbp)	#, r
.L8:
# r_things.c:133: 	for (r=0 ; r<8 ; r++)
	.loc 1 133 14 discriminator 1
	cmpl	$7, -4(%rbp)	#, r
	jle	.L9	#,
# r_things.c:138: 	return;
	.loc 1 138 2
	jmp	.L1	#
.L5:
# r_things.c:142:     if (sprtemp[frame].rotate == false)
	.loc 1 142 23
	movl	-24(%rbp), %edx	# frame, tmp154
	movq	%rdx, %rax	# tmp154, tmp156
	salq	$3, %rax	#, tmp157
	subq	%rdx, %rax	# tmp154, tmp156
	salq	$2, %rax	#, tmp158
	movq	%rax, %rdx	# tmp156, tmp155
	leaq	sprtemp(%rip), %rax	#, tmp159
	movl	(%rdx,%rax), %eax	# sprtemp[frame_38(D)].rotate, _16
# r_things.c:142:     if (sprtemp[frame].rotate == false)
	.loc 1 142 8
	testl	%eax, %eax	# _16
	jne	.L11	#,
# r_things.c:143: 	I_Error ("R_InitSprites: Sprite %s frame %c has rotations "
	.loc 1 143 2
	movl	-24(%rbp), %eax	# frame, tmp160
	leal	65(%rax), %edx	#, _17
	movq	spritename(%rip), %rax	# spritename, spritename.6_18
	movq	%rax, %rsi	# spritename.6_18,
	leaq	.LC2(%rip), %rax	#, tmp161
	movq	%rax, %rdi	# tmp161,
	movl	$0, %eax	#,
	call	I_Error@PLT	#
.L11:
# r_things.c:146:     sprtemp[frame].rotate = true;
	.loc 1 146 27
	movl	-24(%rbp), %edx	# frame, tmp162
	movq	%rdx, %rax	# tmp162, tmp164
	salq	$3, %rax	#, tmp165
	subq	%rdx, %rax	# tmp162, tmp164
	salq	$2, %rax	#, tmp166
	movq	%rax, %rdx	# tmp164, tmp163
	leaq	sprtemp(%rip), %rax	#, tmp167
	movl	$1, (%rdx,%rax)	#, sprtemp[frame_38(D)].rotate
# r_things.c:149:     rotation--;		
	.loc 1 149 13
	subl	$1, -28(%rbp)	#, rotation
# r_things.c:150:     if (sprtemp[frame].lump[rotation] != -1)
	.loc 1 150 28
	movl	-28(%rbp), %ecx	# rotation, tmp168
	movl	-24(%rbp), %edx	# frame, tmp169
	movq	%rdx, %rax	# tmp169, tmp170
	salq	$3, %rax	#, tmp171
	subq	%rdx, %rax	# tmp169, tmp170
	addq	%rax, %rax	# tmp172
	addq	%rcx, %rax	# tmp168, tmp173
	leaq	(%rax,%rax), %rdx	#, tmp174
	leaq	4+sprtemp(%rip), %rax	#, tmp175
	movzwl	(%rdx,%rax), %eax	# sprtemp[frame_38(D)].lump[rotation_46], _19
# r_things.c:150:     if (sprtemp[frame].lump[rotation] != -1)
	.loc 1 150 8
	cmpw	$-1, %ax	#, _19
	je	.L12	#,
# r_things.c:151: 	I_Error ("R_InitSprites: Sprite %s : %c : %c "
	.loc 1 151 2
	movl	-28(%rbp), %eax	# rotation, tmp176
	leal	49(%rax), %ecx	#, _20
	movl	-24(%rbp), %eax	# frame, tmp177
	leal	65(%rax), %edx	#, _21
	movq	spritename(%rip), %rax	# spritename, spritename.7_22
	movq	%rax, %rsi	# spritename.7_22,
	leaq	.LC3(%rip), %rax	#, tmp178
	movq	%rax, %rdi	# tmp178,
	movl	$0, %eax	#,
	call	I_Error@PLT	#
.L12:
# r_things.c:155:     sprtemp[frame].lump[rotation] = lump - firstspritelump;
	.loc 1 155 42
	movl	-20(%rbp), %eax	# lump, tmp179
	movl	%eax, %edx	# tmp179, _23
	movl	firstspritelump(%rip), %eax	# firstspritelump, firstspritelump.8_24
	movl	%eax, %ecx	# firstspritelump.8_24, _25
	movl	%edx, %eax	# _23, _23
	subl	%ecx, %eax	# _25, _23
	movl	%eax, %esi	# _26, _27
# r_things.c:155:     sprtemp[frame].lump[rotation] = lump - firstspritelump;
	.loc 1 155 35
	movl	-28(%rbp), %ecx	# rotation, tmp180
	movl	-24(%rbp), %edx	# frame, tmp181
	movq	%rdx, %rax	# tmp181, tmp182
	salq	$3, %rax	#, tmp183
	subq	%rdx, %rax	# tmp181, tmp182
	addq	%rax, %rax	# tmp184
	addq	%rcx, %rax	# tmp180, tmp185
	leaq	(%rax,%rax), %rdx	#, tmp186
	leaq	4+sprtemp(%rip), %rax	#, tmp187
	movw	%si, (%rdx,%rax)	# _27, sprtemp[frame_38(D)].lump[rotation_46]
# r_things.c:156:     sprtemp[frame].flip[rotation] = (byte)flipped;
	.loc 1 156 37
	movl	-32(%rbp), %eax	# flipped, tmp188
	movl	%eax, %esi	# tmp188, _28
# r_things.c:156:     sprtemp[frame].flip[rotation] = (byte)flipped;
	.loc 1 156 35
	movl	-28(%rbp), %ecx	# rotation, tmp189
	movl	-24(%rbp), %edx	# frame, tmp190
	movq	%rdx, %rax	# tmp190, tmp191
	salq	$3, %rax	#, tmp192
	subq	%rdx, %rax	# tmp190, tmp191
	salq	$2, %rax	#, tmp193
	leaq	(%rax,%rcx), %rdx	#, tmp194
	leaq	20+sprtemp(%rip), %rax	#, tmp196
	addq	%rdx, %rax	# tmp194, tmp195
	movb	%sil, (%rax)	# _28, sprtemp[frame_38(D)].flip[rotation_46]
.L1:
# r_things.c:157: }
	.loc 1 157 1
	leave	
	.cfi_def_cfa 7, 8
	ret	
	.cfi_endproc
.LFE6:
	.size	R_InstallSpriteLump, .-R_InstallSpriteLump
	.section	.rodata
	.align 8
.LC4:
	.string	"R_InitSprites: No patches found for %s frame %c"
	.align 8
.LC5:
	.string	"R_InitSprites: Sprite %s frame %c is missing rotations"
	.text
	.globl	R_InitSpriteDefs
	.type	R_InitSpriteDefs, @function
R_InitSpriteDefs:
.LFB7:
	.loc 1 178 1
	.cfi_startproc
	endbr64	
	pushq	%rbp	#
	.cfi_def_cfa_offset 16
	.cfi_offset 6, -16
	movq	%rsp, %rbp	#,
	.cfi_def_cfa_register 6
	pushq	%rbx	#
	subq	$72, %rsp	#,
	.cfi_offset 3, -24
	movq	%rdi, -72(%rbp)	# namelist, namelist
# r_things.c:190:     check = namelist;
	.loc 1 190 11
	movq	-72(%rbp), %rax	# namelist, tmp193
	movq	%rax, -24(%rbp)	# tmp193, check
# r_things.c:191:     while (*check != NULL)
	.loc 1 191 11
	jmp	.L14	#
.L15:
# r_things.c:192: 	check++;
	.loc 1 192 7
	addq	$8, -24(%rbp)	#, check
.L14:
# r_things.c:191:     while (*check != NULL)
	.loc 1 191 12
	movq	-24(%rbp), %rax	# check, tmp194
	movq	(%rax), %rax	# *check_112, _1
# r_things.c:191:     while (*check != NULL)
	.loc 1 191 19
	testq	%rax, %rax	# _1
	jne	.L15	#,
# r_things.c:194:     numsprites = check-namelist;
	.loc 1 194 23
	movq	-24(%rbp), %rax	# check, tmp195
	subq	-72(%rbp), %rax	# namelist, _2
	sarq	$3, %rax	#, tmp196
# r_things.c:194:     numsprites = check-namelist;
	.loc 1 194 16
	movl	%eax, numsprites(%rip)	# _4, numsprites
# r_things.c:196:     if (!numsprites)
	.loc 1 196 9
	movl	numsprites(%rip), %eax	# numsprites, numsprites.9_5
# r_things.c:196:     if (!numsprites)
	.loc 1 196 8
	testl	%eax, %eax	# numsprites.9_5
	je	.L36	#,
# r_things.c:199:     sprites = Z_Malloc(numsprites *sizeof(*sprites), PU_STATIC, NULL);
	.loc 1 199 15
	movl	numsprites(%rip), %eax	# numsprites, numsprites.10_6
	cltq
	sall	$4, %eax	#, _9
	movl	$0, %edx	#,
	movl	$1, %esi	#,
	movl	%eax, %edi	# _10,
	call	Z_Malloc@PLT	#
# r_things.c:199:     sprites = Z_Malloc(numsprites *sizeof(*sprites), PU_STATIC, NULL);
	.loc 1 199 13 discriminator 1
	movq	%rax, sprites(%rip)	# _11, sprites
# r_things.c:201:     start = firstspritelump-1;
	.loc 1 201 28
	movl	firstspritelump(%rip), %eax	# firstspritelump, firstspritelump.11_12
# r_things.c:201:     start = firstspritelump-1;
	.loc 1 201 11
	subl	$1, %eax	#, tmp197
	movl	%eax, -36(%rbp)	# tmp197, start
# r_things.c:202:     end = lastspritelump+1;
	.loc 1 202 25
	movl	lastspritelump(%rip), %eax	# lastspritelump, lastspritelump.12_13
# r_things.c:202:     end = lastspritelump+1;
	.loc 1 202 9
	addl	$1, %eax	#, tmp198
	movl	%eax, -32(%rbp)	# tmp198, end
# r_things.c:207:     for (i=0 ; i<numsprites ; i++)
	.loc 1 207 11
	movl	$0, -56(%rbp)	#, i
# r_things.c:207:     for (i=0 ; i<numsprites ; i++)
	.loc 1 207 5
	jmp	.L18	#
.L35:
# r_things.c:209: 	spritename = namelist[i];
	.loc 1 209 23
	movl	-56(%rbp), %eax	# i, tmp199
	cltq
	leaq	0(,%rax,8), %rdx	#, _15
	movq	-72(%rbp), %rax	# namelist, tmp200
	addq	%rdx, %rax	# _15, _16
	movq	(%rax), %rax	# *_16, _17
# r_things.c:209: 	spritename = namelist[i];
	.loc 1 209 13
	movq	%rax, spritename(%rip)	# _17, spritename
# r_things.c:210: 	memset (sprtemp,-1, sizeof(sprtemp));
	.loc 1 210 2
	movl	$812, %edx	#,
	movl	$-1, %esi	#,
	leaq	sprtemp(%rip), %rax	#, tmp201
	movq	%rax, %rdi	# tmp201,
	call	memset@PLT	#
# r_things.c:212: 	maxframe = -1;
	.loc 1 212 11
	movl	$-1, maxframe(%rip)	#, maxframe
# r_things.c:213: 	intname = *(int *)namelist[i];
	.loc 1 213 28
	movl	-56(%rbp), %eax	# i, tmp202
	cltq
	leaq	0(,%rax,8), %rdx	#, _19
	movq	-72(%rbp), %rax	# namelist, tmp203
	addq	%rdx, %rax	# _19, _20
# r_things.c:213: 	intname = *(int *)namelist[i];
	.loc 1 213 13
	movq	(%rax), %rax	# *_20, _21
# r_things.c:213: 	intname = *(int *)namelist[i];
	.loc 1 213 10
	movl	(%rax), %eax	# MEM[(int *)_21], tmp204
	movl	%eax, -28(%rbp)	# tmp204, intname
# r_things.c:217: 	for (l=start+1 ; l<end ; l++)
	.loc 1 217 8
	movl	-36(%rbp), %eax	# start, tmp208
	addl	$1, %eax	#, tmp207
	movl	%eax, -52(%rbp)	# tmp207, l
# r_things.c:217: 	for (l=start+1 ; l<end ; l++)
	.loc 1 217 2
	jmp	.L19	#
.L23:
# r_things.c:219: 	    if (*(int *)lumpinfo[l].name == intname)
	.loc 1 219 26
	movq	lumpinfo(%rip), %rcx	# lumpinfo, lumpinfo.13_22
	movl	-52(%rbp), %eax	# l, tmp209
	movslq	%eax, %rdx	# tmp209, _23
	movq	%rdx, %rax	# _23, tmp210
	salq	$2, %rax	#, tmp210
	addq	%rdx, %rax	# _23, tmp210
	salq	$2, %rax	#, tmp211
	addq	%rcx, %rax	# lumpinfo.13_22, _25
# r_things.c:219: 	    if (*(int *)lumpinfo[l].name == intname)
	.loc 1 219 10
	movl	(%rax), %eax	# MEM[(int *)_26], _27
# r_things.c:219: 	    if (*(int *)lumpinfo[l].name == intname)
	.loc 1 219 9
	cmpl	%eax, -28(%rbp)	# _27, intname
	jne	.L20	#,
# r_things.c:221: 		frame = lumpinfo[l].name[4] - 'A';
	.loc 1 221 19
	movq	lumpinfo(%rip), %rcx	# lumpinfo, lumpinfo.14_28
	movl	-52(%rbp), %eax	# l, tmp212
	movslq	%eax, %rdx	# tmp212, _29
	movq	%rdx, %rax	# _29, tmp213
	salq	$2, %rax	#, tmp213
	addq	%rdx, %rax	# _29, tmp213
	salq	$2, %rax	#, tmp214
	addq	%rcx, %rax	# lumpinfo.14_28, _31
# r_things.c:221: 		frame = lumpinfo[l].name[4] - 'A';
	.loc 1 221 27
	movzbl	4(%rax), %eax	# _31->name[4], _32
	movsbl	%al, %eax	# _32, _33
# r_things.c:221: 		frame = lumpinfo[l].name[4] - 'A';
	.loc 1 221 9
	subl	$65, %eax	#, tmp215
	movl	%eax, -48(%rbp)	# tmp215, frame
# r_things.c:222: 		rotation = lumpinfo[l].name[5] - '0';
	.loc 1 222 22
	movq	lumpinfo(%rip), %rcx	# lumpinfo, lumpinfo.15_34
	movl	-52(%rbp), %eax	# l, tmp216
	movslq	%eax, %rdx	# tmp216, _35
	movq	%rdx, %rax	# _35, tmp217
	salq	$2, %rax	#, tmp217
	addq	%rdx, %rax	# _35, tmp217
	salq	$2, %rax	#, tmp218
	addq	%rcx, %rax	# lumpinfo.15_34, _37
# r_things.c:222: 		rotation = lumpinfo[l].name[5] - '0';
	.loc 1 222 30
	movzbl	5(%rax), %eax	# _37->name[5], _38
	movsbl	%al, %eax	# _38, _39
# r_things.c:222: 		rotation = lumpinfo[l].name[5] - '0';
	.loc 1 222 12
	subl	$48, %eax	#, tmp219
	movl	%eax, -44(%rbp)	# tmp219, rotation
# r_things.c:224: 		if (modifiedgame)
	.loc 1 224 7
	movl	modifiedgame(%rip), %eax	# modifiedgame, modifiedgame.16_40
# r_things.c:224: 		if (modifiedgame)
	.loc 1 224 6
	testl	%eax, %eax	# modifiedgame.16_40
	je	.L21	#,
# r_things.c:225: 		    patched = W_GetNumForName (lumpinfo[l].name);
	.loc 1 225 42
	movq	lumpinfo(%rip), %rcx	# lumpinfo, lumpinfo.17_41
	movl	-52(%rbp), %eax	# l, tmp220
	movslq	%eax, %rdx	# tmp220, _42
	movq	%rdx, %rax	# _42, tmp221
	salq	$2, %rax	#, tmp221
	addq	%rdx, %rax	# _42, tmp221
	salq	$2, %rax	#, tmp222
	addq	%rcx, %rax	# lumpinfo.17_41, _44
# r_things.c:225: 		    patched = W_GetNumForName (lumpinfo[l].name);
	.loc 1 225 17
	movq	%rax, %rdi	# _45,
	call	W_GetNumForName@PLT	#
	movl	%eax, -40(%rbp)	# tmp223, patched
	jmp	.L22	#
.L21:
# r_things.c:227: 		    patched = l;
	.loc 1 227 15
	movl	-52(%rbp), %eax	# l, tmp224
	movl	%eax, -40(%rbp)	# tmp224, patched
.L22:
# r_things.c:229: 		R_InstallSpriteLump (patched, frame, rotation, false);
	.loc 1 229 3
	movl	-44(%rbp), %edx	# rotation, rotation.18_46
	movl	-48(%rbp), %esi	# frame, frame.19_47
	movl	-40(%rbp), %eax	# patched, tmp225
	movl	$0, %ecx	#,
	movl	%eax, %edi	# tmp225,
	call	R_InstallSpriteLump	#
# r_things.c:231: 		if (lumpinfo[l].name[6])
	.loc 1 231 15
	movq	lumpinfo(%rip), %rcx	# lumpinfo, lumpinfo.20_48
	movl	-52(%rbp), %eax	# l, tmp226
	movslq	%eax, %rdx	# tmp226, _49
	movq	%rdx, %rax	# _49, tmp227
	salq	$2, %rax	#, tmp227
	addq	%rdx, %rax	# _49, tmp227
	salq	$2, %rax	#, tmp228
	addq	%rcx, %rax	# lumpinfo.20_48, _51
# r_things.c:231: 		if (lumpinfo[l].name[6])
	.loc 1 231 23
	movzbl	6(%rax), %eax	# _51->name[6], _52
# r_things.c:231: 		if (lumpinfo[l].name[6])
	.loc 1 231 6
	testb	%al, %al	# _52
	je	.L20	#,
# r_things.c:233: 		    frame = lumpinfo[l].name[6] - 'A';
	.loc 1 233 23
	movq	lumpinfo(%rip), %rcx	# lumpinfo, lumpinfo.21_53
	movl	-52(%rbp), %eax	# l, tmp229
	movslq	%eax, %rdx	# tmp229, _54
	movq	%rdx, %rax	# _54, tmp230
	salq	$2, %rax	#, tmp230
	addq	%rdx, %rax	# _54, tmp230
	salq	$2, %rax	#, tmp231
	addq	%rcx, %rax	# lumpinfo.21_53, _56
# r_things.c:233: 		    frame = lumpinfo[l].name[6] - 'A';
	.loc 1 233 31
	movzbl	6(%rax), %eax	# _56->name[6], _57
	movsbl	%al, %eax	# _57, _58
# r_things.c:233: 		    frame = lumpinfo[l].name[6] - 'A';
	.loc 1 233 13
	subl	$65, %eax	#, tmp232
	movl	%eax, -48(%rbp)	# tmp232, frame
# r_things.c:234: 		    rotation = lumpinfo[l].name[7] - '0';
	.loc 1 234 26
	movq	lumpinfo(%rip), %rcx	# lumpinfo, lumpinfo.22_59
	movl	-52(%rbp), %eax	# l, tmp233
	movslq	%eax, %rdx	# tmp233, _60
	movq	%rdx, %rax	# _60, tmp234
	salq	$2, %rax	#, tmp234
	addq	%rdx, %rax	# _60, tmp234
	salq	$2, %rax	#, tmp235
	addq	%rcx, %rax	# lumpinfo.22_59, _62
# r_things.c:234: 		    rotation = lumpinfo[l].name[7] - '0';
	.loc 1 234 34
	movzbl	7(%rax), %eax	# _62->name[7], _63
	movsbl	%al, %eax	# _63, _64
# r_things.c:234: 		    rotation = lumpinfo[l].name[7] - '0';
	.loc 1 234 16
	subl	$48, %eax	#, tmp236
	movl	%eax, -44(%rbp)	# tmp236, rotation
# r_things.c:235: 		    R_InstallSpriteLump (l, frame, rotation, true);
	.loc 1 235 7
	movl	-44(%rbp), %edx	# rotation, rotation.23_65
	movl	-48(%rbp), %esi	# frame, frame.24_66
	movl	-52(%rbp), %eax	# l, tmp237
	movl	$1, %ecx	#,
	movl	%eax, %edi	# tmp237,
	call	R_InstallSpriteLump	#
.L20:
# r_things.c:217: 	for (l=start+1 ; l<end ; l++)
	.loc 1 217 28 discriminator 2
	addl	$1, -52(%rbp)	#, l
.L19:
# r_things.c:217: 	for (l=start+1 ; l<end ; l++)
	.loc 1 217 20 discriminator 1
	movl	-52(%rbp), %eax	# l, tmp238
	cmpl	-32(%rbp), %eax	# end, tmp238
	jl	.L23	#,
# r_things.c:241: 	if (maxframe == -1)
	.loc 1 241 15
	movl	maxframe(%rip), %eax	# maxframe, maxframe.25_67
# r_things.c:241: 	if (maxframe == -1)
	.loc 1 241 5
	cmpl	$-1, %eax	#, maxframe.25_67
	jne	.L24	#,
# r_things.c:243: 	    sprites[i].numframes = 0;
	.loc 1 243 13
	movq	sprites(%rip), %rax	# sprites, sprites.26_68
	movl	-56(%rbp), %edx	# i, tmp239
	movslq	%edx, %rdx	# tmp239, _69
	salq	$4, %rdx	#, _70
	addq	%rdx, %rax	# _70, _71
# r_things.c:243: 	    sprites[i].numframes = 0;
	.loc 1 243 27
	movl	$0, (%rax)	#, _71->numframes
# r_things.c:244: 	    continue;
	.loc 1 244 6
	jmp	.L25	#
.L24:
# r_things.c:247: 	maxframe++;
	.loc 1 247 10
	movl	maxframe(%rip), %eax	# maxframe, maxframe.27_72
	addl	$1, %eax	#, _73
	movl	%eax, maxframe(%rip)	# _73, maxframe
# r_things.c:249: 	for (frame = 0 ; frame < maxframe ; frame++)
	.loc 1 249 13
	movl	$0, -48(%rbp)	#, frame
# r_things.c:249: 	for (frame = 0 ; frame < maxframe ; frame++)
	.loc 1 249 2
	jmp	.L26	#
.L34:
# r_things.c:251: 	    switch ((int)sprtemp[frame].rotate)
	.loc 1 251 33
	movl	-48(%rbp), %eax	# frame, tmp241
	movslq	%eax, %rdx	# tmp241, tmp240
	movq	%rdx, %rax	# tmp240, tmp243
	salq	$3, %rax	#, tmp244
	subq	%rdx, %rax	# tmp240, tmp243
	salq	$2, %rax	#, tmp245
	movq	%rax, %rdx	# tmp243, tmp242
	leaq	sprtemp(%rip), %rax	#, tmp246
	movl	(%rdx,%rax), %eax	# sprtemp[frame_115].rotate, _74
# r_things.c:251: 	    switch ((int)sprtemp[frame].rotate)
	.loc 1 251 6
	cmpl	$1, %eax	#, _75
	je	.L27	#,
	cmpl	$1, %eax	#, _75
	jg	.L28	#,
	cmpl	$-1, %eax	#, _75
	je	.L29	#,
	testl	%eax, %eax	# _75
# r_things.c:261: 		break;
	.loc 1 261 3
	jmp	.L28	#
.L29:
# r_things.c:255: 		I_Error ("R_InitSprites: No patches found "
	.loc 1 255 3
	movl	-48(%rbp), %eax	# frame, tmp247
	leal	65(%rax), %edx	#, _76
# r_things.c:256: 			 "for %s frame %c", namelist[i], frame+'A');
	.loc 1 256 32
	movl	-56(%rbp), %eax	# i, tmp248
	cltq
	leaq	0(,%rax,8), %rcx	#, _78
	movq	-72(%rbp), %rax	# namelist, tmp249
	addq	%rcx, %rax	# _78, _79
# r_things.c:255: 		I_Error ("R_InitSprites: No patches found "
	.loc 1 255 3
	movq	(%rax), %rax	# *_79, _80
	movq	%rax, %rsi	# _80,
	leaq	.LC4(%rip), %rax	#, tmp250
	movq	%rax, %rdi	# tmp250,
	movl	$0, %eax	#,
	call	I_Error@PLT	#
# r_things.c:257: 		break;
	.loc 1 257 3
	jmp	.L28	#
.L27:
# r_things.c:265: 		for (rotation=0 ; rotation<8 ; rotation++)
	.loc 1 265 16
	movl	$0, -44(%rbp)	#, rotation
# r_things.c:265: 		for (rotation=0 ; rotation<8 ; rotation++)
	.loc 1 265 3
	jmp	.L31	#
.L33:
# r_things.c:266: 		    if (sprtemp[frame].lump[rotation] == -1)
	.loc 1 266 30
	movl	-44(%rbp), %eax	# rotation, tmp252
	movslq	%eax, %rcx	# tmp252, tmp251
	movl	-48(%rbp), %eax	# frame, tmp254
	movslq	%eax, %rdx	# tmp254, tmp253
	movq	%rdx, %rax	# tmp253, tmp255
	salq	$3, %rax	#, tmp256
	subq	%rdx, %rax	# tmp253, tmp255
	addq	%rax, %rax	# tmp257
	addq	%rcx, %rax	# tmp251, tmp258
	leaq	(%rax,%rax), %rdx	#, tmp259
	leaq	4+sprtemp(%rip), %rax	#, tmp260
	movzwl	(%rdx,%rax), %eax	# sprtemp[frame_115].lump[rotation_116], _81
# r_things.c:266: 		    if (sprtemp[frame].lump[rotation] == -1)
	.loc 1 266 10
	cmpw	$-1, %ax	#, _81
	jne	.L32	#,
# r_things.c:267: 			I_Error ("R_InitSprites: Sprite %s frame %c "
	.loc 1 267 4
	movl	-48(%rbp), %eax	# frame, tmp261
	leal	65(%rax), %edx	#, _82
# r_things.c:269: 				 namelist[i], frame+'A');
	.loc 1 269 14
	movl	-56(%rbp), %eax	# i, tmp262
	cltq
	leaq	0(,%rax,8), %rcx	#, _84
	movq	-72(%rbp), %rax	# namelist, tmp263
	addq	%rcx, %rax	# _84, _85
# r_things.c:267: 			I_Error ("R_InitSprites: Sprite %s frame %c "
	.loc 1 267 4
	movq	(%rax), %rax	# *_85, _86
	movq	%rax, %rsi	# _86,
	leaq	.LC5(%rip), %rax	#, tmp264
	movq	%rax, %rdi	# tmp264,
	movl	$0, %eax	#,
	call	I_Error@PLT	#
.L32:
# r_things.c:265: 		for (rotation=0 ; rotation<8 ; rotation++)
	.loc 1 265 42 discriminator 2
	addl	$1, -44(%rbp)	#, rotation
.L31:
# r_things.c:265: 		for (rotation=0 ; rotation<8 ; rotation++)
	.loc 1 265 29 discriminator 1
	cmpl	$7, -44(%rbp)	#, rotation
	jle	.L33	#,
# r_things.c:270: 		break;
	.loc 1 270 3
	nop	
.L28:
# r_things.c:249: 	for (frame = 0 ; frame < maxframe ; frame++)
	.loc 1 249 43 discriminator 2
	addl	$1, -48(%rbp)	#, frame
.L26:
# r_things.c:249: 	for (frame = 0 ; frame < maxframe ; frame++)
	.loc 1 249 25 discriminator 1
	movl	maxframe(%rip), %eax	# maxframe, maxframe.28_87
	cmpl	%eax, -48(%rbp)	# maxframe.28_87, frame
	jl	.L34	#,
# r_things.c:275: 	sprites[i].numframes = maxframe;
	.loc 1 275 9
	movq	sprites(%rip), %rax	# sprites, sprites.29_88
	movl	-56(%rbp), %edx	# i, tmp265
	movslq	%edx, %rdx	# tmp265, _89
	salq	$4, %rdx	#, _90
	addq	%rax, %rdx	# sprites.29_88, _91
# r_things.c:275: 	sprites[i].numframes = maxframe;
	.loc 1 275 23
	movl	maxframe(%rip), %eax	# maxframe, maxframe.30_92
	movl	%eax, (%rdx)	# maxframe.30_92, _91->numframes
# r_things.c:277: 	    Z_Malloc (maxframe * sizeof(spriteframe_t), PU_STATIC, NULL);
	.loc 1 277 6
	movl	maxframe(%rip), %eax	# maxframe, maxframe.31_93
	cltq
	imull	$28, %eax, %eax	#, _95, _96
	movl	%eax, %ecx	# _96, _97
# r_things.c:276: 	sprites[i].spriteframes = 
	.loc 1 276 9
	movq	sprites(%rip), %rax	# sprites, sprites.32_98
	movl	-56(%rbp), %edx	# i, tmp266
	movslq	%edx, %rdx	# tmp266, _99
	salq	$4, %rdx	#, _100
	leaq	(%rax,%rdx), %rbx	#, _101
# r_things.c:277: 	    Z_Malloc (maxframe * sizeof(spriteframe_t), PU_STATIC, NULL);
	.loc 1 277 6
	movl	$0, %edx	#,
	movl	$1, %esi	#,
	movl	%ecx, %edi	# _97,
	call	Z_Malloc@PLT	#
# r_things.c:276: 	sprites[i].spriteframes = 
	.loc 1 276 26
	movq	%rax, 8(%rbx)	# _102, _101->spriteframes
# r_things.c:278: 	memcpy (sprites[i].spriteframes, sprtemp, maxframe*sizeof(spriteframe_t));
	.loc 1 278 2
	movl	maxframe(%rip), %eax	# maxframe, maxframe.33_103
	movslq	%eax, %rdx	# maxframe.33_103, _104
	movq	%rdx, %rax	# _104, tmp267
	salq	$3, %rax	#, tmp268
	subq	%rdx, %rax	# _104, tmp267
	salq	$2, %rax	#, tmp269
	movq	%rax, %rcx	# tmp267, _105
# r_things.c:278: 	memcpy (sprites[i].spriteframes, sprtemp, maxframe*sizeof(spriteframe_t));
	.loc 1 278 17
	movq	sprites(%rip), %rax	# sprites, sprites.34_106
	movl	-56(%rbp), %edx	# i, tmp270
	movslq	%edx, %rdx	# tmp270, _107
	salq	$4, %rdx	#, _108
	addq	%rdx, %rax	# _108, _109
# r_things.c:278: 	memcpy (sprites[i].spriteframes, sprtemp, maxframe*sizeof(spriteframe_t));
	.loc 1 278 20
	movq	8(%rax), %rax	# _109->spriteframes, _110
# r_things.c:278: 	memcpy (sprites[i].spriteframes, sprtemp, maxframe*sizeof(spriteframe_t));
	.loc 1 278 2
	movq	%rcx, %rdx	# _105,
	leaq	sprtemp(%rip), %rcx	#, tmp271
	movq	%rcx, %rsi	# tmp271,
	movq	%rax, %rdi	# _110,
	call	memcpy@PLT	#
.L25:
# r_things.c:207:     for (i=0 ; i<numsprites ; i++)
	.loc 1 207 32 discriminator 2
	addl	$1, -56(%rbp)	#, i
.L18:
# r_things.c:207:     for (i=0 ; i<numsprites ; i++)
	.loc 1 207 17 discriminator 1
	movl	numsprites(%rip), %eax	# numsprites, numsprites.35_111
	cmpl	%eax, -56(%rbp)	# numsprites.35_111, i
	jl	.L35	#,
	jmp	.L13	#
.L36:
# r_things.c:197: 	return;
	.loc 1 197 2
	nop	
.L13:
# r_things.c:281: }
	.loc 1 281 1
	movq	-8(%rbp), %rbx	#,
	leave	
	.cfi_def_cfa 7, 8
	ret	
	.cfi_endproc
.LFE7:
	.size	R_InitSpriteDefs, .-R_InitSpriteDefs
	.globl	vissprites
	.bss
	.align 32
	.type	vissprites, @object
	.size	vissprites, 10240
vissprites:
	.zero	10240
	.globl	vissprite_p
	.align 8
	.type	vissprite_p, @object
	.size	vissprite_p, 8
vissprite_p:
	.zero	8
	.globl	newvissprite
	.align 4
	.type	newvissprite, @object
	.size	newvissprite, 4
newvissprite:
	.zero	4
	.text
	.globl	R_InitSprites
	.type	R_InitSprites, @function
R_InitSprites:
.LFB8:
	.loc 1 300 1
	.cfi_startproc
	endbr64	
	pushq	%rbp	#
	.cfi_def_cfa_offset 16
	.cfi_offset 6, -16
	movq	%rsp, %rbp	#,
	.cfi_def_cfa_register 6
	subq	$32, %rsp	#,
	movq	%rdi, -24(%rbp)	# namelist, namelist
# r_things.c:303:     for (i=0 ; i<SCREENWIDTH ; i++)
	.loc 1 303 11
	movl	$0, -4(%rbp)	#, i
# r_things.c:303:     for (i=0 ; i<SCREENWIDTH ; i++)
	.loc 1 303 5
	jmp	.L38	#
.L39:
# r_things.c:305: 	negonearray[i] = -1;
	.loc 1 305 17
	movl	-4(%rbp), %eax	# i, tmp83
	cltq
	leaq	(%rax,%rax), %rdx	#, tmp84
	leaq	negonearray(%rip), %rax	#, tmp85
	movw	$-1, (%rdx,%rax)	#, negonearray[i_1]
# r_things.c:303:     for (i=0 ; i<SCREENWIDTH ; i++)
	.loc 1 303 33 discriminator 3
	addl	$1, -4(%rbp)	#, i
.L38:
# r_things.c:303:     for (i=0 ; i<SCREENWIDTH ; i++)
	.loc 1 303 17 discriminator 1
	cmpl	$319, -4(%rbp)	#, i
	jle	.L39	#,
# r_things.c:308:     R_InitSpriteDefs (namelist);
	.loc 1 308 5
	movq	-24(%rbp), %rax	# namelist, tmp86
	movq	%rax, %rdi	# tmp86,
	call	R_InitSpriteDefs	#
# r_things.c:309: }
	.loc 1 309 1
	nop	
	leave	
	.cfi_def_cfa 7, 8
	ret	
	.cfi_endproc
.LFE8:
	.size	R_InitSprites, .-R_InitSprites
	.globl	R_ClearSprites
	.type	R_ClearSprites, @function
R_ClearSprites:
.LFB9:
	.loc 1 318 1
	.cfi_startproc
	endbr64	
	pushq	%rbp	#
	.cfi_def_cfa_offset 16
	.cfi_offset 6, -16
	movq	%rsp, %rbp	#,
	.cfi_def_cfa_register 6
# r_things.c:319:     vissprite_p = vissprites;
	.loc 1 319 17
	leaq	vissprites(%rip), %rax	#, tmp82
	movq	%rax, vissprite_p(%rip)	# tmp82, vissprite_p
# r_things.c:320: }
	.loc 1 320 1
	nop	
	popq	%rbp	#
	.cfi_def_cfa 7, 8
	ret	
	.cfi_endproc
.LFE9:
	.size	R_ClearSprites, .-R_ClearSprites
	.globl	overflowsprite
	.bss
	.align 32
	.type	overflowsprite, @object
	.size	overflowsprite, 80
overflowsprite:
	.zero	80
	.text
	.globl	R_NewVisSprite
	.type	R_NewVisSprite, @function
R_NewVisSprite:
.LFB10:
	.loc 1 329 1
	.cfi_startproc
	endbr64	
	pushq	%rbp	#
	.cfi_def_cfa_offset 16
	.cfi_offset 6, -16
	movq	%rsp, %rbp	#,
	.cfi_def_cfa_register 6
# r_things.c:330:     if (vissprite_p == &vissprites[MAXVISSPRITES])
	.loc 1 330 21
	movq	vissprite_p(%rip), %rdx	# vissprite_p, vissprite_p.36_1
# r_things.c:330:     if (vissprite_p == &vissprites[MAXVISSPRITES])
	.loc 1 330 8
	leaq	10240+vissprites(%rip), %rax	#, tmp88
	cmpq	%rax, %rdx	# tmp88, vissprite_p.36_1
	jne	.L42	#,
# r_things.c:331: 	return &overflowsprite;
	.loc 1 331 9
	leaq	overflowsprite(%rip), %rax	#, _5
	jmp	.L43	#
.L42:
# r_things.c:333:     vissprite_p++;
	.loc 1 333 16
	movq	vissprite_p(%rip), %rax	# vissprite_p, vissprite_p.37_2
	addq	$80, %rax	#, _3
	movq	%rax, vissprite_p(%rip)	# _3, vissprite_p
# r_things.c:334:     return vissprite_p-1;
	.loc 1 334 23
	movq	vissprite_p(%rip), %rax	# vissprite_p, vissprite_p.38_4
	subq	$80, %rax	#, _5
.L43:
# r_things.c:335: }
	.loc 1 335 1
	popq	%rbp	#
	.cfi_def_cfa 7, 8
	ret	
	.cfi_endproc
.LFE10:
	.size	R_NewVisSprite, .-R_NewVisSprite
	.globl	mfloorclip
	.bss
	.align 8
	.type	mfloorclip, @object
	.size	mfloorclip, 8
mfloorclip:
	.zero	8
	.globl	mceilingclip
	.align 8
	.type	mceilingclip, @object
	.size	mceilingclip, 8
mceilingclip:
	.zero	8
	.globl	spryscale
	.align 4
	.type	spryscale, @object
	.size	spryscale, 4
spryscale:
	.zero	4
	.globl	sprtopscreen
	.align 4
	.type	sprtopscreen, @object
	.size	sprtopscreen, 4
sprtopscreen:
	.zero	4
	.text
	.globl	R_DrawMaskedColumn
	.type	R_DrawMaskedColumn, @function
R_DrawMaskedColumn:
.LFB11:
	.loc 1 352 1
	.cfi_startproc
	endbr64	
	pushq	%rbp	#
	.cfi_def_cfa_offset 16
	.cfi_offset 6, -16
	movq	%rsp, %rbp	#,
	.cfi_def_cfa_register 6
	subq	$32, %rsp	#,
	movq	%rdi, -24(%rbp)	# column, column
# r_things.c:357:     basetexturemid = dc_texturemid;
	.loc 1 357 20
	movl	dc_texturemid(%rip), %eax	# dc_texturemid, tmp139
	movl	%eax, -12(%rbp)	# tmp139, basetexturemid
# r_things.c:359:     for ( ; column->topdelta != 0xff ; ) 
	.loc 1 359 5
	jmp	.L45	#
.L49:
# r_things.c:363: 	topscreen = sprtopscreen + spryscale*column->topdelta;
	.loc 1 363 45
	movq	-24(%rbp), %rax	# column, tmp140
	movzbl	(%rax), %eax	# column_58->topdelta, _1
	movzbl	%al, %edx	# _1, _2
# r_things.c:363: 	topscreen = sprtopscreen + spryscale*column->topdelta;
	.loc 1 363 38
	movl	spryscale(%rip), %eax	# spryscale, spryscale.39_3
	imull	%eax, %edx	# spryscale.39_3, _4
# r_things.c:363: 	topscreen = sprtopscreen + spryscale*column->topdelta;
	.loc 1 363 27
	movl	sprtopscreen(%rip), %eax	# sprtopscreen, sprtopscreen.40_5
# r_things.c:363: 	topscreen = sprtopscreen + spryscale*column->topdelta;
	.loc 1 363 12
	addl	%edx, %eax	# _4, tmp141
	movl	%eax, -8(%rbp)	# tmp141, topscreen
# r_things.c:364: 	bottomscreen = topscreen + spryscale*column->length;
	.loc 1 364 45
	movq	-24(%rbp), %rax	# column, tmp142
	movzbl	1(%rax), %eax	# column_58->length, _6
	movzbl	%al, %edx	# _6, _7
# r_things.c:364: 	bottomscreen = topscreen + spryscale*column->length;
	.loc 1 364 38
	movl	spryscale(%rip), %eax	# spryscale, spryscale.41_8
	imull	%eax, %edx	# spryscale.41_8, _9
# r_things.c:364: 	bottomscreen = topscreen + spryscale*column->length;
	.loc 1 364 15
	movl	-8(%rbp), %eax	# topscreen, tmp146
	addl	%edx, %eax	# _9, tmp145
	movl	%eax, -4(%rbp)	# tmp145, bottomscreen
# r_things.c:366: 	dc_yl = (topscreen+FRACUNIT-1)>>FRACBITS;
	.loc 1 366 29
	movl	-8(%rbp), %eax	# topscreen, tmp147
	addl	$65535, %eax	#, _10
# r_things.c:366: 	dc_yl = (topscreen+FRACUNIT-1)>>FRACBITS;
	.loc 1 366 32
	sarl	$16, %eax	#, _11
# r_things.c:366: 	dc_yl = (topscreen+FRACUNIT-1)>>FRACBITS;
	.loc 1 366 8
	movl	%eax, dc_yl(%rip)	# _11, dc_yl
# r_things.c:367: 	dc_yh = (bottomscreen-1)>>FRACBITS;
	.loc 1 367 23
	movl	-4(%rbp), %eax	# bottomscreen, tmp148
	subl	$1, %eax	#, _12
# r_things.c:367: 	dc_yh = (bottomscreen-1)>>FRACBITS;
	.loc 1 367 26
	sarl	$16, %eax	#, _13
# r_things.c:367: 	dc_yh = (bottomscreen-1)>>FRACBITS;
	.loc 1 367 8
	movl	%eax, dc_yh(%rip)	# _13, dc_yh
# r_things.c:369: 	if (dc_yh >= mfloorclip[dc_x])
	.loc 1 369 25
	movq	mfloorclip(%rip), %rax	# mfloorclip, mfloorclip.42_14
	movl	dc_x(%rip), %edx	# dc_x, dc_x.43_15
	movslq	%edx, %rdx	# dc_x.43_15, _16
	addq	%rdx, %rdx	# _17
	addq	%rdx, %rax	# _17, _18
	movzwl	(%rax), %eax	# *_18, _19
	movswl	%ax, %edx	# _19, _20
# r_things.c:369: 	if (dc_yh >= mfloorclip[dc_x])
	.loc 1 369 12
	movl	dc_yh(%rip), %eax	# dc_yh, dc_yh.44_21
# r_things.c:369: 	if (dc_yh >= mfloorclip[dc_x])
	.loc 1 369 5
	cmpl	%eax, %edx	# dc_yh.44_21, _20
	jg	.L46	#,
# r_things.c:370: 	    dc_yh = mfloorclip[dc_x]-1;
	.loc 1 370 24
	movq	mfloorclip(%rip), %rax	# mfloorclip, mfloorclip.45_22
	movl	dc_x(%rip), %edx	# dc_x, dc_x.46_23
	movslq	%edx, %rdx	# dc_x.46_23, _24
	addq	%rdx, %rdx	# _25
	addq	%rdx, %rax	# _25, _26
	movzwl	(%rax), %eax	# *_26, _27
	cwtl
# r_things.c:370: 	    dc_yh = mfloorclip[dc_x]-1;
	.loc 1 370 30
	subl	$1, %eax	#, _29
# r_things.c:370: 	    dc_yh = mfloorclip[dc_x]-1;
	.loc 1 370 12
	movl	%eax, dc_yh(%rip)	# _29, dc_yh
.L46:
# r_things.c:371: 	if (dc_yl <= mceilingclip[dc_x])
	.loc 1 371 27
	movq	mceilingclip(%rip), %rax	# mceilingclip, mceilingclip.47_30
	movl	dc_x(%rip), %edx	# dc_x, dc_x.48_31
	movslq	%edx, %rdx	# dc_x.48_31, _32
	addq	%rdx, %rdx	# _33
	addq	%rdx, %rax	# _33, _34
	movzwl	(%rax), %eax	# *_34, _35
	movswl	%ax, %edx	# _35, _36
# r_things.c:371: 	if (dc_yl <= mceilingclip[dc_x])
	.loc 1 371 12
	movl	dc_yl(%rip), %eax	# dc_yl, dc_yl.49_37
# r_things.c:371: 	if (dc_yl <= mceilingclip[dc_x])
	.loc 1 371 5
	cmpl	%eax, %edx	# dc_yl.49_37, _36
	jl	.L47	#,
# r_things.c:372: 	    dc_yl = mceilingclip[dc_x]+1;
	.loc 1 372 26
	movq	mceilingclip(%rip), %rax	# mceilingclip, mceilingclip.50_38
	movl	dc_x(%rip), %edx	# dc_x, dc_x.51_39
	movslq	%edx, %rdx	# dc_x.51_39, _40
	addq	%rdx, %rdx	# _41
	addq	%rdx, %rax	# _41, _42
	movzwl	(%rax), %eax	# *_42, _43
	cwtl
# r_things.c:372: 	    dc_yl = mceilingclip[dc_x]+1;
	.loc 1 372 32
	addl	$1, %eax	#, _45
# r_things.c:372: 	    dc_yl = mceilingclip[dc_x]+1;
	.loc 1 372 12
	movl	%eax, dc_yl(%rip)	# _45, dc_yl
.L47:
# r_things.c:374: 	if (dc_yl <= dc_yh)
	.loc 1 374 12
	movl	dc_yl(%rip), %edx	# dc_yl, dc_yl.52_46
	movl	dc_yh(%rip), %eax	# dc_yh, dc_yh.53_47
# r_things.c:374: 	if (dc_yl <= dc_yh)
	.loc 1 374 5
	cmpl	%eax, %edx	# dc_yh.53_47, dc_yl.52_46
	jg	.L48	#,
# r_things.c:376: 	    dc_source = (byte *)column + 3;
	.loc 1 376 33
	movq	-24(%rbp), %rax	# column, tmp149
	addq	$3, %rax	#, _48
# r_things.c:376: 	    dc_source = (byte *)column + 3;
	.loc 1 376 16
	movq	%rax, dc_source(%rip)	# _48, dc_source
# r_things.c:377: 	    dc_texturemid = basetexturemid - (column->topdelta<<FRACBITS);
	.loc 1 377 46
	movq	-24(%rbp), %rax	# column, tmp150
	movzbl	(%rax), %eax	# column_58->topdelta, _49
	movzbl	%al, %eax	# _49, _50
# r_things.c:377: 	    dc_texturemid = basetexturemid - (column->topdelta<<FRACBITS);
	.loc 1 377 56
	sall	$16, %eax	#, _50
	movl	%eax, %edx	# _50, _51
# r_things.c:377: 	    dc_texturemid = basetexturemid - (column->topdelta<<FRACBITS);
	.loc 1 377 37
	movl	-12(%rbp), %eax	# basetexturemid, tmp151
	subl	%edx, %eax	# _51, _52
# r_things.c:377: 	    dc_texturemid = basetexturemid - (column->topdelta<<FRACBITS);
	.loc 1 377 20
	movl	%eax, dc_texturemid(%rip)	# _52, dc_texturemid
# r_things.c:382: 	    colfunc ();	
	.loc 1 382 6
	movq	colfunc(%rip), %rax	# colfunc, colfunc.54_53
	call	*%rax	# colfunc.54_53
.LVL0:
.L48:
# r_things.c:384: 	column = (column_t *)(  (byte *)column + column->length + 4);
	.loc 1 384 49
	movq	-24(%rbp), %rax	# column, tmp152
	movzbl	1(%rax), %eax	# column_58->length, _54
	movzbl	%al, %eax	# _54, _55
# r_things.c:384: 	column = (column_t *)(  (byte *)column + column->length + 4);
	.loc 1 384 58
	addq	$4, %rax	#, _56
# r_things.c:384: 	column = (column_t *)(  (byte *)column + column->length + 4);
	.loc 1 384 9
	addq	%rax, -24(%rbp)	# _56, column
.L45:
# r_things.c:359:     for ( ; column->topdelta != 0xff ; ) 
	.loc 1 359 19
	movq	-24(%rbp), %rax	# column, tmp153
	movzbl	(%rax), %eax	# column_58->topdelta, _57
# r_things.c:359:     for ( ; column->topdelta != 0xff ; ) 
	.loc 1 359 30
	cmpb	$-1, %al	#, _57
	jne	.L49	#,
# r_things.c:387:     dc_texturemid = basetexturemid;
	.loc 1 387 19
	movl	-12(%rbp), %eax	# basetexturemid, tmp154
	movl	%eax, dc_texturemid(%rip)	# tmp154, dc_texturemid
# r_things.c:388: }
	.loc 1 388 1
	nop	
	leave	
	.cfi_def_cfa 7, 8
	ret	
	.cfi_endproc
.LFE11:
	.size	R_DrawMaskedColumn, .-R_DrawMaskedColumn
	.section	.rodata
	.align 8
.LC6:
	.string	"R_DrawSpriteRange: bad texturecolumn"
	.text
	.globl	R_DrawVisSprite
	.type	R_DrawVisSprite, @function
R_DrawVisSprite:
.LFB12:
	.loc 1 401 1
	.cfi_startproc
	endbr64	
	pushq	%rbp	#
	.cfi_def_cfa_offset 16
	.cfi_offset 6, -16
	movq	%rsp, %rbp	#,
	.cfi_def_cfa_register 6
	pushq	%rbx	#
	subq	$56, %rsp	#,
	.cfi_offset 3, -24
	movq	%rdi, -56(%rbp)	# vis, vis
	movl	%esi, -60(%rbp)	# x1, x1
	movl	%edx, -64(%rbp)	# x2, x2
# r_things.c:408:     patch = W_CacheLumpNum (vis->patch+firstspritelump, PU_CACHE);
	.loc 1 408 32
	movq	-56(%rbp), %rax	# vis, tmp119
	movl	56(%rax), %edx	# vis_43(D)->patch, _1
# r_things.c:408:     patch = W_CacheLumpNum (vis->patch+firstspritelump, PU_CACHE);
	.loc 1 408 13
	movl	firstspritelump(%rip), %eax	# firstspritelump, firstspritelump.55_2
	addl	%edx, %eax	# _1, _3
	movl	$101, %esi	#,
	movl	%eax, %edi	# _3,
	call	W_CacheLumpNum@PLT	#
	movq	%rax, -32(%rbp)	# tmp120, patch
# r_things.c:410:     dc_colormap = vis->colormap;
	.loc 1 410 22
	movq	-56(%rbp), %rax	# vis, tmp121
	movq	64(%rax), %rax	# vis_43(D)->colormap, _4
# r_things.c:410:     dc_colormap = vis->colormap;
	.loc 1 410 17
	movq	%rax, dc_colormap(%rip)	# _4, dc_colormap
# r_things.c:412:     if (!dc_colormap)
	.loc 1 412 9
	movq	dc_colormap(%rip), %rax	# dc_colormap, dc_colormap.56_5
# r_things.c:412:     if (!dc_colormap)
	.loc 1 412 8
	testq	%rax, %rax	# dc_colormap.56_5
	jne	.L51	#,
# r_things.c:415: 	colfunc = fuzzcolfunc;
	.loc 1 415 10
	movq	fuzzcolfunc(%rip), %rax	# fuzzcolfunc, fuzzcolfunc.57_6
	movq	%rax, colfunc(%rip)	# fuzzcolfunc.57_6, colfunc
	jmp	.L52	#
.L51:
# r_things.c:417:     else if (vis->mobjflags & MF_TRANSLATION)
	.loc 1 417 17
	movq	-56(%rbp), %rax	# vis, tmp122
	movl	72(%rax), %eax	# vis_43(D)->mobjflags, _7
# r_things.c:417:     else if (vis->mobjflags & MF_TRANSLATION)
	.loc 1 417 29
	andl	$201326592, %eax	#, _8
# r_things.c:417:     else if (vis->mobjflags & MF_TRANSLATION)
	.loc 1 417 13
	testl	%eax, %eax	# _8
	je	.L52	#,
# r_things.c:419: 	colfunc = R_DrawTranslatedColumn;
	.loc 1 419 10
	movq	R_DrawTranslatedColumn@GOTPCREL(%rip), %rax	#, tmp124
	movq	%rax, colfunc(%rip)	# tmp123, colfunc
# r_things.c:420: 	dc_translation = translationtables - 256 +
	.loc 1 420 43
	movq	translationtables(%rip), %rdx	# translationtables, translationtables.58_9
# r_things.c:421: 	    ( (vis->mobjflags & MF_TRANSLATION) >> (MF_TRANSSHIFT-8) );
	.loc 1 421 12
	movq	-56(%rbp), %rax	# vis, tmp125
	movl	72(%rax), %eax	# vis_43(D)->mobjflags, _10
# r_things.c:421: 	    ( (vis->mobjflags & MF_TRANSLATION) >> (MF_TRANSSHIFT-8) );
	.loc 1 421 42
	sarl	$18, %eax	#, _11
	cltq
	andl	$768, %eax	#, _13
# r_things.c:420: 	dc_translation = translationtables - 256 +
	.loc 1 420 43
	subq	$256, %rax	#, _14
	addq	%rdx, %rax	# translationtables.58_9, _15
# r_things.c:420: 	dc_translation = translationtables - 256 +
	.loc 1 420 17
	movq	%rax, dc_translation(%rip)	# _15, dc_translation
.L52:
# r_things.c:424:     dc_iscale = abs(vis->xiscale)>>detailshift;
	.loc 1 424 24
	movq	-56(%rbp), %rax	# vis, tmp126
	movl	48(%rax), %eax	# vis_43(D)->xiscale, _16
# r_things.c:424:     dc_iscale = abs(vis->xiscale)>>detailshift;
	.loc 1 424 17
	movl	%eax, %edx	# _16, tmp148
	negl	%edx	# tmp148
	cmovs	%eax, %edx	# tmp148,, _16, _17
# r_things.c:424:     dc_iscale = abs(vis->xiscale)>>detailshift;
	.loc 1 424 34
	movl	detailshift(%rip), %eax	# detailshift, detailshift.59_18
	movl	%eax, %ecx	# detailshift.59_18, tmp152
	sarl	%cl, %edx	# tmp152, _17
	movl	%edx, %eax	# _17, _19
# r_things.c:424:     dc_iscale = abs(vis->xiscale)>>detailshift;
	.loc 1 424 15
	movl	%eax, dc_iscale(%rip)	# _19, dc_iscale
# r_things.c:425:     dc_texturemid = vis->texturemid;
	.loc 1 425 24
	movq	-56(%rbp), %rax	# vis, tmp127
	movl	52(%rax), %eax	# vis_43(D)->texturemid, _20
# r_things.c:425:     dc_texturemid = vis->texturemid;
	.loc 1 425 19
	movl	%eax, dc_texturemid(%rip)	# _20, dc_texturemid
# r_things.c:426:     frac = vis->startfrac;
	.loc 1 426 10
	movq	-56(%rbp), %rax	# vis, tmp128
	movl	40(%rax), %eax	# vis_43(D)->startfrac, tmp129
	movl	%eax, -40(%rbp)	# tmp129, frac
# r_things.c:427:     spryscale = vis->scale;
	.loc 1 427 20
	movq	-56(%rbp), %rax	# vis, tmp130
	movl	44(%rax), %eax	# vis_43(D)->scale, _21
# r_things.c:427:     spryscale = vis->scale;
	.loc 1 427 15
	movl	%eax, spryscale(%rip)	# _21, spryscale
# r_things.c:428:     sprtopscreen = centeryfrac - FixedMul(dc_texturemid,spryscale);
	.loc 1 428 32
	movl	centeryfrac(%rip), %ebx	# centeryfrac, centeryfrac.60_22
# r_things.c:428:     sprtopscreen = centeryfrac - FixedMul(dc_texturemid,spryscale);
	.loc 1 428 34
	movl	spryscale(%rip), %edx	# spryscale, spryscale.61_23
	movl	dc_texturemid(%rip), %eax	# dc_texturemid, dc_texturemid.62_24
	movl	%edx, %esi	# spryscale.61_23,
	movl	%eax, %edi	# dc_texturemid.62_24,
	call	FixedMul@PLT	#
# r_things.c:428:     sprtopscreen = centeryfrac - FixedMul(dc_texturemid,spryscale);
	.loc 1 428 32 discriminator 1
	subl	%eax, %ebx	# _25, centeryfrac.60_22
	movl	%ebx, %edx	# centeryfrac.60_22, _26
# r_things.c:428:     sprtopscreen = centeryfrac - FixedMul(dc_texturemid,spryscale);
	.loc 1 428 18 discriminator 1
	movl	%edx, sprtopscreen(%rip)	# _26, sprtopscreen
# r_things.c:430:     for (dc_x=vis->x1 ; dc_x<=vis->x2 ; dc_x++, frac += vis->xiscale)
	.loc 1 430 18
	movq	-56(%rbp), %rax	# vis, tmp131
	movl	16(%rax), %eax	# vis_43(D)->x1, _27
# r_things.c:430:     for (dc_x=vis->x1 ; dc_x<=vis->x2 ; dc_x++, frac += vis->xiscale)
	.loc 1 430 14
	movl	%eax, dc_x(%rip)	# _27, dc_x
# r_things.c:430:     for (dc_x=vis->x1 ; dc_x<=vis->x2 ; dc_x++, frac += vis->xiscale)
	.loc 1 430 5
	jmp	.L53	#
.L56:
# r_things.c:432: 	texturecolumn = frac>>FRACBITS;
	.loc 1 432 16
	movl	-40(%rbp), %eax	# frac, tmp135
	sarl	$16, %eax	#, tmp134
	movl	%eax, -36(%rbp)	# tmp134, texturecolumn
# r_things.c:434: 	if (texturecolumn < 0 || texturecolumn >= SHORT(patch->width))
	.loc 1 434 5
	cmpl	$0, -36(%rbp)	#, texturecolumn
	js	.L54	#,
# r_things.c:434: 	if (texturecolumn < 0 || texturecolumn >= SHORT(patch->width))
	.loc 1 434 44 discriminator 1
	movq	-32(%rbp), %rax	# patch, tmp136
	movzwl	(%rax), %eax	# patch_45->width, _28
	cwtl
# r_things.c:434: 	if (texturecolumn < 0 || texturecolumn >= SHORT(patch->width))
	.loc 1 434 24 discriminator 1
	cmpl	%eax, -36(%rbp)	# _29, texturecolumn
	jl	.L55	#,
.L54:
# r_things.c:435: 	    I_Error ("R_DrawSpriteRange: bad texturecolumn");
	.loc 1 435 6
	leaq	.LC6(%rip), %rax	#, tmp137
	movq	%rax, %rdi	# tmp137,
	movl	$0, %eax	#,
	call	I_Error@PLT	#
.L55:
# r_things.c:438: 			       LONG(patch->columnofs[texturecolumn]));
	.loc 1 438 11
	movq	-32(%rbp), %rax	# patch, tmp138
	movl	-36(%rbp), %edx	# texturecolumn, tmp140
	movslq	%edx, %rdx	# tmp140, tmp139
	movl	8(%rax,%rdx,4), %eax	# patch_45->columnofs[texturecolumn_58], _30
	movslq	%eax, %rdx	# _30, _31
# r_things.c:437: 	column = (column_t *) ((byte *)patch +
	.loc 1 437 9
	movq	-32(%rbp), %rax	# patch, tmp144
	addq	%rdx, %rax	# _31, tmp143
	movq	%rax, -24(%rbp)	# tmp143, column
# r_things.c:439: 	R_DrawMaskedColumn (column);
	.loc 1 439 2
	movq	-24(%rbp), %rax	# column, tmp145
	movq	%rax, %rdi	# tmp145,
	call	R_DrawMaskedColumn	#
# r_things.c:430:     for (dc_x=vis->x1 ; dc_x<=vis->x2 ; dc_x++, frac += vis->xiscale)
	.loc 1 430 45 discriminator 2
	movl	dc_x(%rip), %eax	# dc_x, dc_x.63_32
	addl	$1, %eax	#, _33
	movl	%eax, dc_x(%rip)	# _33, dc_x
# r_things.c:430:     for (dc_x=vis->x1 ; dc_x<=vis->x2 ; dc_x++, frac += vis->xiscale)
	.loc 1 430 60 discriminator 2
	movq	-56(%rbp), %rax	# vis, tmp146
	movl	48(%rax), %eax	# vis_43(D)->xiscale, _34
# r_things.c:430:     for (dc_x=vis->x1 ; dc_x<=vis->x2 ; dc_x++, frac += vis->xiscale)
	.loc 1 430 54 discriminator 2
	addl	%eax, -40(%rbp)	# _34, frac
.L53:
# r_things.c:430:     for (dc_x=vis->x1 ; dc_x<=vis->x2 ; dc_x++, frac += vis->xiscale)
	.loc 1 430 34 discriminator 1
	movq	-56(%rbp), %rax	# vis, tmp147
	movl	20(%rax), %edx	# vis_43(D)->x2, _35
# r_things.c:430:     for (dc_x=vis->x1 ; dc_x<=vis->x2 ; dc_x++, frac += vis->xiscale)
	.loc 1 430 29 discriminator 1
	movl	dc_x(%rip), %eax	# dc_x, dc_x.64_36
	cmpl	%eax, %edx	# dc_x.64_36, _35
	jge	.L56	#,
# r_things.c:442:     colfunc = basecolfunc;
	.loc 1 442 13
	movq	basecolfunc(%rip), %rax	# basecolfunc, basecolfunc.65_37
	movq	%rax, colfunc(%rip)	# basecolfunc.65_37, colfunc
# r_things.c:443: }
	.loc 1 443 1
	nop	
	movq	-8(%rbp), %rbx	#,
	leave	
	.cfi_def_cfa 7, 8
	ret	
	.cfi_endproc
.LFE12:
	.size	R_DrawVisSprite, .-R_DrawVisSprite
	.section	.rodata
	.align 8
.LC7:
	.string	"R_ProjectSprite: invalid sprite number %i "
	.align 8
.LC8:
	.string	"R_ProjectSprite: invalid sprite frame %i : %i "
	.text
	.globl	R_ProjectSprite
	.type	R_ProjectSprite, @function
R_ProjectSprite:
.LFB13:
	.loc 1 453 1
	.cfi_startproc
	endbr64	
	pushq	%rbp	#
	.cfi_def_cfa_offset 16
	.cfi_offset 6, -16
	movq	%rsp, %rbp	#,
	.cfi_def_cfa_register 6
	subq	$112, %rsp	#,
	movq	%rdi, -104(%rbp)	# thing, thing
# r_things.c:483:     tr_x = thing->x - viewx;
	.loc 1 483 17
	movq	-104(%rbp), %rax	# thing, tmp190
	movl	24(%rax), %edx	# thing_119(D)->x, _1
# r_things.c:483:     tr_x = thing->x - viewx;
	.loc 1 483 21
	movl	viewx(%rip), %eax	# viewx, viewx.66_2
# r_things.c:483:     tr_x = thing->x - viewx;
	.loc 1 483 10
	subl	%eax, %edx	# viewx.66_2, tmp191
	movl	%edx, -72(%rbp)	# tmp191, tr_x
# r_things.c:484:     tr_y = thing->y - viewy;
	.loc 1 484 17
	movq	-104(%rbp), %rax	# thing, tmp192
	movl	28(%rax), %edx	# thing_119(D)->y, _3
# r_things.c:484:     tr_y = thing->y - viewy;
	.loc 1 484 21
	movl	viewy(%rip), %eax	# viewy, viewy.67_4
# r_things.c:484:     tr_y = thing->y - viewy;
	.loc 1 484 10
	subl	%eax, %edx	# viewy.67_4, tmp193
	movl	%edx, -68(%rbp)	# tmp193, tr_y
# r_things.c:486:     gxt = FixedMul(tr_x,viewcos); 
	.loc 1 486 11
	movl	viewcos(%rip), %edx	# viewcos, viewcos.68_5
	movl	-72(%rbp), %eax	# tr_x, tmp194
	movl	%edx, %esi	# viewcos.68_5,
	movl	%eax, %edi	# tmp194,
	call	FixedMul@PLT	#
	movl	%eax, -64(%rbp)	# tmp195, gxt
# r_things.c:487:     gyt = -FixedMul(tr_y,viewsin);
	.loc 1 487 12
	movl	viewsin(%rip), %edx	# viewsin, viewsin.69_6
	movl	-68(%rbp), %eax	# tr_y, tmp196
	movl	%edx, %esi	# viewsin.69_6,
	movl	%eax, %edi	# tmp196,
	call	FixedMul@PLT	#
# r_things.c:487:     gyt = -FixedMul(tr_y,viewsin);
	.loc 1 487 9 discriminator 1
	negl	%eax	# tmp197
	movl	%eax, -60(%rbp)	# tmp197, gyt
# r_things.c:489:     tz = gxt-gyt; 
	.loc 1 489 8
	movl	-64(%rbp), %eax	# gxt, tmp201
	subl	-60(%rbp), %eax	# gyt, tmp200
	movl	%eax, -56(%rbp)	# tmp200, tz
# r_things.c:492:     if (tz < MINZ)
	.loc 1 492 8
	cmpl	$262143, -56(%rbp)	#, tz
	jle	.L76	#,
# r_things.c:495:     xscale = FixedDiv(projection, tz);
	.loc 1 495 14
	movl	projection(%rip), %eax	# projection, projection.70_8
	movl	-56(%rbp), %edx	# tz, tmp202
	movl	%edx, %esi	# tmp202,
	movl	%eax, %edi	# projection.70_8,
	call	FixedDiv@PLT	#
	movl	%eax, -52(%rbp)	# tmp203, xscale
# r_things.c:497:     gxt = -FixedMul(tr_x,viewsin); 
	.loc 1 497 12
	movl	viewsin(%rip), %edx	# viewsin, viewsin.71_9
	movl	-72(%rbp), %eax	# tr_x, tmp204
	movl	%edx, %esi	# viewsin.71_9,
	movl	%eax, %edi	# tmp204,
	call	FixedMul@PLT	#
# r_things.c:497:     gxt = -FixedMul(tr_x,viewsin); 
	.loc 1 497 9 discriminator 1
	negl	%eax	# tmp205
	movl	%eax, -64(%rbp)	# tmp205, gxt
# r_things.c:498:     gyt = FixedMul(tr_y,viewcos); 
	.loc 1 498 11
	movl	viewcos(%rip), %edx	# viewcos, viewcos.72_11
	movl	-68(%rbp), %eax	# tr_y, tmp206
	movl	%edx, %esi	# viewcos.72_11,
	movl	%eax, %edi	# tmp206,
	call	FixedMul@PLT	#
	movl	%eax, -60(%rbp)	# tmp207, gyt
# r_things.c:499:     tx = -(gyt+gxt); 
	.loc 1 499 15
	movl	-60(%rbp), %edx	# gyt, tmp208
	movl	-64(%rbp), %eax	# gxt, tmp209
	addl	%edx, %eax	# tmp208, _12
# r_things.c:499:     tx = -(gyt+gxt); 
	.loc 1 499 8
	negl	%eax	# tmp210
	movl	%eax, -48(%rbp)	# tmp210, tx
# r_things.c:502:     if (abs(tx)>(tz<<2))
	.loc 1 502 9
	movl	-48(%rbp), %eax	# tx, tmp301
	movl	%eax, %edx	# tmp301, tmp302
	negl	%edx	# tmp302
	cmovs	%eax, %edx	# tmp302,, tmp301, _13
# r_things.c:502:     if (abs(tx)>(tz<<2))
	.loc 1 502 20
	movl	-56(%rbp), %eax	# tz, tmp211
	sall	$2, %eax	#, _14
# r_things.c:502:     if (abs(tx)>(tz<<2))
	.loc 1 502 8
	cmpl	%eax, %edx	# _14, _13
	jg	.L77	#,
# r_things.c:507:     if ((unsigned)thing->sprite >= numsprites)
	.loc 1 507 24
	movq	-104(%rbp), %rax	# thing, tmp212
	movl	60(%rax), %eax	# thing_119(D)->sprite, _15
# r_things.c:507:     if ((unsigned)thing->sprite >= numsprites)
	.loc 1 507 33
	movl	numsprites(%rip), %edx	# numsprites, numsprites.73_16
# r_things.c:507:     if ((unsigned)thing->sprite >= numsprites)
	.loc 1 507 8
	cmpl	%edx, %eax	# numsprites.74_17, _15
	jb	.L61	#,
# r_things.c:509: 		 thing->sprite);
	.loc 1 509 9
	movq	-104(%rbp), %rax	# thing, tmp213
	movl	60(%rax), %eax	# thing_119(D)->sprite, _18
# r_things.c:508: 	I_Error ("R_ProjectSprite: invalid sprite number %i ",
	.loc 1 508 2
	movl	%eax, %esi	# _18,
	leaq	.LC7(%rip), %rax	#, tmp214
	movq	%rax, %rdi	# tmp214,
	movl	$0, %eax	#,
	call	I_Error@PLT	#
.L61:
# r_things.c:511:     sprdef = &sprites[thing->sprite];
	.loc 1 511 14
	movq	sprites(%rip), %rdx	# sprites, sprites.75_19
# r_things.c:511:     sprdef = &sprites[thing->sprite];
	.loc 1 511 28
	movq	-104(%rbp), %rax	# thing, tmp215
	movl	60(%rax), %eax	# thing_119(D)->sprite, _20
	movl	%eax, %eax	# _20, _21
# r_things.c:511:     sprdef = &sprites[thing->sprite];
	.loc 1 511 22
	salq	$4, %rax	#, _22
# r_things.c:511:     sprdef = &sprites[thing->sprite];
	.loc 1 511 12
	addq	%rdx, %rax	# sprites.75_19, tmp216
	movq	%rax, -24(%rbp)	# tmp216, sprdef
# r_things.c:513:     if ( (thing->frame&FF_FRAMEMASK) >= sprdef->numframes )
	.loc 1 513 16
	movq	-104(%rbp), %rax	# thing, tmp217
	movl	64(%rax), %eax	# thing_119(D)->frame, _23
# r_things.c:513:     if ( (thing->frame&FF_FRAMEMASK) >= sprdef->numframes )
	.loc 1 513 23
	andl	$32767, %eax	#, _23
	movl	%eax, %edx	# _23, _24
# r_things.c:513:     if ( (thing->frame&FF_FRAMEMASK) >= sprdef->numframes )
	.loc 1 513 47
	movq	-24(%rbp), %rax	# sprdef, tmp218
	movl	(%rax), %eax	# sprdef_135->numframes, _25
# r_things.c:513:     if ( (thing->frame&FF_FRAMEMASK) >= sprdef->numframes )
	.loc 1 513 8
	cmpl	%eax, %edx	# _25, _24
	jl	.L62	#,
# r_things.c:514: 	I_Error ("R_ProjectSprite: invalid sprite frame %i : %i ",
	.loc 1 514 2
	movq	-104(%rbp), %rax	# thing, tmp219
	movl	64(%rax), %edx	# thing_119(D)->frame, _26
# r_things.c:515: 		 thing->sprite, thing->frame);
	.loc 1 515 9
	movq	-104(%rbp), %rax	# thing, tmp220
	movl	60(%rax), %eax	# thing_119(D)->sprite, _27
# r_things.c:514: 	I_Error ("R_ProjectSprite: invalid sprite frame %i : %i ",
	.loc 1 514 2
	movl	%eax, %esi	# _27,
	leaq	.LC8(%rip), %rax	#, tmp221
	movq	%rax, %rdi	# tmp221,
	movl	$0, %eax	#,
	call	I_Error@PLT	#
.L62:
# r_things.c:517:     sprframe = &sprdef->spriteframes[ thing->frame & FF_FRAMEMASK];
	.loc 1 517 23
	movq	-24(%rbp), %rax	# sprdef, tmp222
	movq	8(%rax), %rcx	# sprdef_135->spriteframes, _28
# r_things.c:517:     sprframe = &sprdef->spriteframes[ thing->frame & FF_FRAMEMASK];
	.loc 1 517 44
	movq	-104(%rbp), %rax	# thing, tmp223
	movl	64(%rax), %eax	# thing_119(D)->frame, _29
# r_things.c:517:     sprframe = &sprdef->spriteframes[ thing->frame & FF_FRAMEMASK];
	.loc 1 517 52
	cltq
	andl	$32767, %eax	#, _30
	movq	%rax, %rdx	# _30, _31
# r_things.c:517:     sprframe = &sprdef->spriteframes[ thing->frame & FF_FRAMEMASK];
	.loc 1 517 37
	movq	%rdx, %rax	# _31, tmp224
	salq	$3, %rax	#, tmp225
	subq	%rdx, %rax	# _31, tmp224
	salq	$2, %rax	#, tmp226
# r_things.c:517:     sprframe = &sprdef->spriteframes[ thing->frame & FF_FRAMEMASK];
	.loc 1 517 14
	addq	%rcx, %rax	# _28, tmp227
	movq	%rax, -16(%rbp)	# tmp227, sprframe
# r_things.c:519:     if (sprframe->rotate)
	.loc 1 519 17
	movq	-16(%rbp), %rax	# sprframe, tmp228
	movl	(%rax), %eax	# sprframe_137->rotate, _33
# r_things.c:519:     if (sprframe->rotate)
	.loc 1 519 8
	testl	%eax, %eax	# _33
	je	.L63	#,
# r_things.c:522: 	ang = R_PointToAngle (thing->x, thing->y);
	.loc 1 522 8
	movq	-104(%rbp), %rax	# thing, tmp229
	movl	28(%rax), %edx	# thing_119(D)->y, _34
	movq	-104(%rbp), %rax	# thing, tmp230
	movl	24(%rax), %eax	# thing_119(D)->x, _35
	movl	%edx, %esi	# _34,
	movl	%eax, %edi	# _35,
	call	R_PointToAngle@PLT	#
	movl	%eax, -44(%rbp)	# tmp231, ang
# r_things.c:523: 	rot = (ang-thing->angle+(unsigned)(ANG45/2)*9)>>29;
	.loc 1 523 18
	movq	-104(%rbp), %rax	# thing, tmp232
	movl	56(%rax), %eax	# thing_119(D)->angle, _36
# r_things.c:523: 	rot = (ang-thing->angle+(unsigned)(ANG45/2)*9)>>29;
	.loc 1 523 12
	movl	-44(%rbp), %edx	# ang, tmp233
	subl	%eax, %edx	# _36, _37
# r_things.c:523: 	rot = (ang-thing->angle+(unsigned)(ANG45/2)*9)>>29;
	.loc 1 523 25
	leal	-1879048192(%rdx), %eax	#, _38
# r_things.c:523: 	rot = (ang-thing->angle+(unsigned)(ANG45/2)*9)>>29;
	.loc 1 523 6
	shrl	$29, %eax	#, tmp234
	movl	%eax, -40(%rbp)	# tmp234, rot
# r_things.c:524: 	lump = sprframe->lump[rot];
	.loc 1 524 23
	movq	-16(%rbp), %rax	# sprframe, tmp235
	movl	-40(%rbp), %edx	# rot, tmp236
	movzwl	4(%rax,%rdx,2), %eax	# sprframe_137->lump[rot_142], _39
# r_things.c:524: 	lump = sprframe->lump[rot];
	.loc 1 524 7
	cwtl
	movl	%eax, -84(%rbp)	# tmp237, lump
# r_things.c:525: 	flip = (boolean)sprframe->flip[rot];
	.loc 1 525 32
	movq	-16(%rbp), %rdx	# sprframe, tmp238
	movl	-40(%rbp), %eax	# rot, tmp239
	movzbl	20(%rdx,%rax), %eax	# sprframe_137->flip[rot_142], _40
# r_things.c:525: 	flip = (boolean)sprframe->flip[rot];
	.loc 1 525 7
	movzbl	%al, %eax	# _40, tmp240
	movl	%eax, -80(%rbp)	# tmp240, flip
	jmp	.L64	#
.L63:
# r_things.c:530: 	lump = sprframe->lump[0];
	.loc 1 530 23
	movq	-16(%rbp), %rax	# sprframe, tmp241
	movzwl	4(%rax), %eax	# sprframe_137->lump[0], _41
# r_things.c:530: 	lump = sprframe->lump[0];
	.loc 1 530 7
	cwtl
	movl	%eax, -84(%rbp)	# tmp242, lump
# r_things.c:531: 	flip = (boolean)sprframe->flip[0];
	.loc 1 531 32
	movq	-16(%rbp), %rax	# sprframe, tmp243
	movzbl	20(%rax), %eax	# sprframe_137->flip[0], _42
# r_things.c:531: 	flip = (boolean)sprframe->flip[0];
	.loc 1 531 7
	movzbl	%al, %eax	# _42, tmp244
	movl	%eax, -80(%rbp)	# tmp244, flip
.L64:
# r_things.c:535:     tx -= spriteoffset[lump];	
	.loc 1 535 23
	movq	spriteoffset(%rip), %rax	# spriteoffset, spriteoffset.76_43
	movl	-84(%rbp), %edx	# lump, tmp245
	movslq	%edx, %rdx	# tmp245, _44
	salq	$2, %rdx	#, _45
	addq	%rdx, %rax	# _45, _46
	movl	(%rax), %eax	# *_46, _47
# r_things.c:535:     tx -= spriteoffset[lump];	
	.loc 1 535 8
	subl	%eax, -48(%rbp)	# _47, tx
# r_things.c:536:     x1 = (centerxfrac + FixedMul (tx,xscale) ) >>FRACBITS;
	.loc 1 536 25
	movl	-52(%rbp), %edx	# xscale, tmp246
	movl	-48(%rbp), %eax	# tx, tmp247
	movl	%edx, %esi	# tmp246,
	movl	%eax, %edi	# tmp247,
	call	FixedMul@PLT	#
# r_things.c:536:     x1 = (centerxfrac + FixedMul (tx,xscale) ) >>FRACBITS;
	.loc 1 536 23 discriminator 1
	movl	centerxfrac(%rip), %edx	# centerxfrac, centerxfrac.77_49
	addl	%edx, %eax	# centerxfrac.77_49, _50
# r_things.c:536:     x1 = (centerxfrac + FixedMul (tx,xscale) ) >>FRACBITS;
	.loc 1 536 8 discriminator 1
	sarl	$16, %eax	#, tmp248
	movl	%eax, -36(%rbp)	# tmp248, x1
# r_things.c:539:     if (x1 > viewwidth)
	.loc 1 539 12
	movl	viewwidth(%rip), %eax	# viewwidth, viewwidth.78_51
# r_things.c:539:     if (x1 > viewwidth)
	.loc 1 539 8
	cmpl	%eax, -36(%rbp)	# viewwidth.78_51, x1
	jg	.L78	#,
# r_things.c:542:     tx +=  spritewidth[lump];
	.loc 1 542 23
	movq	spritewidth(%rip), %rax	# spritewidth, spritewidth.79_52
	movl	-84(%rbp), %edx	# lump, tmp249
	movslq	%edx, %rdx	# tmp249, _53
	salq	$2, %rdx	#, _54
	addq	%rdx, %rax	# _54, _55
	movl	(%rax), %eax	# *_55, _56
# r_things.c:542:     tx +=  spritewidth[lump];
	.loc 1 542 8
	addl	%eax, -48(%rbp)	# _56, tx
# r_things.c:543:     x2 = ((centerxfrac + FixedMul (tx,xscale) ) >>FRACBITS) - 1;
	.loc 1 543 26
	movl	-52(%rbp), %edx	# xscale, tmp250
	movl	-48(%rbp), %eax	# tx, tmp251
	movl	%edx, %esi	# tmp250,
	movl	%eax, %edi	# tmp251,
	call	FixedMul@PLT	#
# r_things.c:543:     x2 = ((centerxfrac + FixedMul (tx,xscale) ) >>FRACBITS) - 1;
	.loc 1 543 24 discriminator 1
	movl	centerxfrac(%rip), %edx	# centerxfrac, centerxfrac.80_58
	addl	%edx, %eax	# centerxfrac.80_58, _59
# r_things.c:543:     x2 = ((centerxfrac + FixedMul (tx,xscale) ) >>FRACBITS) - 1;
	.loc 1 543 49 discriminator 1
	sarl	$16, %eax	#, _60
# r_things.c:543:     x2 = ((centerxfrac + FixedMul (tx,xscale) ) >>FRACBITS) - 1;
	.loc 1 543 8 discriminator 1
	subl	$1, %eax	#, tmp252
	movl	%eax, -32(%rbp)	# tmp252, x2
# r_things.c:546:     if (x2 < 0)
	.loc 1 546 8
	cmpl	$0, -32(%rbp)	#, x2
	js	.L79	#,
# r_things.c:550:     vis = R_NewVisSprite ();
	.loc 1 550 11
	call	R_NewVisSprite	#
	movq	%rax, -8(%rbp)	# tmp253, vis
# r_things.c:551:     vis->mobjflags = thing->flags;
	.loc 1 551 27
	movq	-104(%rbp), %rax	# thing, tmp254
	movl	160(%rax), %edx	# thing_119(D)->flags, _61
# r_things.c:551:     vis->mobjflags = thing->flags;
	.loc 1 551 20
	movq	-8(%rbp), %rax	# vis, tmp255
	movl	%edx, 72(%rax)	# _61, vis_152->mobjflags
# r_things.c:552:     vis->scale = xscale<<detailshift;
	.loc 1 552 24
	movl	detailshift(%rip), %eax	# detailshift, detailshift.81_62
	movl	-52(%rbp), %edx	# xscale, tmp256
	movl	%eax, %ecx	# detailshift.81_62, tmp307
	sall	%cl, %edx	# tmp307, _63
# r_things.c:552:     vis->scale = xscale<<detailshift;
	.loc 1 552 16
	movq	-8(%rbp), %rax	# vis, tmp257
	movl	%edx, 44(%rax)	# _63, vis_152->scale
# r_things.c:553:     vis->gx = thing->x;
	.loc 1 553 20
	movq	-104(%rbp), %rax	# thing, tmp258
	movl	24(%rax), %edx	# thing_119(D)->x, _64
# r_things.c:553:     vis->gx = thing->x;
	.loc 1 553 13
	movq	-8(%rbp), %rax	# vis, tmp259
	movl	%edx, 24(%rax)	# _64, vis_152->gx
# r_things.c:554:     vis->gy = thing->y;
	.loc 1 554 20
	movq	-104(%rbp), %rax	# thing, tmp260
	movl	28(%rax), %edx	# thing_119(D)->y, _65
# r_things.c:554:     vis->gy = thing->y;
	.loc 1 554 13
	movq	-8(%rbp), %rax	# vis, tmp261
	movl	%edx, 28(%rax)	# _65, vis_152->gy
# r_things.c:555:     vis->gz = thing->z;
	.loc 1 555 20
	movq	-104(%rbp), %rax	# thing, tmp262
	movl	32(%rax), %edx	# thing_119(D)->z, _66
# r_things.c:555:     vis->gz = thing->z;
	.loc 1 555 13
	movq	-8(%rbp), %rax	# vis, tmp263
	movl	%edx, 32(%rax)	# _66, vis_152->gz
# r_things.c:556:     vis->gzt = thing->z + spritetopoffset[lump];
	.loc 1 556 21
	movq	-104(%rbp), %rax	# thing, tmp264
	movl	32(%rax), %edx	# thing_119(D)->z, _67
# r_things.c:556:     vis->gzt = thing->z + spritetopoffset[lump];
	.loc 1 556 42
	movq	spritetopoffset(%rip), %rax	# spritetopoffset, spritetopoffset.82_68
	movl	-84(%rbp), %ecx	# lump, tmp265
	movslq	%ecx, %rcx	# tmp265, _69
	salq	$2, %rcx	#, _70
	addq	%rcx, %rax	# _70, _71
	movl	(%rax), %eax	# *_71, _72
# r_things.c:556:     vis->gzt = thing->z + spritetopoffset[lump];
	.loc 1 556 25
	addl	%eax, %edx	# _72, _73
# r_things.c:556:     vis->gzt = thing->z + spritetopoffset[lump];
	.loc 1 556 14
	movq	-8(%rbp), %rax	# vis, tmp266
	movl	%edx, 36(%rax)	# _73, vis_152->gzt
# r_things.c:557:     vis->texturemid = vis->gzt - viewz;
	.loc 1 557 26
	movq	-8(%rbp), %rax	# vis, tmp267
	movl	36(%rax), %edx	# vis_152->gzt, _74
# r_things.c:557:     vis->texturemid = vis->gzt - viewz;
	.loc 1 557 32
	movl	viewz(%rip), %eax	# viewz, viewz.83_75
	subl	%eax, %edx	# viewz.83_75, _76
# r_things.c:557:     vis->texturemid = vis->gzt - viewz;
	.loc 1 557 21
	movq	-8(%rbp), %rax	# vis, tmp268
	movl	%edx, 52(%rax)	# _76, vis_152->texturemid
# r_things.c:558:     vis->x1 = x1 < 0 ? 0 : x1;
	.loc 1 558 26
	movl	-36(%rbp), %eax	# x1, tmp269
	movl	$0, %edx	#, tmp300
	testl	%eax, %eax	# tmp269
	cmovns	%eax, %edx	# tmp269,, _77
# r_things.c:558:     vis->x1 = x1 < 0 ? 0 : x1;
	.loc 1 558 13
	movq	-8(%rbp), %rax	# vis, tmp270
	movl	%edx, 16(%rax)	# _77, vis_152->x1
# r_things.c:559:     vis->x2 = x2 >= viewwidth ? viewwidth-1 : x2;	
	.loc 1 559 18
	movl	viewwidth(%rip), %eax	# viewwidth, viewwidth.85_78
# r_things.c:559:     vis->x2 = x2 >= viewwidth ? viewwidth-1 : x2;	
	.loc 1 559 45
	cmpl	%eax, -32(%rbp)	# viewwidth.85_78, x2
	jl	.L67	#,
# r_things.c:559:     vis->x2 = x2 >= viewwidth ? viewwidth-1 : x2;	
	.loc 1 559 42 discriminator 1
	movl	viewwidth(%rip), %eax	# viewwidth, viewwidth.86_79
# r_things.c:559:     vis->x2 = x2 >= viewwidth ? viewwidth-1 : x2;	
	.loc 1 559 45 discriminator 1
	subl	$1, %eax	#, iftmp.84_111
	jmp	.L68	#
.L67:
# r_things.c:559:     vis->x2 = x2 >= viewwidth ? viewwidth-1 : x2;	
	.loc 1 559 45 is_stmt 0 discriminator 2
	movl	-32(%rbp), %eax	# x2, iftmp.84_111
.L68:
# r_things.c:559:     vis->x2 = x2 >= viewwidth ? viewwidth-1 : x2;	
	.loc 1 559 13 is_stmt 1 discriminator 4
	movq	-8(%rbp), %rdx	# vis, tmp271
	movl	%eax, 20(%rdx)	# iftmp.84_111, vis_152->x2
# r_things.c:560:     iscale = FixedDiv (FRACUNIT, xscale);
	.loc 1 560 14
	movl	-52(%rbp), %eax	# xscale, tmp272
	movl	%eax, %esi	# tmp272,
	movl	$65536, %edi	#,
	call	FixedDiv@PLT	#
	movl	%eax, -28(%rbp)	# tmp273, iscale
# r_things.c:562:     if (flip)
	.loc 1 562 8
	cmpl	$0, -80(%rbp)	#, flip
	je	.L69	#,
# r_things.c:564: 	vis->startfrac = spritewidth[lump]-1;
	.loc 1 564 30
	movq	spritewidth(%rip), %rax	# spritewidth, spritewidth.87_80
	movl	-84(%rbp), %edx	# lump, tmp274
	movslq	%edx, %rdx	# tmp274, _81
	salq	$2, %rdx	#, _82
	addq	%rdx, %rax	# _82, _83
	movl	(%rax), %eax	# *_83, _84
# r_things.c:564: 	vis->startfrac = spritewidth[lump]-1;
	.loc 1 564 36
	leal	-1(%rax), %edx	#, _85
# r_things.c:564: 	vis->startfrac = spritewidth[lump]-1;
	.loc 1 564 17
	movq	-8(%rbp), %rax	# vis, tmp275
	movl	%edx, 40(%rax)	# _85, vis_152->startfrac
# r_things.c:565: 	vis->xiscale = -iscale;
	.loc 1 565 17
	movl	-28(%rbp), %eax	# iscale, tmp276
	negl	%eax	# tmp276
	movl	%eax, %edx	# tmp276, _86
# r_things.c:565: 	vis->xiscale = -iscale;
	.loc 1 565 15
	movq	-8(%rbp), %rax	# vis, tmp277
	movl	%edx, 48(%rax)	# _86, vis_152->xiscale
	jmp	.L70	#
.L69:
# r_things.c:569: 	vis->startfrac = 0;
	.loc 1 569 17
	movq	-8(%rbp), %rax	# vis, tmp278
	movl	$0, 40(%rax)	#, vis_152->startfrac
# r_things.c:570: 	vis->xiscale = iscale;
	.loc 1 570 15
	movq	-8(%rbp), %rax	# vis, tmp279
	movl	-28(%rbp), %edx	# iscale, tmp280
	movl	%edx, 48(%rax)	# tmp280, vis_152->xiscale
.L70:
# r_things.c:573:     if (vis->x1 > x1)
	.loc 1 573 12
	movq	-8(%rbp), %rax	# vis, tmp281
	movl	16(%rax), %eax	# vis_152->x1, _87
# r_things.c:573:     if (vis->x1 > x1)
	.loc 1 573 8
	cmpl	%eax, -36(%rbp)	# _87, x1
	jge	.L71	#,
# r_things.c:574: 	vis->startfrac += vis->xiscale*(vis->x1-x1);
	.loc 1 574 5
	movq	-8(%rbp), %rax	# vis, tmp282
	movl	40(%rax), %ecx	# vis_152->startfrac, _88
# r_things.c:574: 	vis->startfrac += vis->xiscale*(vis->x1-x1);
	.loc 1 574 23
	movq	-8(%rbp), %rax	# vis, tmp283
	movl	48(%rax), %edx	# vis_152->xiscale, _89
# r_things.c:574: 	vis->startfrac += vis->xiscale*(vis->x1-x1);
	.loc 1 574 37
	movq	-8(%rbp), %rax	# vis, tmp284
	movl	16(%rax), %eax	# vis_152->x1, _90
# r_things.c:574: 	vis->startfrac += vis->xiscale*(vis->x1-x1);
	.loc 1 574 41
	subl	-36(%rbp), %eax	# x1, _91
# r_things.c:574: 	vis->startfrac += vis->xiscale*(vis->x1-x1);
	.loc 1 574 32
	imull	%edx, %eax	# _89, _92
# r_things.c:574: 	vis->startfrac += vis->xiscale*(vis->x1-x1);
	.loc 1 574 17
	leal	(%rcx,%rax), %edx	#, _93
	movq	-8(%rbp), %rax	# vis, tmp285
	movl	%edx, 40(%rax)	# _93, vis_152->startfrac
.L71:
# r_things.c:575:     vis->patch = lump;
	.loc 1 575 16
	movq	-8(%rbp), %rax	# vis, tmp286
	movl	-84(%rbp), %edx	# lump, tmp287
	movl	%edx, 56(%rax)	# tmp287, vis_152->patch
# r_things.c:578:     if (thing->flags & MF_SHADOW)
	.loc 1 578 14
	movq	-104(%rbp), %rax	# thing, tmp288
	movl	160(%rax), %eax	# thing_119(D)->flags, _94
# r_things.c:578:     if (thing->flags & MF_SHADOW)
	.loc 1 578 22
	andl	$262144, %eax	#, _95
# r_things.c:578:     if (thing->flags & MF_SHADOW)
	.loc 1 578 8
	testl	%eax, %eax	# _95
	je	.L72	#,
# r_things.c:581: 	vis->colormap = NULL;
	.loc 1 581 16
	movq	-8(%rbp), %rax	# vis, tmp289
	movq	$0, 64(%rax)	#, vis_152->colormap
	jmp	.L57	#
.L72:
# r_things.c:583:     else if (fixedcolormap)
	.loc 1 583 14
	movq	fixedcolormap(%rip), %rax	# fixedcolormap, fixedcolormap.88_96
# r_things.c:583:     else if (fixedcolormap)
	.loc 1 583 13
	testq	%rax, %rax	# fixedcolormap.88_96
	je	.L73	#,
# r_things.c:586: 	vis->colormap = fixedcolormap;
	.loc 1 586 16
	movq	fixedcolormap(%rip), %rdx	# fixedcolormap, fixedcolormap.89_97
	movq	-8(%rbp), %rax	# vis, tmp290
	movq	%rdx, 64(%rax)	# fixedcolormap.89_97, vis_152->colormap
	jmp	.L57	#
.L73:
# r_things.c:588:     else if (thing->frame & FF_FULLBRIGHT)
	.loc 1 588 19
	movq	-104(%rbp), %rax	# thing, tmp291
	movl	64(%rax), %eax	# thing_119(D)->frame, _98
# r_things.c:588:     else if (thing->frame & FF_FULLBRIGHT)
	.loc 1 588 27
	andl	$32768, %eax	#, _99
# r_things.c:588:     else if (thing->frame & FF_FULLBRIGHT)
	.loc 1 588 13
	testl	%eax, %eax	# _99
	je	.L74	#,
# r_things.c:591: 	vis->colormap = colormaps;
	.loc 1 591 16
	movq	colormaps(%rip), %rdx	# colormaps, colormaps.90_100
	movq	-8(%rbp), %rax	# vis, tmp292
	movq	%rdx, 64(%rax)	# colormaps.90_100, vis_152->colormap
	jmp	.L57	#
.L74:
# r_things.c:597: 	index = xscale>>(LIGHTSCALESHIFT-detailshift);
	.loc 1 597 34
	movl	detailshift(%rip), %eax	# detailshift, detailshift.91_101
	movl	$12, %edx	#, tmp293
	subl	%eax, %edx	# detailshift.91_101, _102
# r_things.c:597: 	index = xscale>>(LIGHTSCALESHIFT-detailshift);
	.loc 1 597 8
	movl	-52(%rbp), %eax	# xscale, tmp297
	movl	%edx, %ecx	# _102, tmp309
	sarl	%cl, %eax	# tmp309, tmp296
	movl	%eax, -76(%rbp)	# tmp296, index
# r_things.c:599: 	if (index >= MAXLIGHTSCALE) 
	.loc 1 599 5
	cmpl	$47, -76(%rbp)	#, index
	jle	.L75	#,
# r_things.c:600: 	    index = MAXLIGHTSCALE-1;
	.loc 1 600 12
	movl	$47, -76(%rbp)	#, index
.L75:
# r_things.c:602: 	vis->colormap = spritelights[index];
	.loc 1 602 30
	movq	spritelights(%rip), %rax	# spritelights, spritelights.92_103
	movl	-76(%rbp), %edx	# index, tmp298
	movslq	%edx, %rdx	# tmp298, _104
	salq	$3, %rdx	#, _105
	addq	%rdx, %rax	# _105, _106
	movq	(%rax), %rdx	# *_106, _107
# r_things.c:602: 	vis->colormap = spritelights[index];
	.loc 1 602 16
	movq	-8(%rbp), %rax	# vis, tmp299
	movq	%rdx, 64(%rax)	# _107, vis_152->colormap
	jmp	.L57	#
.L76:
# r_things.c:493: 	return;
	.loc 1 493 2
	nop	
	jmp	.L57	#
.L77:
# r_things.c:503: 	return;
	.loc 1 503 2
	nop	
	jmp	.L57	#
.L78:
# r_things.c:540: 	return;
	.loc 1 540 2
	nop	
	jmp	.L57	#
.L79:
# r_things.c:547: 	return;
	.loc 1 547 2
	nop	
.L57:
# r_things.c:604: }
	.loc 1 604 1
	leave	
	.cfi_def_cfa 7, 8
	ret	
	.cfi_endproc
.LFE13:
	.size	R_ProjectSprite, .-R_ProjectSprite
	.globl	R_AddSprites
	.type	R_AddSprites, @function
R_AddSprites:
.LFB14:
	.loc 1 614 1
	.cfi_startproc
	endbr64	
	pushq	%rbp	#
	.cfi_def_cfa_offset 16
	.cfi_offset 6, -16
	movq	%rsp, %rbp	#,
	.cfi_def_cfa_register 6
	subq	$32, %rsp	#,
	movq	%rdi, -24(%rbp)	# sec, sec
# r_things.c:622:     if (sec->validcount == validcount)
	.loc 1 622 12
	movq	-24(%rbp), %rax	# sec, tmp90
	movl	88(%rax), %edx	# sec_14(D)->validcount, _1
# r_things.c:622:     if (sec->validcount == validcount)
	.loc 1 622 25
	movl	validcount(%rip), %eax	# validcount, validcount.93_2
# r_things.c:622:     if (sec->validcount == validcount)
	.loc 1 622 8
	cmpl	%eax, %edx	# validcount.93_2, _1
	je	.L88	#,
# r_things.c:626:     sec->validcount = validcount;
	.loc 1 626 21
	movl	validcount(%rip), %edx	# validcount, validcount.94_3
	movq	-24(%rbp), %rax	# sec, tmp91
	movl	%edx, 88(%rax)	# validcount.94_3, sec_14(D)->validcount
# r_things.c:628:     lightnum = (sec->lightlevel >> LIGHTSEGSHIFT)+extralight;
	.loc 1 628 20
	movq	-24(%rbp), %rax	# sec, tmp92
	movzwl	12(%rax), %eax	# sec_14(D)->lightlevel, _4
# r_things.c:628:     lightnum = (sec->lightlevel >> LIGHTSEGSHIFT)+extralight;
	.loc 1 628 33
	sarw	$4, %ax	#, _5
	movswl	%ax, %edx	# _5, _6
# r_things.c:628:     lightnum = (sec->lightlevel >> LIGHTSEGSHIFT)+extralight;
	.loc 1 628 50
	movl	extralight(%rip), %eax	# extralight, extralight.95_7
# r_things.c:628:     lightnum = (sec->lightlevel >> LIGHTSEGSHIFT)+extralight;
	.loc 1 628 14
	addl	%edx, %eax	# _6, tmp93
	movl	%eax, -12(%rbp)	# tmp93, lightnum
# r_things.c:630:     if (lightnum < 0)		
	.loc 1 630 8
	cmpl	$0, -12(%rbp)	#, lightnum
	jns	.L83	#,
# r_things.c:631: 	spritelights = scalelight[0];
	.loc 1 631 15
	leaq	scalelight(%rip), %rax	#, tmp94
	movq	%rax, spritelights(%rip)	# tmp94, spritelights
	jmp	.L84	#
.L83:
# r_things.c:632:     else if (lightnum >= LIGHTLEVELS)
	.loc 1 632 13
	cmpl	$15, -12(%rbp)	#, lightnum
	jle	.L85	#,
# r_things.c:633: 	spritelights = scalelight[LIGHTLEVELS-1];
	.loc 1 633 15
	leaq	5760+scalelight(%rip), %rax	#, tmp95
	movq	%rax, spritelights(%rip)	# tmp95, spritelights
	jmp	.L84	#
.L85:
# r_things.c:635: 	spritelights = scalelight[lightnum];
	.loc 1 635 17
	movl	-12(%rbp), %eax	# lightnum, tmp97
	movslq	%eax, %rdx	# tmp97, tmp96
	movq	%rdx, %rax	# tmp96, tmp98
	addq	%rax, %rax	# tmp98
	addq	%rdx, %rax	# tmp96, tmp98
	salq	$7, %rax	#, tmp99
	leaq	scalelight(%rip), %rdx	#, tmp100
	addq	%rdx, %rax	# tmp100, _8
# r_things.c:635: 	spritelights = scalelight[lightnum];
	.loc 1 635 15
	movq	%rax, spritelights(%rip)	# _8, spritelights
.L84:
# r_things.c:638:     for (thing = sec->thinglist ; thing ; thing = thing->snext)
	.loc 1 638 16
	movq	-24(%rbp), %rax	# sec, tmp101
	movq	96(%rax), %rax	# sec_14(D)->thinglist, tmp102
	movq	%rax, -8(%rbp)	# tmp102, thing
# r_things.c:638:     for (thing = sec->thinglist ; thing ; thing = thing->snext)
	.loc 1 638 5
	jmp	.L86	#
.L87:
# r_things.c:639: 	R_ProjectSprite (thing);
	.loc 1 639 2
	movq	-8(%rbp), %rax	# thing, tmp103
	movq	%rax, %rdi	# tmp103,
	call	R_ProjectSprite	#
# r_things.c:638:     for (thing = sec->thinglist ; thing ; thing = thing->snext)
	.loc 1 638 49 discriminator 3
	movq	-8(%rbp), %rax	# thing, tmp104
	movq	40(%rax), %rax	# thing_9->snext, tmp105
	movq	%rax, -8(%rbp)	# tmp105, thing
.L86:
# r_things.c:638:     for (thing = sec->thinglist ; thing ; thing = thing->snext)
	.loc 1 638 35 discriminator 1
	cmpq	$0, -8(%rbp)	#, thing
	jne	.L87	#,
	jmp	.L80	#
.L88:
# r_things.c:623: 	return;		
	.loc 1 623 2
	nop	
.L80:
# r_things.c:640: }
	.loc 1 640 1
	leave	
	.cfi_def_cfa 7, 8
	ret	
	.cfi_endproc
.LFE14:
	.size	R_AddSprites, .-R_AddSprites
	.globl	R_DrawPSprite
	.type	R_DrawPSprite, @function
R_DrawPSprite:
.LFB15:
	.loc 1 647 1
	.cfi_startproc
	endbr64	
	pushq	%rbp	#
	.cfi_def_cfa_offset 16
	.cfi_offset 6, -16
	movq	%rsp, %rbp	#,
	.cfi_def_cfa_register 6
	subq	$160, %rsp	#,
	movq	%rdi, -152(%rbp)	# psp, psp
# r_things.c:647: {
	.loc 1 647 1
	movq	%fs:40, %rax	# MEM[(<address-space-1> long unsigned int *)40B], tmp236
	movq	%rax, -8(%rbp)	# tmp236, D.7706
	xorl	%eax, %eax	# tmp236
# r_things.c:660:     if ( (unsigned)psp->state->sprite >= numsprites)
	.loc 1 660 23
	movq	-152(%rbp), %rax	# psp, tmp177
	movq	(%rax), %rax	# psp_104(D)->state, _1
# r_things.c:660:     if ( (unsigned)psp->state->sprite >= numsprites)
	.loc 1 660 30
	movl	(%rax), %eax	# _1->sprite, _2
# r_things.c:660:     if ( (unsigned)psp->state->sprite >= numsprites)
	.loc 1 660 39
	movl	numsprites(%rip), %edx	# numsprites, numsprites.96_3
# r_things.c:660:     if ( (unsigned)psp->state->sprite >= numsprites)
	.loc 1 660 8
	cmpl	%edx, %eax	# numsprites.97_4, _2
	jb	.L90	#,
# r_things.c:662: 		 psp->state->sprite);
	.loc 1 662 7
	movq	-152(%rbp), %rax	# psp, tmp178
	movq	(%rax), %rax	# psp_104(D)->state, _5
# r_things.c:662: 		 psp->state->sprite);
	.loc 1 662 14
	movl	(%rax), %eax	# _5->sprite, _6
# r_things.c:661: 	I_Error ("R_ProjectSprite: invalid sprite number %i ",
	.loc 1 661 2
	movl	%eax, %esi	# _6,
	leaq	.LC7(%rip), %rax	#, tmp179
	movq	%rax, %rdi	# tmp179,
	movl	$0, %eax	#,
	call	I_Error@PLT	#
.L90:
# r_things.c:664:     sprdef = &sprites[psp->state->sprite];
	.loc 1 664 14
	movq	sprites(%rip), %rdx	# sprites, sprites.98_7
# r_things.c:664:     sprdef = &sprites[psp->state->sprite];
	.loc 1 664 26
	movq	-152(%rbp), %rax	# psp, tmp180
	movq	(%rax), %rax	# psp_104(D)->state, _8
# r_things.c:664:     sprdef = &sprites[psp->state->sprite];
	.loc 1 664 33
	movl	(%rax), %eax	# _8->sprite, _9
	movl	%eax, %eax	# _9, _10
# r_things.c:664:     sprdef = &sprites[psp->state->sprite];
	.loc 1 664 22
	salq	$4, %rax	#, _11
# r_things.c:664:     sprdef = &sprites[psp->state->sprite];
	.loc 1 664 12
	addq	%rdx, %rax	# sprites.98_7, tmp181
	movq	%rax, -120(%rbp)	# tmp181, sprdef
# r_things.c:666:     if ( (psp->state->frame & FF_FRAMEMASK)  >= sprdef->numframes)
	.loc 1 666 14
	movq	-152(%rbp), %rax	# psp, tmp182
	movq	(%rax), %rax	# psp_104(D)->state, _12
# r_things.c:666:     if ( (psp->state->frame & FF_FRAMEMASK)  >= sprdef->numframes)
	.loc 1 666 21
	movq	8(%rax), %rax	# _12->frame, _13
# r_things.c:666:     if ( (psp->state->frame & FF_FRAMEMASK)  >= sprdef->numframes)
	.loc 1 666 29
	andl	$32767, %eax	#, _13
	movq	%rax, %rdx	# _13, _14
# r_things.c:666:     if ( (psp->state->frame & FF_FRAMEMASK)  >= sprdef->numframes)
	.loc 1 666 55
	movq	-120(%rbp), %rax	# sprdef, tmp183
	movl	(%rax), %eax	# sprdef_106->numframes, _15
	cltq
# r_things.c:666:     if ( (psp->state->frame & FF_FRAMEMASK)  >= sprdef->numframes)
	.loc 1 666 8
	cmpq	%rax, %rdx	# _16, _14
	jl	.L91	#,
# r_things.c:668: 		 psp->state->sprite, psp->state->frame);
	.loc 1 668 27
	movq	-152(%rbp), %rax	# psp, tmp184
	movq	(%rax), %rax	# psp_104(D)->state, _17
# r_things.c:667: 	I_Error ("R_ProjectSprite: invalid sprite frame %i : %i ",
	.loc 1 667 2
	movq	8(%rax), %rdx	# _17->frame, _18
# r_things.c:668: 		 psp->state->sprite, psp->state->frame);
	.loc 1 668 7
	movq	-152(%rbp), %rax	# psp, tmp185
	movq	(%rax), %rax	# psp_104(D)->state, _19
# r_things.c:668: 		 psp->state->sprite, psp->state->frame);
	.loc 1 668 14
	movl	(%rax), %eax	# _19->sprite, _20
# r_things.c:667: 	I_Error ("R_ProjectSprite: invalid sprite frame %i : %i ",
	.loc 1 667 2
	movl	%eax, %esi	# _20,
	leaq	.LC8(%rip), %rax	#, tmp186
	movq	%rax, %rdi	# tmp186,
	movl	$0, %eax	#,
	call	I_Error@PLT	#
.L91:
# r_things.c:670:     sprframe = &sprdef->spriteframes[ psp->state->frame & FF_FRAMEMASK ];
	.loc 1 670 23
	movq	-120(%rbp), %rax	# sprdef, tmp187
	movq	8(%rax), %rcx	# sprdef_106->spriteframes, _21
# r_things.c:670:     sprframe = &sprdef->spriteframes[ psp->state->frame & FF_FRAMEMASK ];
	.loc 1 670 42
	movq	-152(%rbp), %rax	# psp, tmp188
	movq	(%rax), %rax	# psp_104(D)->state, _22
# r_things.c:670:     sprframe = &sprdef->spriteframes[ psp->state->frame & FF_FRAMEMASK ];
	.loc 1 670 49
	movq	8(%rax), %rax	# _22->frame, _23
# r_things.c:670:     sprframe = &sprdef->spriteframes[ psp->state->frame & FF_FRAMEMASK ];
	.loc 1 670 57
	andl	$32767, %eax	#, _24
	movq	%rax, %rdx	# _24, _25
# r_things.c:670:     sprframe = &sprdef->spriteframes[ psp->state->frame & FF_FRAMEMASK ];
	.loc 1 670 37
	movq	%rdx, %rax	# _25, tmp189
	salq	$3, %rax	#, tmp190
	subq	%rdx, %rax	# _25, tmp189
	salq	$2, %rax	#, tmp191
# r_things.c:670:     sprframe = &sprdef->spriteframes[ psp->state->frame & FF_FRAMEMASK ];
	.loc 1 670 14
	addq	%rcx, %rax	# _21, tmp192
	movq	%rax, -112(%rbp)	# tmp192, sprframe
# r_things.c:672:     lump = sprframe->lump[0];
	.loc 1 672 26
	movq	-112(%rbp), %rax	# sprframe, tmp193
	movzwl	4(%rax), %eax	# sprframe_108->lump[0], _27
# r_things.c:672:     lump = sprframe->lump[0];
	.loc 1 672 10
	cwtl
	movl	%eax, -140(%rbp)	# tmp194, lump
# r_things.c:673:     flip = (boolean)sprframe->flip[0];
	.loc 1 673 35
	movq	-112(%rbp), %rax	# sprframe, tmp195
	movzbl	20(%rax), %eax	# sprframe_108->flip[0], _28
# r_things.c:673:     flip = (boolean)sprframe->flip[0];
	.loc 1 673 10
	movzbl	%al, %eax	# _28, tmp196
	movl	%eax, -136(%rbp)	# tmp196, flip
# r_things.c:676:     tx = psp->sx-160*FRACUNIT;
	.loc 1 676 13
	movq	-152(%rbp), %rax	# psp, tmp197
	movl	12(%rax), %eax	# psp_104(D)->sx, _29
# r_things.c:676:     tx = psp->sx-160*FRACUNIT;
	.loc 1 676 8
	subl	$10485760, %eax	#, tmp198
	movl	%eax, -132(%rbp)	# tmp198, tx
# r_things.c:678:     tx -= spriteoffset[lump];	
	.loc 1 678 23
	movq	spriteoffset(%rip), %rax	# spriteoffset, spriteoffset.99_30
	movl	-140(%rbp), %edx	# lump, tmp199
	movslq	%edx, %rdx	# tmp199, _31
	salq	$2, %rdx	#, _32
	addq	%rdx, %rax	# _32, _33
	movl	(%rax), %eax	# *_33, _34
# r_things.c:678:     tx -= spriteoffset[lump];	
	.loc 1 678 8
	subl	%eax, -132(%rbp)	# _34, tx
# r_things.c:679:     x1 = (centerxfrac + FixedMul (tx,pspritescale) ) >>FRACBITS;
	.loc 1 679 25
	movl	pspritescale(%rip), %edx	# pspritescale, pspritescale.100_35
	movl	-132(%rbp), %eax	# tx, tmp200
	movl	%edx, %esi	# pspritescale.100_35,
	movl	%eax, %edi	# tmp200,
	call	FixedMul@PLT	#
# r_things.c:679:     x1 = (centerxfrac + FixedMul (tx,pspritescale) ) >>FRACBITS;
	.loc 1 679 23 discriminator 1
	movl	centerxfrac(%rip), %edx	# centerxfrac, centerxfrac.101_37
	addl	%edx, %eax	# centerxfrac.101_37, _38
# r_things.c:679:     x1 = (centerxfrac + FixedMul (tx,pspritescale) ) >>FRACBITS;
	.loc 1 679 8 discriminator 1
	sarl	$16, %eax	#, tmp201
	movl	%eax, -128(%rbp)	# tmp201, x1
# r_things.c:682:     if (x1 > viewwidth)
	.loc 1 682 12
	movl	viewwidth(%rip), %eax	# viewwidth, viewwidth.102_39
# r_things.c:682:     if (x1 > viewwidth)
	.loc 1 682 8
	cmpl	%eax, -128(%rbp)	# viewwidth.102_39, x1
	jg	.L107	#,
# r_things.c:685:     tx +=  spritewidth[lump];
	.loc 1 685 23
	movq	spritewidth(%rip), %rax	# spritewidth, spritewidth.103_40
	movl	-140(%rbp), %edx	# lump, tmp202
	movslq	%edx, %rdx	# tmp202, _41
	salq	$2, %rdx	#, _42
	addq	%rdx, %rax	# _42, _43
	movl	(%rax), %eax	# *_43, _44
# r_things.c:685:     tx +=  spritewidth[lump];
	.loc 1 685 8
	addl	%eax, -132(%rbp)	# _44, tx
# r_things.c:686:     x2 = ((centerxfrac + FixedMul (tx, pspritescale) ) >>FRACBITS) - 1;
	.loc 1 686 26
	movl	pspritescale(%rip), %edx	# pspritescale, pspritescale.104_45
	movl	-132(%rbp), %eax	# tx, tmp203
	movl	%edx, %esi	# pspritescale.104_45,
	movl	%eax, %edi	# tmp203,
	call	FixedMul@PLT	#
# r_things.c:686:     x2 = ((centerxfrac + FixedMul (tx, pspritescale) ) >>FRACBITS) - 1;
	.loc 1 686 24 discriminator 1
	movl	centerxfrac(%rip), %edx	# centerxfrac, centerxfrac.105_47
	addl	%edx, %eax	# centerxfrac.105_47, _48
# r_things.c:686:     x2 = ((centerxfrac + FixedMul (tx, pspritescale) ) >>FRACBITS) - 1;
	.loc 1 686 56 discriminator 1
	sarl	$16, %eax	#, _49
# r_things.c:686:     x2 = ((centerxfrac + FixedMul (tx, pspritescale) ) >>FRACBITS) - 1;
	.loc 1 686 8 discriminator 1
	subl	$1, %eax	#, tmp204
	movl	%eax, -124(%rbp)	# tmp204, x2
# r_things.c:689:     if (x2 < 0)
	.loc 1 689 8
	cmpl	$0, -124(%rbp)	#, x2
	js	.L108	#,
# r_things.c:693:     vis = &avis;
	.loc 1 693 9
	leaq	-96(%rbp), %rax	#, tmp205
	movq	%rax, -104(%rbp)	# tmp205, vis
# r_things.c:694:     vis->mobjflags = 0;
	.loc 1 694 20
	movq	-104(%rbp), %rax	# vis, tmp206
	movl	$0, 72(%rax)	#, vis_118->mobjflags
# r_things.c:695:     vis->texturemid = (BASEYCENTER<<FRACBITS)+FRACUNIT/2-(psp->sy-spritetopoffset[lump]);
	.loc 1 695 62
	movq	-152(%rbp), %rax	# psp, tmp207
	movl	16(%rax), %edx	# psp_104(D)->sy, _50
# r_things.c:695:     vis->texturemid = (BASEYCENTER<<FRACBITS)+FRACUNIT/2-(psp->sy-spritetopoffset[lump]);
	.loc 1 695 82
	movq	spritetopoffset(%rip), %rax	# spritetopoffset, spritetopoffset.106_51
	movl	-140(%rbp), %ecx	# lump, tmp208
	movslq	%ecx, %rcx	# tmp208, _52
	salq	$2, %rcx	#, _53
	addq	%rcx, %rax	# _53, _54
	movl	(%rax), %eax	# *_54, _55
# r_things.c:695:     vis->texturemid = (BASEYCENTER<<FRACBITS)+FRACUNIT/2-(psp->sy-spritetopoffset[lump]);
	.loc 1 695 66
	movl	%edx, %ecx	# _50, _50
	subl	%eax, %ecx	# _55, _50
# r_things.c:695:     vis->texturemid = (BASEYCENTER<<FRACBITS)+FRACUNIT/2-(psp->sy-spritetopoffset[lump]);
	.loc 1 695 57
	movl	$6586368, %eax	#, tmp209
	subl	%ecx, %eax	# _56, tmp209
	movl	%eax, %edx	# tmp209, _57
# r_things.c:695:     vis->texturemid = (BASEYCENTER<<FRACBITS)+FRACUNIT/2-(psp->sy-spritetopoffset[lump]);
	.loc 1 695 21
	movq	-104(%rbp), %rax	# vis, tmp210
	movl	%edx, 52(%rax)	# _57, vis_118->texturemid
# r_things.c:696:     vis->x1 = x1 < 0 ? 0 : x1;
	.loc 1 696 26
	movl	-128(%rbp), %eax	# x1, tmp211
	movl	$0, %edx	#, tmp235
	testl	%eax, %eax	# tmp211
	cmovns	%eax, %edx	# tmp211,, _58
# r_things.c:696:     vis->x1 = x1 < 0 ? 0 : x1;
	.loc 1 696 13
	movq	-104(%rbp), %rax	# vis, tmp212
	movl	%edx, 16(%rax)	# _58, vis_118->x1
# r_things.c:697:     vis->x2 = x2 >= viewwidth ? viewwidth-1 : x2;	
	.loc 1 697 18
	movl	viewwidth(%rip), %eax	# viewwidth, viewwidth.108_59
# r_things.c:697:     vis->x2 = x2 >= viewwidth ? viewwidth-1 : x2;	
	.loc 1 697 45
	cmpl	%eax, -124(%rbp)	# viewwidth.108_59, x2
	jl	.L95	#,
# r_things.c:697:     vis->x2 = x2 >= viewwidth ? viewwidth-1 : x2;	
	.loc 1 697 42 discriminator 1
	movl	viewwidth(%rip), %eax	# viewwidth, viewwidth.109_60
# r_things.c:697:     vis->x2 = x2 >= viewwidth ? viewwidth-1 : x2;	
	.loc 1 697 45 discriminator 1
	subl	$1, %eax	#, iftmp.107_95
	jmp	.L96	#
.L95:
# r_things.c:697:     vis->x2 = x2 >= viewwidth ? viewwidth-1 : x2;	
	.loc 1 697 45 is_stmt 0 discriminator 2
	movl	-124(%rbp), %eax	# x2, iftmp.107_95
.L96:
# r_things.c:697:     vis->x2 = x2 >= viewwidth ? viewwidth-1 : x2;	
	.loc 1 697 13 is_stmt 1 discriminator 4
	movq	-104(%rbp), %rdx	# vis, tmp213
	movl	%eax, 20(%rdx)	# iftmp.107_95, vis_118->x2
# r_things.c:698:     vis->scale = pspritescale<<detailshift;
	.loc 1 698 30
	movl	pspritescale(%rip), %edx	# pspritescale, pspritescale.110_61
	movl	detailshift(%rip), %eax	# detailshift, detailshift.111_62
	movl	%eax, %ecx	# detailshift.111_62, tmp243
	sall	%cl, %edx	# tmp243, _63
# r_things.c:698:     vis->scale = pspritescale<<detailshift;
	.loc 1 698 16
	movq	-104(%rbp), %rax	# vis, tmp214
	movl	%edx, 44(%rax)	# _63, vis_118->scale
# r_things.c:700:     if (flip)
	.loc 1 700 8
	cmpl	$0, -136(%rbp)	#, flip
	je	.L97	#,
# r_things.c:702: 	vis->xiscale = -pspriteiscale;
	.loc 1 702 17
	movl	pspriteiscale(%rip), %eax	# pspriteiscale, pspriteiscale.112_64
	negl	%eax	# pspriteiscale.112_64
	movl	%eax, %edx	# pspriteiscale.112_64, _65
# r_things.c:702: 	vis->xiscale = -pspriteiscale;
	.loc 1 702 15
	movq	-104(%rbp), %rax	# vis, tmp215
	movl	%edx, 48(%rax)	# _65, vis_118->xiscale
# r_things.c:703: 	vis->startfrac = spritewidth[lump]-1;
	.loc 1 703 30
	movq	spritewidth(%rip), %rax	# spritewidth, spritewidth.113_66
	movl	-140(%rbp), %edx	# lump, tmp216
	movslq	%edx, %rdx	# tmp216, _67
	salq	$2, %rdx	#, _68
	addq	%rdx, %rax	# _68, _69
	movl	(%rax), %eax	# *_69, _70
# r_things.c:703: 	vis->startfrac = spritewidth[lump]-1;
	.loc 1 703 36
	leal	-1(%rax), %edx	#, _71
# r_things.c:703: 	vis->startfrac = spritewidth[lump]-1;
	.loc 1 703 17
	movq	-104(%rbp), %rax	# vis, tmp217
	movl	%edx, 40(%rax)	# _71, vis_118->startfrac
	jmp	.L98	#
.L97:
# r_things.c:707: 	vis->xiscale = pspriteiscale;
	.loc 1 707 15
	movl	pspriteiscale(%rip), %edx	# pspriteiscale, pspriteiscale.114_72
	movq	-104(%rbp), %rax	# vis, tmp218
	movl	%edx, 48(%rax)	# pspriteiscale.114_72, vis_118->xiscale
# r_things.c:708: 	vis->startfrac = 0;
	.loc 1 708 17
	movq	-104(%rbp), %rax	# vis, tmp219
	movl	$0, 40(%rax)	#, vis_118->startfrac
.L98:
# r_things.c:711:     if (vis->x1 > x1)
	.loc 1 711 12
	movq	-104(%rbp), %rax	# vis, tmp220
	movl	16(%rax), %eax	# vis_118->x1, _73
# r_things.c:711:     if (vis->x1 > x1)
	.loc 1 711 8
	cmpl	%eax, -128(%rbp)	# _73, x1
	jge	.L99	#,
# r_things.c:712: 	vis->startfrac += vis->xiscale*(vis->x1-x1);
	.loc 1 712 5
	movq	-104(%rbp), %rax	# vis, tmp221
	movl	40(%rax), %ecx	# vis_118->startfrac, _74
# r_things.c:712: 	vis->startfrac += vis->xiscale*(vis->x1-x1);
	.loc 1 712 23
	movq	-104(%rbp), %rax	# vis, tmp222
	movl	48(%rax), %edx	# vis_118->xiscale, _75
# r_things.c:712: 	vis->startfrac += vis->xiscale*(vis->x1-x1);
	.loc 1 712 37
	movq	-104(%rbp), %rax	# vis, tmp223
	movl	16(%rax), %eax	# vis_118->x1, _76
# r_things.c:712: 	vis->startfrac += vis->xiscale*(vis->x1-x1);
	.loc 1 712 41
	subl	-128(%rbp), %eax	# x1, _77
# r_things.c:712: 	vis->startfrac += vis->xiscale*(vis->x1-x1);
	.loc 1 712 32
	imull	%edx, %eax	# _75, _78
# r_things.c:712: 	vis->startfrac += vis->xiscale*(vis->x1-x1);
	.loc 1 712 17
	leal	(%rcx,%rax), %edx	#, _79
	movq	-104(%rbp), %rax	# vis, tmp224
	movl	%edx, 40(%rax)	# _79, vis_118->startfrac
.L99:
# r_things.c:714:     vis->patch = lump;
	.loc 1 714 16
	movq	-104(%rbp), %rax	# vis, tmp225
	movl	-140(%rbp), %edx	# lump, tmp226
	movl	%edx, 56(%rax)	# tmp226, vis_118->patch
# r_things.c:716:     if (viewplayer->powers[pw_invisibility] > 4*32
	.loc 1 716 19
	movq	viewplayer(%rip), %rax	# viewplayer, viewplayer.115_80
# r_things.c:716:     if (viewplayer->powers[pw_invisibility] > 4*32
	.loc 1 716 27
	movl	56(%rax), %eax	# viewplayer.115_80->powers[2], _81
# r_things.c:716:     if (viewplayer->powers[pw_invisibility] > 4*32
	.loc 1 716 8
	cmpl	$128, %eax	#, _81
	jg	.L100	#,
# r_things.c:717: 	|| viewplayer->powers[pw_invisibility] & 8)
	.loc 1 717 15
	movq	viewplayer(%rip), %rax	# viewplayer, viewplayer.116_82
# r_things.c:717: 	|| viewplayer->powers[pw_invisibility] & 8)
	.loc 1 717 23
	movl	56(%rax), %eax	# viewplayer.116_82->powers[2], _83
# r_things.c:717: 	|| viewplayer->powers[pw_invisibility] & 8)
	.loc 1 717 41
	andl	$8, %eax	#, _84
# r_things.c:717: 	|| viewplayer->powers[pw_invisibility] & 8)
	.loc 1 717 2
	testl	%eax, %eax	# _84
	je	.L101	#,
.L100:
# r_things.c:720: 	vis->colormap = NULL;
	.loc 1 720 16
	movq	-104(%rbp), %rax	# vis, tmp227
	movq	$0, 64(%rax)	#, vis_118->colormap
	jmp	.L102	#
.L101:
# r_things.c:722:     else if (fixedcolormap)
	.loc 1 722 14
	movq	fixedcolormap(%rip), %rax	# fixedcolormap, fixedcolormap.117_85
# r_things.c:722:     else if (fixedcolormap)
	.loc 1 722 13
	testq	%rax, %rax	# fixedcolormap.117_85
	je	.L103	#,
# r_things.c:725: 	vis->colormap = fixedcolormap;
	.loc 1 725 16
	movq	fixedcolormap(%rip), %rdx	# fixedcolormap, fixedcolormap.118_86
	movq	-104(%rbp), %rax	# vis, tmp228
	movq	%rdx, 64(%rax)	# fixedcolormap.118_86, vis_118->colormap
	jmp	.L102	#
.L103:
# r_things.c:727:     else if (psp->state->frame & FF_FULLBRIGHT)
	.loc 1 727 17
	movq	-152(%rbp), %rax	# psp, tmp229
	movq	(%rax), %rax	# psp_104(D)->state, _87
# r_things.c:727:     else if (psp->state->frame & FF_FULLBRIGHT)
	.loc 1 727 24
	movq	8(%rax), %rax	# _87->frame, _88
# r_things.c:727:     else if (psp->state->frame & FF_FULLBRIGHT)
	.loc 1 727 32
	andl	$32768, %eax	#, _89
# r_things.c:727:     else if (psp->state->frame & FF_FULLBRIGHT)
	.loc 1 727 13
	testq	%rax, %rax	# _89
	je	.L104	#,
# r_things.c:730: 	vis->colormap = colormaps;
	.loc 1 730 16
	movq	colormaps(%rip), %rdx	# colormaps, colormaps.119_90
	movq	-104(%rbp), %rax	# vis, tmp230
	movq	%rdx, 64(%rax)	# colormaps.119_90, vis_118->colormap
	jmp	.L102	#
.L104:
# r_things.c:735: 	vis->colormap = spritelights[MAXLIGHTSCALE-1];
	.loc 1 735 16
	movq	spritelights(%rip), %rax	# spritelights, spritelights.120_91
	movq	376(%rax), %rdx	# MEM[(lighttable_t * *)spritelights.120_91 + 376B], _92
	movq	-104(%rbp), %rax	# vis, tmp231
	movq	%rdx, 64(%rax)	# _92, vis_118->colormap
.L102:
# r_things.c:738:     R_DrawVisSprite (vis, vis->x1, vis->x2);
	.loc 1 738 5
	movq	-104(%rbp), %rax	# vis, tmp232
	movl	20(%rax), %edx	# vis_118->x2, _93
	movq	-104(%rbp), %rax	# vis, tmp233
	movl	16(%rax), %ecx	# vis_118->x1, _94
	movq	-104(%rbp), %rax	# vis, tmp234
	movl	%ecx, %esi	# _94,
	movq	%rax, %rdi	# tmp234,
	call	R_DrawVisSprite	#
	jmp	.L89	#
.L107:
# r_things.c:683: 	return;		
	.loc 1 683 2
	nop	
	jmp	.L89	#
.L108:
# r_things.c:690: 	return;
	.loc 1 690 2
	nop	
.L89:
# r_things.c:739: }
	.loc 1 739 1
	movq	-8(%rbp), %rax	# D.7706, tmp237
	subq	%fs:40, %rax	# MEM[(<address-space-1> long unsigned int *)40B], tmp237
	je	.L106	#,
	call	__stack_chk_fail@PLT	#
.L106:
	leave	
	.cfi_def_cfa 7, 8
	ret	
	.cfi_endproc
.LFE15:
	.size	R_DrawPSprite, .-R_DrawPSprite
	.globl	R_DrawPlayerSprites
	.type	R_DrawPlayerSprites, @function
R_DrawPlayerSprites:
.LFB16:
	.loc 1 747 1
	.cfi_startproc
	endbr64	
	pushq	%rbp	#
	.cfi_def_cfa_offset 16
	.cfi_offset 6, -16
	movq	%rsp, %rbp	#,
	.cfi_def_cfa_register 6
	subq	$16, %rsp	#,
# r_things.c:754: 	(viewplayer->mo->subsector->sector->lightlevel >> LIGHTSEGSHIFT) 
	.loc 1 754 13
	movq	viewplayer(%rip), %rax	# viewplayer, viewplayer.121_1
	movq	(%rax), %rax	# viewplayer.121_1->mo, _2
# r_things.c:754: 	(viewplayer->mo->subsector->sector->lightlevel >> LIGHTSEGSHIFT) 
	.loc 1 754 17
	movq	88(%rax), %rax	# _2->subsector, _3
# r_things.c:754: 	(viewplayer->mo->subsector->sector->lightlevel >> LIGHTSEGSHIFT) 
	.loc 1 754 28
	movq	(%rax), %rax	# _3->sector, _4
# r_things.c:754: 	(viewplayer->mo->subsector->sector->lightlevel >> LIGHTSEGSHIFT) 
	.loc 1 754 36
	movzwl	12(%rax), %eax	# _4->lightlevel, _5
# r_things.c:754: 	(viewplayer->mo->subsector->sector->lightlevel >> LIGHTSEGSHIFT) 
	.loc 1 754 49
	sarw	$4, %ax	#, _6
	movswl	%ax, %edx	# _6, _7
# r_things.c:755: 	+extralight;
	.loc 1 755 2
	movl	extralight(%rip), %eax	# extralight, extralight.122_8
# r_things.c:753:     lightnum =
	.loc 1 753 14
	addl	%edx, %eax	# _7, tmp93
	movl	%eax, -12(%rbp)	# tmp93, lightnum
# r_things.c:757:     if (lightnum < 0)		
	.loc 1 757 8
	cmpl	$0, -12(%rbp)	#, lightnum
	jns	.L110	#,
# r_things.c:758: 	spritelights = scalelight[0];
	.loc 1 758 15
	leaq	scalelight(%rip), %rax	#, tmp94
	movq	%rax, spritelights(%rip)	# tmp94, spritelights
	jmp	.L111	#
.L110:
# r_things.c:759:     else if (lightnum >= LIGHTLEVELS)
	.loc 1 759 13
	cmpl	$15, -12(%rbp)	#, lightnum
	jle	.L112	#,
# r_things.c:760: 	spritelights = scalelight[LIGHTLEVELS-1];
	.loc 1 760 15
	leaq	5760+scalelight(%rip), %rax	#, tmp95
	movq	%rax, spritelights(%rip)	# tmp95, spritelights
	jmp	.L111	#
.L112:
# r_things.c:762: 	spritelights = scalelight[lightnum];
	.loc 1 762 17
	movl	-12(%rbp), %eax	# lightnum, tmp97
	movslq	%eax, %rdx	# tmp97, tmp96
	movq	%rdx, %rax	# tmp96, tmp98
	addq	%rax, %rax	# tmp98
	addq	%rdx, %rax	# tmp96, tmp98
	salq	$7, %rax	#, tmp99
	leaq	scalelight(%rip), %rdx	#, tmp100
	addq	%rdx, %rax	# tmp100, _9
# r_things.c:762: 	spritelights = scalelight[lightnum];
	.loc 1 762 15
	movq	%rax, spritelights(%rip)	# _9, spritelights
.L111:
# r_things.c:765:     mfloorclip = screenheightarray;
	.loc 1 765 16
	leaq	screenheightarray(%rip), %rax	#, tmp101
	movq	%rax, mfloorclip(%rip)	# tmp101, mfloorclip
# r_things.c:766:     mceilingclip = negonearray;
	.loc 1 766 18
	leaq	negonearray(%rip), %rax	#, tmp102
	movq	%rax, mceilingclip(%rip)	# tmp102, mceilingclip
# r_things.c:769:     for (i=0, psp=viewplayer->psprites;
	.loc 1 769 11
	movl	$0, -16(%rbp)	#, i
# r_things.c:769:     for (i=0, psp=viewplayer->psprites;
	.loc 1 769 29
	movq	viewplayer(%rip), %rax	# viewplayer, viewplayer.123_10
# r_things.c:769:     for (i=0, psp=viewplayer->psprites;
	.loc 1 769 18
	addq	$264, %rax	#, tmp103
	movq	%rax, -8(%rbp)	# tmp103, psp
# r_things.c:769:     for (i=0, psp=viewplayer->psprites;
	.loc 1 769 5
	jmp	.L113	#
.L115:
# r_things.c:773: 	if (psp->state)
	.loc 1 773 9
	movq	-8(%rbp), %rax	# psp, tmp104
	movq	(%rax), %rax	# psp_13->state, _11
# r_things.c:773: 	if (psp->state)
	.loc 1 773 5
	testq	%rax, %rax	# _11
	je	.L114	#,
# r_things.c:774: 	    R_DrawPSprite (psp);
	.loc 1 774 6
	movq	-8(%rbp), %rax	# psp, tmp105
	movq	%rax, %rdi	# tmp105,
	call	R_DrawPSprite	#
.L114:
# r_things.c:771: 	 i++,psp++)
	.loc 1 771 4
	addl	$1, -16(%rbp)	#, i
# r_things.c:771: 	 i++,psp++)
	.loc 1 771 10
	addq	$24, -8(%rbp)	#, psp
.L113:
# r_things.c:770: 	 i<NUMPSPRITES;
	.loc 1 770 4
	cmpl	$1, -16(%rbp)	#, i
	jle	.L115	#,
# r_things.c:776: }
	.loc 1 776 1
	nop	
	nop	
	leave	
	.cfi_def_cfa 7, 8
	ret	
	.cfi_endproc
.LFE16:
	.size	R_DrawPlayerSprites, .-R_DrawPlayerSprites
	.globl	vsprsortedhead
	.bss
	.align 32
	.type	vsprsortedhead, @object
	.size	vsprsortedhead, 80
vsprsortedhead:
	.zero	80
	.text
	.globl	R_SortVisSprites
	.type	R_SortVisSprites, @function
R_SortVisSprites:
.LFB17:
	.loc 1 788 1
	.cfi_startproc
	endbr64	
	pushq	%rbp	#
	.cfi_def_cfa_offset 16
	.cfi_offset 6, -16
	movq	%rsp, %rbp	#,
	.cfi_def_cfa_register 6
	addq	$-128, %rsp	#,
# r_things.c:788: {
	.loc 1 788 1
	movq	%fs:40, %rax	# MEM[(<address-space-1> long unsigned int *)40B], tmp133
	movq	%rax, -8(%rbp)	# tmp133, D.7708
	xorl	%eax, %eax	# tmp133
# r_things.c:796:     count = vissprite_p - vissprites;
	.loc 1 796 25
	movq	vissprite_p(%rip), %rdx	# vissprite_p, vissprite_p.124_1
	leaq	vissprites(%rip), %rax	#, tmp101
	subq	%rax, %rdx	# tmp101, _2
	sarq	$4, %rdx	#, tmp102
	movabsq	$-3689348814741910323, %rax	#, tmp104
	imulq	%rdx, %rax	# tmp102, tmp103
# r_things.c:796:     count = vissprite_p - vissprites;
	.loc 1 796 11
	movl	%eax, -116(%rbp)	# _3, count
# r_things.c:798:     unsorted.next = unsorted.prev = &unsorted;
	.loc 1 798 35
	leaq	-96(%rbp), %rax	#, tmp105
	movq	%rax, -96(%rbp)	# tmp105, unsorted.prev
# r_things.c:798:     unsorted.next = unsorted.prev = &unsorted;
	.loc 1 798 29
	movq	-96(%rbp), %rax	# unsorted.prev, _4
# r_things.c:798:     unsorted.next = unsorted.prev = &unsorted;
	.loc 1 798 19
	movq	%rax, -88(%rbp)	# _4, unsorted.next
# r_things.c:800:     if (!count)
	.loc 1 800 8
	cmpl	$0, -116(%rbp)	#, count
	je	.L127	#,
# r_things.c:803:     for (ds=vissprites ; ds<vissprite_p ; ds++)
	.loc 1 803 12
	leaq	vissprites(%rip), %rax	#, tmp106
	movq	%rax, -112(%rbp)	# tmp106, ds
# r_things.c:803:     for (ds=vissprites ; ds<vissprite_p ; ds++)
	.loc 1 803 5
	jmp	.L119	#
.L120:
# r_things.c:805: 	ds->next = ds+1;
	.loc 1 805 15
	movq	-112(%rbp), %rax	# ds, tmp107
	leaq	80(%rax), %rdx	#, _5
# r_things.c:805: 	ds->next = ds+1;
	.loc 1 805 11
	movq	-112(%rbp), %rax	# ds, tmp108
	movq	%rdx, 8(%rax)	# _5, ds_21->next
# r_things.c:806: 	ds->prev = ds-1;
	.loc 1 806 15
	movq	-112(%rbp), %rax	# ds, tmp109
	leaq	-80(%rax), %rdx	#, _6
# r_things.c:806: 	ds->prev = ds-1;
	.loc 1 806 11
	movq	-112(%rbp), %rax	# ds, tmp110
	movq	%rdx, (%rax)	# _6, ds_21->prev
# r_things.c:803:     for (ds=vissprites ; ds<vissprite_p ; ds++)
	.loc 1 803 45 discriminator 3
	addq	$80, -112(%rbp)	#, ds
.L119:
# r_things.c:803:     for (ds=vissprites ; ds<vissprite_p ; ds++)
	.loc 1 803 28 discriminator 1
	movq	vissprite_p(%rip), %rax	# vissprite_p, vissprite_p.125_7
	cmpq	%rax, -112(%rbp)	# vissprite_p.125_7, ds
	jb	.L120	#,
# r_things.c:809:     vissprites[0].prev = &unsorted;
	.loc 1 809 24
	leaq	-96(%rbp), %rax	#, tmp111
	movq	%rax, vissprites(%rip)	# tmp111, vissprites[0].prev
# r_things.c:810:     unsorted.next = &vissprites[0];
	.loc 1 810 19
	leaq	vissprites(%rip), %rax	#, tmp112
	movq	%rax, -88(%rbp)	# tmp112, unsorted.next
# r_things.c:811:     (vissprite_p-1)->next = &unsorted;
	.loc 1 811 17
	movq	vissprite_p(%rip), %rax	# vissprite_p, vissprite_p.126_8
	leaq	-80(%rax), %rdx	#, _9
# r_things.c:811:     (vissprite_p-1)->next = &unsorted;
	.loc 1 811 27
	leaq	-96(%rbp), %rax	#, tmp113
	movq	%rax, 8(%rdx)	# tmp113, _9->next
# r_things.c:812:     unsorted.prev = vissprite_p-1;
	.loc 1 812 32
	movq	vissprite_p(%rip), %rax	# vissprite_p, vissprite_p.127_10
	subq	$80, %rax	#, _11
# r_things.c:812:     unsorted.prev = vissprite_p-1;
	.loc 1 812 19
	movq	%rax, -96(%rbp)	# _11, unsorted.prev
# r_things.c:816:     vsprsortedhead.next = vsprsortedhead.prev = &vsprsortedhead;
	.loc 1 816 47
	leaq	vsprsortedhead(%rip), %rax	#, tmp114
	movq	%rax, vsprsortedhead(%rip)	# tmp114, vsprsortedhead.prev
# r_things.c:816:     vsprsortedhead.next = vsprsortedhead.prev = &vsprsortedhead;
	.loc 1 816 41
	movq	vsprsortedhead(%rip), %rax	# vsprsortedhead.prev, _12
# r_things.c:816:     vsprsortedhead.next = vsprsortedhead.prev = &vsprsortedhead;
	.loc 1 816 25
	movq	%rax, 8+vsprsortedhead(%rip)	# _12, vsprsortedhead.next
# r_things.c:817:     for (i=0 ; i<count ; i++)
	.loc 1 817 11
	movl	$0, -124(%rbp)	#, i
# r_things.c:817:     for (i=0 ; i<count ; i++)
	.loc 1 817 5
	jmp	.L121	#
.L125:
# r_things.c:819: 	bestscale = MAXINT;
	.loc 1 819 12
	movl	$2147483647, -120(%rbp)	#, bestscale
# r_things.c:820: 	for (ds=unsorted.next ; ds!= &unsorted ; ds=ds->next)
	.loc 1 820 9
	movq	-88(%rbp), %rax	# unsorted.next, tmp115
	movq	%rax, -112(%rbp)	# tmp115, ds
# r_things.c:820: 	for (ds=unsorted.next ; ds!= &unsorted ; ds=ds->next)
	.loc 1 820 2
	jmp	.L122	#
.L124:
# r_things.c:822: 	    if (ds->scale < bestscale)
	.loc 1 822 12
	movq	-112(%rbp), %rax	# ds, tmp116
	movl	44(%rax), %eax	# ds_22->scale, _13
# r_things.c:822: 	    if (ds->scale < bestscale)
	.loc 1 822 9
	cmpl	%eax, -120(%rbp)	# _13, bestscale
	jle	.L123	#,
# r_things.c:824: 		bestscale = ds->scale;
	.loc 1 824 13
	movq	-112(%rbp), %rax	# ds, tmp117
	movl	44(%rax), %eax	# ds_22->scale, tmp118
	movl	%eax, -120(%rbp)	# tmp118, bestscale
# r_things.c:825: 		best = ds;
	.loc 1 825 8
	movq	-112(%rbp), %rax	# ds, tmp119
	movq	%rax, -104(%rbp)	# tmp119, best
.L123:
# r_things.c:820: 	for (ds=unsorted.next ; ds!= &unsorted ; ds=ds->next)
	.loc 1 820 45 discriminator 2
	movq	-112(%rbp), %rax	# ds, tmp120
	movq	8(%rax), %rax	# ds_22->next, tmp121
	movq	%rax, -112(%rbp)	# tmp121, ds
.L122:
# r_things.c:820: 	for (ds=unsorted.next ; ds!= &unsorted ; ds=ds->next)
	.loc 1 820 28 discriminator 1
	leaq	-96(%rbp), %rax	#, tmp122
	cmpq	%rax, -112(%rbp)	# tmp122, ds
	jne	.L124	#,
# r_things.c:828: 	best->next->prev = best->prev;
	.loc 1 828 6
	movq	-104(%rbp), %rax	# best, tmp123
	movq	8(%rax), %rax	# best_24->next, _14
# r_things.c:828: 	best->next->prev = best->prev;
	.loc 1 828 25
	movq	-104(%rbp), %rdx	# best, tmp124
	movq	(%rdx), %rdx	# best_24->prev, _15
# r_things.c:828: 	best->next->prev = best->prev;
	.loc 1 828 19
	movq	%rdx, (%rax)	# _15, _14->prev
# r_things.c:829: 	best->prev->next = best->next;
	.loc 1 829 6
	movq	-104(%rbp), %rax	# best, tmp125
	movq	(%rax), %rax	# best_24->prev, _16
# r_things.c:829: 	best->prev->next = best->next;
	.loc 1 829 25
	movq	-104(%rbp), %rdx	# best, tmp126
	movq	8(%rdx), %rdx	# best_24->next, _17
# r_things.c:829: 	best->prev->next = best->next;
	.loc 1 829 19
	movq	%rdx, 8(%rax)	# _17, _16->next
# r_things.c:830: 	best->next = &vsprsortedhead;
	.loc 1 830 13
	movq	-104(%rbp), %rax	# best, tmp127
	leaq	vsprsortedhead(%rip), %rdx	#, tmp128
	movq	%rdx, 8(%rax)	# tmp128, best_24->next
# r_things.c:831: 	best->prev = vsprsortedhead.prev;
	.loc 1 831 29
	movq	vsprsortedhead(%rip), %rdx	# vsprsortedhead.prev, _18
# r_things.c:831: 	best->prev = vsprsortedhead.prev;
	.loc 1 831 13
	movq	-104(%rbp), %rax	# best, tmp129
	movq	%rdx, (%rax)	# _18, best_24->prev
# r_things.c:832: 	vsprsortedhead.prev->next = best;
	.loc 1 832 16
	movq	vsprsortedhead(%rip), %rax	# vsprsortedhead.prev, _19
# r_things.c:832: 	vsprsortedhead.prev->next = best;
	.loc 1 832 28
	movq	-104(%rbp), %rdx	# best, tmp130
	movq	%rdx, 8(%rax)	# tmp130, _19->next
# r_things.c:833: 	vsprsortedhead.prev = best;
	.loc 1 833 22
	movq	-104(%rbp), %rax	# best, tmp131
	movq	%rax, vsprsortedhead(%rip)	# tmp131, vsprsortedhead.prev
# r_things.c:817:     for (i=0 ; i<count ; i++)
	.loc 1 817 27 discriminator 2
	addl	$1, -124(%rbp)	#, i
.L121:
# r_things.c:817:     for (i=0 ; i<count ; i++)
	.loc 1 817 17 discriminator 1
	movl	-124(%rbp), %eax	# i, tmp132
	cmpl	-116(%rbp), %eax	# count, tmp132
	jl	.L125	#,
	jmp	.L116	#
.L127:
# r_things.c:801: 	return;
	.loc 1 801 2 discriminator 1
	nop	
.L116:
# r_things.c:835: }
	.loc 1 835 1
	movq	-8(%rbp), %rax	# D.7708, tmp134
	subq	%fs:40, %rax	# MEM[(<address-space-1> long unsigned int *)40B], tmp134
	je	.L126	#,
	call	__stack_chk_fail@PLT	#
.L126:
	leave	
	.cfi_def_cfa 7, 8
	ret	
	.cfi_endproc
.LFE17:
	.size	R_SortVisSprites, .-R_SortVisSprites
	.globl	R_DrawSprite
	.type	R_DrawSprite, @function
R_DrawSprite:
.LFB18:
	.loc 1 843 1
	.cfi_startproc
	endbr64	
	pushq	%rbp	#
	.cfi_def_cfa_offset 16
	.cfi_offset 6, -16
	movq	%rsp, %rbp	#,
	.cfi_def_cfa_register 6
	subq	$1344, %rsp	#,
	movq	%rdi, -1336(%rbp)	# spr, spr
# r_things.c:843: {
	.loc 1 843 1
	movq	%fs:40, %rax	# MEM[(<address-space-1> long unsigned int *)40B], tmp233
	movq	%rax, -8(%rbp)	# tmp233, D.7709
	xorl	%eax, %eax	# tmp233
# r_things.c:854:     for (x = spr->x1 ; x<=spr->x2 ; x++)
	.loc 1 854 12
	movq	-1336(%rbp), %rax	# spr, tmp139
	movl	16(%rax), %eax	# spr_85(D)->x1, tmp140
	movl	%eax, -1328(%rbp)	# tmp140, x
# r_things.c:854:     for (x = spr->x1 ; x<=spr->x2 ; x++)
	.loc 1 854 5
	jmp	.L129	#
.L130:
# r_things.c:855: 	clipbot[x] = cliptop[x] = -2;
	.loc 1 855 26
	movl	-1328(%rbp), %eax	# x, tmp142
	cltq
	movw	$-2, -656(%rbp,%rax,2)	#, cliptop[x_59]
# r_things.c:855: 	clipbot[x] = cliptop[x] = -2;
	.loc 1 855 22
	movl	-1328(%rbp), %eax	# x, tmp144
	cltq
	movzwl	-656(%rbp,%rax,2), %edx	# cliptop[x_59], _1
# r_things.c:855: 	clipbot[x] = cliptop[x] = -2;
	.loc 1 855 13
	movl	-1328(%rbp), %eax	# x, tmp146
	cltq
	movw	%dx, -1296(%rbp,%rax,2)	# _1, clipbot[x_59]
# r_things.c:854:     for (x = spr->x1 ; x<=spr->x2 ; x++)
	.loc 1 854 38 discriminator 3
	addl	$1, -1328(%rbp)	#, x
.L129:
# r_things.c:854:     for (x = spr->x1 ; x<=spr->x2 ; x++)
	.loc 1 854 30 discriminator 1
	movq	-1336(%rbp), %rax	# spr, tmp147
	movl	20(%rax), %eax	# spr_85(D)->x2, _2
# r_things.c:854:     for (x = spr->x1 ; x<=spr->x2 ; x++)
	.loc 1 854 25 discriminator 1
	cmpl	%eax, -1328(%rbp)	# _2, x
	jle	.L130	#,
# r_things.c:860:     for (ds=ds_p-1 ; ds >= drawsegs ; ds--)
	.loc 1 860 17
	movq	ds_p(%rip), %rax	# ds_p, ds_p.128_3
# r_things.c:860:     for (ds=ds_p-1 ; ds >= drawsegs ; ds--)
	.loc 1 860 12
	subq	$64, %rax	#, tmp148
	movq	%rax, -1304(%rbp)	# tmp148, ds
# r_things.c:860:     for (ds=ds_p-1 ; ds >= drawsegs ; ds--)
	.loc 1 860 5
	jmp	.L131	#
.L154:
# r_things.c:863: 	if (ds->x1 > spr->x2
	.loc 1 863 8
	movq	-1304(%rbp), %rax	# ds, tmp149
	movl	8(%rax), %edx	# ds_58->x1, _4
# r_things.c:863: 	if (ds->x1 > spr->x2
	.loc 1 863 18
	movq	-1336(%rbp), %rax	# spr, tmp150
	movl	20(%rax), %eax	# spr_85(D)->x2, _5
# r_things.c:863: 	if (ds->x1 > spr->x2
	.loc 1 863 5
	cmpl	%eax, %edx	# _5, _4
	jg	.L160	#,
# r_things.c:864: 	    || ds->x2 < spr->x1
	.loc 1 864 11
	movq	-1304(%rbp), %rax	# ds, tmp151
	movl	12(%rax), %edx	# ds_58->x2, _6
# r_things.c:864: 	    || ds->x2 < spr->x1
	.loc 1 864 21
	movq	-1336(%rbp), %rax	# spr, tmp152
	movl	16(%rax), %eax	# spr_85(D)->x1, _7
# r_things.c:864: 	    || ds->x2 < spr->x1
	.loc 1 864 6
	cmpl	%eax, %edx	# _7, _6
	jl	.L160	#,
# r_things.c:865: 	    || (!ds->silhouette
	.loc 1 865 13
	movq	-1304(%rbp), %rax	# ds, tmp153
	movl	28(%rax), %eax	# ds_58->silhouette, _8
# r_things.c:865: 	    || (!ds->silhouette
	.loc 1 865 6
	testl	%eax, %eax	# _8
	jne	.L133	#,
# r_things.c:866: 		&& !ds->maskedtexturecol) )
	.loc 1 866 9
	movq	-1304(%rbp), %rax	# ds, tmp154
	movq	56(%rax), %rax	# ds_58->maskedtexturecol, _9
# r_things.c:866: 		&& !ds->maskedtexturecol) )
	.loc 1 866 3
	testq	%rax, %rax	# _9
	je	.L160	#,
.L133:
# r_things.c:872: 	r1 = ds->x1 < spr->x1 ? spr->x1 : ds->x1;
	.loc 1 872 9
	movq	-1304(%rbp), %rax	# ds, tmp155
	movl	8(%rax), %edx	# ds_58->x1, _10
# r_things.c:872: 	r1 = ds->x1 < spr->x1 ? spr->x1 : ds->x1;
	.loc 1 872 19
	movq	-1336(%rbp), %rax	# spr, tmp156
	movl	16(%rax), %eax	# spr_85(D)->x1, _11
# r_things.c:872: 	r1 = ds->x1 < spr->x1 ? spr->x1 : ds->x1;
	.loc 1 872 5
	cmpl	%eax, %edx	# _11, _10
	cmovge	%edx, %eax	# _10,, tmp157
	movl	%eax, -1312(%rbp)	# tmp157, r1
# r_things.c:873: 	r2 = ds->x2 > spr->x2 ? spr->x2 : ds->x2;
	.loc 1 873 9
	movq	-1304(%rbp), %rax	# ds, tmp158
	movl	12(%rax), %edx	# ds_58->x2, _12
# r_things.c:873: 	r2 = ds->x2 > spr->x2 ? spr->x2 : ds->x2;
	.loc 1 873 19
	movq	-1336(%rbp), %rax	# spr, tmp159
	movl	20(%rax), %eax	# spr_85(D)->x2, _13
# r_things.c:873: 	r2 = ds->x2 > spr->x2 ? spr->x2 : ds->x2;
	.loc 1 873 5
	cmpl	%eax, %edx	# _13, _12
	cmovle	%edx, %eax	# _12,, tmp160
	movl	%eax, -1308(%rbp)	# tmp160, r2
# r_things.c:875: 	if (ds->scale1 > ds->scale2)
	.loc 1 875 8
	movq	-1304(%rbp), %rax	# ds, tmp161
	movl	16(%rax), %edx	# ds_58->scale1, _14
# r_things.c:875: 	if (ds->scale1 > ds->scale2)
	.loc 1 875 21
	movq	-1304(%rbp), %rax	# ds, tmp162
	movl	20(%rax), %eax	# ds_58->scale2, _15
# r_things.c:875: 	if (ds->scale1 > ds->scale2)
	.loc 1 875 5
	cmpl	%eax, %edx	# _15, _14
	jle	.L135	#,
# r_things.c:877: 	    lowscale = ds->scale2;
	.loc 1 877 15
	movq	-1304(%rbp), %rax	# ds, tmp163
	movl	20(%rax), %eax	# ds_58->scale2, tmp164
	movl	%eax, -1320(%rbp)	# tmp164, lowscale
# r_things.c:878: 	    scale = ds->scale1;
	.loc 1 878 12
	movq	-1304(%rbp), %rax	# ds, tmp165
	movl	16(%rax), %eax	# ds_58->scale1, tmp166
	movl	%eax, -1324(%rbp)	# tmp166, scale
	jmp	.L136	#
.L135:
# r_things.c:882: 	    lowscale = ds->scale1;
	.loc 1 882 15
	movq	-1304(%rbp), %rax	# ds, tmp167
	movl	16(%rax), %eax	# ds_58->scale1, tmp168
	movl	%eax, -1320(%rbp)	# tmp168, lowscale
# r_things.c:883: 	    scale = ds->scale2;
	.loc 1 883 12
	movq	-1304(%rbp), %rax	# ds, tmp169
	movl	20(%rax), %eax	# ds_58->scale2, tmp170
	movl	%eax, -1324(%rbp)	# tmp170, scale
.L136:
# r_things.c:886: 	if (scale < spr->scale
	.loc 1 886 17
	movq	-1336(%rbp), %rax	# spr, tmp171
	movl	44(%rax), %eax	# spr_85(D)->scale, _16
# r_things.c:886: 	if (scale < spr->scale
	.loc 1 886 5
	cmpl	%eax, -1324(%rbp)	# _16, scale
	jl	.L137	#,
# r_things.c:887: 	    || ( lowscale < spr->scale
	.loc 1 887 25
	movq	-1336(%rbp), %rax	# spr, tmp172
	movl	44(%rax), %eax	# spr_85(D)->scale, _17
# r_things.c:887: 	    || ( lowscale < spr->scale
	.loc 1 887 6
	cmpl	%eax, -1320(%rbp)	# _17, lowscale
	jge	.L138	#,
# r_things.c:888: 		 && !R_PointOnSegSide (spr->gx, spr->gy, ds->curline) ) )
	.loc 1 888 8
	movq	-1304(%rbp), %rax	# ds, tmp173
	movq	(%rax), %rdx	# ds_58->curline, _18
	movq	-1336(%rbp), %rax	# spr, tmp174
	movl	28(%rax), %ecx	# spr_85(D)->gy, _19
	movq	-1336(%rbp), %rax	# spr, tmp175
	movl	24(%rax), %eax	# spr_85(D)->gx, _20
	movl	%ecx, %esi	# _19,
	movl	%eax, %edi	# _20,
	call	R_PointOnSegSide@PLT	#
# r_things.c:888: 		 && !R_PointOnSegSide (spr->gx, spr->gy, ds->curline) ) )
	.loc 1 888 4 discriminator 1
	testl	%eax, %eax	# _21
	jne	.L138	#,
.L137:
# r_things.c:891: 	    if (ds->maskedtexturecol)	
	.loc 1 891 12
	movq	-1304(%rbp), %rax	# ds, tmp176
	movq	56(%rax), %rax	# ds_58->maskedtexturecol, _22
# r_things.c:891: 	    if (ds->maskedtexturecol)	
	.loc 1 891 9
	testq	%rax, %rax	# _22
	je	.L161	#,
# r_things.c:892: 		R_RenderMaskedSegRange (ds, r1, r2);
	.loc 1 892 3
	movl	-1308(%rbp), %edx	# r2, tmp177
	movl	-1312(%rbp), %ecx	# r1, tmp178
	movq	-1304(%rbp), %rax	# ds, tmp179
	movl	%ecx, %esi	# tmp178,
	movq	%rax, %rdi	# tmp179,
	call	R_RenderMaskedSegRange@PLT	#
# r_things.c:894: 	    continue;			
	.loc 1 894 6
	jmp	.L161	#
.L138:
# r_things.c:899: 	silhouette = ds->silhouette;
	.loc 1 899 13
	movq	-1304(%rbp), %rax	# ds, tmp180
	movl	28(%rax), %eax	# ds_58->silhouette, tmp181
	movl	%eax, -1316(%rbp)	# tmp181, silhouette
# r_things.c:901: 	if (spr->gz >= ds->bsilheight)
	.loc 1 901 9
	movq	-1336(%rbp), %rax	# spr, tmp182
	movl	32(%rax), %edx	# spr_85(D)->gz, _23
# r_things.c:901: 	if (spr->gz >= ds->bsilheight)
	.loc 1 901 19
	movq	-1304(%rbp), %rax	# ds, tmp183
	movl	32(%rax), %eax	# ds_58->bsilheight, _24
# r_things.c:901: 	if (spr->gz >= ds->bsilheight)
	.loc 1 901 5
	cmpl	%eax, %edx	# _24, _23
	jl	.L140	#,
# r_things.c:902: 	    silhouette &= ~SIL_BOTTOM;
	.loc 1 902 17
	andl	$-2, -1316(%rbp)	#, silhouette
.L140:
# r_things.c:904: 	if (spr->gzt <= ds->tsilheight)
	.loc 1 904 9
	movq	-1336(%rbp), %rax	# spr, tmp184
	movl	36(%rax), %edx	# spr_85(D)->gzt, _25
# r_things.c:904: 	if (spr->gzt <= ds->tsilheight)
	.loc 1 904 20
	movq	-1304(%rbp), %rax	# ds, tmp185
	movl	36(%rax), %eax	# ds_58->tsilheight, _26
# r_things.c:904: 	if (spr->gzt <= ds->tsilheight)
	.loc 1 904 5
	cmpl	%eax, %edx	# _26, _25
	jg	.L141	#,
# r_things.c:905: 	    silhouette &= ~SIL_TOP;
	.loc 1 905 17
	andl	$-3, -1316(%rbp)	#, silhouette
.L141:
# r_things.c:907: 	if (silhouette == 1)
	.loc 1 907 5
	cmpl	$1, -1316(%rbp)	#, silhouette
	jne	.L142	#,
# r_things.c:910: 	    for (x=r1 ; x<=r2 ; x++)
	.loc 1 910 12
	movl	-1312(%rbp), %eax	# r1, tmp186
	movl	%eax, -1328(%rbp)	# tmp186, x
# r_things.c:910: 	    for (x=r1 ; x<=r2 ; x++)
	.loc 1 910 6
	jmp	.L143	#
.L145:
# r_things.c:911: 		if (clipbot[x] == -2)
	.loc 1 911 14
	movl	-1328(%rbp), %eax	# x, tmp188
	cltq
	movzwl	-1296(%rbp,%rax,2), %eax	# clipbot[x_60], _27
# r_things.c:911: 		if (clipbot[x] == -2)
	.loc 1 911 6
	cmpw	$-2, %ax	#, _27
	jne	.L144	#,
# r_things.c:912: 		    clipbot[x] = ds->sprbottomclip[x];
	.loc 1 912 22
	movq	-1304(%rbp), %rax	# ds, tmp189
	movq	48(%rax), %rax	# ds_58->sprbottomclip, _28
# r_things.c:912: 		    clipbot[x] = ds->sprbottomclip[x];
	.loc 1 912 37
	movl	-1328(%rbp), %edx	# x, tmp190
	movslq	%edx, %rdx	# tmp190, _29
	addq	%rdx, %rdx	# _30
	addq	%rdx, %rax	# _30, _31
	movzwl	(%rax), %edx	# *_31, _32
# r_things.c:912: 		    clipbot[x] = ds->sprbottomclip[x];
	.loc 1 912 18
	movl	-1328(%rbp), %eax	# x, tmp192
	cltq
	movw	%dx, -1296(%rbp,%rax,2)	# _32, clipbot[x_60]
.L144:
# r_things.c:910: 	    for (x=r1 ; x<=r2 ; x++)
	.loc 1 910 27 discriminator 2
	addl	$1, -1328(%rbp)	#, x
.L143:
# r_things.c:910: 	    for (x=r1 ; x<=r2 ; x++)
	.loc 1 910 19 discriminator 1
	movl	-1328(%rbp), %eax	# x, tmp193
	cmpl	-1308(%rbp), %eax	# r2, tmp193
	jle	.L145	#,
	jmp	.L134	#
.L142:
# r_things.c:914: 	else if (silhouette == 2)
	.loc 1 914 10
	cmpl	$2, -1316(%rbp)	#, silhouette
	jne	.L146	#,
# r_things.c:917: 	    for (x=r1 ; x<=r2 ; x++)
	.loc 1 917 12
	movl	-1312(%rbp), %eax	# r1, tmp194
	movl	%eax, -1328(%rbp)	# tmp194, x
# r_things.c:917: 	    for (x=r1 ; x<=r2 ; x++)
	.loc 1 917 6
	jmp	.L147	#
.L149:
# r_things.c:918: 		if (cliptop[x] == -2)
	.loc 1 918 14
	movl	-1328(%rbp), %eax	# x, tmp196
	cltq
	movzwl	-656(%rbp,%rax,2), %eax	# cliptop[x_61], _33
# r_things.c:918: 		if (cliptop[x] == -2)
	.loc 1 918 6
	cmpw	$-2, %ax	#, _33
	jne	.L148	#,
# r_things.c:919: 		    cliptop[x] = ds->sprtopclip[x];
	.loc 1 919 22
	movq	-1304(%rbp), %rax	# ds, tmp197
	movq	40(%rax), %rax	# ds_58->sprtopclip, _34
# r_things.c:919: 		    cliptop[x] = ds->sprtopclip[x];
	.loc 1 919 34
	movl	-1328(%rbp), %edx	# x, tmp198
	movslq	%edx, %rdx	# tmp198, _35
	addq	%rdx, %rdx	# _36
	addq	%rdx, %rax	# _36, _37
	movzwl	(%rax), %edx	# *_37, _38
# r_things.c:919: 		    cliptop[x] = ds->sprtopclip[x];
	.loc 1 919 18
	movl	-1328(%rbp), %eax	# x, tmp200
	cltq
	movw	%dx, -656(%rbp,%rax,2)	# _38, cliptop[x_61]
.L148:
# r_things.c:917: 	    for (x=r1 ; x<=r2 ; x++)
	.loc 1 917 27 discriminator 2
	addl	$1, -1328(%rbp)	#, x
.L147:
# r_things.c:917: 	    for (x=r1 ; x<=r2 ; x++)
	.loc 1 917 19 discriminator 1
	movl	-1328(%rbp), %eax	# x, tmp201
	cmpl	-1308(%rbp), %eax	# r2, tmp201
	jle	.L149	#,
	jmp	.L134	#
.L146:
# r_things.c:921: 	else if (silhouette == 3)
	.loc 1 921 10
	cmpl	$3, -1316(%rbp)	#, silhouette
	jne	.L134	#,
# r_things.c:924: 	    for (x=r1 ; x<=r2 ; x++)
	.loc 1 924 12
	movl	-1312(%rbp), %eax	# r1, tmp202
	movl	%eax, -1328(%rbp)	# tmp202, x
# r_things.c:924: 	    for (x=r1 ; x<=r2 ; x++)
	.loc 1 924 6
	jmp	.L150	#
.L153:
# r_things.c:926: 		if (clipbot[x] == -2)
	.loc 1 926 14
	movl	-1328(%rbp), %eax	# x, tmp204
	cltq
	movzwl	-1296(%rbp,%rax,2), %eax	# clipbot[x_62], _39
# r_things.c:926: 		if (clipbot[x] == -2)
	.loc 1 926 6
	cmpw	$-2, %ax	#, _39
	jne	.L151	#,
# r_things.c:927: 		    clipbot[x] = ds->sprbottomclip[x];
	.loc 1 927 22
	movq	-1304(%rbp), %rax	# ds, tmp205
	movq	48(%rax), %rax	# ds_58->sprbottomclip, _40
# r_things.c:927: 		    clipbot[x] = ds->sprbottomclip[x];
	.loc 1 927 37
	movl	-1328(%rbp), %edx	# x, tmp206
	movslq	%edx, %rdx	# tmp206, _41
	addq	%rdx, %rdx	# _42
	addq	%rdx, %rax	# _42, _43
	movzwl	(%rax), %edx	# *_43, _44
# r_things.c:927: 		    clipbot[x] = ds->sprbottomclip[x];
	.loc 1 927 18
	movl	-1328(%rbp), %eax	# x, tmp208
	cltq
	movw	%dx, -1296(%rbp,%rax,2)	# _44, clipbot[x_62]
.L151:
# r_things.c:928: 		if (cliptop[x] == -2)
	.loc 1 928 14
	movl	-1328(%rbp), %eax	# x, tmp210
	cltq
	movzwl	-656(%rbp,%rax,2), %eax	# cliptop[x_62], _45
# r_things.c:928: 		if (cliptop[x] == -2)
	.loc 1 928 6
	cmpw	$-2, %ax	#, _45
	jne	.L152	#,
# r_things.c:929: 		    cliptop[x] = ds->sprtopclip[x];
	.loc 1 929 22
	movq	-1304(%rbp), %rax	# ds, tmp211
	movq	40(%rax), %rax	# ds_58->sprtopclip, _46
# r_things.c:929: 		    cliptop[x] = ds->sprtopclip[x];
	.loc 1 929 34
	movl	-1328(%rbp), %edx	# x, tmp212
	movslq	%edx, %rdx	# tmp212, _47
	addq	%rdx, %rdx	# _48
	addq	%rdx, %rax	# _48, _49
	movzwl	(%rax), %edx	# *_49, _50
# r_things.c:929: 		    cliptop[x] = ds->sprtopclip[x];
	.loc 1 929 18
	movl	-1328(%rbp), %eax	# x, tmp214
	cltq
	movw	%dx, -656(%rbp,%rax,2)	# _50, cliptop[x_62]
.L152:
# r_things.c:924: 	    for (x=r1 ; x<=r2 ; x++)
	.loc 1 924 27 discriminator 2
	addl	$1, -1328(%rbp)	#, x
.L150:
# r_things.c:924: 	    for (x=r1 ; x<=r2 ; x++)
	.loc 1 924 19 discriminator 1
	movl	-1328(%rbp), %eax	# x, tmp215
	cmpl	-1308(%rbp), %eax	# r2, tmp215
	jle	.L153	#,
	jmp	.L134	#
.L160:
# r_things.c:869: 	    continue;
	.loc 1 869 6
	nop	
	jmp	.L134	#
.L161:
# r_things.c:894: 	    continue;			
	.loc 1 894 6
	nop	
.L134:
# r_things.c:860:     for (ds=ds_p-1 ; ds >= drawsegs ; ds--)
	.loc 1 860 41 discriminator 2
	subq	$64, -1304(%rbp)	#, ds
.L131:
# r_things.c:860:     for (ds=ds_p-1 ; ds >= drawsegs ; ds--)
	.loc 1 860 25 discriminator 1
	leaq	drawsegs(%rip), %rax	#, tmp216
	cmpq	%rax, -1304(%rbp)	# tmp216, ds
	jnb	.L154	#,
# r_things.c:938:     for (x = spr->x1 ; x<=spr->x2 ; x++)
	.loc 1 938 12
	movq	-1336(%rbp), %rax	# spr, tmp217
	movl	16(%rax), %eax	# spr_85(D)->x1, tmp218
	movl	%eax, -1328(%rbp)	# tmp218, x
# r_things.c:938:     for (x = spr->x1 ; x<=spr->x2 ; x++)
	.loc 1 938 5
	jmp	.L155	#
.L158:
# r_things.c:940: 	if (clipbot[x] == -2)		
	.loc 1 940 13
	movl	-1328(%rbp), %eax	# x, tmp220
	cltq
	movzwl	-1296(%rbp,%rax,2), %eax	# clipbot[x_63], _51
# r_things.c:940: 	if (clipbot[x] == -2)		
	.loc 1 940 5
	cmpw	$-2, %ax	#, _51
	jne	.L156	#,
# r_things.c:941: 	    clipbot[x] = viewheight;
	.loc 1 941 17
	movl	viewheight(%rip), %eax	# viewheight, viewheight.129_52
	movl	%eax, %edx	# viewheight.129_52, _53
	movl	-1328(%rbp), %eax	# x, tmp222
	cltq
	movw	%dx, -1296(%rbp,%rax,2)	# _53, clipbot[x_63]
.L156:
# r_things.c:943: 	if (cliptop[x] == -2)
	.loc 1 943 13
	movl	-1328(%rbp), %eax	# x, tmp224
	cltq
	movzwl	-656(%rbp,%rax,2), %eax	# cliptop[x_63], _54
# r_things.c:943: 	if (cliptop[x] == -2)
	.loc 1 943 5
	cmpw	$-2, %ax	#, _54
	jne	.L157	#,
# r_things.c:944: 	    cliptop[x] = -1;
	.loc 1 944 17
	movl	-1328(%rbp), %eax	# x, tmp226
	cltq
	movw	$-1, -656(%rbp,%rax,2)	#, cliptop[x_63]
.L157:
# r_things.c:938:     for (x = spr->x1 ; x<=spr->x2 ; x++)
	.loc 1 938 38 discriminator 2
	addl	$1, -1328(%rbp)	#, x
.L155:
# r_things.c:938:     for (x = spr->x1 ; x<=spr->x2 ; x++)
	.loc 1 938 30 discriminator 1
	movq	-1336(%rbp), %rax	# spr, tmp227
	movl	20(%rax), %eax	# spr_85(D)->x2, _55
# r_things.c:938:     for (x = spr->x1 ; x<=spr->x2 ; x++)
	.loc 1 938 25 discriminator 1
	cmpl	%eax, -1328(%rbp)	# _55, x
	jle	.L158	#,
# r_things.c:947:     mfloorclip = clipbot;
	.loc 1 947 16
	leaq	-1296(%rbp), %rax	#, tmp228
	movq	%rax, mfloorclip(%rip)	# tmp228, mfloorclip
# r_things.c:948:     mceilingclip = cliptop;
	.loc 1 948 18
	leaq	-656(%rbp), %rax	#, tmp229
	movq	%rax, mceilingclip(%rip)	# tmp229, mceilingclip
# r_things.c:949:     R_DrawVisSprite (spr, spr->x1, spr->x2);
	.loc 1 949 5
	movq	-1336(%rbp), %rax	# spr, tmp230
	movl	20(%rax), %edx	# spr_85(D)->x2, _56
	movq	-1336(%rbp), %rax	# spr, tmp231
	movl	16(%rax), %ecx	# spr_85(D)->x1, _57
	movq	-1336(%rbp), %rax	# spr, tmp232
	movl	%ecx, %esi	# _57,
	movq	%rax, %rdi	# tmp232,
	call	R_DrawVisSprite	#
# r_things.c:950: }
	.loc 1 950 1
	nop	
	movq	-8(%rbp), %rax	# D.7709, tmp234
	subq	%fs:40, %rax	# MEM[(<address-space-1> long unsigned int *)40B], tmp234
	je	.L159	#,
	call	__stack_chk_fail@PLT	#
.L159:
	leave	
	.cfi_def_cfa 7, 8
	ret	
	.cfi_endproc
.LFE18:
	.size	R_DrawSprite, .-R_DrawSprite
	.globl	R_DrawMasked
	.type	R_DrawMasked, @function
R_DrawMasked:
.LFB19:
	.loc 1 959 1
	.cfi_startproc
	endbr64	
	pushq	%rbp	#
	.cfi_def_cfa_offset 16
	.cfi_offset 6, -16
	movq	%rsp, %rbp	#,
	.cfi_def_cfa_register 6
	subq	$16, %rsp	#,
# r_things.c:963:     R_SortVisSprites ();
	.loc 1 963 5
	call	R_SortVisSprites	#
# r_things.c:965:     if (vissprite_p > vissprites)
	.loc 1 965 21
	movq	vissprite_p(%rip), %rax	# vissprite_p, vissprite_p.130_1
# r_things.c:965:     if (vissprite_p > vissprites)
	.loc 1 965 8
	leaq	vissprites(%rip), %rdx	#, tmp88
	cmpq	%rax, %rdx	# vissprite_p.130_1, tmp88
	jnb	.L163	#,
# r_things.c:968: 	for (spr = vsprsortedhead.next ;
	.loc 1 968 11
	movq	8+vsprsortedhead(%rip), %rax	# vsprsortedhead.next, tmp89
	movq	%rax, -16(%rbp)	# tmp89, spr
# r_things.c:968: 	for (spr = vsprsortedhead.next ;
	.loc 1 968 2
	jmp	.L164	#
.L165:
# r_things.c:973: 	    R_DrawSprite (spr);
	.loc 1 973 6
	movq	-16(%rbp), %rax	# spr, tmp90
	movq	%rax, %rdi	# tmp90,
	call	R_DrawSprite	#
# r_things.c:970: 	     spr=spr->next)
	.loc 1 970 10
	movq	-16(%rbp), %rax	# spr, tmp91
	movq	8(%rax), %rax	# spr_7->next, tmp92
	movq	%rax, -16(%rbp)	# tmp92, spr
.L164:
# r_things.c:969: 	     spr != &vsprsortedhead ;
	.loc 1 969 11
	leaq	vsprsortedhead(%rip), %rax	#, tmp93
	cmpq	%rax, -16(%rbp)	# tmp93, spr
	jne	.L165	#,
.L163:
# r_things.c:978:     for (ds=ds_p-1 ; ds >= drawsegs ; ds--)
	.loc 1 978 17
	movq	ds_p(%rip), %rax	# ds_p, ds_p.131_2
# r_things.c:978:     for (ds=ds_p-1 ; ds >= drawsegs ; ds--)
	.loc 1 978 12
	subq	$64, %rax	#, tmp94
	movq	%rax, -8(%rbp)	# tmp94, ds
# r_things.c:978:     for (ds=ds_p-1 ; ds >= drawsegs ; ds--)
	.loc 1 978 5
	jmp	.L166	#
.L168:
# r_things.c:979: 	if (ds->maskedtexturecol)
	.loc 1 979 8
	movq	-8(%rbp), %rax	# ds, tmp95
	movq	56(%rax), %rax	# ds_8->maskedtexturecol, _3
# r_things.c:979: 	if (ds->maskedtexturecol)
	.loc 1 979 5
	testq	%rax, %rax	# _3
	je	.L167	#,
# r_things.c:980: 	    R_RenderMaskedSegRange (ds, ds->x1, ds->x2);
	.loc 1 980 6
	movq	-8(%rbp), %rax	# ds, tmp96
	movl	12(%rax), %edx	# ds_8->x2, _4
	movq	-8(%rbp), %rax	# ds, tmp97
	movl	8(%rax), %ecx	# ds_8->x1, _5
	movq	-8(%rbp), %rax	# ds, tmp98
	movl	%ecx, %esi	# _5,
	movq	%rax, %rdi	# tmp98,
	call	R_RenderMaskedSegRange@PLT	#
.L167:
# r_things.c:978:     for (ds=ds_p-1 ; ds >= drawsegs ; ds--)
	.loc 1 978 41 discriminator 2
	subq	$64, -8(%rbp)	#, ds
.L166:
# r_things.c:978:     for (ds=ds_p-1 ; ds >= drawsegs ; ds--)
	.loc 1 978 25 discriminator 1
	leaq	drawsegs(%rip), %rax	#, tmp99
	cmpq	%rax, -8(%rbp)	# tmp99, ds
	jnb	.L168	#,
# r_things.c:984:     if (!viewangleoffset)		
	.loc 1 984 9
	movl	viewangleoffset(%rip), %eax	# viewangleoffset, viewangleoffset.132_6
# r_things.c:984:     if (!viewangleoffset)		
	.loc 1 984 8
	testl	%eax, %eax	# viewangleoffset.132_6
	jne	.L170	#,
# r_things.c:985: 	R_DrawPlayerSprites ();
	.loc 1 985 2
	call	R_DrawPlayerSprites	#
.L170:
# r_things.c:986: }
	.loc 1 986 1
	nop	
	leave	
	.cfi_def_cfa 7, 8
	ret	
	.cfi_endproc
.LFE19:
	.size	R_DrawMasked, .-R_DrawMasked
.Letext0:
	.file 2 "doomdef.h"
	.file 3 "/usr/lib/gcc/x86_64-linux-gnu/13/include/stddef.h"
	.file 4 "doomtype.h"
	.file 5 "d_ticcmd.h"
	.file 6 "w_wad.h"
	.file 7 "m_fixed.h"
	.file 8 "tables.h"
	.file 9 "d_think.h"
	.file 10 "doomdata.h"
	.file 11 "info.h"
	.file 12 "p_mobj.h"
	.file 13 "r_defs.h"
	.file 14 "d_player.h"
	.file 15 "p_pspr.h"
	.file 16 "r_state.h"
	.file 17 "r_main.h"
	.file 18 "r_bsp.h"
	.file 19 "r_things.h"
	.file 20 "r_draw.h"
	.file 21 "doomstat.h"
	.file 22 "/usr/include/string.h"
	.file 23 "z_zone.h"
	.file 24 "r_segs.h"
	.file 25 "i_system.h"
	.section	.note.GNU-stack,"",@progbits
	.section	.note.gnu.property,"a"
	.align 8
	.long	1f - 0f
	.long	4f - 1f
	.long	5
0:
	.string	"GNU"
1:
	.align 8
	.long	0xc0000002
	.long	3f - 2f
2:
	.long	0x3
3:
	.align 8
4:
