	.file	"s_sound.c"
# GNU C17 (Ubuntu 13.3.0-6ubuntu2~24.04) version 13.3.0 (x86_64-linux-gnu)
#	compiled by GNU C version 13.3.0, GMP version 6.3.0, MPFR version 4.2.1, MPC version 1.3.1, isl version isl-0.26-GMP

# GGC heuristics: --param ggc-min-expand=100 --param ggc-min-heapsize=131072
# options passed: -mtune=generic -march=x86-64 -g -fasynchronous-unwind-tables -fstack-protector-strong -fstack-clash-protection -fcf-protection
	.text
.Ltext0:
	.file 0 "/home/astrid/Documents/enseignements/DOOM/linuxdoom-1.10" "s_sound.c"
	.section	.rodata
	.align 32
	.type	rcsid, @object
	.size	rcsid, 50
rcsid:
	.string	"$Id: s_sound.c,v 1.6 1997/02/03 22:45:12 b1 Exp $"
	.globl	snd_prefixen
	.align 8
	.type	snd_prefixen, @object
	.size	snd_prefixen, 12
snd_prefixen:
	.ascii	"PPASSSMMMSSS"
	.local	channels
	.comm	channels,8,8
	.globl	snd_SfxVolume
	.data
	.align 4
	.type	snd_SfxVolume, @object
	.size	snd_SfxVolume, 4
snd_SfxVolume:
	.long	15
	.globl	snd_MusicVolume
	.align 4
	.type	snd_MusicVolume, @object
	.size	snd_MusicVolume, 4
snd_MusicVolume:
	.long	15
	.local	mus_paused
	.comm	mus_paused,4,4
	.local	mus_playing
	.comm	mus_playing,8,8
	.globl	numChannels
	.bss
	.align 4
	.type	numChannels, @object
	.size	numChannels, 4
numChannels:
	.zero	4
	.local	nextcleanup
	.comm	nextcleanup,4,4
	.section	.rodata
	.align 8
.LC0:
	.string	"S_Init: default sfx volume %d\n"
	.text
	.globl	S_Init
	.type	S_Init, @function
S_Init:
.LFB6:
	.file 1 "s_sound.c"
	.loc 1 164 1
	.cfi_startproc
	endbr64	
	pushq	%rbp	#
	.cfi_def_cfa_offset 16
	.cfi_offset 6, -16
	movq	%rsp, %rbp	#,
	.cfi_def_cfa_register 6
	subq	$32, %rsp	#,
	movl	%edi, -20(%rbp)	# sfxVolume, sfxVolume
	movl	%esi, -24(%rbp)	# musicVolume, musicVolume
# s_sound.c:167:   fprintf( stderr, "S_Init: default sfx volume %d\n", sfxVolume);
	.loc 1 167 3
	movq	stderr(%rip), %rax	# stderr, stderr.0_1
	movl	-20(%rbp), %edx	# sfxVolume, tmp95
	leaq	.LC0(%rip), %rcx	#, tmp96
	movq	%rcx, %rsi	# tmp96,
	movq	%rax, %rdi	# stderr.0_1,
	movl	$0, %eax	#,
	call	fprintf@PLT	#
# s_sound.c:170:   I_SetChannels();
	.loc 1 170 3
	movl	$0, %eax	#,
	call	I_SetChannels@PLT	#
# s_sound.c:172:   S_SetSfxVolume(sfxVolume);
	.loc 1 172 3
	movl	-20(%rbp), %eax	# sfxVolume, tmp97
	movl	%eax, %edi	# tmp97,
	call	S_SetSfxVolume	#
# s_sound.c:174:   S_SetMusicVolume(musicVolume);
	.loc 1 174 3
	movl	-24(%rbp), %eax	# musicVolume, tmp98
	movl	%eax, %edi	# tmp98,
	call	S_SetMusicVolume	#
# s_sound.c:180:     (channel_t *) Z_Malloc(numChannels*sizeof(channel_t), PU_STATIC, 0);
	.loc 1 180 19
	movl	numChannels(%rip), %eax	# numChannels, numChannels.1_2
	cltq
	movl	%eax, %edx	# _3, _4
	movl	%edx, %eax	# _4, tmp99
	addl	%eax, %eax	# tmp99
	addl	%edx, %eax	# _4, tmp99
	sall	$3, %eax	#, tmp100
	movl	$0, %edx	#,
	movl	$1, %esi	#,
	movl	%eax, %edi	# _6,
	call	Z_Malloc@PLT	#
# s_sound.c:179:   channels =
	.loc 1 179 12
	movq	%rax, channels(%rip)	# _7, channels
# s_sound.c:183:   for (i=0 ; i<numChannels ; i++)
	.loc 1 183 9
	movl	$0, -4(%rbp)	#, i
# s_sound.c:183:   for (i=0 ; i<numChannels ; i++)
	.loc 1 183 3
	jmp	.L2	#
.L3:
# s_sound.c:184:     channels[i].sfxinfo = 0;
	.loc 1 184 13
	movq	channels(%rip), %rcx	# channels, channels.2_8
	movl	-4(%rbp), %eax	# i, tmp101
	movslq	%eax, %rdx	# tmp101, _9
	movq	%rdx, %rax	# _9, tmp102
	addq	%rax, %rax	# tmp102
	addq	%rdx, %rax	# _9, tmp102
	salq	$3, %rax	#, tmp103
	addq	%rcx, %rax	# channels.2_8, _11
# s_sound.c:184:     channels[i].sfxinfo = 0;
	.loc 1 184 25
	movq	$0, (%rax)	#, _11->sfxinfo
# s_sound.c:183:   for (i=0 ; i<numChannels ; i++)
	.loc 1 183 31 discriminator 3
	addl	$1, -4(%rbp)	#, i
.L2:
# s_sound.c:183:   for (i=0 ; i<numChannels ; i++)
	.loc 1 183 15 discriminator 1
	movl	numChannels(%rip), %eax	# numChannels, numChannels.3_12
	cmpl	%eax, -4(%rbp)	# numChannels.3_12, i
	jl	.L3	#,
# s_sound.c:187:   mus_paused = 0;
	.loc 1 187 14
	movl	$0, mus_paused(%rip)	#, mus_paused
# s_sound.c:190:   for (i=1 ; i<NUMSFX ; i++)
	.loc 1 190 9
	movl	$1, -4(%rbp)	#, i
# s_sound.c:190:   for (i=1 ; i<NUMSFX ; i++)
	.loc 1 190 3
	jmp	.L4	#
.L5:
# s_sound.c:191:     S_sfx[i].lumpnum = S_sfx[i].usefulness = -1;
	.loc 1 191 44
	movl	-4(%rbp), %eax	# i, tmp105
	movslq	%eax, %rdx	# tmp105, tmp104
	movq	%rdx, %rax	# tmp104, tmp107
	addq	%rax, %rax	# tmp107
	addq	%rdx, %rax	# tmp104, tmp107
	salq	$4, %rax	#, tmp108
	movq	%rax, %rdx	# tmp107, tmp106
	leaq	40+S_sfx(%rip), %rax	#, tmp109
	movl	$-1, (%rdx,%rax)	#, S_sfx[i_15].usefulness
# s_sound.c:191:     S_sfx[i].lumpnum = S_sfx[i].usefulness = -1;
	.loc 1 191 32
	movl	-4(%rbp), %eax	# i, tmp111
	movslq	%eax, %rdx	# tmp111, tmp110
	movq	%rdx, %rax	# tmp110, tmp113
	addq	%rax, %rax	# tmp113
	addq	%rdx, %rax	# tmp110, tmp113
	salq	$4, %rax	#, tmp114
	movq	%rax, %rdx	# tmp113, tmp112
	leaq	40+S_sfx(%rip), %rax	#, tmp115
	movl	(%rdx,%rax), %ecx	# S_sfx[i_15].usefulness, _13
# s_sound.c:191:     S_sfx[i].lumpnum = S_sfx[i].usefulness = -1;
	.loc 1 191 22
	movl	-4(%rbp), %eax	# i, tmp117
	movslq	%eax, %rdx	# tmp117, tmp116
	movq	%rdx, %rax	# tmp116, tmp119
	addq	%rax, %rax	# tmp119
	addq	%rdx, %rax	# tmp116, tmp119
	salq	$4, %rax	#, tmp120
	movq	%rax, %rdx	# tmp119, tmp118
	leaq	44+S_sfx(%rip), %rax	#, tmp121
	movl	%ecx, (%rdx,%rax)	# _13, S_sfx[i_15].lumpnum
# s_sound.c:190:   for (i=1 ; i<NUMSFX ; i++)
	.loc 1 190 26 discriminator 3
	addl	$1, -4(%rbp)	#, i
.L4:
# s_sound.c:190:   for (i=1 ; i<NUMSFX ; i++)
	.loc 1 190 15 discriminator 1
	cmpl	$108, -4(%rbp)	#, i
	jle	.L5	#,
# s_sound.c:192: }
	.loc 1 192 1
	nop	
	nop	
	leave	
	.cfi_def_cfa 7, 8
	ret	
	.cfi_endproc
.LFE6:
	.size	S_Init, .-S_Init
	.globl	S_Start
	.type	S_Start, @function
S_Start:
.LFB7:
	.loc 1 203 1
	.cfi_startproc
	endbr64	
	pushq	%rbp	#
	.cfi_def_cfa_offset 16
	.cfi_offset 6, -16
	movq	%rsp, %rbp	#,
	.cfi_def_cfa_register 6
	subq	$64, %rsp	#,
# s_sound.c:203: {
	.loc 1 203 1
	movq	%fs:40, %rax	# MEM[(<address-space-1> long unsigned int *)40B], tmp109
	movq	%rax, -8(%rbp)	# tmp109, D.8350
	xorl	%eax, %eax	# tmp109
# s_sound.c:209:   for (cnum=0 ; cnum<numChannels ; cnum++)
	.loc 1 209 12
	movl	$0, -56(%rbp)	#, cnum
# s_sound.c:209:   for (cnum=0 ; cnum<numChannels ; cnum++)
	.loc 1 209 3
	jmp	.L7	#
.L9:
# s_sound.c:210:     if (channels[cnum].sfxinfo)
	.loc 1 210 17
	movq	channels(%rip), %rcx	# channels, channels.4_1
	movl	-56(%rbp), %eax	# cnum, tmp99
	movslq	%eax, %rdx	# tmp99, _2
	movq	%rdx, %rax	# _2, tmp100
	addq	%rax, %rax	# tmp100
	addq	%rdx, %rax	# _2, tmp100
	salq	$3, %rax	#, tmp101
	addq	%rcx, %rax	# channels.4_1, _4
# s_sound.c:210:     if (channels[cnum].sfxinfo)
	.loc 1 210 23
	movq	(%rax), %rax	# _4->sfxinfo, _5
# s_sound.c:210:     if (channels[cnum].sfxinfo)
	.loc 1 210 8
	testq	%rax, %rax	# _5
	je	.L8	#,
# s_sound.c:211:       S_StopChannel(cnum);
	.loc 1 211 7
	movl	-56(%rbp), %eax	# cnum, tmp102
	movl	%eax, %edi	# tmp102,
	call	S_StopChannel	#
.L8:
# s_sound.c:209:   for (cnum=0 ; cnum<numChannels ; cnum++)
	.loc 1 209 40 discriminator 2
	addl	$1, -56(%rbp)	#, cnum
.L7:
# s_sound.c:209:   for (cnum=0 ; cnum<numChannels ; cnum++)
	.loc 1 209 21 discriminator 1
	movl	numChannels(%rip), %eax	# numChannels, numChannels.5_6
	cmpl	%eax, -56(%rbp)	# numChannels.5_6, cnum
	jl	.L9	#,
# s_sound.c:214:   mus_paused = 0;
	.loc 1 214 14
	movl	$0, mus_paused(%rip)	#, mus_paused
# s_sound.c:216:   if (gamemode == commercial)
	.loc 1 216 16
	movl	gamemode(%rip), %eax	# gamemode, gamemode.6_7
# s_sound.c:216:   if (gamemode == commercial)
	.loc 1 216 6
	cmpl	$2, %eax	#, gamemode.6_7
	jne	.L10	#,
# s_sound.c:217:     mnum = mus_runnin + gamemap - 1;
	.loc 1 217 33
	movl	gamemap(%rip), %eax	# gamemap, gamemap.7_8
# s_sound.c:217:     mnum = mus_runnin + gamemap - 1;
	.loc 1 217 10
	addl	$32, %eax	#, tmp103
	movl	%eax, -52(%rbp)	# tmp103, mnum
	jmp	.L11	#
.L10:
.LBB2:
# s_sound.c:220:     int spmus[]=
	.loc 1 220 9
	movl	$22, -48(%rbp)	#, spmus[0]
	movl	$20, -44(%rbp)	#, spmus[1]
	movl	$21, -40(%rbp)	#, spmus[2]
	movl	$5, -36(%rbp)	#, spmus[3]
	movl	$16, -32(%rbp)	#, spmus[4]
	movl	$13, -28(%rbp)	#, spmus[5]
	movl	$15, -24(%rbp)	#, spmus[6]
	movl	$14, -20(%rbp)	#, spmus[7]
	movl	$9, -16(%rbp)	#, spmus[8]
# s_sound.c:235:     if (gameepisode < 4)
	.loc 1 235 21
	movl	gameepisode(%rip), %eax	# gameepisode, gameepisode.8_9
# s_sound.c:235:     if (gameepisode < 4)
	.loc 1 235 8
	cmpl	$3, %eax	#, gameepisode.8_9
	jg	.L12	#,
# s_sound.c:236:       mnum = mus_e1m1 + (gameepisode-1)*9 + gamemap-1;
	.loc 1 236 37
	movl	gameepisode(%rip), %eax	# gameepisode, gameepisode.9_10
	leal	-1(%rax), %edx	#, _11
# s_sound.c:236:       mnum = mus_e1m1 + (gameepisode-1)*9 + gamemap-1;
	.loc 1 236 40
	movl	%edx, %eax	# _11, tmp104
	sall	$3, %eax	#, tmp104
	addl	%edx, %eax	# _11, _12
# s_sound.c:236:       mnum = mus_e1m1 + (gameepisode-1)*9 + gamemap-1;
	.loc 1 236 23
	leal	1(%rax), %edx	#, _13
# s_sound.c:236:       mnum = mus_e1m1 + (gameepisode-1)*9 + gamemap-1;
	.loc 1 236 43
	movl	gamemap(%rip), %eax	# gamemap, gamemap.10_14
	addl	%edx, %eax	# _13, _15
# s_sound.c:236:       mnum = mus_e1m1 + (gameepisode-1)*9 + gamemap-1;
	.loc 1 236 12
	subl	$1, %eax	#, tmp105
	movl	%eax, -52(%rbp)	# tmp105, mnum
	jmp	.L11	#
.L12:
# s_sound.c:238:       mnum = spmus[gamemap-1];
	.loc 1 238 27
	movl	gamemap(%rip), %eax	# gamemap, gamemap.11_16
	subl	$1, %eax	#, _17
# s_sound.c:238:       mnum = spmus[gamemap-1];
	.loc 1 238 12
	cltq
	movl	-48(%rbp,%rax,4), %eax	# spmus[_17], tmp107
	movl	%eax, -52(%rbp)	# tmp107, mnum
.L11:
.LBE2:
# s_sound.c:245:   S_ChangeMusic(mnum, true);
	.loc 1 245 3
	movl	-52(%rbp), %eax	# mnum, tmp108
	movl	$1, %esi	#,
	movl	%eax, %edi	# tmp108,
	call	S_ChangeMusic	#
# s_sound.c:247:   nextcleanup = 15;
	.loc 1 247 15
	movl	$15, nextcleanup(%rip)	#, nextcleanup
# s_sound.c:248: }	
	.loc 1 248 1
	nop	
	movq	-8(%rbp), %rax	# D.8350, tmp110
	subq	%fs:40, %rax	# MEM[(<address-space-1> long unsigned int *)40B], tmp110
	je	.L14	#,
	call	__stack_chk_fail@PLT	#
.L14:
	leave	
	.cfi_def_cfa 7, 8
	ret	
	.cfi_endproc
.LFE7:
	.size	S_Start, .-S_Start
	.section	.rodata
.LC1:
	.string	"Bad sfx #: %d"
	.align 8
.LC2:
	.string	"S_StartSoundAtVolume: 16bit and not pre-cached - wtf?\n"
	.text
	.globl	S_StartSoundAtVolume
	.type	S_StartSoundAtVolume, @function
S_StartSoundAtVolume:
.LFB8:
	.loc 1 259 1
	.cfi_startproc
	endbr64	
	pushq	%rbp	#
	.cfi_def_cfa_offset 16
	.cfi_offset 6, -16
	movq	%rsp, %rbp	#,
	.cfi_def_cfa_register 6
	pushq	%rbx	#
	subq	$72, %rsp	#,
	.cfi_offset 3, -24
	movq	%rdi, -72(%rbp)	# origin_p, origin_p
	movl	%esi, -76(%rbp)	# sfx_id, sfx_id
	movl	%edx, -80(%rbp)	# volume, volume
# s_sound.c:259: {
	.loc 1 259 1
	movq	%fs:40, %rax	# MEM[(<address-space-1> long unsigned int *)40B], tmp191
	movq	%rax, -24(%rbp)	# tmp191, D.8352
	xorl	%eax, %eax	# tmp191
# s_sound.c:268:   mobj_t*	origin = (mobj_t *) origin_p;
	.loc 1 268 11
	movq	-72(%rbp), %rax	# origin_p, tmp131
	movq	%rax, -40(%rbp)	# tmp131, origin
# s_sound.c:277:   if (sfx_id < 1 || sfx_id > NUMSFX)
	.loc 1 277 6
	cmpl	$0, -76(%rbp)	#, sfx_id
	jle	.L16	#,
# s_sound.c:277:   if (sfx_id < 1 || sfx_id > NUMSFX)
	.loc 1 277 18 discriminator 1
	cmpl	$109, -76(%rbp)	#, sfx_id
	jle	.L17	#,
.L16:
# s_sound.c:278:     I_Error("Bad sfx #: %d", sfx_id);
	.loc 1 278 5
	movl	-76(%rbp), %eax	# sfx_id, tmp132
	movl	%eax, %esi	# tmp132,
	leaq	.LC1(%rip), %rax	#, tmp133
	movq	%rax, %rdi	# tmp133,
	movl	$0, %eax	#,
	call	I_Error@PLT	#
.L17:
# s_sound.c:280:   sfx = &S_sfx[sfx_id];
	.loc 1 280 7
	movl	-76(%rbp), %eax	# sfx_id, tmp135
	movslq	%eax, %rdx	# tmp135, tmp134
	movq	%rdx, %rax	# tmp134, tmp136
	addq	%rax, %rax	# tmp136
	addq	%rdx, %rax	# tmp134, tmp136
	salq	$4, %rax	#, tmp137
	leaq	S_sfx(%rip), %rdx	#, tmp138
	addq	%rdx, %rax	# tmp138, tmp139
	movq	%rax, -32(%rbp)	# tmp139, sfx
# s_sound.c:283:   if (sfx->link)
	.loc 1 283 10
	movq	-32(%rbp), %rax	# sfx, tmp140
	movq	16(%rax), %rax	# sfx_66->link, _1
# s_sound.c:283:   if (sfx->link)
	.loc 1 283 6
	testq	%rax, %rax	# _1
	je	.L18	#,
# s_sound.c:285:     pitch = sfx->pitch;
	.loc 1 285 16
	movq	-32(%rbp), %rax	# sfx, tmp141
	movl	24(%rax), %eax	# sfx_66->pitch, _2
# s_sound.c:285:     pitch = sfx->pitch;
	.loc 1 285 11
	movl	%eax, -56(%rbp)	# _2, pitch
# s_sound.c:286:     priority = sfx->priority;
	.loc 1 286 14
	movq	-32(%rbp), %rax	# sfx, tmp142
	movl	12(%rax), %eax	# sfx_66->priority, tmp143
	movl	%eax, -52(%rbp)	# tmp143, priority
# s_sound.c:287:     volume += sfx->volume;
	.loc 1 287 18
	movq	-32(%rbp), %rax	# sfx, tmp144
	movl	28(%rax), %edx	# sfx_66->volume, _3
# s_sound.c:287:     volume += sfx->volume;
	.loc 1 287 12
	movl	-80(%rbp), %eax	# volume, volume.12_4
	addl	%edx, %eax	# _3, _5
	movl	%eax, -80(%rbp)	# _5, volume
# s_sound.c:289:     if (volume < 1)
	.loc 1 289 16
	movl	-80(%rbp), %eax	# volume, volume.13_6
# s_sound.c:289:     if (volume < 1)
	.loc 1 289 8
	testl	%eax, %eax	# volume.13_6
	jle	.L37	#,
# s_sound.c:292:     if (volume > snd_SfxVolume)
	.loc 1 292 16
	movl	-80(%rbp), %edx	# volume, volume.14_7
	movl	snd_SfxVolume(%rip), %eax	# snd_SfxVolume, snd_SfxVolume.15_8
# s_sound.c:292:     if (volume > snd_SfxVolume)
	.loc 1 292 8
	cmpl	%eax, %edx	# snd_SfxVolume.15_8, volume.14_7
	jle	.L21	#,
# s_sound.c:293:       volume = snd_SfxVolume;
	.loc 1 293 14
	movl	snd_SfxVolume(%rip), %eax	# snd_SfxVolume, snd_SfxVolume.16_9
	movl	%eax, -80(%rbp)	# snd_SfxVolume.16_9, volume
	jmp	.L21	#
.L18:
# s_sound.c:297:     pitch = NORM_PITCH;
	.loc 1 297 11
	movl	$128, -56(%rbp)	#, pitch
# s_sound.c:298:     priority = NORM_PRIORITY;
	.loc 1 298 14
	movl	$64, -52(%rbp)	#, priority
.L21:
# s_sound.c:304:   if (origin && origin != players[consoleplayer].mo)
	.loc 1 304 6
	cmpq	$0, -40(%rbp)	#, origin
	je	.L22	#,
# s_sound.c:304:   if (origin && origin != players[consoleplayer].mo)
	.loc 1 304 49 discriminator 1
	movl	consoleplayer(%rip), %eax	# consoleplayer, consoleplayer.17_10
	movslq	%eax, %rdx	# consoleplayer.17_10, tmp145
	movq	%rdx, %rax	# tmp145, tmp147
	salq	$2, %rax	#, tmp147
	addq	%rdx, %rax	# tmp145, tmp147
	salq	$6, %rax	#, tmp148
	movq	%rax, %rdx	# tmp147, tmp146
	leaq	players(%rip), %rax	#, tmp149
	movq	(%rdx,%rax), %rax	# players[consoleplayer.17_10].mo, _11
# s_sound.c:304:   if (origin && origin != players[consoleplayer].mo)
	.loc 1 304 14 discriminator 1
	cmpq	%rax, -40(%rbp)	# _11, origin
	je	.L22	#,
# s_sound.c:306:     rc = S_AdjustSoundParams(players[consoleplayer].mo,
	.loc 1 306 10
	movl	consoleplayer(%rip), %eax	# consoleplayer, consoleplayer.18_12
	movslq	%eax, %rdx	# consoleplayer.18_12, tmp150
	movq	%rdx, %rax	# tmp150, tmp152
	salq	$2, %rax	#, tmp152
	addq	%rdx, %rax	# tmp150, tmp152
	salq	$6, %rax	#, tmp153
	movq	%rax, %rdx	# tmp152, tmp151
	leaq	players(%rip), %rax	#, tmp154
	movq	(%rdx,%rax), %rax	# players[consoleplayer.18_12].mo, _13
	leaq	-56(%rbp), %rdi	#, tmp155
	leaq	-60(%rbp), %rcx	#, tmp156
	leaq	-80(%rbp), %rdx	#, tmp157
	movq	-40(%rbp), %rsi	# origin, tmp158
	movq	%rdi, %r8	# tmp155,
	movq	%rax, %rdi	# _13,
	call	S_AdjustSoundParams	#
	movl	%eax, -48(%rbp)	# tmp159, rc
# s_sound.c:312:     if ( origin->x == players[consoleplayer].mo->x
	.loc 1 312 16
	movq	-40(%rbp), %rax	# origin, tmp160
	movl	24(%rax), %ecx	# origin_62->x, _14
# s_sound.c:312:     if ( origin->x == players[consoleplayer].mo->x
	.loc 1 312 45
	movl	consoleplayer(%rip), %eax	# consoleplayer, consoleplayer.19_15
	movslq	%eax, %rdx	# consoleplayer.19_15, tmp161
	movq	%rdx, %rax	# tmp161, tmp163
	salq	$2, %rax	#, tmp163
	addq	%rdx, %rax	# tmp161, tmp163
	salq	$6, %rax	#, tmp164
	movq	%rax, %rdx	# tmp163, tmp162
	leaq	players(%rip), %rax	#, tmp165
	movq	(%rdx,%rax), %rax	# players[consoleplayer.19_15].mo, _16
# s_sound.c:312:     if ( origin->x == players[consoleplayer].mo->x
	.loc 1 312 48
	movl	24(%rax), %eax	# _16->x, _17
# s_sound.c:312:     if ( origin->x == players[consoleplayer].mo->x
	.loc 1 312 8
	cmpl	%eax, %ecx	# _17, _14
	jne	.L23	#,
# s_sound.c:313: 	 && origin->y == players[consoleplayer].mo->y)
	.loc 1 313 12
	movq	-40(%rbp), %rax	# origin, tmp166
	movl	28(%rax), %ecx	# origin_62->y, _18
# s_sound.c:313: 	 && origin->y == players[consoleplayer].mo->y)
	.loc 1 313 41
	movl	consoleplayer(%rip), %eax	# consoleplayer, consoleplayer.20_19
	movslq	%eax, %rdx	# consoleplayer.20_19, tmp167
	movq	%rdx, %rax	# tmp167, tmp169
	salq	$2, %rax	#, tmp169
	addq	%rdx, %rax	# tmp167, tmp169
	salq	$6, %rax	#, tmp170
	movq	%rax, %rdx	# tmp169, tmp168
	leaq	players(%rip), %rax	#, tmp171
	movq	(%rdx,%rax), %rax	# players[consoleplayer.20_19].mo, _20
# s_sound.c:313: 	 && origin->y == players[consoleplayer].mo->y)
	.loc 1 313 44
	movl	28(%rax), %eax	# _20->y, _21
# s_sound.c:313: 	 && origin->y == players[consoleplayer].mo->y)
	.loc 1 313 3
	cmpl	%eax, %ecx	# _21, _18
	jne	.L23	#,
# s_sound.c:315:       sep 	= NORM_SEP;
	.loc 1 315 12
	movl	$128, -60(%rbp)	#, sep
.L23:
# s_sound.c:318:     if (!rc)
	.loc 1 318 8
	cmpl	$0, -48(%rbp)	#, rc
	jne	.L25	#,
# s_sound.c:319:       return;
	.loc 1 319 7
	jmp	.L15	#
.L22:
# s_sound.c:323:     sep = NORM_SEP;
	.loc 1 323 9
	movl	$128, -60(%rbp)	#, sep
.L25:
# s_sound.c:327:   if (sfx_id >= sfx_sawup
	.loc 1 327 6
	cmpl	$9, -76(%rbp)	#, sfx_id
	jle	.L26	#,
# s_sound.c:328:       && sfx_id <= sfx_sawhit)
	.loc 1 328 7
	cmpl	$13, -76(%rbp)	#, sfx_id
	jg	.L26	#,
# s_sound.c:330:     pitch += 8 - (M_Random()&15);
	.loc 1 330 19
	call	M_Random@PLT	#
# s_sound.c:330:     pitch += 8 - (M_Random()&15);
	.loc 1 330 29 discriminator 1
	andl	$15, %eax	#, _23
# s_sound.c:330:     pitch += 8 - (M_Random()&15);
	.loc 1 330 16 discriminator 1
	movl	$8, %edx	#, tmp172
	subl	%eax, %edx	# _23, _78
# s_sound.c:330:     pitch += 8 - (M_Random()&15);
	.loc 1 330 11 discriminator 1
	movl	-56(%rbp), %eax	# pitch, pitch.21_24
	addl	%edx, %eax	# _78, _25
	movl	%eax, -56(%rbp)	# _25, pitch
# s_sound.c:332:     if (pitch<0)
	.loc 1 332 14
	movl	-56(%rbp), %eax	# pitch, pitch.22_26
# s_sound.c:332:     if (pitch<0)
	.loc 1 332 8
	testl	%eax, %eax	# pitch.22_26
	jns	.L27	#,
# s_sound.c:333:       pitch = 0;
	.loc 1 333 13
	movl	$0, -56(%rbp)	#, pitch
# s_sound.c:332:     if (pitch<0)
	.loc 1 332 8
	jmp	.L38	#
.L27:
# s_sound.c:334:     else if (pitch>255)
	.loc 1 334 19
	movl	-56(%rbp), %eax	# pitch, pitch.23_27
# s_sound.c:334:     else if (pitch>255)
	.loc 1 334 13
	cmpl	$255, %eax	#, pitch.23_27
	jle	.L38	#,
# s_sound.c:335:       pitch = 255;
	.loc 1 335 13
	movl	$255, -56(%rbp)	#, pitch
# s_sound.c:332:     if (pitch<0)
	.loc 1 332 8
	jmp	.L38	#
.L26:
# s_sound.c:337:   else if (sfx_id != sfx_itemup
	.loc 1 337 11
	cmpl	$32, -76(%rbp)	#, sfx_id
	je	.L29	#,
# s_sound.c:338: 	   && sfx_id != sfx_tink)
	.loc 1 338 5
	cmpl	$87, -76(%rbp)	#, sfx_id
	je	.L29	#,
# s_sound.c:340:     pitch += 16 - (M_Random()&31);
	.loc 1 340 20
	call	M_Random@PLT	#
# s_sound.c:340:     pitch += 16 - (M_Random()&31);
	.loc 1 340 30 discriminator 1
	andl	$31, %eax	#, _29
# s_sound.c:340:     pitch += 16 - (M_Random()&31);
	.loc 1 340 17 discriminator 1
	movl	$16, %edx	#, tmp173
	subl	%eax, %edx	# _29, _83
# s_sound.c:340:     pitch += 16 - (M_Random()&31);
	.loc 1 340 11 discriminator 1
	movl	-56(%rbp), %eax	# pitch, pitch.24_30
	addl	%edx, %eax	# _83, _31
	movl	%eax, -56(%rbp)	# _31, pitch
# s_sound.c:342:     if (pitch<0)
	.loc 1 342 14
	movl	-56(%rbp), %eax	# pitch, pitch.25_32
# s_sound.c:342:     if (pitch<0)
	.loc 1 342 8
	testl	%eax, %eax	# pitch.25_32
	jns	.L30	#,
# s_sound.c:343:       pitch = 0;
	.loc 1 343 13
	movl	$0, -56(%rbp)	#, pitch
	jmp	.L29	#
.L30:
# s_sound.c:344:     else if (pitch>255)
	.loc 1 344 19
	movl	-56(%rbp), %eax	# pitch, pitch.26_33
# s_sound.c:344:     else if (pitch>255)
	.loc 1 344 13
	cmpl	$255, %eax	#, pitch.26_33
	jle	.L29	#,
# s_sound.c:345:       pitch = 255;
	.loc 1 345 13
	movl	$255, -56(%rbp)	#, pitch
	jmp	.L29	#
.L38:
# s_sound.c:332:     if (pitch<0)
	.loc 1 332 8
	nop	
.L29:
# s_sound.c:349:   S_StopSound(origin);
	.loc 1 349 3
	movq	-40(%rbp), %rax	# origin, tmp174
	movq	%rax, %rdi	# tmp174,
	call	S_StopSound	#
# s_sound.c:352:   cnum = S_getChannel(origin, sfx);
	.loc 1 352 10
	movq	-32(%rbp), %rdx	# sfx, tmp175
	movq	-40(%rbp), %rax	# origin, tmp176
	movq	%rdx, %rsi	# tmp175,
	movq	%rax, %rdi	# tmp176,
	call	S_getChannel	#
	movl	%eax, -44(%rbp)	# tmp177, cnum
# s_sound.c:354:   if (cnum<0)
	.loc 1 354 6
	cmpl	$0, -44(%rbp)	#, cnum
	js	.L39	#,
# s_sound.c:364:   if (sfx->lumpnum < 0)
	.loc 1 364 10
	movq	-32(%rbp), %rax	# sfx, tmp178
	movl	44(%rax), %eax	# sfx_66->lumpnum, _34
# s_sound.c:364:   if (sfx->lumpnum < 0)
	.loc 1 364 6
	testl	%eax, %eax	# _34
	jns	.L32	#,
# s_sound.c:365:     sfx->lumpnum = I_GetSfxLumpNum(sfx);
	.loc 1 365 20
	movq	-32(%rbp), %rax	# sfx, tmp179
	movq	%rax, %rdi	# tmp179,
	call	I_GetSfxLumpNum@PLT	#
# s_sound.c:365:     sfx->lumpnum = I_GetSfxLumpNum(sfx);
	.loc 1 365 18 discriminator 1
	movq	-32(%rbp), %rdx	# sfx, tmp180
	movl	%eax, 44(%rdx)	# _35, sfx_66->lumpnum
.L32:
# s_sound.c:369:   if (!sfx->data)
	.loc 1 369 11
	movq	-32(%rbp), %rax	# sfx, tmp181
	movq	32(%rax), %rax	# sfx_66->data, _36
# s_sound.c:369:   if (!sfx->data)
	.loc 1 369 6
	testq	%rax, %rax	# _36
	jne	.L33	#,
# s_sound.c:371:     fprintf( stderr,
	.loc 1 371 5
	movq	stderr(%rip), %rax	# stderr, stderr.27_37
	movq	%rax, %rcx	# stderr.27_37,
	movl	$54, %edx	#,
	movl	$1, %esi	#,
	leaq	.LC2(%rip), %rax	#, tmp182
	movq	%rax, %rdi	# tmp182,
	call	fwrite@PLT	#
.L33:
# s_sound.c:384:   if (sfx->usefulness++ < 0)
	.loc 1 384 10
	movq	-32(%rbp), %rax	# sfx, tmp183
	movl	40(%rax), %eax	# sfx_66->usefulness, _38
# s_sound.c:384:   if (sfx->usefulness++ < 0)
	.loc 1 384 22
	leal	1(%rax), %ecx	#, _40
	movq	-32(%rbp), %rdx	# sfx, tmp184
	movl	%ecx, 40(%rdx)	# _40, sfx_66->usefulness
# s_sound.c:384:   if (sfx->usefulness++ < 0)
	.loc 1 384 6
	testl	%eax, %eax	# _38
	jns	.L34	#,
# s_sound.c:385:     sfx->usefulness = 1;
	.loc 1 385 21
	movq	-32(%rbp), %rax	# sfx, tmp185
	movl	$1, 40(%rax)	#, sfx_66->usefulness
.L34:
# s_sound.c:389:   channels[cnum].handle = I_StartSound(sfx_id,
	.loc 1 389 27
	movl	-56(%rbp), %ecx	# pitch, pitch.28_41
	movl	-60(%rbp), %edi	# sep, sep.29_42
	movl	-80(%rbp), %esi	# volume, volume.30_43
# s_sound.c:389:   channels[cnum].handle = I_StartSound(sfx_id,
	.loc 1 389 11
	movq	channels(%rip), %r8	# channels, channels.31_44
	movl	-44(%rbp), %eax	# cnum, tmp186
	movslq	%eax, %rdx	# tmp186, _45
	movq	%rdx, %rax	# _45, tmp187
	addq	%rax, %rax	# tmp187
	addq	%rdx, %rax	# _45, tmp187
	salq	$3, %rax	#, tmp188
	leaq	(%r8,%rax), %rbx	#, _47
# s_sound.c:389:   channels[cnum].handle = I_StartSound(sfx_id,
	.loc 1 389 27
	movl	-52(%rbp), %edx	# priority, tmp189
	movl	-76(%rbp), %eax	# sfx_id, tmp190
	movl	%edx, %r8d	# tmp189,
	movl	%edi, %edx	# sep.29_42,
	movl	%eax, %edi	# tmp190,
	call	I_StartSound@PLT	#
# s_sound.c:389:   channels[cnum].handle = I_StartSound(sfx_id,
	.loc 1 389 25 discriminator 1
	movl	%eax, 16(%rbx)	# _48, _47->handle
	jmp	.L15	#
.L37:
# s_sound.c:290:       return;
	.loc 1 290 7
	nop	
	jmp	.L15	#
.L39:
# s_sound.c:355:     return;
	.loc 1 355 5
	nop	
.L15:
# s_sound.c:395: }	
	.loc 1 395 1
	movq	-24(%rbp), %rax	# D.8352, tmp192
	subq	%fs:40, %rax	# MEM[(<address-space-1> long unsigned int *)40B], tmp192
	je	.L36	#,
	call	__stack_chk_fail@PLT	#
.L36:
	movq	-8(%rbp), %rbx	#,
	leave	
	.cfi_def_cfa 7, 8
	ret	
	.cfi_endproc
.LFE8:
	.size	S_StartSoundAtVolume, .-S_StartSoundAtVolume
	.globl	S_StartSound
	.type	S_StartSound, @function
S_StartSound:
.LFB9:
	.loc 1 401 1
	.cfi_startproc
	endbr64	
	pushq	%rbp	#
	.cfi_def_cfa_offset 16
	.cfi_offset 6, -16
	movq	%rsp, %rbp	#,
	.cfi_def_cfa_register 6
	subq	$16, %rsp	#,
	movq	%rdi, -8(%rbp)	# origin, origin
	movl	%esi, -12(%rbp)	# sfx_id, sfx_id
# s_sound.c:407:     S_StartSoundAtVolume(origin, sfx_id, snd_SfxVolume);
	.loc 1 407 5
	movl	snd_SfxVolume(%rip), %edx	# snd_SfxVolume, snd_SfxVolume.32_1
	movl	-12(%rbp), %ecx	# sfx_id, tmp83
	movq	-8(%rbp), %rax	# origin, tmp84
	movl	%ecx, %esi	# tmp83,
	movq	%rax, %rdi	# tmp84,
	call	S_StartSoundAtVolume	#
# s_sound.c:466: }
	.loc 1 466 1
	nop	
	leave	
	.cfi_def_cfa 7, 8
	ret	
	.cfi_endproc
.LFE9:
	.size	S_StartSound, .-S_StartSound
	.globl	S_StopSound
	.type	S_StopSound, @function
S_StopSound:
.LFB10:
	.loc 1 472 1
	.cfi_startproc
	endbr64	
	pushq	%rbp	#
	.cfi_def_cfa_offset 16
	.cfi_offset 6, -16
	movq	%rsp, %rbp	#,
	.cfi_def_cfa_register 6
	subq	$32, %rsp	#,
	movq	%rdi, -24(%rbp)	# origin, origin
# s_sound.c:476:     for (cnum=0 ; cnum<numChannels ; cnum++)
	.loc 1 476 14
	movl	$0, -4(%rbp)	#, cnum
# s_sound.c:476:     for (cnum=0 ; cnum<numChannels ; cnum++)
	.loc 1 476 5
	jmp	.L42	#
.L45:
# s_sound.c:478: 	if (channels[cnum].sfxinfo && channels[cnum].origin == origin)
	.loc 1 478 14
	movq	channels(%rip), %rcx	# channels, channels.33_1
	movl	-4(%rbp), %eax	# cnum, tmp93
	movslq	%eax, %rdx	# tmp93, _2
	movq	%rdx, %rax	# _2, tmp94
	addq	%rax, %rax	# tmp94
	addq	%rdx, %rax	# _2, tmp94
	salq	$3, %rax	#, tmp95
	addq	%rcx, %rax	# channels.33_1, _4
# s_sound.c:478: 	if (channels[cnum].sfxinfo && channels[cnum].origin == origin)
	.loc 1 478 20
	movq	(%rax), %rax	# _4->sfxinfo, _5
# s_sound.c:478: 	if (channels[cnum].sfxinfo && channels[cnum].origin == origin)
	.loc 1 478 5
	testq	%rax, %rax	# _5
	je	.L43	#,
# s_sound.c:478: 	if (channels[cnum].sfxinfo && channels[cnum].origin == origin)
	.loc 1 478 40 discriminator 1
	movq	channels(%rip), %rcx	# channels, channels.34_6
	movl	-4(%rbp), %eax	# cnum, tmp96
	movslq	%eax, %rdx	# tmp96, _7
	movq	%rdx, %rax	# _7, tmp97
	addq	%rax, %rax	# tmp97
	addq	%rdx, %rax	# _7, tmp97
	salq	$3, %rax	#, tmp98
	addq	%rcx, %rax	# channels.34_6, _9
# s_sound.c:478: 	if (channels[cnum].sfxinfo && channels[cnum].origin == origin)
	.loc 1 478 46 discriminator 1
	movq	8(%rax), %rax	# _9->origin, _10
# s_sound.c:478: 	if (channels[cnum].sfxinfo && channels[cnum].origin == origin)
	.loc 1 478 29 discriminator 1
	cmpq	%rax, -24(%rbp)	# _10, origin
	jne	.L43	#,
# s_sound.c:480: 	    S_StopChannel(cnum);
	.loc 1 480 6
	movl	-4(%rbp), %eax	# cnum, tmp99
	movl	%eax, %edi	# tmp99,
	call	S_StopChannel	#
# s_sound.c:481: 	    break;
	.loc 1 481 6
	jmp	.L44	#
.L43:
# s_sound.c:476:     for (cnum=0 ; cnum<numChannels ; cnum++)
	.loc 1 476 42 discriminator 2
	addl	$1, -4(%rbp)	#, cnum
.L42:
# s_sound.c:476:     for (cnum=0 ; cnum<numChannels ; cnum++)
	.loc 1 476 23 discriminator 1
	movl	numChannels(%rip), %eax	# numChannels, numChannels.35_11
	cmpl	%eax, -4(%rbp)	# numChannels.35_11, cnum
	jl	.L45	#,
# s_sound.c:484: }
	.loc 1 484 1
	nop	
.L44:
	nop	
	leave	
	.cfi_def_cfa 7, 8
	ret	
	.cfi_endproc
.LFE10:
	.size	S_StopSound, .-S_StopSound
	.globl	S_PauseSound
	.type	S_PauseSound, @function
S_PauseSound:
.LFB11:
	.loc 1 498 1
	.cfi_startproc
	endbr64	
	pushq	%rbp	#
	.cfi_def_cfa_offset 16
	.cfi_offset 6, -16
	movq	%rsp, %rbp	#,
	.cfi_def_cfa_register 6
# s_sound.c:499:     if (mus_playing && !mus_paused)
	.loc 1 499 9
	movq	mus_playing(%rip), %rax	# mus_playing, mus_playing.36_1
# s_sound.c:499:     if (mus_playing && !mus_paused)
	.loc 1 499 8
	testq	%rax, %rax	# mus_playing.36_1
	je	.L48	#,
# s_sound.c:499:     if (mus_playing && !mus_paused)
	.loc 1 499 24 discriminator 1
	movl	mus_paused(%rip), %eax	# mus_paused, mus_paused.37_2
# s_sound.c:499:     if (mus_playing && !mus_paused)
	.loc 1 499 21 discriminator 1
	testl	%eax, %eax	# mus_paused.37_2
	jne	.L48	#,
# s_sound.c:501: 	I_PauseSong(mus_playing->handle);
	.loc 1 501 25
	movq	mus_playing(%rip), %rax	# mus_playing, mus_playing.38_3
# s_sound.c:501: 	I_PauseSong(mus_playing->handle);
	.loc 1 501 2
	movl	24(%rax), %eax	# mus_playing.38_3->handle, _4
	movl	%eax, %edi	# _4,
	call	I_PauseSong@PLT	#
# s_sound.c:502: 	mus_paused = true;
	.loc 1 502 13
	movl	$1, mus_paused(%rip)	#, mus_paused
.L48:
# s_sound.c:504: }
	.loc 1 504 1
	nop	
	popq	%rbp	#
	.cfi_def_cfa 7, 8
	ret	
	.cfi_endproc
.LFE11:
	.size	S_PauseSound, .-S_PauseSound
	.globl	S_ResumeSound
	.type	S_ResumeSound, @function
S_ResumeSound:
.LFB12:
	.loc 1 507 1
	.cfi_startproc
	endbr64	
	pushq	%rbp	#
	.cfi_def_cfa_offset 16
	.cfi_offset 6, -16
	movq	%rsp, %rbp	#,
	.cfi_def_cfa_register 6
# s_sound.c:508:     if (mus_playing && mus_paused)
	.loc 1 508 9
	movq	mus_playing(%rip), %rax	# mus_playing, mus_playing.39_1
# s_sound.c:508:     if (mus_playing && mus_paused)
	.loc 1 508 8
	testq	%rax, %rax	# mus_playing.39_1
	je	.L51	#,
# s_sound.c:508:     if (mus_playing && mus_paused)
	.loc 1 508 21 discriminator 1
	movl	mus_paused(%rip), %eax	# mus_paused, mus_paused.40_2
	testl	%eax, %eax	# mus_paused.40_2
	je	.L51	#,
# s_sound.c:510: 	I_ResumeSong(mus_playing->handle);
	.loc 1 510 26
	movq	mus_playing(%rip), %rax	# mus_playing, mus_playing.41_3
# s_sound.c:510: 	I_ResumeSong(mus_playing->handle);
	.loc 1 510 2
	movl	24(%rax), %eax	# mus_playing.41_3->handle, _4
	movl	%eax, %edi	# _4,
	call	I_ResumeSong@PLT	#
# s_sound.c:511: 	mus_paused = false;
	.loc 1 511 13
	movl	$0, mus_paused(%rip)	#, mus_paused
.L51:
# s_sound.c:513: }
	.loc 1 513 1
	nop	
	popq	%rbp	#
	.cfi_def_cfa 7, 8
	ret	
	.cfi_endproc
.LFE12:
	.size	S_ResumeSound, .-S_ResumeSound
	.globl	S_UpdateSounds
	.type	S_UpdateSounds, @function
S_UpdateSounds:
.LFB13:
	.loc 1 520 1
	.cfi_startproc
	endbr64	
	pushq	%rbp	#
	.cfi_def_cfa_offset 16
	.cfi_offset 6, -16
	movq	%rsp, %rbp	#,
	.cfi_def_cfa_register 6
	subq	$80, %rsp	#,
	movq	%rdi, -72(%rbp)	# listener_p, listener_p
# s_sound.c:520: {
	.loc 1 520 1
	movq	%fs:40, %rax	# MEM[(<address-space-1> long unsigned int *)40B], tmp130
	movq	%rax, -8(%rbp)	# tmp130, D.8355
	xorl	%eax, %eax	# tmp130
# s_sound.c:529:     mobj_t*	listener = (mobj_t*)listener_p;
	.loc 1 529 13
	movq	-72(%rbp), %rax	# listener_p, tmp106
	movq	%rax, -32(%rbp)	# tmp106, listener
# s_sound.c:553:     for (cnum=0 ; cnum<numChannels ; cnum++)
	.loc 1 553 14
	movl	$0, -40(%rbp)	#, cnum
# s_sound.c:553:     for (cnum=0 ; cnum<numChannels ; cnum++)
	.loc 1 553 5
	jmp	.L53	#
.L59:
# s_sound.c:555: 	c = &channels[cnum];
	.loc 1 555 6
	movq	channels(%rip), %rcx	# channels, channels.42_1
# s_sound.c:555: 	c = &channels[cnum];
	.loc 1 555 15
	movl	-40(%rbp), %eax	# cnum, tmp107
	movslq	%eax, %rdx	# tmp107, _2
	movq	%rdx, %rax	# _2, tmp108
	addq	%rax, %rax	# tmp108
	addq	%rdx, %rax	# _2, tmp108
	salq	$3, %rax	#, tmp109
# s_sound.c:555: 	c = &channels[cnum];
	.loc 1 555 4
	addq	%rcx, %rax	# channels.42_1, tmp110
	movq	%rax, -24(%rbp)	# tmp110, c
# s_sound.c:556: 	sfx = c->sfxinfo;
	.loc 1 556 6
	movq	-24(%rbp), %rax	# c, tmp111
	movq	(%rax), %rax	# c_36->sfxinfo, tmp112
	movq	%rax, -16(%rbp)	# tmp112, sfx
# s_sound.c:558: 	if (c->sfxinfo)
	.loc 1 558 7
	movq	-24(%rbp), %rax	# c, tmp113
	movq	(%rax), %rax	# c_36->sfxinfo, _4
# s_sound.c:558: 	if (c->sfxinfo)
	.loc 1 558 5
	testq	%rax, %rax	# _4
	je	.L54	#,
# s_sound.c:560: 	    if (I_SoundIsPlaying(c->handle))
	.loc 1 560 10
	movq	-24(%rbp), %rax	# c, tmp114
	movl	16(%rax), %eax	# c_36->handle, _5
	movl	%eax, %edi	# _5,
	call	I_SoundIsPlaying@PLT	#
# s_sound.c:560: 	    if (I_SoundIsPlaying(c->handle))
	.loc 1 560 9 discriminator 1
	testl	%eax, %eax	# _6
	je	.L55	#,
# s_sound.c:563: 		volume = snd_SfxVolume;
	.loc 1 563 10
	movl	snd_SfxVolume(%rip), %eax	# snd_SfxVolume, snd_SfxVolume.43_7
	movl	%eax, -52(%rbp)	# snd_SfxVolume.43_7, volume
# s_sound.c:564: 		pitch = NORM_PITCH;
	.loc 1 564 9
	movl	$128, -44(%rbp)	#, pitch
# s_sound.c:565: 		sep = NORM_SEP;
	.loc 1 565 7
	movl	$128, -48(%rbp)	#, sep
# s_sound.c:567: 		if (sfx->link)
	.loc 1 567 10
	movq	-16(%rbp), %rax	# sfx, tmp115
	movq	16(%rax), %rax	# sfx_37->link, _8
# s_sound.c:567: 		if (sfx->link)
	.loc 1 567 6
	testq	%rax, %rax	# _8
	je	.L56	#,
# s_sound.c:569: 		    pitch = sfx->pitch;
	.loc 1 569 18
	movq	-16(%rbp), %rax	# sfx, tmp116
	movl	24(%rax), %eax	# sfx_37->pitch, _9
# s_sound.c:569: 		    pitch = sfx->pitch;
	.loc 1 569 13
	movl	%eax, -44(%rbp)	# _9, pitch
# s_sound.c:570: 		    volume += sfx->volume;
	.loc 1 570 20
	movq	-16(%rbp), %rax	# sfx, tmp117
	movl	28(%rax), %edx	# sfx_37->volume, _10
# s_sound.c:570: 		    volume += sfx->volume;
	.loc 1 570 14
	movl	-52(%rbp), %eax	# volume, volume.44_11
	addl	%edx, %eax	# _10, _12
	movl	%eax, -52(%rbp)	# _12, volume
# s_sound.c:571: 		    if (volume < 1)
	.loc 1 571 18
	movl	-52(%rbp), %eax	# volume, volume.45_13
# s_sound.c:571: 		    if (volume < 1)
	.loc 1 571 10
	testl	%eax, %eax	# volume.45_13
	jg	.L57	#,
# s_sound.c:573: 			S_StopChannel(cnum);
	.loc 1 573 4
	movl	-40(%rbp), %eax	# cnum, tmp118
	movl	%eax, %edi	# tmp118,
	call	S_StopChannel	#
# s_sound.c:574: 			continue;
	.loc 1 574 4
	jmp	.L54	#
.L57:
# s_sound.c:576: 		    else if (volume > snd_SfxVolume)
	.loc 1 576 23
	movl	-52(%rbp), %edx	# volume, volume.46_14
	movl	snd_SfxVolume(%rip), %eax	# snd_SfxVolume, snd_SfxVolume.47_15
# s_sound.c:576: 		    else if (volume > snd_SfxVolume)
	.loc 1 576 15
	cmpl	%eax, %edx	# snd_SfxVolume.47_15, volume.46_14
	jle	.L56	#,
# s_sound.c:578: 			volume = snd_SfxVolume;
	.loc 1 578 11
	movl	snd_SfxVolume(%rip), %eax	# snd_SfxVolume, snd_SfxVolume.48_16
	movl	%eax, -52(%rbp)	# snd_SfxVolume.48_16, volume
.L56:
# s_sound.c:584: 		if (c->origin && listener_p != c->origin)
	.loc 1 584 8
	movq	-24(%rbp), %rax	# c, tmp119
	movq	8(%rax), %rax	# c_36->origin, _17
# s_sound.c:584: 		if (c->origin && listener_p != c->origin)
	.loc 1 584 6
	testq	%rax, %rax	# _17
	je	.L54	#,
# s_sound.c:584: 		if (c->origin && listener_p != c->origin)
	.loc 1 584 35 discriminator 1
	movq	-24(%rbp), %rax	# c, tmp120
	movq	8(%rax), %rax	# c_36->origin, _18
# s_sound.c:584: 		if (c->origin && listener_p != c->origin)
	.loc 1 584 17 discriminator 1
	cmpq	%rax, -72(%rbp)	# _18, listener_p
	je	.L54	#,
# s_sound.c:587: 						  c->origin,
	.loc 1 587 10
	movq	-24(%rbp), %rax	# c, tmp121
	movq	8(%rax), %rsi	# c_36->origin, _19
# s_sound.c:586: 		    audible = S_AdjustSoundParams(listener,
	.loc 1 586 17
	leaq	-44(%rbp), %rdi	#, tmp122
	leaq	-48(%rbp), %rcx	#, tmp123
	leaq	-52(%rbp), %rdx	#, tmp124
	movq	-32(%rbp), %rax	# listener, tmp125
	movq	%rdi, %r8	# tmp122,
	movq	%rax, %rdi	# tmp125,
	call	S_AdjustSoundParams	#
	movl	%eax, -36(%rbp)	# tmp126, audible
# s_sound.c:592: 		    if (!audible)
	.loc 1 592 10
	cmpl	$0, -36(%rbp)	#, audible
	jne	.L58	#,
# s_sound.c:594: 			S_StopChannel(cnum);
	.loc 1 594 4
	movl	-40(%rbp), %eax	# cnum, tmp127
	movl	%eax, %edi	# tmp127,
	call	S_StopChannel	#
	jmp	.L54	#
.L58:
# s_sound.c:597: 			I_UpdateSoundParams(c->handle, volume, sep, pitch);
	.loc 1 597 4
	movl	-44(%rbp), %ecx	# pitch, pitch.49_20
	movl	-48(%rbp), %edx	# sep, sep.50_21
	movl	-52(%rbp), %esi	# volume, volume.51_22
	movq	-24(%rbp), %rax	# c, tmp128
	movl	16(%rax), %eax	# c_36->handle, _23
	movl	%eax, %edi	# _23,
	call	I_UpdateSoundParams@PLT	#
	jmp	.L54	#
.L55:
# s_sound.c:604: 		S_StopChannel(cnum);
	.loc 1 604 3
	movl	-40(%rbp), %eax	# cnum, tmp129
	movl	%eax, %edi	# tmp129,
	call	S_StopChannel	#
.L54:
# s_sound.c:553:     for (cnum=0 ; cnum<numChannels ; cnum++)
	.loc 1 553 42 discriminator 2
	addl	$1, -40(%rbp)	#, cnum
.L53:
# s_sound.c:553:     for (cnum=0 ; cnum<numChannels ; cnum++)
	.loc 1 553 23 discriminator 1
	movl	numChannels(%rip), %eax	# numChannels, numChannels.52_24
	cmpl	%eax, -40(%rbp)	# numChannels.52_24, cnum
	jl	.L59	#,
# s_sound.c:613: }
	.loc 1 613 1
	nop	
	movq	-8(%rbp), %rax	# D.8355, tmp131
	subq	%fs:40, %rax	# MEM[(<address-space-1> long unsigned int *)40B], tmp131
	je	.L60	#,
	call	__stack_chk_fail@PLT	#
.L60:
	leave	
	.cfi_def_cfa 7, 8
	ret	
	.cfi_endproc
.LFE13:
	.size	S_UpdateSounds, .-S_UpdateSounds
	.section	.rodata
	.align 8
.LC3:
	.string	"Attempt to set music volume at %d"
	.text
	.globl	S_SetMusicVolume
	.type	S_SetMusicVolume, @function
S_SetMusicVolume:
.LFB14:
	.loc 1 617 1
	.cfi_startproc
	endbr64	
	pushq	%rbp	#
	.cfi_def_cfa_offset 16
	.cfi_offset 6, -16
	movq	%rsp, %rbp	#,
	.cfi_def_cfa_register 6
	subq	$16, %rsp	#,
	movl	%edi, -4(%rbp)	# volume, volume
# s_sound.c:618:     if (volume < 0 || volume > 127)
	.loc 1 618 8
	cmpl	$0, -4(%rbp)	#, volume
	js	.L62	#,
# s_sound.c:618:     if (volume < 0 || volume > 127)
	.loc 1 618 20 discriminator 1
	cmpl	$127, -4(%rbp)	#, volume
	jle	.L63	#,
.L62:
# s_sound.c:620: 	I_Error("Attempt to set music volume at %d",
	.loc 1 620 2
	movl	-4(%rbp), %eax	# volume, tmp82
	movl	%eax, %esi	# tmp82,
	leaq	.LC3(%rip), %rax	#, tmp83
	movq	%rax, %rdi	# tmp83,
	movl	$0, %eax	#,
	call	I_Error@PLT	#
.L63:
# s_sound.c:624:     I_SetMusicVolume(127);
	.loc 1 624 5
	movl	$127, %edi	#,
	call	I_SetMusicVolume@PLT	#
# s_sound.c:625:     I_SetMusicVolume(volume);
	.loc 1 625 5
	movl	-4(%rbp), %eax	# volume, tmp84
	movl	%eax, %edi	# tmp84,
	call	I_SetMusicVolume@PLT	#
# s_sound.c:626:     snd_MusicVolume = volume;
	.loc 1 626 21
	movl	-4(%rbp), %eax	# volume, tmp85
	movl	%eax, snd_MusicVolume(%rip)	# tmp85, snd_MusicVolume
# s_sound.c:627: }
	.loc 1 627 1
	nop	
	leave	
	.cfi_def_cfa 7, 8
	ret	
	.cfi_endproc
.LFE14:
	.size	S_SetMusicVolume, .-S_SetMusicVolume
	.section	.rodata
	.align 8
.LC4:
	.string	"Attempt to set sfx volume at %d"
	.text
	.globl	S_SetSfxVolume
	.type	S_SetSfxVolume, @function
S_SetSfxVolume:
.LFB15:
	.loc 1 632 1
	.cfi_startproc
	endbr64	
	pushq	%rbp	#
	.cfi_def_cfa_offset 16
	.cfi_offset 6, -16
	movq	%rsp, %rbp	#,
	.cfi_def_cfa_register 6
	subq	$16, %rsp	#,
	movl	%edi, -4(%rbp)	# volume, volume
# s_sound.c:634:     if (volume < 0 || volume > 127)
	.loc 1 634 8
	cmpl	$0, -4(%rbp)	#, volume
	js	.L65	#,
# s_sound.c:634:     if (volume < 0 || volume > 127)
	.loc 1 634 20 discriminator 1
	cmpl	$127, -4(%rbp)	#, volume
	jle	.L66	#,
.L65:
# s_sound.c:635: 	I_Error("Attempt to set sfx volume at %d", volume);
	.loc 1 635 2
	movl	-4(%rbp), %eax	# volume, tmp82
	movl	%eax, %esi	# tmp82,
	leaq	.LC4(%rip), %rax	#, tmp83
	movq	%rax, %rdi	# tmp83,
	movl	$0, %eax	#,
	call	I_Error@PLT	#
.L66:
# s_sound.c:637:     snd_SfxVolume = volume;
	.loc 1 637 19
	movl	-4(%rbp), %eax	# volume, tmp84
	movl	%eax, snd_SfxVolume(%rip)	# tmp84, snd_SfxVolume
# s_sound.c:639: }
	.loc 1 639 1
	nop	
	leave	
	.cfi_def_cfa 7, 8
	ret	
	.cfi_endproc
.LFE15:
	.size	S_SetSfxVolume, .-S_SetSfxVolume
	.globl	S_StartMusic
	.type	S_StartMusic, @function
S_StartMusic:
.LFB16:
	.loc 1 645 1
	.cfi_startproc
	endbr64	
	pushq	%rbp	#
	.cfi_def_cfa_offset 16
	.cfi_offset 6, -16
	movq	%rsp, %rbp	#,
	.cfi_def_cfa_register 6
	subq	$16, %rsp	#,
	movl	%edi, -4(%rbp)	# m_id, m_id
# s_sound.c:646:     S_ChangeMusic(m_id, false);
	.loc 1 646 5
	movl	-4(%rbp), %eax	# m_id, tmp82
	movl	$0, %esi	#,
	movl	%eax, %edi	# tmp82,
	call	S_ChangeMusic	#
# s_sound.c:647: }
	.loc 1 647 1
	nop	
	leave	
	.cfi_def_cfa 7, 8
	ret	
	.cfi_endproc
.LFE16:
	.size	S_StartMusic, .-S_StartMusic
	.section	.rodata
.LC5:
	.string	"Bad music number %d"
.LC6:
	.string	"d_%s"
	.text
	.globl	S_ChangeMusic
	.type	S_ChangeMusic, @function
S_ChangeMusic:
.LFB17:
	.loc 1 653 1
	.cfi_startproc
	endbr64	
	pushq	%rbp	#
	.cfi_def_cfa_offset 16
	.cfi_offset 6, -16
	movq	%rsp, %rbp	#,
	.cfi_def_cfa_register 6
	subq	$48, %rsp	#,
	movl	%edi, -36(%rbp)	# musicnum, musicnum
	movl	%esi, -40(%rbp)	# looping, looping
# s_sound.c:653: {
	.loc 1 653 1
	movq	%fs:40, %rax	# MEM[(<address-space-1> long unsigned int *)40B], tmp111
	movq	%rax, -8(%rbp)	# tmp111, D.8358
	xorl	%eax, %eax	# tmp111
# s_sound.c:657:     if ( (musicnum <= mus_None)
	.loc 1 657 8
	cmpl	$0, -36(%rbp)	#, musicnum
	jle	.L69	#,
# s_sound.c:658: 	 || (musicnum >= NUMMUSIC) )
	.loc 1 658 3
	cmpl	$67, -36(%rbp)	#, musicnum
	jle	.L70	#,
.L69:
# s_sound.c:660: 	I_Error("Bad music number %d", musicnum);
	.loc 1 660 2
	movl	-36(%rbp), %eax	# musicnum, tmp91
	movl	%eax, %esi	# tmp91,
	leaq	.LC5(%rip), %rax	#, tmp92
	movq	%rax, %rdi	# tmp92,
	movl	$0, %eax	#,
	call	I_Error@PLT	#
	jmp	.L71	#
.L70:
# s_sound.c:663: 	music = &S_music[musicnum];
	.loc 1 663 8
	movl	-36(%rbp), %eax	# musicnum, tmp94
	cltq
	salq	$5, %rax	#, tmp93
	movq	%rax, %rdx	# tmp93, tmp95
	leaq	S_music(%rip), %rax	#, tmp96
	addq	%rdx, %rax	# tmp95, tmp97
	movq	%rax, -32(%rbp)	# tmp97, music
.L71:
# s_sound.c:665:     if (mus_playing == music)
	.loc 1 665 21
	movq	mus_playing(%rip), %rax	# mus_playing, mus_playing.53_1
# s_sound.c:665:     if (mus_playing == music)
	.loc 1 665 8
	cmpq	%rax, -32(%rbp)	# mus_playing.53_1, music
	je	.L76	#,
# s_sound.c:669:     S_StopMusic();
	.loc 1 669 5
	call	S_StopMusic	#
# s_sound.c:672:     if (!music->lumpnum)
	.loc 1 672 15
	movq	-32(%rbp), %rax	# music, tmp98
	movl	8(%rax), %eax	# music_10->lumpnum, _2
# s_sound.c:672:     if (!music->lumpnum)
	.loc 1 672 8
	testl	%eax, %eax	# _2
	jne	.L74	#,
# s_sound.c:674: 	sprintf(namebuf, "d_%s", music->name);
	.loc 1 674 2
	movq	-32(%rbp), %rax	# music, tmp99
	movq	(%rax), %rdx	# music_10->name, _3
	leaq	-17(%rbp), %rax	#, tmp100
	leaq	.LC6(%rip), %rcx	#, tmp101
	movq	%rcx, %rsi	# tmp101,
	movq	%rax, %rdi	# tmp100,
	movl	$0, %eax	#,
	call	sprintf@PLT	#
# s_sound.c:675: 	music->lumpnum = W_GetNumForName(namebuf);
	.loc 1 675 19
	leaq	-17(%rbp), %rax	#, tmp102
	movq	%rax, %rdi	# tmp102,
	call	W_GetNumForName@PLT	#
# s_sound.c:675: 	music->lumpnum = W_GetNumForName(namebuf);
	.loc 1 675 17 discriminator 1
	movq	-32(%rbp), %rdx	# music, tmp103
	movl	%eax, 8(%rdx)	# _4, music_10->lumpnum
.L74:
# s_sound.c:679:     music->data = (void *) W_CacheLumpNum(music->lumpnum, PU_MUSIC);
	.loc 1 679 19
	movq	-32(%rbp), %rax	# music, tmp104
	movl	8(%rax), %eax	# music_10->lumpnum, _5
	movl	$3, %esi	#,
	movl	%eax, %edi	# _5,
	call	W_CacheLumpNum@PLT	#
# s_sound.c:679:     music->data = (void *) W_CacheLumpNum(music->lumpnum, PU_MUSIC);
	.loc 1 679 17 discriminator 1
	movq	-32(%rbp), %rdx	# music, tmp105
	movq	%rax, 16(%rdx)	# _6, music_10->data
# s_sound.c:680:     music->handle = I_RegisterSong(music->data);
	.loc 1 680 21
	movq	-32(%rbp), %rax	# music, tmp106
	movq	16(%rax), %rax	# music_10->data, _7
	movq	%rax, %rdi	# _7,
	call	I_RegisterSong@PLT	#
# s_sound.c:680:     music->handle = I_RegisterSong(music->data);
	.loc 1 680 19 discriminator 1
	movq	-32(%rbp), %rdx	# music, tmp107
	movl	%eax, 24(%rdx)	# _8, music_10->handle
# s_sound.c:683:     I_PlaySong(music->handle, looping);
	.loc 1 683 5
	movq	-32(%rbp), %rax	# music, tmp108
	movl	24(%rax), %eax	# music_10->handle, _9
	movl	-40(%rbp), %edx	# looping, tmp109
	movl	%edx, %esi	# tmp109,
	movl	%eax, %edi	# _9,
	call	I_PlaySong@PLT	#
# s_sound.c:685:     mus_playing = music;
	.loc 1 685 17
	movq	-32(%rbp), %rax	# music, tmp110
	movq	%rax, mus_playing(%rip)	# tmp110, mus_playing
	jmp	.L68	#
.L76:
# s_sound.c:666: 	return;
	.loc 1 666 2 discriminator 1
	nop	
.L68:
# s_sound.c:686: }
	.loc 1 686 1
	movq	-8(%rbp), %rax	# D.8358, tmp112
	subq	%fs:40, %rax	# MEM[(<address-space-1> long unsigned int *)40B], tmp112
	je	.L75	#,
	call	__stack_chk_fail@PLT	#
.L75:
	leave	
	.cfi_def_cfa 7, 8
	ret	
	.cfi_endproc
.LFE17:
	.size	S_ChangeMusic, .-S_ChangeMusic
	.section	.rodata
.LC7:
	.string	"Z_CT at s_sound.c:%i"
	.text
	.globl	S_StopMusic
	.type	S_StopMusic, @function
S_StopMusic:
.LFB18:
	.loc 1 690 1
	.cfi_startproc
	endbr64	
	pushq	%rbp	#
	.cfi_def_cfa_offset 16
	.cfi_offset 6, -16
	movq	%rsp, %rbp	#,
	.cfi_def_cfa_register 6
# s_sound.c:691:     if (mus_playing)
	.loc 1 691 9
	movq	mus_playing(%rip), %rax	# mus_playing, mus_playing.54_1
# s_sound.c:691:     if (mus_playing)
	.loc 1 691 8
	testq	%rax, %rax	# mus_playing.54_1
	je	.L81	#,
# s_sound.c:693: 	if (mus_paused)
	.loc 1 693 6
	movl	mus_paused(%rip), %eax	# mus_paused, mus_paused.55_2
# s_sound.c:693: 	if (mus_paused)
	.loc 1 693 5
	testl	%eax, %eax	# mus_paused.55_2
	je	.L79	#,
# s_sound.c:694: 	    I_ResumeSong(mus_playing->handle);
	.loc 1 694 30
	movq	mus_playing(%rip), %rax	# mus_playing, mus_playing.56_3
# s_sound.c:694: 	    I_ResumeSong(mus_playing->handle);
	.loc 1 694 6
	movl	24(%rax), %eax	# mus_playing.56_3->handle, _4
	movl	%eax, %edi	# _4,
	call	I_ResumeSong@PLT	#
.L79:
# s_sound.c:696: 	I_StopSong(mus_playing->handle);
	.loc 1 696 24
	movq	mus_playing(%rip), %rax	# mus_playing, mus_playing.57_5
# s_sound.c:696: 	I_StopSong(mus_playing->handle);
	.loc 1 696 2
	movl	24(%rax), %eax	# mus_playing.57_5->handle, _6
	movl	%eax, %edi	# _6,
	call	I_StopSong@PLT	#
# s_sound.c:697: 	I_UnRegisterSong(mus_playing->handle);
	.loc 1 697 30
	movq	mus_playing(%rip), %rax	# mus_playing, mus_playing.58_7
# s_sound.c:697: 	I_UnRegisterSong(mus_playing->handle);
	.loc 1 697 2
	movl	24(%rax), %eax	# mus_playing.58_7->handle, _8
	movl	%eax, %edi	# _8,
	call	I_UnRegisterSong@PLT	#
# s_sound.c:698: 	Z_ChangeTag(mus_playing->data, PU_CACHE);
	.loc 1 698 2
	movq	mus_playing(%rip), %rax	# mus_playing, mus_playing.59_9
	movq	16(%rax), %rax	# mus_playing.59_9->data, _10
	subq	$40, %rax	#, _11
	movl	20(%rax), %eax	# _11->id, _12
	cmpl	$1919505, %eax	#, _12
	je	.L80	#,
# s_sound.c:698: 	Z_ChangeTag(mus_playing->data, PU_CACHE);
	.loc 1 698 2 is_stmt 0 discriminator 1
	movl	$698, %esi	#,
	leaq	.LC7(%rip), %rax	#, tmp97
	movq	%rax, %rdi	# tmp97,
	movl	$0, %eax	#,
	call	I_Error@PLT	#
.L80:
# s_sound.c:698: 	Z_ChangeTag(mus_playing->data, PU_CACHE);
	.loc 1 698 2 discriminator 3
	movq	mus_playing(%rip), %rax	# mus_playing, mus_playing.60_13
	movq	16(%rax), %rax	# mus_playing.60_13->data, _14
	movl	$101, %esi	#,
	movq	%rax, %rdi	# _14,
	call	Z_ChangeTag2@PLT	#
# s_sound.c:700: 	mus_playing->data = 0;
	.loc 1 700 13 is_stmt 1
	movq	mus_playing(%rip), %rax	# mus_playing, mus_playing.61_15
# s_sound.c:700: 	mus_playing->data = 0;
	.loc 1 700 20
	movq	$0, 16(%rax)	#, mus_playing.61_15->data
# s_sound.c:701: 	mus_playing = 0;
	.loc 1 701 14
	movq	$0, mus_playing(%rip)	#, mus_playing
.L81:
# s_sound.c:703: }
	.loc 1 703 1
	nop	
	popq	%rbp	#
	.cfi_def_cfa 7, 8
	ret	
	.cfi_endproc
.LFE18:
	.size	S_StopMusic, .-S_StopMusic
	.globl	S_StopChannel
	.type	S_StopChannel, @function
S_StopChannel:
.LFB19:
	.loc 1 709 1
	.cfi_startproc
	endbr64	
	pushq	%rbp	#
	.cfi_def_cfa_offset 16
	.cfi_offset 6, -16
	movq	%rsp, %rbp	#,
	.cfi_def_cfa_register 6
	subq	$32, %rsp	#,
	movl	%edi, -20(%rbp)	# cnum, cnum
# s_sound.c:712:     channel_t*	c = &channels[cnum];
	.loc 1 712 20
	movq	channels(%rip), %rcx	# channels, channels.62_1
# s_sound.c:712:     channel_t*	c = &channels[cnum];
	.loc 1 712 29
	movl	-20(%rbp), %eax	# cnum, tmp99
	movslq	%eax, %rdx	# tmp99, _2
	movq	%rdx, %rax	# _2, tmp100
	addq	%rax, %rax	# tmp100
	addq	%rdx, %rax	# _2, tmp100
	salq	$3, %rax	#, tmp101
# s_sound.c:712:     channel_t*	c = &channels[cnum];
	.loc 1 712 16
	addq	%rcx, %rax	# channels.62_1, tmp102
	movq	%rax, -8(%rbp)	# tmp102, c
# s_sound.c:714:     if (c->sfxinfo)
	.loc 1 714 10
	movq	-8(%rbp), %rax	# c, tmp103
	movq	(%rax), %rax	# c_23->sfxinfo, _4
# s_sound.c:714:     if (c->sfxinfo)
	.loc 1 714 8
	testq	%rax, %rax	# _4
	je	.L89	#,
# s_sound.c:717: 	if (I_SoundIsPlaying(c->handle))
	.loc 1 717 6
	movq	-8(%rbp), %rax	# c, tmp104
	movl	16(%rax), %eax	# c_23->handle, _5
	movl	%eax, %edi	# _5,
	call	I_SoundIsPlaying@PLT	#
# s_sound.c:717: 	if (I_SoundIsPlaying(c->handle))
	.loc 1 717 5 discriminator 1
	testl	%eax, %eax	# _6
	je	.L84	#,
# s_sound.c:723: 	    I_StopSound(c->handle);
	.loc 1 723 6
	movq	-8(%rbp), %rax	# c, tmp105
	movl	16(%rax), %eax	# c_23->handle, _7
	movl	%eax, %edi	# _7,
	call	I_StopSound@PLT	#
.L84:
# s_sound.c:728: 	for (i=0 ; i<numChannels ; i++)
	.loc 1 728 8
	movl	$0, -12(%rbp)	#, i
# s_sound.c:728: 	for (i=0 ; i<numChannels ; i++)
	.loc 1 728 2
	jmp	.L85	#
.L88:
# s_sound.c:730: 	    if (cnum != i
	.loc 1 730 9
	movl	-20(%rbp), %eax	# cnum, tmp106
	cmpl	-12(%rbp), %eax	# i, tmp106
	je	.L86	#,
# s_sound.c:731: 		&& c->sfxinfo == channels[i].sfxinfo)
	.loc 1 731 7
	movq	-8(%rbp), %rax	# c, tmp107
	movq	(%rax), %rcx	# c_23->sfxinfo, _8
# s_sound.c:731: 		&& c->sfxinfo == channels[i].sfxinfo)
	.loc 1 731 28
	movq	channels(%rip), %rsi	# channels, channels.63_9
	movl	-12(%rbp), %eax	# i, tmp108
	movslq	%eax, %rdx	# tmp108, _10
	movq	%rdx, %rax	# _10, tmp109
	addq	%rax, %rax	# tmp109
	addq	%rdx, %rax	# _10, tmp109
	salq	$3, %rax	#, tmp110
	addq	%rsi, %rax	# channels.63_9, _12
# s_sound.c:731: 		&& c->sfxinfo == channels[i].sfxinfo)
	.loc 1 731 31
	movq	(%rax), %rax	# _12->sfxinfo, _13
# s_sound.c:731: 		&& c->sfxinfo == channels[i].sfxinfo)
	.loc 1 731 3
	cmpq	%rax, %rcx	# _13, _8
	je	.L90	#,
.L86:
# s_sound.c:728: 	for (i=0 ; i<numChannels ; i++)
	.loc 1 728 30 discriminator 2
	addl	$1, -12(%rbp)	#, i
.L85:
# s_sound.c:728: 	for (i=0 ; i<numChannels ; i++)
	.loc 1 728 14 discriminator 1
	movl	numChannels(%rip), %eax	# numChannels, numChannels.64_14
	cmpl	%eax, -12(%rbp)	# numChannels.64_14, i
	jl	.L88	#,
	jmp	.L87	#
.L90:
# s_sound.c:733: 		break;
	.loc 1 733 3
	nop	
.L87:
# s_sound.c:738: 	c->sfxinfo->usefulness--;
	.loc 1 738 3
	movq	-8(%rbp), %rax	# c, tmp111
	movq	(%rax), %rax	# c_23->sfxinfo, _15
# s_sound.c:738: 	c->sfxinfo->usefulness--;
	.loc 1 738 12
	movl	40(%rax), %edx	# _15->usefulness, _16
# s_sound.c:738: 	c->sfxinfo->usefulness--;
	.loc 1 738 24
	subl	$1, %edx	#, _17
	movl	%edx, 40(%rax)	# _17, _15->usefulness
# s_sound.c:740: 	c->sfxinfo = 0;
	.loc 1 740 13
	movq	-8(%rbp), %rax	# c, tmp112
	movq	$0, (%rax)	#, c_23->sfxinfo
.L89:
# s_sound.c:742: }
	.loc 1 742 1
	nop	
	leave	
	.cfi_def_cfa 7, 8
	ret	
	.cfi_endproc
.LFE19:
	.size	S_StopChannel, .-S_StopChannel
	.globl	S_AdjustSoundParams
	.type	S_AdjustSoundParams, @function
S_AdjustSoundParams:
.LFB20:
	.loc 1 759 1
	.cfi_startproc
	endbr64	
	pushq	%rbp	#
	.cfi_def_cfa_offset 16
	.cfi_offset 6, -16
	movq	%rsp, %rbp	#,
	.cfi_def_cfa_register 6
	subq	$64, %rsp	#,
	movq	%rdi, -24(%rbp)	# listener, listener
	movq	%rsi, -32(%rbp)	# source, source
	movq	%rdx, -40(%rbp)	# vol, vol
	movq	%rcx, -48(%rbp)	# sep, sep
	movq	%r8, -56(%rbp)	# pitch, pitch
# s_sound.c:767:     adx = abs(listener->x - source->x);
	.loc 1 767 23
	movq	-24(%rbp), %rax	# listener, tmp122
	movl	24(%rax), %ecx	# listener_45(D)->x, _1
# s_sound.c:767:     adx = abs(listener->x - source->x);
	.loc 1 767 35
	movq	-32(%rbp), %rax	# source, tmp123
	movl	24(%rax), %edx	# source_46(D)->x, _2
# s_sound.c:767:     adx = abs(listener->x - source->x);
	.loc 1 767 27
	movl	%ecx, %eax	# _1, _1
	subl	%edx, %eax	# _2, _1
# s_sound.c:767:     adx = abs(listener->x - source->x);
	.loc 1 767 9
	movl	%eax, %edx	# _3, tmp164
	negl	%edx	# tmp164
	cmovns	%edx, %eax	# tmp164,, tmp124
	movl	%eax, -8(%rbp)	# tmp124, adx
# s_sound.c:768:     ady = abs(listener->y - source->y);
	.loc 1 768 23
	movq	-24(%rbp), %rax	# listener, tmp125
	movl	28(%rax), %ecx	# listener_45(D)->y, _4
# s_sound.c:768:     ady = abs(listener->y - source->y);
	.loc 1 768 35
	movq	-32(%rbp), %rax	# source, tmp126
	movl	28(%rax), %edx	# source_46(D)->y, _5
# s_sound.c:768:     ady = abs(listener->y - source->y);
	.loc 1 768 27
	movl	%ecx, %eax	# _4, _4
	subl	%edx, %eax	# _5, _4
# s_sound.c:768:     ady = abs(listener->y - source->y);
	.loc 1 768 9
	movl	%eax, %edx	# _6, tmp165
	negl	%edx	# tmp165
	cmovns	%edx, %eax	# tmp165,, tmp127
	movl	%eax, -4(%rbp)	# tmp127, ady
# s_sound.c:771:     approx_dist = adx + ady - ((adx < ady ? adx : ady)>>1);
	.loc 1 771 23
	movl	-8(%rbp), %edx	# adx, tmp128
	movl	-4(%rbp), %eax	# ady, tmp129
	leal	(%rdx,%rax), %ecx	#, _7
# s_sound.c:771:     approx_dist = adx + ady - ((adx < ady ? adx : ady)>>1);
	.loc 1 771 49
	movl	-4(%rbp), %edx	# ady, tmp130
	movl	-8(%rbp), %eax	# adx, tmp166
	cmpl	%eax, %edx	# tmp166, tmp130
	cmovle	%edx, %eax	# tmp130,, _8
# s_sound.c:771:     approx_dist = adx + ady - ((adx < ady ? adx : ady)>>1);
	.loc 1 771 55
	sarl	%eax	# _8
	movl	%eax, %edx	# _8, _9
# s_sound.c:771:     approx_dist = adx + ady - ((adx < ady ? adx : ady)>>1);
	.loc 1 771 17
	movl	%ecx, %eax	# _7, _7
	subl	%edx, %eax	# _9, _7
	movl	%eax, -16(%rbp)	# tmp131, approx_dist
# s_sound.c:773:     if (gamemap != 8
	.loc 1 773 17
	movl	gamemap(%rip), %eax	# gamemap, gamemap.65_10
# s_sound.c:773:     if (gamemap != 8
	.loc 1 773 8
	cmpl	$8, %eax	#, gamemap.65_10
	je	.L92	#,
# s_sound.c:774: 	&& approx_dist > S_CLIPPING_DIST)
	.loc 1 774 2
	cmpl	$78643200, -16(%rbp)	#, approx_dist
	jle	.L92	#,
# s_sound.c:776: 	return 0;
	.loc 1 776 9
	movl	$0, %eax	#, _41
	jmp	.L93	#
.L92:
# s_sound.c:780:     angle = R_PointToAngle2(listener->x,
	.loc 1 780 13
	movq	-32(%rbp), %rax	# source, tmp132
	movl	28(%rax), %ecx	# source_46(D)->y, _11
	movq	-32(%rbp), %rax	# source, tmp133
	movl	24(%rax), %edx	# source_46(D)->x, _12
	movq	-24(%rbp), %rax	# listener, tmp134
	movl	28(%rax), %esi	# listener_45(D)->y, _13
	movq	-24(%rbp), %rax	# listener, tmp135
	movl	24(%rax), %eax	# listener_45(D)->x, _14
	movl	%eax, %edi	# _14,
	call	R_PointToAngle2@PLT	#
	movl	%eax, -12(%rbp)	# tmp136, angle
# s_sound.c:785:     if (angle > listener->angle)
	.loc 1 785 25
	movq	-24(%rbp), %rax	# listener, tmp137
	movl	56(%rax), %eax	# listener_45(D)->angle, _15
# s_sound.c:785:     if (angle > listener->angle)
	.loc 1 785 8
	cmpl	-12(%rbp), %eax	# angle, _15
	jnb	.L94	#,
# s_sound.c:786: 	angle = angle - listener->angle;
	.loc 1 786 26
	movq	-24(%rbp), %rax	# listener, tmp138
	movl	56(%rax), %eax	# listener_45(D)->angle, _16
# s_sound.c:786: 	angle = angle - listener->angle;
	.loc 1 786 8
	subl	%eax, -12(%rbp)	# _16, angle
	jmp	.L95	#
.L94:
# s_sound.c:788: 	angle = angle + (0xffffffff - listener->angle);
	.loc 1 788 40
	movq	-24(%rbp), %rax	# listener, tmp139
	movl	56(%rax), %eax	# listener_45(D)->angle, _17
# s_sound.c:788: 	angle = angle + (0xffffffff - listener->angle);
	.loc 1 788 16
	movl	-12(%rbp), %edx	# angle, tmp140
	subl	%eax, %edx	# _17, _18
# s_sound.c:788: 	angle = angle + (0xffffffff - listener->angle);
	.loc 1 788 8
	leal	-1(%rdx), %eax	#, tmp141
	movl	%eax, -12(%rbp)	# tmp141, angle
.L95:
# s_sound.c:790:     angle >>= ANGLETOFINESHIFT;
	.loc 1 790 11
	shrl	$19, -12(%rbp)	#, angle
# s_sound.c:793:     *sep = 128 - (FixedMul(S_STEREO_SWING,finesine[angle])>>FRACBITS);
	.loc 1 793 19
	movl	-12(%rbp), %eax	# angle, tmp142
	leaq	0(,%rax,4), %rdx	#, tmp143
	leaq	finesine(%rip), %rax	#, tmp144
	movl	(%rdx,%rax), %eax	# finesine[angle_55], _19
	movl	%eax, %esi	# _19,
	movl	$6291456, %edi	#,
	call	FixedMul@PLT	#
# s_sound.c:793:     *sep = 128 - (FixedMul(S_STEREO_SWING,finesine[angle])>>FRACBITS);
	.loc 1 793 59 discriminator 1
	sarl	$16, %eax	#, _21
# s_sound.c:793:     *sep = 128 - (FixedMul(S_STEREO_SWING,finesine[angle])>>FRACBITS);
	.loc 1 793 16 discriminator 1
	movl	$128, %edx	#, tmp145
	subl	%eax, %edx	# _21, _22
# s_sound.c:793:     *sep = 128 - (FixedMul(S_STEREO_SWING,finesine[angle])>>FRACBITS);
	.loc 1 793 10 discriminator 1
	movq	-48(%rbp), %rax	# sep, tmp146
	movl	%edx, (%rax)	# _22, *sep_57(D)
# s_sound.c:796:     if (approx_dist < S_CLOSE_DIST)
	.loc 1 796 8
	cmpl	$10485759, -16(%rbp)	#, approx_dist
	jg	.L96	#,
# s_sound.c:798: 	*vol = snd_SfxVolume;
	.loc 1 798 7
	movl	snd_SfxVolume(%rip), %edx	# snd_SfxVolume, snd_SfxVolume.66_23
	movq	-40(%rbp), %rax	# vol, tmp147
	movl	%edx, (%rax)	# snd_SfxVolume.66_23, *vol_59(D)
	jmp	.L97	#
.L96:
# s_sound.c:800:     else if (gamemap == 8)
	.loc 1 800 22
	movl	gamemap(%rip), %eax	# gamemap, gamemap.67_24
# s_sound.c:800:     else if (gamemap == 8)
	.loc 1 800 13
	cmpl	$8, %eax	#, gamemap.67_24
	jne	.L98	#,
# s_sound.c:802: 	if (approx_dist > S_CLIPPING_DIST)
	.loc 1 802 5
	cmpl	$78643200, -16(%rbp)	#, approx_dist
	jle	.L99	#,
# s_sound.c:803: 	    approx_dist = S_CLIPPING_DIST;
	.loc 1 803 18
	movl	$78643200, -16(%rbp)	#, approx_dist
.L99:
# s_sound.c:805: 	*vol = 15+ ((snd_SfxVolume-15)
	.loc 1 805 28
	movl	snd_SfxVolume(%rip), %eax	# snd_SfxVolume, snd_SfxVolume.68_25
	leal	-15(%rax), %edx	#, _26
# s_sound.c:806: 		    *((S_CLIPPING_DIST - approx_dist)>>FRACBITS))
	.loc 1 806 26
	movl	$78643200, %eax	#, tmp148
	subl	-16(%rbp), %eax	# approx_dist, _27
# s_sound.c:806: 		    *((S_CLIPPING_DIST - approx_dist)>>FRACBITS))
	.loc 1 806 40
	sarl	$16, %eax	#, _28
# s_sound.c:806: 		    *((S_CLIPPING_DIST - approx_dist)>>FRACBITS))
	.loc 1 806 7
	imull	%edx, %eax	# _26, _29
# s_sound.c:807: 	    / S_ATTENUATOR;
	.loc 1 807 6
	movslq	%eax, %rdx	# _29, tmp149
	imulq	$2114445439, %rdx, %rdx	#, tmp149, tmp150
	shrq	$32, %rdx	#, tmp151
	sarl	$9, %edx	#, tmp152
	sarl	$31, %eax	#, tmp153
	subl	%eax, %edx	# tmp153, _30
# s_sound.c:805: 	*vol = 15+ ((snd_SfxVolume-15)
	.loc 1 805 11
	addl	$15, %edx	#, _31
# s_sound.c:805: 	*vol = 15+ ((snd_SfxVolume-15)
	.loc 1 805 7
	movq	-40(%rbp), %rax	# vol, tmp154
	movl	%edx, (%rax)	# _31, *vol_59(D)
	jmp	.L97	#
.L98:
# s_sound.c:813: 		* ((S_CLIPPING_DIST - approx_dist)>>FRACBITS))
	.loc 1 813 23
	movl	$78643200, %eax	#, tmp155
	subl	-16(%rbp), %eax	# approx_dist, _32
# s_sound.c:813: 		* ((S_CLIPPING_DIST - approx_dist)>>FRACBITS))
	.loc 1 813 37
	sarl	$16, %eax	#, _32
	movl	%eax, %edx	# _32, _33
# s_sound.c:813: 		* ((S_CLIPPING_DIST - approx_dist)>>FRACBITS))
	.loc 1 813 3
	movl	snd_SfxVolume(%rip), %eax	# snd_SfxVolume, snd_SfxVolume.69_34
	imull	%edx, %eax	# _33, _35
# s_sound.c:814: 	    / S_ATTENUATOR; 
	.loc 1 814 6
	movslq	%eax, %rdx	# _35, tmp156
	imulq	$2114445439, %rdx, %rdx	#, tmp156, tmp157
	shrq	$32, %rdx	#, tmp158
	sarl	$9, %edx	#, tmp159
	sarl	$31, %eax	#, tmp160
	subl	%eax, %edx	# tmp160, _36
# s_sound.c:812: 	*vol = (snd_SfxVolume
	.loc 1 812 7
	movq	-40(%rbp), %rax	# vol, tmp161
	movl	%edx, (%rax)	# _36, *vol_59(D)
.L97:
# s_sound.c:817:     return (*vol > 0);
	.loc 1 817 13
	movq	-40(%rbp), %rax	# vol, tmp162
	movl	(%rax), %eax	# *vol_59(D), _37
# s_sound.c:817:     return (*vol > 0);
	.loc 1 817 18
	testl	%eax, %eax	# _37
	setg	%al	#, _38
	movzbl	%al, %eax	# _38, _41
.L93:
# s_sound.c:818: }
	.loc 1 818 1
	leave	
	.cfi_def_cfa 7, 8
	ret	
	.cfi_endproc
.LFE20:
	.size	S_AdjustSoundParams, .-S_AdjustSoundParams
	.globl	S_getChannel
	.type	S_getChannel, @function
S_getChannel:
.LFB21:
	.loc 1 831 1
	.cfi_startproc
	endbr64	
	pushq	%rbp	#
	.cfi_def_cfa_offset 16
	.cfi_offset 6, -16
	movq	%rsp, %rbp	#,
	.cfi_def_cfa_register 6
	subq	$32, %rsp	#,
	movq	%rdi, -24(%rbp)	# origin, origin
	movq	%rsi, -32(%rbp)	# sfxinfo, sfxinfo
# s_sound.c:838:     for (cnum=0 ; cnum<numChannels ; cnum++)
	.loc 1 838 14
	movl	$0, -12(%rbp)	#, cnum
# s_sound.c:838:     for (cnum=0 ; cnum<numChannels ; cnum++)
	.loc 1 838 5
	jmp	.L101	#
.L105:
# s_sound.c:840: 	if (!channels[cnum].sfxinfo)
	.loc 1 840 15
	movq	channels(%rip), %rcx	# channels, channels.70_1
	movl	-12(%rbp), %eax	# cnum, tmp108
	movslq	%eax, %rdx	# tmp108, _2
	movq	%rdx, %rax	# _2, tmp109
	addq	%rax, %rax	# tmp109
	addq	%rdx, %rax	# _2, tmp109
	salq	$3, %rax	#, tmp110
	addq	%rcx, %rax	# channels.70_1, _4
# s_sound.c:840: 	if (!channels[cnum].sfxinfo)
	.loc 1 840 21
	movq	(%rax), %rax	# _4->sfxinfo, _5
# s_sound.c:840: 	if (!channels[cnum].sfxinfo)
	.loc 1 840 5
	testq	%rax, %rax	# _5
	je	.L113	#,
# s_sound.c:842: 	else if (origin &&  channels[cnum].origin ==  origin)
	.loc 1 842 10
	cmpq	$0, -24(%rbp)	#, origin
	je	.L104	#,
# s_sound.c:842: 	else if (origin &&  channels[cnum].origin ==  origin)
	.loc 1 842 30 discriminator 1
	movq	channels(%rip), %rcx	# channels, channels.71_6
	movl	-12(%rbp), %eax	# cnum, tmp111
	movslq	%eax, %rdx	# tmp111, _7
	movq	%rdx, %rax	# _7, tmp112
	addq	%rax, %rax	# tmp112
	addq	%rdx, %rax	# _7, tmp112
	salq	$3, %rax	#, tmp113
	addq	%rcx, %rax	# channels.71_6, _9
# s_sound.c:842: 	else if (origin &&  channels[cnum].origin ==  origin)
	.loc 1 842 36 discriminator 1
	movq	8(%rax), %rax	# _9->origin, _10
# s_sound.c:842: 	else if (origin &&  channels[cnum].origin ==  origin)
	.loc 1 842 18 discriminator 1
	cmpq	%rax, -24(%rbp)	# _10, origin
	jne	.L104	#,
# s_sound.c:844: 	    S_StopChannel(cnum);
	.loc 1 844 6
	movl	-12(%rbp), %eax	# cnum, tmp114
	movl	%eax, %edi	# tmp114,
	call	S_StopChannel	#
# s_sound.c:845: 	    break;
	.loc 1 845 6
	jmp	.L103	#
.L104:
# s_sound.c:838:     for (cnum=0 ; cnum<numChannels ; cnum++)
	.loc 1 838 42 discriminator 2
	addl	$1, -12(%rbp)	#, cnum
.L101:
# s_sound.c:838:     for (cnum=0 ; cnum<numChannels ; cnum++)
	.loc 1 838 23 discriminator 1
	movl	numChannels(%rip), %eax	# numChannels, numChannels.72_11
	cmpl	%eax, -12(%rbp)	# numChannels.72_11, cnum
	jl	.L105	#,
	jmp	.L103	#
.L113:
# s_sound.c:841: 	    break;
	.loc 1 841 6
	nop	
.L103:
# s_sound.c:850:     if (cnum == numChannels)
	.loc 1 850 14
	movl	numChannels(%rip), %eax	# numChannels, numChannels.73_12
# s_sound.c:850:     if (cnum == numChannels)
	.loc 1 850 8
	cmpl	%eax, -12(%rbp)	# numChannels.73_12, cnum
	jne	.L106	#,
# s_sound.c:853: 	for (cnum=0 ; cnum<numChannels ; cnum++)
	.loc 1 853 11
	movl	$0, -12(%rbp)	#, cnum
# s_sound.c:853: 	for (cnum=0 ; cnum<numChannels ; cnum++)
	.loc 1 853 2
	jmp	.L107	#
.L110:
# s_sound.c:854: 	    if (channels[cnum].sfxinfo->priority >= sfxinfo->priority) break;
	.loc 1 854 18
	movq	channels(%rip), %rcx	# channels, channels.74_13
	movl	-12(%rbp), %eax	# cnum, tmp115
	movslq	%eax, %rdx	# tmp115, _14
	movq	%rdx, %rax	# _14, tmp116
	addq	%rax, %rax	# tmp116
	addq	%rdx, %rax	# _14, tmp116
	salq	$3, %rax	#, tmp117
	addq	%rcx, %rax	# channels.74_13, _16
# s_sound.c:854: 	    if (channels[cnum].sfxinfo->priority >= sfxinfo->priority) break;
	.loc 1 854 24
	movq	(%rax), %rax	# _16->sfxinfo, _17
# s_sound.c:854: 	    if (channels[cnum].sfxinfo->priority >= sfxinfo->priority) break;
	.loc 1 854 32
	movl	12(%rax), %edx	# _17->priority, _18
# s_sound.c:854: 	    if (channels[cnum].sfxinfo->priority >= sfxinfo->priority) break;
	.loc 1 854 53
	movq	-32(%rbp), %rax	# sfxinfo, tmp118
	movl	12(%rax), %eax	# sfxinfo_38(D)->priority, _19
# s_sound.c:854: 	    if (channels[cnum].sfxinfo->priority >= sfxinfo->priority) break;
	.loc 1 854 9
	cmpl	%eax, %edx	# _19, _18
	jge	.L114	#,
# s_sound.c:853: 	for (cnum=0 ; cnum<numChannels ; cnum++)
	.loc 1 853 39 discriminator 2
	addl	$1, -12(%rbp)	#, cnum
.L107:
# s_sound.c:853: 	for (cnum=0 ; cnum<numChannels ; cnum++)
	.loc 1 853 20 discriminator 1
	movl	numChannels(%rip), %eax	# numChannels, numChannels.75_20
	cmpl	%eax, -12(%rbp)	# numChannels.75_20, cnum
	jl	.L110	#,
	jmp	.L109	#
.L114:
# s_sound.c:854: 	    if (channels[cnum].sfxinfo->priority >= sfxinfo->priority) break;
	.loc 1 854 65
	nop	
.L109:
# s_sound.c:856: 	if (cnum == numChannels)
	.loc 1 856 11
	movl	numChannels(%rip), %eax	# numChannels, numChannels.76_21
# s_sound.c:856: 	if (cnum == numChannels)
	.loc 1 856 5
	cmpl	%eax, -12(%rbp)	# numChannels.76_21, cnum
	jne	.L111	#,
# s_sound.c:859: 	    return -1;
	.loc 1 859 13
	movl	$-1, %eax	#, _28
	jmp	.L112	#
.L111:
# s_sound.c:864: 	    S_StopChannel(cnum);
	.loc 1 864 6
	movl	-12(%rbp), %eax	# cnum, tmp119
	movl	%eax, %edi	# tmp119,
	call	S_StopChannel	#
.L106:
# s_sound.c:868:     c = &channels[cnum];
	.loc 1 868 9
	movq	channels(%rip), %rcx	# channels, channels.77_22
# s_sound.c:868:     c = &channels[cnum];
	.loc 1 868 18
	movl	-12(%rbp), %eax	# cnum, tmp120
	movslq	%eax, %rdx	# tmp120, _23
	movq	%rdx, %rax	# _23, tmp121
	addq	%rax, %rax	# tmp121
	addq	%rdx, %rax	# _23, tmp121
	salq	$3, %rax	#, tmp122
# s_sound.c:868:     c = &channels[cnum];
	.loc 1 868 7
	addq	%rcx, %rax	# channels.77_22, tmp123
	movq	%rax, -8(%rbp)	# tmp123, c
# s_sound.c:871:     c->sfxinfo = sfxinfo;
	.loc 1 871 16
	movq	-8(%rbp), %rax	# c, tmp124
	movq	-32(%rbp), %rdx	# sfxinfo, tmp125
	movq	%rdx, (%rax)	# tmp125, c_42->sfxinfo
# s_sound.c:872:     c->origin = origin;
	.loc 1 872 15
	movq	-8(%rbp), %rax	# c, tmp126
	movq	-24(%rbp), %rdx	# origin, tmp127
	movq	%rdx, 8(%rax)	# tmp127, c_42->origin
# s_sound.c:874:     return cnum;
	.loc 1 874 12
	movl	-12(%rbp), %eax	# cnum, _28
.L112:
# s_sound.c:875: }
	.loc 1 875 1
	leave	
	.cfi_def_cfa 7, 8
	ret	
	.cfi_endproc
.LFE21:
	.size	S_getChannel, .-S_getChannel
.Letext0:
	.file 2 "/usr/lib/gcc/x86_64-linux-gnu/13/include/stddef.h"
	.file 3 "/usr/include/x86_64-linux-gnu/bits/types.h"
	.file 4 "/usr/include/x86_64-linux-gnu/bits/types/struct_FILE.h"
	.file 5 "/usr/include/x86_64-linux-gnu/bits/types/FILE.h"
	.file 6 "doomtype.h"
	.file 7 "d_ticcmd.h"
	.file 8 "doomdef.h"
	.file 9 "doomdata.h"
	.file 10 "m_fixed.h"
	.file 11 "/usr/include/stdio.h"
	.file 12 "tables.h"
	.file 13 "d_think.h"
	.file 14 "info.h"
	.file 15 "p_pspr.h"
	.file 16 "p_mobj.h"
	.file 17 "r_defs.h"
	.file 18 "d_player.h"
	.file 19 "doomstat.h"
	.file 20 "sounds.h"
	.file 21 "z_zone.h"
	.file 22 "r_main.h"
	.file 23 "i_sound.h"
	.file 24 "w_wad.h"
	.file 25 "i_system.h"
	.file 26 "m_random.h"
	.section	.note.GNU-stack,"",@progbits
	.section	.note.gnu.property,"a"
	.align 8
	.long	1f - 0f
	.long	4f - 1f
	.long	5
0:
	.string	"GNU"
1:
	.align 8
	.long	0xc0000002
	.long	3f - 2f
2:
	.long	0x3
3:
	.align 8
4:
