	.file	"st_lib.c"
# GNU C17 (Ubuntu 13.3.0-6ubuntu2~24.04) version 13.3.0 (x86_64-linux-gnu)
#	compiled by GNU C version 13.3.0, GMP version 6.3.0, MPFR version 4.2.1, MPC version 1.3.1, isl version isl-0.26-GMP

# GGC heuristics: --param ggc-min-expand=100 --param ggc-min-heapsize=131072
# options passed: -mtune=generic -march=x86-64 -g -fasynchronous-unwind-tables -fstack-protector-strong -fstack-clash-protection -fcf-protection
	.text
.Ltext0:
	.file 0 "/home/astrid/Documents/enseignements/DOOM/linuxdoom-1.10" "st_lib.c"
	.section	.rodata
	.align 32
	.type	rcsid, @object
	.size	rcsid, 49
rcsid:
	.string	"$Id: st_lib.c,v 1.4 1997/02/03 16:47:56 b1 Exp $"
	.globl	sttminus
	.bss
	.align 8
	.type	sttminus, @object
	.size	sttminus, 8
sttminus:
	.zero	8
	.section	.rodata
.LC0:
	.string	"STTMINUS"
	.text
	.globl	STlib_init
	.type	STlib_init, @function
STlib_init:
.LFB0:
	.file 1 "st_lib.c"
	.loc 1 59 1
	.cfi_startproc
	endbr64	
	pushq	%rbp	#
	.cfi_def_cfa_offset 16
	.cfi_offset 6, -16
	movq	%rsp, %rbp	#,
	.cfi_def_cfa_register 6
# st_lib.c:60:     sttminus = (patch_t *) W_CacheLumpName("STTMINUS", PU_STATIC);
	.loc 1 60 28
	movl	$1, %esi	#,
	leaq	.LC0(%rip), %rax	#, tmp83
	movq	%rax, %rdi	# tmp83,
	call	W_CacheLumpName@PLT	#
# st_lib.c:60:     sttminus = (patch_t *) W_CacheLumpName("STTMINUS", PU_STATIC);
	.loc 1 60 14 discriminator 1
	movq	%rax, sttminus(%rip)	# _1, sttminus
# st_lib.c:61: }
	.loc 1 61 1
	nop	
	popq	%rbp	#
	.cfi_def_cfa 7, 8
	ret	
	.cfi_endproc
.LFE0:
	.size	STlib_init, .-STlib_init
	.globl	STlib_initNum
	.type	STlib_initNum, @function
STlib_initNum:
.LFB1:
	.loc 1 74 1
	.cfi_startproc
	endbr64	
	pushq	%rbp	#
	.cfi_def_cfa_offset 16
	.cfi_offset 6, -16
	movq	%rsp, %rbp	#,
	.cfi_def_cfa_register 6
	movq	%rdi, -8(%rbp)	# n, n
	movl	%esi, -12(%rbp)	# x, x
	movl	%edx, -16(%rbp)	# y, y
	movq	%rcx, -24(%rbp)	# pl, pl
	movq	%r8, -32(%rbp)	# num, num
	movq	%r9, -40(%rbp)	# on, on
# st_lib.c:75:     n->x	= x;
	.loc 1 75 10
	movq	-8(%rbp), %rax	# n, tmp82
	movl	-12(%rbp), %edx	# x, tmp83
	movl	%edx, (%rax)	# tmp83, n_2(D)->x
# st_lib.c:76:     n->y	= y;
	.loc 1 76 10
	movq	-8(%rbp), %rax	# n, tmp84
	movl	-16(%rbp), %edx	# y, tmp85
	movl	%edx, 4(%rax)	# tmp85, n_2(D)->y
# st_lib.c:77:     n->oldnum	= 0;
	.loc 1 77 15
	movq	-8(%rbp), %rax	# n, tmp86
	movl	$0, 12(%rax)	#, n_2(D)->oldnum
# st_lib.c:78:     n->width	= width;
	.loc 1 78 14
	movq	-8(%rbp), %rax	# n, tmp87
	movl	16(%rbp), %edx	# width, tmp88
	movl	%edx, 8(%rax)	# tmp88, n_2(D)->width
# st_lib.c:79:     n->num	= num;
	.loc 1 79 12
	movq	-8(%rbp), %rax	# n, tmp89
	movq	-32(%rbp), %rdx	# num, tmp90
	movq	%rdx, 16(%rax)	# tmp90, n_2(D)->num
# st_lib.c:80:     n->on	= on;
	.loc 1 80 11
	movq	-8(%rbp), %rax	# n, tmp91
	movq	-40(%rbp), %rdx	# on, tmp92
	movq	%rdx, 24(%rax)	# tmp92, n_2(D)->on
# st_lib.c:81:     n->p	= pl;
	.loc 1 81 10
	movq	-8(%rbp), %rax	# n, tmp93
	movq	-24(%rbp), %rdx	# pl, tmp94
	movq	%rdx, 32(%rax)	# tmp94, n_2(D)->p
# st_lib.c:82: }
	.loc 1 82 1
	nop	
	popq	%rbp	#
	.cfi_def_cfa 7, 8
	ret	
	.cfi_endproc
.LFE1:
	.size	STlib_initNum, .-STlib_initNum
	.section	.rodata
.LC1:
	.string	"drawNum: n->y - ST_Y < 0"
	.text
	.globl	STlib_drawNum
	.type	STlib_drawNum, @function
STlib_drawNum:
.LFB2:
	.loc 1 94 1
	.cfi_startproc
	endbr64	
	pushq	%rbp	#
	.cfi_def_cfa_offset 16
	.cfi_offset 6, -16
	movq	%rsp, %rbp	#,
	.cfi_def_cfa_register 6
	subq	$48, %rsp	#,
	movq	%rdi, -40(%rbp)	# n, n
	movl	%esi, -44(%rbp)	# refresh, refresh
# st_lib.c:96:     int		numdigits = n->width;
	.loc 1 96 10
	movq	-40(%rbp), %rax	# n, tmp114
	movl	8(%rax), %eax	# n_43(D)->width, tmp115
	movl	%eax, -24(%rbp)	# tmp115, numdigits
# st_lib.c:97:     int		num = *n->num;
	.loc 1 97 18
	movq	-40(%rbp), %rax	# n, tmp116
	movq	16(%rax), %rax	# n_43(D)->num, _1
# st_lib.c:97:     int		num = *n->num;
	.loc 1 97 10
	movl	(%rax), %eax	# *_1, tmp117
	movl	%eax, -20(%rbp)	# tmp117, num
# st_lib.c:99:     int		w = SHORT(n->p[0]->width);
	.loc 1 99 14
	movq	-40(%rbp), %rax	# n, tmp118
	movq	32(%rax), %rax	# n_43(D)->p, _2
	movq	(%rax), %rax	# *_2, _3
	movzwl	(%rax), %eax	# _3->width, _4
# st_lib.c:99:     int		w = SHORT(n->p[0]->width);
	.loc 1 99 10
	cwtl
	movl	%eax, -12(%rbp)	# tmp119, w
# st_lib.c:100:     int		h = SHORT(n->p[0]->height);
	.loc 1 100 14
	movq	-40(%rbp), %rax	# n, tmp120
	movq	32(%rax), %rax	# n_43(D)->p, _5
	movq	(%rax), %rax	# *_5, _6
	movzwl	2(%rax), %eax	# _6->height, _7
# st_lib.c:100:     int		h = SHORT(n->p[0]->height);
	.loc 1 100 10
	cwtl
	movl	%eax, -8(%rbp)	# tmp121, h
# st_lib.c:101:     int		x = n->x;
	.loc 1 101 10
	movq	-40(%rbp), %rax	# n, tmp122
	movl	(%rax), %eax	# n_43(D)->x, tmp123
	movl	%eax, -16(%rbp)	# tmp123, x
# st_lib.c:105:     n->oldnum = *n->num;
	.loc 1 105 19
	movq	-40(%rbp), %rax	# n, tmp124
	movq	16(%rax), %rax	# n_43(D)->num, _8
# st_lib.c:105:     n->oldnum = *n->num;
	.loc 1 105 17
	movl	(%rax), %edx	# *_8, _9
# st_lib.c:105:     n->oldnum = *n->num;
	.loc 1 105 15
	movq	-40(%rbp), %rax	# n, tmp125
	movl	%edx, 12(%rax)	# _9, n_43(D)->oldnum
# st_lib.c:107:     neg = num < 0;
	.loc 1 107 15
	movl	-20(%rbp), %eax	# num, tmp127
	shrl	$31, %eax	#, tmp126
# st_lib.c:107:     neg = num < 0;
	.loc 1 107 9
	movzbl	%al, %eax	# _10, tmp128
	movl	%eax, -4(%rbp)	# tmp128, neg
# st_lib.c:109:     if (neg)
	.loc 1 109 8
	cmpl	$0, -4(%rbp)	#, neg
	je	.L4	#,
# st_lib.c:111: 	if (numdigits == 2 && num < -9)
	.loc 1 111 5
	cmpl	$2, -24(%rbp)	#, numdigits
	jne	.L5	#,
# st_lib.c:111: 	if (numdigits == 2 && num < -9)
	.loc 1 111 21 discriminator 1
	cmpl	$-9, -20(%rbp)	#, num
	jge	.L5	#,
# st_lib.c:112: 	    num = -9;
	.loc 1 112 10
	movl	$-9, -20(%rbp)	#, num
	jmp	.L6	#
.L5:
# st_lib.c:113: 	else if (numdigits == 3 && num < -99)
	.loc 1 113 10
	cmpl	$3, -24(%rbp)	#, numdigits
	jne	.L6	#,
# st_lib.c:113: 	else if (numdigits == 3 && num < -99)
	.loc 1 113 26 discriminator 1
	cmpl	$-99, -20(%rbp)	#, num
	jge	.L6	#,
# st_lib.c:114: 	    num = -99;
	.loc 1 114 10
	movl	$-99, -20(%rbp)	#, num
.L6:
# st_lib.c:116: 	num = -num;
	.loc 1 116 6
	negl	-20(%rbp)	# num
.L4:
# st_lib.c:120:     x = n->x - numdigits*w;
	.loc 1 120 10
	movq	-40(%rbp), %rax	# n, tmp129
	movl	(%rax), %edx	# n_43(D)->x, _11
# st_lib.c:120:     x = n->x - numdigits*w;
	.loc 1 120 25
	movl	-24(%rbp), %eax	# numdigits, tmp130
	imull	-12(%rbp), %eax	# w, _12
# st_lib.c:120:     x = n->x - numdigits*w;
	.loc 1 120 7
	subl	%eax, %edx	# _12, tmp131
	movl	%edx, -16(%rbp)	# tmp131, x
# st_lib.c:122:     if (n->y - ST_Y < 0)
	.loc 1 122 10
	movq	-40(%rbp), %rax	# n, tmp132
	movl	4(%rax), %eax	# n_43(D)->y, _13
# st_lib.c:122:     if (n->y - ST_Y < 0)
	.loc 1 122 8
	cmpl	$167, %eax	#, _13
	jg	.L7	#,
# st_lib.c:123: 	I_Error("drawNum: n->y - ST_Y < 0");
	.loc 1 123 2
	leaq	.LC1(%rip), %rax	#, tmp133
	movq	%rax, %rdi	# tmp133,
	movl	$0, %eax	#,
	call	I_Error@PLT	#
.L7:
# st_lib.c:125:     V_CopyRect(x, n->y - ST_Y, BG, w*numdigits, h, x, n->y, FG);
	.loc 1 125 5
	movq	-40(%rbp), %rax	# n, tmp134
	movl	4(%rax), %ecx	# n_43(D)->y, _14
	movl	-12(%rbp), %eax	# w, tmp135
	imull	-24(%rbp), %eax	# numdigits, tmp135
	movl	%eax, %edx	# tmp135, _15
# st_lib.c:125:     V_CopyRect(x, n->y - ST_Y, BG, w*numdigits, h, x, n->y, FG);
	.loc 1 125 20
	movq	-40(%rbp), %rax	# n, tmp136
	movl	4(%rax), %eax	# n_43(D)->y, _16
# st_lib.c:125:     V_CopyRect(x, n->y - ST_Y, BG, w*numdigits, h, x, n->y, FG);
	.loc 1 125 5
	leal	-168(%rax), %esi	#, _17
	movl	-16(%rbp), %r8d	# x, tmp137
	movl	-8(%rbp), %edi	# h, tmp138
	movl	-16(%rbp), %eax	# x, tmp139
	pushq	$0	#
	pushq	%rcx	# _14
	movl	%r8d, %r9d	# tmp137,
	movl	%edi, %r8d	# tmp138,
	movl	%edx, %ecx	# _15,
	movl	$4, %edx	#,
	movl	%eax, %edi	# tmp139,
	call	V_CopyRect@PLT	#
	addq	$16, %rsp	#,
# st_lib.c:128:     if (num == 1994)
	.loc 1 128 8
	cmpl	$1994, -20(%rbp)	#, num
	je	.L14	#,
# st_lib.c:131:     x = n->x;
	.loc 1 131 7
	movq	-40(%rbp), %rax	# n, tmp140
	movl	(%rax), %eax	# n_43(D)->x, tmp141
	movl	%eax, -16(%rbp)	# tmp141, x
# st_lib.c:134:     if (!num)
	.loc 1 134 8
	cmpl	$0, -20(%rbp)	#, num
	jne	.L11	#,
# st_lib.c:135: 	V_DrawPatch(x - w, n->y, FG, n->p[ 0 ]);
	.loc 1 135 32
	movq	-40(%rbp), %rax	# n, tmp142
	movq	32(%rax), %rax	# n_43(D)->p, _18
# st_lib.c:135: 	V_DrawPatch(x - w, n->y, FG, n->p[ 0 ]);
	.loc 1 135 2
	movq	(%rax), %rdx	# *_18, _19
	movq	-40(%rbp), %rax	# n, tmp143
	movl	4(%rax), %esi	# n_43(D)->y, _20
	movl	-16(%rbp), %eax	# x, tmp144
	subl	-12(%rbp), %eax	# w, _21
	movq	%rdx, %rcx	# _19,
	movl	$0, %edx	#,
	movl	%eax, %edi	# _21,
	call	V_DrawPatch@PLT	#
# st_lib.c:138:     while (num && numdigits--)
	.loc 1 138 11
	jmp	.L11	#
.L13:
# st_lib.c:140: 	x -= w;
	.loc 1 140 4
	movl	-12(%rbp), %eax	# w, tmp145
	subl	%eax, -16(%rbp)	# tmp145, x
# st_lib.c:141: 	V_DrawPatch(x, n->y, FG, n->p[ num % 10 ]);
	.loc 1 141 28
	movq	-40(%rbp), %rax	# n, tmp146
	movq	32(%rax), %rsi	# n_43(D)->p, _22
# st_lib.c:141: 	V_DrawPatch(x, n->y, FG, n->p[ num % 10 ]);
	.loc 1 141 37
	movl	-20(%rbp), %ecx	# num, tmp147
	movslq	%ecx, %rax	# tmp147, tmp148
	imulq	$1717986919, %rax, %rax	#, tmp148, tmp149
	shrq	$32, %rax	#, tmp150
	movl	%eax, %edx	# tmp150, tmp151
	sarl	$2, %edx	#, tmp151
	movl	%ecx, %eax	# tmp147, tmp152
	sarl	$31, %eax	#, tmp152
	subl	%eax, %edx	# tmp152, _23
	movl	%edx, %eax	# _23, tmp153
	sall	$2, %eax	#, tmp153
	addl	%edx, %eax	# _23, tmp153
	addl	%eax, %eax	# tmp154
	subl	%eax, %ecx	# tmp153, tmp147
	movl	%ecx, %edx	# tmp147, _23
	movslq	%edx, %rax	# _23, _24
# st_lib.c:141: 	V_DrawPatch(x, n->y, FG, n->p[ num % 10 ]);
	.loc 1 141 31
	salq	$3, %rax	#, _25
	addq	%rsi, %rax	# _22, _26
# st_lib.c:141: 	V_DrawPatch(x, n->y, FG, n->p[ num % 10 ]);
	.loc 1 141 2
	movq	(%rax), %rdx	# *_26, _27
	movq	-40(%rbp), %rax	# n, tmp155
	movl	4(%rax), %esi	# n_43(D)->y, _28
	movl	-16(%rbp), %eax	# x, tmp156
	movq	%rdx, %rcx	# _27,
	movl	$0, %edx	#,
	movl	%eax, %edi	# tmp156,
	call	V_DrawPatch@PLT	#
# st_lib.c:142: 	num /= 10;
	.loc 1 142 6
	movl	-20(%rbp), %eax	# num, tmp158
	movslq	%eax, %rdx	# tmp158, tmp159
	imulq	$1717986919, %rdx, %rdx	#, tmp159, tmp160
	shrq	$32, %rdx	#, tmp161
	movl	%edx, %ecx	# tmp161, tmp162
	sarl	$2, %ecx	#, tmp162
	cltd
	movl	%ecx, %eax	# tmp162, tmp162
	subl	%edx, %eax	# tmp163, tmp162
	movl	%eax, -20(%rbp)	# tmp157, num
.L11:
# st_lib.c:138:     while (num && numdigits--)
	.loc 1 138 16
	cmpl	$0, -20(%rbp)	#, num
	je	.L12	#,
# st_lib.c:138:     while (num && numdigits--)
	.loc 1 138 28 discriminator 1
	movl	-24(%rbp), %eax	# numdigits, numdigits.0_29
	leal	-1(%rax), %edx	#, tmp164
	movl	%edx, -24(%rbp)	# tmp164, numdigits
# st_lib.c:138:     while (num && numdigits--)
	.loc 1 138 16 discriminator 1
	testl	%eax, %eax	# numdigits.0_29
	jne	.L13	#,
.L12:
# st_lib.c:146:     if (neg)
	.loc 1 146 8
	cmpl	$0, -4(%rbp)	#, neg
	je	.L3	#,
# st_lib.c:147: 	V_DrawPatch(x - 8, n->y, FG, sttminus);
	.loc 1 147 2
	movq	sttminus(%rip), %rdx	# sttminus, sttminus.1_30
	movq	-40(%rbp), %rax	# n, tmp165
	movl	4(%rax), %eax	# n_43(D)->y, _31
	movl	-16(%rbp), %ecx	# x, tmp166
	leal	-8(%rcx), %edi	#, _32
	movq	%rdx, %rcx	# sttminus.1_30,
	movl	$0, %edx	#,
	movl	%eax, %esi	# _31,
	call	V_DrawPatch@PLT	#
	jmp	.L3	#
.L14:
# st_lib.c:129: 	return;
	.loc 1 129 2
	nop	
.L3:
# st_lib.c:148: }
	.loc 1 148 1
	leave	
	.cfi_def_cfa 7, 8
	ret	
	.cfi_endproc
.LFE2:
	.size	STlib_drawNum, .-STlib_drawNum
	.globl	STlib_updateNum
	.type	STlib_updateNum, @function
STlib_updateNum:
.LFB3:
	.loc 1 156 1
	.cfi_startproc
	endbr64	
	pushq	%rbp	#
	.cfi_def_cfa_offset 16
	.cfi_offset 6, -16
	movq	%rsp, %rbp	#,
	.cfi_def_cfa_register 6
	subq	$16, %rsp	#,
	movq	%rdi, -8(%rbp)	# n, n
	movl	%esi, -12(%rbp)	# refresh, refresh
# st_lib.c:157:     if (*n->on) STlib_drawNum(n, refresh);
	.loc 1 157 11
	movq	-8(%rbp), %rax	# n, tmp84
	movq	24(%rax), %rax	# n_5(D)->on, _1
# st_lib.c:157:     if (*n->on) STlib_drawNum(n, refresh);
	.loc 1 157 9
	movl	(%rax), %eax	# *_1, _2
# st_lib.c:157:     if (*n->on) STlib_drawNum(n, refresh);
	.loc 1 157 8
	testl	%eax, %eax	# _2
	je	.L17	#,
# st_lib.c:157:     if (*n->on) STlib_drawNum(n, refresh);
	.loc 1 157 17 discriminator 1
	movl	-12(%rbp), %edx	# refresh, tmp85
	movq	-8(%rbp), %rax	# n, tmp86
	movl	%edx, %esi	# tmp85,
	movq	%rax, %rdi	# tmp86,
	call	STlib_drawNum	#
.L17:
# st_lib.c:158: }
	.loc 1 158 1
	nop	
	leave	
	.cfi_def_cfa 7, 8
	ret	
	.cfi_endproc
.LFE3:
	.size	STlib_updateNum, .-STlib_updateNum
	.globl	STlib_initPercent
	.type	STlib_initPercent, @function
STlib_initPercent:
.LFB4:
	.loc 1 171 1
	.cfi_startproc
	endbr64	
	pushq	%rbp	#
	.cfi_def_cfa_offset 16
	.cfi_offset 6, -16
	movq	%rsp, %rbp	#,
	.cfi_def_cfa_register 6
	subq	$40, %rsp	#,
	movq	%rdi, -8(%rbp)	# p, p
	movl	%esi, -12(%rbp)	# x, x
	movl	%edx, -16(%rbp)	# y, y
	movq	%rcx, -24(%rbp)	# pl, pl
	movq	%r8, -32(%rbp)	# num, num
	movq	%r9, -40(%rbp)	# on, on
# st_lib.c:172:     STlib_initNum(&p->n, x, y, pl, num, on, 3);
	.loc 1 172 5
	movq	-8(%rbp), %rax	# p, _1
	movq	-40(%rbp), %r8	# on, tmp83
	movq	-32(%rbp), %rdi	# num, tmp84
	movq	-24(%rbp), %rcx	# pl, tmp85
	movl	-16(%rbp), %edx	# y, tmp86
	movl	-12(%rbp), %esi	# x, tmp87
	pushq	$3	#
	movq	%r8, %r9	# tmp83,
	movq	%rdi, %r8	# tmp84,
	movq	%rax, %rdi	# _1,
	call	STlib_initNum	#
	addq	$8, %rsp	#,
# st_lib.c:173:     p->p = percent;
	.loc 1 173 10
	movq	-8(%rbp), %rax	# p, tmp88
	movq	16(%rbp), %rdx	# percent, tmp89
	movq	%rdx, 48(%rax)	# tmp89, p_2(D)->p
# st_lib.c:174: }
	.loc 1 174 1
	nop	
	leave	
	.cfi_def_cfa 7, 8
	ret	
	.cfi_endproc
.LFE4:
	.size	STlib_initPercent, .-STlib_initPercent
	.globl	STlib_updatePercent
	.type	STlib_updatePercent, @function
STlib_updatePercent:
.LFB5:
	.loc 1 183 1
	.cfi_startproc
	endbr64	
	pushq	%rbp	#
	.cfi_def_cfa_offset 16
	.cfi_offset 6, -16
	movq	%rsp, %rbp	#,
	.cfi_def_cfa_register 6
	subq	$16, %rsp	#,
	movq	%rdi, -8(%rbp)	# per, per
	movl	%esi, -12(%rbp)	# refresh, refresh
# st_lib.c:184:     if (refresh && *per->n.on)
	.loc 1 184 8
	cmpl	$0, -12(%rbp)	#, refresh
	je	.L20	#,
# st_lib.c:184:     if (refresh && *per->n.on)
	.loc 1 184 27 discriminator 1
	movq	-8(%rbp), %rax	# per, tmp89
	movq	24(%rax), %rax	# per_11(D)->n.on, _1
# st_lib.c:184:     if (refresh && *per->n.on)
	.loc 1 184 20 discriminator 1
	movl	(%rax), %eax	# *_1, _2
# st_lib.c:184:     if (refresh && *per->n.on)
	.loc 1 184 17 discriminator 1
	testl	%eax, %eax	# _2
	je	.L20	#,
# st_lib.c:185: 	V_DrawPatch(per->n.x, per->n.y, FG, per->p);
	.loc 1 185 2
	movq	-8(%rbp), %rax	# per, tmp90
	movq	48(%rax), %rdx	# per_11(D)->p, _3
	movq	-8(%rbp), %rax	# per, tmp91
	movl	4(%rax), %esi	# per_11(D)->n.y, _4
	movq	-8(%rbp), %rax	# per, tmp92
	movl	(%rax), %eax	# per_11(D)->n.x, _5
	movq	%rdx, %rcx	# _3,
	movl	$0, %edx	#,
	movl	%eax, %edi	# _5,
	call	V_DrawPatch@PLT	#
.L20:
# st_lib.c:187:     STlib_updateNum(&per->n, refresh);
	.loc 1 187 5
	movl	-12(%rbp), %edx	# refresh, refresh.2_6
	movq	-8(%rbp), %rax	# per, _7
	movl	%edx, %esi	# refresh.2_6,
	movq	%rax, %rdi	# _7,
	call	STlib_updateNum	#
# st_lib.c:188: }
	.loc 1 188 1
	nop	
	leave	
	.cfi_def_cfa 7, 8
	ret	
	.cfi_endproc
.LFE5:
	.size	STlib_updatePercent, .-STlib_updatePercent
	.globl	STlib_initMultIcon
	.type	STlib_initMultIcon, @function
STlib_initMultIcon:
.LFB6:
	.loc 1 200 1
	.cfi_startproc
	endbr64	
	pushq	%rbp	#
	.cfi_def_cfa_offset 16
	.cfi_offset 6, -16
	movq	%rsp, %rbp	#,
	.cfi_def_cfa_register 6
	movq	%rdi, -8(%rbp)	# i, i
	movl	%esi, -12(%rbp)	# x, x
	movl	%edx, -16(%rbp)	# y, y
	movq	%rcx, -24(%rbp)	# il, il
	movq	%r8, -32(%rbp)	# inum, inum
	movq	%r9, -40(%rbp)	# on, on
# st_lib.c:201:     i->x	= x;
	.loc 1 201 10
	movq	-8(%rbp), %rax	# i, tmp82
	movl	-12(%rbp), %edx	# x, tmp83
	movl	%edx, (%rax)	# tmp83, i_2(D)->x
# st_lib.c:202:     i->y	= y;
	.loc 1 202 10
	movq	-8(%rbp), %rax	# i, tmp84
	movl	-16(%rbp), %edx	# y, tmp85
	movl	%edx, 4(%rax)	# tmp85, i_2(D)->y
# st_lib.c:203:     i->oldinum 	= -1;
	.loc 1 203 17
	movq	-8(%rbp), %rax	# i, tmp86
	movl	$-1, 8(%rax)	#, i_2(D)->oldinum
# st_lib.c:204:     i->inum	= inum;
	.loc 1 204 13
	movq	-8(%rbp), %rax	# i, tmp87
	movq	-32(%rbp), %rdx	# inum, tmp88
	movq	%rdx, 16(%rax)	# tmp88, i_2(D)->inum
# st_lib.c:205:     i->on	= on;
	.loc 1 205 11
	movq	-8(%rbp), %rax	# i, tmp89
	movq	-40(%rbp), %rdx	# on, tmp90
	movq	%rdx, 24(%rax)	# tmp90, i_2(D)->on
# st_lib.c:206:     i->p	= il;
	.loc 1 206 10
	movq	-8(%rbp), %rax	# i, tmp91
	movq	-24(%rbp), %rdx	# il, tmp92
	movq	%rdx, 32(%rax)	# tmp92, i_2(D)->p
# st_lib.c:207: }
	.loc 1 207 1
	nop	
	popq	%rbp	#
	.cfi_def_cfa 7, 8
	ret	
	.cfi_endproc
.LFE6:
	.size	STlib_initMultIcon, .-STlib_initMultIcon
	.section	.rodata
.LC2:
	.string	"updateMultIcon: y - ST_Y < 0"
	.text
	.globl	STlib_updateMultIcon
	.type	STlib_updateMultIcon, @function
STlib_updateMultIcon:
.LFB7:
	.loc 1 215 1
	.cfi_startproc
	endbr64	
	pushq	%rbp	#
	.cfi_def_cfa_offset 16
	.cfi_offset 6, -16
	movq	%rsp, %rbp	#,
	.cfi_def_cfa_register 6
	subq	$32, %rsp	#,
	movq	%rdi, -24(%rbp)	# mi, mi
	movl	%esi, -28(%rbp)	# refresh, refresh
# st_lib.c:221:     if (*mi->on
	.loc 1 221 12
	movq	-24(%rbp), %rax	# mi, tmp134
	movq	24(%rax), %rax	# mi_57(D)->on, _1
# st_lib.c:221:     if (*mi->on
	.loc 1 221 9
	movl	(%rax), %eax	# *_1, _2
# st_lib.c:221:     if (*mi->on
	.loc 1 221 8
	testl	%eax, %eax	# _2
	je	.L27	#,
# st_lib.c:222: 	&& (mi->oldinum != *mi->inum || refresh)
	.loc 1 222 8
	movq	-24(%rbp), %rax	# mi, tmp135
	movl	8(%rax), %edx	# mi_57(D)->oldinum, _3
# st_lib.c:222: 	&& (mi->oldinum != *mi->inum || refresh)
	.loc 1 222 24
	movq	-24(%rbp), %rax	# mi, tmp136
	movq	16(%rax), %rax	# mi_57(D)->inum, _4
# st_lib.c:222: 	&& (mi->oldinum != *mi->inum || refresh)
	.loc 1 222 21
	movl	(%rax), %eax	# *_4, _5
# st_lib.c:222: 	&& (mi->oldinum != *mi->inum || refresh)
	.loc 1 222 2
	cmpl	%eax, %edx	# _5, _3
	jne	.L24	#,
# st_lib.c:222: 	&& (mi->oldinum != *mi->inum || refresh)
	.loc 1 222 31 discriminator 1
	cmpl	$0, -28(%rbp)	#, refresh
	je	.L27	#,
.L24:
# st_lib.c:223: 	&& (*mi->inum!=-1))
	.loc 1 223 9
	movq	-24(%rbp), %rax	# mi, tmp137
	movq	16(%rax), %rax	# mi_57(D)->inum, _6
# st_lib.c:223: 	&& (*mi->inum!=-1))
	.loc 1 223 6
	movl	(%rax), %eax	# *_6, _7
# st_lib.c:223: 	&& (*mi->inum!=-1))
	.loc 1 223 2
	cmpl	$-1, %eax	#, _7
	je	.L27	#,
# st_lib.c:225: 	if (mi->oldinum != -1)
	.loc 1 225 8
	movq	-24(%rbp), %rax	# mi, tmp138
	movl	8(%rax), %eax	# mi_57(D)->oldinum, _8
# st_lib.c:225: 	if (mi->oldinum != -1)
	.loc 1 225 5
	cmpl	$-1, %eax	#, _8
	je	.L25	#,
# st_lib.c:227: 	    x = mi->x - SHORT(mi->p[mi->oldinum]->leftoffset);
	.loc 1 227 12
	movq	-24(%rbp), %rax	# mi, tmp139
	movl	(%rax), %edx	# mi_57(D)->x, _9
# st_lib.c:227: 	    x = mi->x - SHORT(mi->p[mi->oldinum]->leftoffset);
	.loc 1 227 18
	movq	-24(%rbp), %rax	# mi, tmp140
	movq	32(%rax), %rcx	# mi_57(D)->p, _10
	movq	-24(%rbp), %rax	# mi, tmp141
	movl	8(%rax), %eax	# mi_57(D)->oldinum, _11
	cltq
	salq	$3, %rax	#, _13
	addq	%rcx, %rax	# _10, _14
	movq	(%rax), %rax	# *_14, _15
	movzwl	4(%rax), %eax	# _15->leftoffset, _16
	cwtl
# st_lib.c:227: 	    x = mi->x - SHORT(mi->p[mi->oldinum]->leftoffset);
	.loc 1 227 8
	subl	%eax, %edx	# _17, tmp142
	movl	%edx, -16(%rbp)	# tmp142, x
# st_lib.c:228: 	    y = mi->y - SHORT(mi->p[mi->oldinum]->topoffset);
	.loc 1 228 12
	movq	-24(%rbp), %rax	# mi, tmp143
	movl	4(%rax), %edx	# mi_57(D)->y, _18
# st_lib.c:228: 	    y = mi->y - SHORT(mi->p[mi->oldinum]->topoffset);
	.loc 1 228 18
	movq	-24(%rbp), %rax	# mi, tmp144
	movq	32(%rax), %rcx	# mi_57(D)->p, _19
	movq	-24(%rbp), %rax	# mi, tmp145
	movl	8(%rax), %eax	# mi_57(D)->oldinum, _20
	cltq
	salq	$3, %rax	#, _22
	addq	%rcx, %rax	# _19, _23
	movq	(%rax), %rax	# *_23, _24
	movzwl	6(%rax), %eax	# _24->topoffset, _25
	cwtl
# st_lib.c:228: 	    y = mi->y - SHORT(mi->p[mi->oldinum]->topoffset);
	.loc 1 228 8
	subl	%eax, %edx	# _26, tmp146
	movl	%edx, -12(%rbp)	# tmp146, y
# st_lib.c:229: 	    w = SHORT(mi->p[mi->oldinum]->width);
	.loc 1 229 10
	movq	-24(%rbp), %rax	# mi, tmp147
	movq	32(%rax), %rdx	# mi_57(D)->p, _27
	movq	-24(%rbp), %rax	# mi, tmp148
	movl	8(%rax), %eax	# mi_57(D)->oldinum, _28
	cltq
	salq	$3, %rax	#, _30
	addq	%rdx, %rax	# _27, _31
	movq	(%rax), %rax	# *_31, _32
	movzwl	(%rax), %eax	# _32->width, _33
# st_lib.c:229: 	    w = SHORT(mi->p[mi->oldinum]->width);
	.loc 1 229 8
	cwtl
	movl	%eax, -8(%rbp)	# tmp149, w
# st_lib.c:230: 	    h = SHORT(mi->p[mi->oldinum]->height);
	.loc 1 230 10
	movq	-24(%rbp), %rax	# mi, tmp150
	movq	32(%rax), %rdx	# mi_57(D)->p, _34
	movq	-24(%rbp), %rax	# mi, tmp151
	movl	8(%rax), %eax	# mi_57(D)->oldinum, _35
	cltq
	salq	$3, %rax	#, _37
	addq	%rdx, %rax	# _34, _38
	movq	(%rax), %rax	# *_38, _39
	movzwl	2(%rax), %eax	# _39->height, _40
# st_lib.c:230: 	    h = SHORT(mi->p[mi->oldinum]->height);
	.loc 1 230 8
	cwtl
	movl	%eax, -4(%rbp)	# tmp152, h
# st_lib.c:232: 	    if (y - ST_Y < 0)
	.loc 1 232 9
	cmpl	$167, -12(%rbp)	#, y
	jg	.L26	#,
# st_lib.c:233: 		I_Error("updateMultIcon: y - ST_Y < 0");
	.loc 1 233 3
	leaq	.LC2(%rip), %rax	#, tmp153
	movq	%rax, %rdi	# tmp153,
	movl	$0, %eax	#,
	call	I_Error@PLT	#
.L26:
# st_lib.c:235: 	    V_CopyRect(x, y-ST_Y, BG, w, h, x, y, FG);
	.loc 1 235 6
	movl	-12(%rbp), %eax	# y, tmp154
	leal	-168(%rax), %esi	#, _41
	movl	-16(%rbp), %r8d	# x, tmp155
	movl	-4(%rbp), %edi	# h, tmp156
	movl	-8(%rbp), %edx	# w, tmp157
	movl	-16(%rbp), %eax	# x, tmp158
	pushq	$0	#
	movl	-12(%rbp), %ecx	# y, tmp159
	pushq	%rcx	# tmp159
	movl	%r8d, %r9d	# tmp155,
	movl	%edi, %r8d	# tmp156,
	movl	%edx, %ecx	# tmp157,
	movl	$4, %edx	#,
	movl	%eax, %edi	# tmp158,
	call	V_CopyRect@PLT	#
	addq	$16, %rsp	#,
.L25:
# st_lib.c:237: 	V_DrawPatch(mi->x, mi->y, FG, mi->p[*mi->inum]);
	.loc 1 237 34
	movq	-24(%rbp), %rax	# mi, tmp160
	movq	32(%rax), %rdx	# mi_57(D)->p, _42
# st_lib.c:237: 	V_DrawPatch(mi->x, mi->y, FG, mi->p[*mi->inum]);
	.loc 1 237 41
	movq	-24(%rbp), %rax	# mi, tmp161
	movq	16(%rax), %rax	# mi_57(D)->inum, _43
# st_lib.c:237: 	V_DrawPatch(mi->x, mi->y, FG, mi->p[*mi->inum]);
	.loc 1 237 38
	movl	(%rax), %eax	# *_43, _44
	cltq
# st_lib.c:237: 	V_DrawPatch(mi->x, mi->y, FG, mi->p[*mi->inum]);
	.loc 1 237 37
	salq	$3, %rax	#, _46
	addq	%rdx, %rax	# _42, _47
# st_lib.c:237: 	V_DrawPatch(mi->x, mi->y, FG, mi->p[*mi->inum]);
	.loc 1 237 2
	movq	(%rax), %rdx	# *_47, _48
	movq	-24(%rbp), %rax	# mi, tmp162
	movl	4(%rax), %esi	# mi_57(D)->y, _49
	movq	-24(%rbp), %rax	# mi, tmp163
	movl	(%rax), %eax	# mi_57(D)->x, _50
	movq	%rdx, %rcx	# _48,
	movl	$0, %edx	#,
	movl	%eax, %edi	# _50,
	call	V_DrawPatch@PLT	#
# st_lib.c:238: 	mi->oldinum = *mi->inum;
	.loc 1 238 19
	movq	-24(%rbp), %rax	# mi, tmp164
	movq	16(%rax), %rax	# mi_57(D)->inum, _51
# st_lib.c:238: 	mi->oldinum = *mi->inum;
	.loc 1 238 16
	movl	(%rax), %edx	# *_51, _52
# st_lib.c:238: 	mi->oldinum = *mi->inum;
	.loc 1 238 14
	movq	-24(%rbp), %rax	# mi, tmp165
	movl	%edx, 8(%rax)	# _52, mi_57(D)->oldinum
.L27:
# st_lib.c:240: }
	.loc 1 240 1
	nop	
	leave	
	.cfi_def_cfa 7, 8
	ret	
	.cfi_endproc
.LFE7:
	.size	STlib_updateMultIcon, .-STlib_updateMultIcon
	.globl	STlib_initBinIcon
	.type	STlib_initBinIcon, @function
STlib_initBinIcon:
.LFB8:
	.loc 1 252 1
	.cfi_startproc
	endbr64	
	pushq	%rbp	#
	.cfi_def_cfa_offset 16
	.cfi_offset 6, -16
	movq	%rsp, %rbp	#,
	.cfi_def_cfa_register 6
	movq	%rdi, -8(%rbp)	# b, b
	movl	%esi, -12(%rbp)	# x, x
	movl	%edx, -16(%rbp)	# y, y
	movq	%rcx, -24(%rbp)	# i, i
	movq	%r8, -32(%rbp)	# val, val
	movq	%r9, -40(%rbp)	# on, on
# st_lib.c:253:     b->x	= x;
	.loc 1 253 10
	movq	-8(%rbp), %rax	# b, tmp82
	movl	-12(%rbp), %edx	# x, tmp83
	movl	%edx, (%rax)	# tmp83, b_2(D)->x
# st_lib.c:254:     b->y	= y;
	.loc 1 254 10
	movq	-8(%rbp), %rax	# b, tmp84
	movl	-16(%rbp), %edx	# y, tmp85
	movl	%edx, 4(%rax)	# tmp85, b_2(D)->y
# st_lib.c:255:     b->oldval	= 0;
	.loc 1 255 15
	movq	-8(%rbp), %rax	# b, tmp86
	movl	$0, 8(%rax)	#, b_2(D)->oldval
# st_lib.c:256:     b->val	= val;
	.loc 1 256 12
	movq	-8(%rbp), %rax	# b, tmp87
	movq	-32(%rbp), %rdx	# val, tmp88
	movq	%rdx, 16(%rax)	# tmp88, b_2(D)->val
# st_lib.c:257:     b->on	= on;
	.loc 1 257 11
	movq	-8(%rbp), %rax	# b, tmp89
	movq	-40(%rbp), %rdx	# on, tmp90
	movq	%rdx, 24(%rax)	# tmp90, b_2(D)->on
# st_lib.c:258:     b->p	= i;
	.loc 1 258 10
	movq	-8(%rbp), %rax	# b, tmp91
	movq	-24(%rbp), %rdx	# i, tmp92
	movq	%rdx, 32(%rax)	# tmp92, b_2(D)->p
# st_lib.c:259: }
	.loc 1 259 1
	nop	
	popq	%rbp	#
	.cfi_def_cfa 7, 8
	ret	
	.cfi_endproc
.LFE8:
	.size	STlib_initBinIcon, .-STlib_initBinIcon
	.section	.rodata
.LC3:
	.string	"updateBinIcon: y - ST_Y < 0"
	.text
	.globl	STlib_updateBinIcon
	.type	STlib_updateBinIcon, @function
STlib_updateBinIcon:
.LFB9:
	.loc 1 267 1
	.cfi_startproc
	endbr64	
	pushq	%rbp	#
	.cfi_def_cfa_offset 16
	.cfi_offset 6, -16
	movq	%rsp, %rbp	#,
	.cfi_def_cfa_register 6
	subq	$32, %rsp	#,
	movq	%rdi, -24(%rbp)	# bi, bi
	movl	%esi, -28(%rbp)	# refresh, refresh
# st_lib.c:273:     if (*bi->on
	.loc 1 273 12
	movq	-24(%rbp), %rax	# bi, tmp109
	movq	24(%rax), %rax	# bi_32(D)->on, _1
# st_lib.c:273:     if (*bi->on
	.loc 1 273 9
	movl	(%rax), %eax	# *_1, _2
# st_lib.c:273:     if (*bi->on
	.loc 1 273 8
	testl	%eax, %eax	# _2
	je	.L35	#,
# st_lib.c:274: 	&& (bi->oldval != *bi->val || refresh))
	.loc 1 274 8
	movq	-24(%rbp), %rax	# bi, tmp110
	movl	8(%rax), %edx	# bi_32(D)->oldval, _3
# st_lib.c:274: 	&& (bi->oldval != *bi->val || refresh))
	.loc 1 274 23
	movq	-24(%rbp), %rax	# bi, tmp111
	movq	16(%rax), %rax	# bi_32(D)->val, _4
# st_lib.c:274: 	&& (bi->oldval != *bi->val || refresh))
	.loc 1 274 20
	movl	(%rax), %eax	# *_4, _5
# st_lib.c:274: 	&& (bi->oldval != *bi->val || refresh))
	.loc 1 274 2
	cmpl	%eax, %edx	# _6, _3
	jne	.L31	#,
# st_lib.c:274: 	&& (bi->oldval != *bi->val || refresh))
	.loc 1 274 29 discriminator 1
	cmpl	$0, -28(%rbp)	#, refresh
	je	.L35	#,
.L31:
# st_lib.c:276: 	x = bi->x - SHORT(bi->p->leftoffset);
	.loc 1 276 8
	movq	-24(%rbp), %rax	# bi, tmp112
	movl	(%rax), %edx	# bi_32(D)->x, _7
# st_lib.c:276: 	x = bi->x - SHORT(bi->p->leftoffset);
	.loc 1 276 14
	movq	-24(%rbp), %rax	# bi, tmp113
	movq	32(%rax), %rax	# bi_32(D)->p, _8
	movzwl	4(%rax), %eax	# _8->leftoffset, _9
	cwtl
# st_lib.c:276: 	x = bi->x - SHORT(bi->p->leftoffset);
	.loc 1 276 4
	subl	%eax, %edx	# _10, tmp114
	movl	%edx, -16(%rbp)	# tmp114, x
# st_lib.c:277: 	y = bi->y - SHORT(bi->p->topoffset);
	.loc 1 277 8
	movq	-24(%rbp), %rax	# bi, tmp115
	movl	4(%rax), %edx	# bi_32(D)->y, _11
# st_lib.c:277: 	y = bi->y - SHORT(bi->p->topoffset);
	.loc 1 277 14
	movq	-24(%rbp), %rax	# bi, tmp116
	movq	32(%rax), %rax	# bi_32(D)->p, _12
	movzwl	6(%rax), %eax	# _12->topoffset, _13
	cwtl
# st_lib.c:277: 	y = bi->y - SHORT(bi->p->topoffset);
	.loc 1 277 4
	subl	%eax, %edx	# _14, tmp117
	movl	%edx, -12(%rbp)	# tmp117, y
# st_lib.c:278: 	w = SHORT(bi->p->width);
	.loc 1 278 6
	movq	-24(%rbp), %rax	# bi, tmp118
	movq	32(%rax), %rax	# bi_32(D)->p, _15
	movzwl	(%rax), %eax	# _15->width, _16
# st_lib.c:278: 	w = SHORT(bi->p->width);
	.loc 1 278 4
	cwtl
	movl	%eax, -8(%rbp)	# tmp119, w
# st_lib.c:279: 	h = SHORT(bi->p->height);
	.loc 1 279 6
	movq	-24(%rbp), %rax	# bi, tmp120
	movq	32(%rax), %rax	# bi_32(D)->p, _17
	movzwl	2(%rax), %eax	# _17->height, _18
# st_lib.c:279: 	h = SHORT(bi->p->height);
	.loc 1 279 4
	cwtl
	movl	%eax, -4(%rbp)	# tmp121, h
# st_lib.c:281: 	if (y - ST_Y < 0)
	.loc 1 281 5
	cmpl	$167, -12(%rbp)	#, y
	jg	.L32	#,
# st_lib.c:282: 	    I_Error("updateBinIcon: y - ST_Y < 0");
	.loc 1 282 6
	leaq	.LC3(%rip), %rax	#, tmp122
	movq	%rax, %rdi	# tmp122,
	movl	$0, %eax	#,
	call	I_Error@PLT	#
.L32:
# st_lib.c:284: 	if (*bi->val)
	.loc 1 284 9
	movq	-24(%rbp), %rax	# bi, tmp123
	movq	16(%rax), %rax	# bi_32(D)->val, _19
# st_lib.c:284: 	if (*bi->val)
	.loc 1 284 6
	movl	(%rax), %eax	# *_19, _20
# st_lib.c:284: 	if (*bi->val)
	.loc 1 284 5
	testl	%eax, %eax	# _20
	je	.L33	#,
# st_lib.c:285: 	    V_DrawPatch(bi->x, bi->y, FG, bi->p);
	.loc 1 285 6
	movq	-24(%rbp), %rax	# bi, tmp124
	movq	32(%rax), %rdx	# bi_32(D)->p, _21
	movq	-24(%rbp), %rax	# bi, tmp125
	movl	4(%rax), %esi	# bi_32(D)->y, _22
	movq	-24(%rbp), %rax	# bi, tmp126
	movl	(%rax), %eax	# bi_32(D)->x, _23
	movq	%rdx, %rcx	# _21,
	movl	$0, %edx	#,
	movl	%eax, %edi	# _23,
	call	V_DrawPatch@PLT	#
	jmp	.L34	#
.L33:
# st_lib.c:287: 	    V_CopyRect(x, y-ST_Y, BG, w, h, x, y, FG);
	.loc 1 287 6
	movl	-12(%rbp), %eax	# y, tmp127
	leal	-168(%rax), %esi	#, _24
	movl	-16(%rbp), %r8d	# x, tmp128
	movl	-4(%rbp), %edi	# h, tmp129
	movl	-8(%rbp), %edx	# w, tmp130
	movl	-16(%rbp), %eax	# x, tmp131
	pushq	$0	#
	movl	-12(%rbp), %ecx	# y, tmp132
	pushq	%rcx	# tmp132
	movl	%r8d, %r9d	# tmp128,
	movl	%edi, %r8d	# tmp129,
	movl	%edx, %ecx	# tmp130,
	movl	$4, %edx	#,
	movl	%eax, %edi	# tmp131,
	call	V_CopyRect@PLT	#
	addq	$16, %rsp	#,
.L34:
# st_lib.c:289: 	bi->oldval = *bi->val;
	.loc 1 289 18
	movq	-24(%rbp), %rax	# bi, tmp133
	movq	16(%rax), %rax	# bi_32(D)->val, _25
# st_lib.c:289: 	bi->oldval = *bi->val;
	.loc 1 289 15
	movl	(%rax), %eax	# *_25, _26
	movl	%eax, %edx	# _26, _27
# st_lib.c:289: 	bi->oldval = *bi->val;
	.loc 1 289 13
	movq	-24(%rbp), %rax	# bi, tmp134
	movl	%edx, 8(%rax)	# _27, bi_32(D)->oldval
.L35:
# st_lib.c:292: }
	.loc 1 292 1
	nop	
	leave	
	.cfi_def_cfa 7, 8
	ret	
	.cfi_endproc
.LFE9:
	.size	STlib_updateBinIcon, .-STlib_updateBinIcon
.Letext0:
	.file 2 "doomdef.h"
	.file 3 "doomtype.h"
	.file 4 "info.h"
	.file 5 "r_defs.h"
	.file 6 "p_pspr.h"
	.file 7 "st_lib.h"
	.file 8 "v_video.h"
	.file 9 "i_system.h"
	.file 10 "w_wad.h"
	.section	.note.GNU-stack,"",@progbits
	.section	.note.gnu.property,"a"
	.align 8
	.long	1f - 0f
	.long	4f - 1f
	.long	5
0:
	.string	"GNU"
1:
	.align 8
	.long	0xc0000002
	.long	3f - 2f
2:
	.long	0x3
3:
	.align 8
4:
