	.file	"st_stuff.c"
# GNU C17 (Ubuntu 13.3.0-6ubuntu2~24.04) version 13.3.0 (x86_64-linux-gnu)
#	compiled by GNU C version 13.3.0, GMP version 6.3.0, MPFR version 4.2.1, MPC version 1.3.1, isl version isl-0.26-GMP

# GGC heuristics: --param ggc-min-expand=100 --param ggc-min-heapsize=131072
# options passed: -mtune=generic -march=x86-64 -g -fasynchronous-unwind-tables -fstack-protector-strong -fstack-clash-protection -fcf-protection
	.text
.Ltext0:
	.file 0 "/home/astrid/Documents/enseignements/DOOM/linuxdoom-1.10" "st_stuff.c"
	.section	.rodata
	.align 32
	.type	rcsid, @object
	.size	rcsid, 51
rcsid:
	.string	"$Id: st_stuff.c,v 1.6 1997/02/03 22:45:13 b1 Exp $"
	.local	plyr
	.comm	plyr,8,8
	.local	st_firsttime
	.comm	st_firsttime,4,4
	.data
	.align 4
	.type	veryfirsttime, @object
	.size	veryfirsttime, 4
veryfirsttime:
	.long	1
	.local	lu_palette
	.comm	lu_palette,4,4
	.local	st_clock
	.comm	st_clock,4,4
	.local	st_msgcounter
	.comm	st_msgcounter,4,4
	.local	st_chatstate
	.comm	st_chatstate,4,4
	.local	st_gamestate
	.comm	st_gamestate,4,4
	.local	st_statusbaron
	.comm	st_statusbaron,4,4
	.local	st_chat
	.comm	st_chat,4,4
	.local	st_oldchat
	.comm	st_oldchat,4,4
	.local	st_cursoron
	.comm	st_cursoron,4,4
	.local	st_notdeathmatch
	.comm	st_notdeathmatch,4,4
	.local	st_armson
	.comm	st_armson,4,4
	.local	st_fragson
	.comm	st_fragson,4,4
	.local	sbar
	.comm	sbar,8,8
	.local	tallnum
	.comm	tallnum,80,32
	.local	tallpercent
	.comm	tallpercent,8,8
	.local	shortnum
	.comm	shortnum,80,32
	.local	keys
	.comm	keys,48,32
	.local	faces
	.comm	faces,336,32
	.local	faceback
	.comm	faceback,8,8
	.local	armsbg
	.comm	armsbg,8,8
	.local	arms
	.comm	arms,96,32
	.local	w_ready
	.comm	w_ready,48,32
	.local	w_frags
	.comm	w_frags,48,32
	.local	w_health
	.comm	w_health,56,32
	.local	w_armsbg
	.comm	w_armsbg,48,32
	.local	w_arms
	.comm	w_arms,288,32
	.local	w_faces
	.comm	w_faces,48,32
	.local	w_keyboxes
	.comm	w_keyboxes,144,32
	.local	w_armor
	.comm	w_armor,56,32
	.local	w_ammo
	.comm	w_ammo,192,32
	.local	w_maxammo
	.comm	w_maxammo,192,32
	.local	st_fragscount
	.comm	st_fragscount,4,4
	.align 4
	.type	st_oldhealth, @object
	.size	st_oldhealth, 4
st_oldhealth:
	.long	-1
	.local	oldweaponsowned
	.comm	oldweaponsowned,36,32
	.local	st_facecount
	.comm	st_facecount,4,4
	.local	st_faceindex
	.comm	st_faceindex,4,4
	.local	keyboxes
	.comm	keyboxes,12,8
	.local	st_randomnumber
	.comm	st_randomnumber,4,4
	.globl	cheat_mus_seq
	.align 8
	.type	cheat_mus_seq, @object
	.size	cheat_mus_seq, 9
cheat_mus_seq:
	.string	"\262&\266\256\352\001"
	.string	""
	.ascii	"\377"
	.globl	cheat_choppers_seq
	.align 8
	.type	cheat_choppers_seq, @object
	.size	cheat_choppers_seq, 11
cheat_choppers_seq:
	.ascii	"\262&\3422\366**\246j\352\377"
	.globl	cheat_god_seq
	.type	cheat_god_seq, @object
	.size	cheat_god_seq, 6
cheat_god_seq:
	.ascii	"\262&&\252&\377"
	.globl	cheat_ammo_seq
	.type	cheat_ammo_seq, @object
	.size	cheat_ammo_seq, 6
cheat_ammo_seq:
	.ascii	"\262&\362f\242\377"
	.globl	cheat_ammonokey_seq
	.type	cheat_ammonokey_seq, @object
	.size	cheat_ammonokey_seq, 5
cheat_ammonokey_seq:
	.ascii	"\262&f\242\377"
	.globl	cheat_noclip_seq
	.align 8
	.type	cheat_noclip_seq, @object
	.size	cheat_noclip_seq, 11
cheat_noclip_seq:
	.ascii	"\262&\352*\262\352*\366*&\377"
	.globl	cheat_commercial_noclip_seq
	.type	cheat_commercial_noclip_seq, @object
	.size	cheat_commercial_noclip_seq, 7
cheat_commercial_noclip_seq:
	.ascii	"\262&\3426\262*\377"
	.globl	cheat_powerup_seq
	.align 32
	.type	cheat_powerup_seq, @object
	.size	cheat_powerup_seq, 70
cheat_powerup_seq:
	.ascii	"\262&b\2462\3666&n\377"
	.ascii	"\262&b\2462\3666&\352\377"
	.ascii	"\262&b\2462\3666&\262\377"
	.ascii	"\262&b\2462\3666&j\377"
	.ascii	"\262&b\2462\3666&\242\377"
	.ascii	"\262&b\2462\3666&6\377"
	.string	"\262&b\2462\3666&\377"
	.globl	cheat_clev_seq
	.align 8
	.type	cheat_clev_seq, @object
	.size	cheat_clev_seq, 10
cheat_clev_seq:
	.string	"\262&\3426\246n\001"
	.string	""
	.ascii	"\377"
	.globl	cheat_mypos_seq
	.align 8
	.type	cheat_mypos_seq, @object
	.size	cheat_mypos_seq, 8
cheat_mypos_seq:
	.ascii	"\262&\266\272*\366\352\377"
	.globl	cheat_mus
	.section	.data.rel.local,"aw"
	.align 16
	.type	cheat_mus, @object
	.size	cheat_mus, 16
cheat_mus:
# sequence:
	.quad	cheat_mus_seq
# p:
	.quad	0
	.globl	cheat_god
	.align 16
	.type	cheat_god, @object
	.size	cheat_god, 16
cheat_god:
# sequence:
	.quad	cheat_god_seq
# p:
	.quad	0
	.globl	cheat_ammo
	.align 16
	.type	cheat_ammo, @object
	.size	cheat_ammo, 16
cheat_ammo:
# sequence:
	.quad	cheat_ammo_seq
# p:
	.quad	0
	.globl	cheat_ammonokey
	.align 16
	.type	cheat_ammonokey, @object
	.size	cheat_ammonokey, 16
cheat_ammonokey:
# sequence:
	.quad	cheat_ammonokey_seq
# p:
	.quad	0
	.globl	cheat_noclip
	.align 16
	.type	cheat_noclip, @object
	.size	cheat_noclip, 16
cheat_noclip:
# sequence:
	.quad	cheat_noclip_seq
# p:
	.quad	0
	.globl	cheat_commercial_noclip
	.align 16
	.type	cheat_commercial_noclip, @object
	.size	cheat_commercial_noclip, 16
cheat_commercial_noclip:
# sequence:
	.quad	cheat_commercial_noclip_seq
# p:
	.quad	0
	.globl	cheat_powerup
	.align 32
	.type	cheat_powerup, @object
	.size	cheat_powerup, 112
cheat_powerup:
# sequence:
	.quad	cheat_powerup_seq
# p:
	.quad	0
# sequence:
	.quad	cheat_powerup_seq+10
# p:
	.quad	0
# sequence:
	.quad	cheat_powerup_seq+20
# p:
	.quad	0
# sequence:
	.quad	cheat_powerup_seq+30
# p:
	.quad	0
# sequence:
	.quad	cheat_powerup_seq+40
# p:
	.quad	0
# sequence:
	.quad	cheat_powerup_seq+50
# p:
	.quad	0
# sequence:
	.quad	cheat_powerup_seq+60
# p:
	.quad	0
	.globl	cheat_choppers
	.align 16
	.type	cheat_choppers, @object
	.size	cheat_choppers, 16
cheat_choppers:
# sequence:
	.quad	cheat_choppers_seq
# p:
	.quad	0
	.globl	cheat_clev
	.align 16
	.type	cheat_clev, @object
	.size	cheat_clev, 16
cheat_clev:
# sequence:
	.quad	cheat_clev_seq
# p:
	.quad	0
	.globl	cheat_mypos
	.align 16
	.type	cheat_mypos, @object
	.size	cheat_mypos, 16
cheat_mypos:
# sequence:
	.quad	cheat_mypos_seq
# p:
	.quad	0
	.text
	.globl	ST_refreshBackground
	.type	ST_refreshBackground, @function
ST_refreshBackground:
.LFB0:
	.file 1 "st_stuff.c"
	.loc 1 500 1
	.cfi_startproc
	endbr64	
	pushq	%rbp	#
	.cfi_def_cfa_offset 16
	.cfi_offset 6, -16
	movq	%rsp, %rbp	#,
	.cfi_def_cfa_register 6
# st_stuff.c:502:     if (st_statusbaron)
	.loc 1 502 9
	movl	st_statusbaron(%rip), %eax	# st_statusbaron, st_statusbaron.0_1
# st_stuff.c:502:     if (st_statusbaron)
	.loc 1 502 8
	testl	%eax, %eax	# st_statusbaron.0_1
	je	.L4	#,
# st_stuff.c:504: 	V_DrawPatch(ST_X, 0, BG, sbar);
	.loc 1 504 2
	movq	sbar(%rip), %rax	# sbar, sbar.1_2
	movq	%rax, %rcx	# sbar.1_2,
	movl	$4, %edx	#,
	movl	$0, %esi	#,
	movl	$0, %edi	#,
	call	V_DrawPatch@PLT	#
# st_stuff.c:506: 	if (netgame)
	.loc 1 506 6
	movl	netgame(%rip), %eax	# netgame, netgame.2_3
# st_stuff.c:506: 	if (netgame)
	.loc 1 506 5
	testl	%eax, %eax	# netgame.2_3
	je	.L3	#,
# st_stuff.c:507: 	    V_DrawPatch(ST_FX, 0, BG, faceback);
	.loc 1 507 6
	movq	faceback(%rip), %rax	# faceback, faceback.3_4
	movq	%rax, %rcx	# faceback.3_4,
	movl	$4, %edx	#,
	movl	$0, %esi	#,
	movl	$143, %edi	#,
	call	V_DrawPatch@PLT	#
.L3:
# st_stuff.c:509: 	V_CopyRect(ST_X, 0, BG, ST_WIDTH, ST_HEIGHT, ST_X, ST_Y, FG);
	.loc 1 509 2
	pushq	$0	#
	pushq	$168	#
	movl	$0, %r9d	#,
	movl	$32, %r8d	#,
	movl	$320, %ecx	#,
	movl	$4, %edx	#,
	movl	$0, %esi	#,
	movl	$0, %edi	#,
	call	V_CopyRect@PLT	#
	addq	$16, %rsp	#,
.L4:
# st_stuff.c:512: }
	.loc 1 512 1
	nop	
	leave	
	.cfi_def_cfa 7, 8
	ret	
	.cfi_endproc
.LFE0:
	.size	ST_refreshBackground, .-ST_refreshBackground
	.section	.rodata
.LC0:
	.string	"Degreelessness Mode On"
.LC1:
	.string	"Degreelessness Mode Off"
.LC2:
	.string	"Ammo (no keys) Added"
.LC3:
	.string	"Very Happy Ammo Added"
.LC4:
	.string	"Music Change"
.LC5:
	.string	"IMPOSSIBLE SELECTION"
.LC6:
	.string	"No Clipping Mode ON"
.LC7:
	.string	"No Clipping Mode OFF"
.LC8:
	.string	"Power-up Toggled"
	.align 8
.LC9:
	.string	"inVuln, Str, Inviso, Rad, Allmap, or Lite-amp"
.LC10:
	.string	"... doesn't suck - GM"
.LC11:
	.string	"ang=0x%x;x,y=(0x%x,0x%x)"
.LC12:
	.string	"Changing Level..."
	.text
	.globl	ST_Responder
	.type	ST_Responder, @function
ST_Responder:
.LFB1:
	.loc 1 519 1
	.cfi_startproc
	endbr64	
	pushq	%rbp	#
	.cfi_def_cfa_offset 16
	.cfi_offset 6, -16
	movq	%rsp, %rbp	#,
	.cfi_def_cfa_register 6
	subq	$48, %rsp	#,
	movq	%rdi, -40(%rbp)	# ev, ev
# st_stuff.c:519: {
	.loc 1 519 1
	movq	%fs:40, %rax	# MEM[(<address-space-1> long unsigned int *)40B], tmp359
	movq	%rax, -8(%rbp)	# tmp359, D.8211
	xorl	%eax, %eax	# tmp359
# st_stuff.c:523:   if (ev->type == ev_keyup
	.loc 1 523 9
	movq	-40(%rbp), %rax	# ev, tmp246
	movl	(%rax), %eax	# ev_190(D)->type, _1
# st_stuff.c:523:   if (ev->type == ev_keyup
	.loc 1 523 6
	cmpl	$1, %eax	#, _1
	jne	.L6	#,
# st_stuff.c:524:       && ((ev->data1 & 0xffff0000) == AM_MSGHEADER))
	.loc 1 524 14
	movq	-40(%rbp), %rax	# ev, tmp247
	movl	4(%rax), %eax	# ev_190(D)->data1, _2
# st_stuff.c:524:       && ((ev->data1 & 0xffff0000) == AM_MSGHEADER))
	.loc 1 524 22
	movw	$0, %ax	#, _4
# st_stuff.c:524:       && ((ev->data1 & 0xffff0000) == AM_MSGHEADER))
	.loc 1 524 7
	cmpl	$1634533376, %eax	#, _4
	jne	.L6	#,
# st_stuff.c:526:     switch(ev->data1)
	.loc 1 526 14
	movq	-40(%rbp), %rax	# ev, tmp248
	movl	4(%rax), %eax	# ev_190(D)->data1, _5
# st_stuff.c:526:     switch(ev->data1)
	.loc 1 526 5
	cmpl	$1634559232, %eax	#, _5
	je	.L7	#,
	cmpl	$1634564096, %eax	#, _5
	je	.L8	#,
	jmp	.L10	#
.L7:
# st_stuff.c:529: 	st_gamestate = AutomapState;
	.loc 1 529 15
	movl	$0, st_gamestate(%rip)	#, st_gamestate
# st_stuff.c:530: 	st_firsttime = true;
	.loc 1 530 15
	movl	$1, st_firsttime(%rip)	#, st_firsttime
# st_stuff.c:531: 	break;
	.loc 1 531 2
	jmp	.L9	#
.L8:
# st_stuff.c:535: 	st_gamestate = FirstPersonState;
	.loc 1 535 15
	movl	$1, st_gamestate(%rip)	#, st_gamestate
# st_stuff.c:536: 	break;
	.loc 1 536 2
	nop	
.L9:
# st_stuff.c:526:     switch(ev->data1)
	.loc 1 526 5
	jmp	.L10	#
.L6:
# st_stuff.c:541:   else if (ev->type == ev_keydown)
	.loc 1 541 14
	movq	-40(%rbp), %rax	# ev, tmp249
	movl	(%rax), %eax	# ev_190(D)->type, _6
# st_stuff.c:541:   else if (ev->type == ev_keydown)
	.loc 1 541 11
	testl	%eax, %eax	# _6
	jne	.L10	#,
# st_stuff.c:543:     if (!netgame)
	.loc 1 543 9
	movl	netgame(%rip), %eax	# netgame, netgame.4_7
# st_stuff.c:543:     if (!netgame)
	.loc 1 543 8
	testl	%eax, %eax	# netgame.4_7
	jne	.L11	#,
# st_stuff.c:549:       if (cht_CheckCheat(&cheat_god, ev->data1))
	.loc 1 549 40
	movq	-40(%rbp), %rax	# ev, tmp250
	movl	4(%rax), %eax	# ev_190(D)->data1, _8
# st_stuff.c:549:       if (cht_CheckCheat(&cheat_god, ev->data1))
	.loc 1 549 11
	movsbl	%al, %eax	# _9, _10
	movl	%eax, %esi	# _10,
	leaq	cheat_god(%rip), %rax	#, tmp251
	movq	%rax, %rdi	# tmp251,
	call	cht_CheckCheat@PLT	#
# st_stuff.c:549:       if (cht_CheckCheat(&cheat_god, ev->data1))
	.loc 1 549 10 discriminator 1
	testl	%eax, %eax	# _11
	je	.L12	#,
# st_stuff.c:551: 	plyr->cheats ^= CF_GODMODE;
	.loc 1 551 6
	movq	plyr(%rip), %rax	# plyr, plyr.5_12
	movl	200(%rax), %edx	# plyr.5_12->cheats, _13
	movq	plyr(%rip), %rax	# plyr, plyr.6_14
# st_stuff.c:551: 	plyr->cheats ^= CF_GODMODE;
	.loc 1 551 15
	xorl	$2, %edx	#, _15
	movl	%edx, 200(%rax)	# _15, plyr.6_14->cheats
# st_stuff.c:552: 	if (plyr->cheats & CF_GODMODE)
	.loc 1 552 10
	movq	plyr(%rip), %rax	# plyr, plyr.7_16
	movl	200(%rax), %eax	# plyr.7_16->cheats, _17
# st_stuff.c:552: 	if (plyr->cheats & CF_GODMODE)
	.loc 1 552 19
	andl	$2, %eax	#, _18
# st_stuff.c:552: 	if (plyr->cheats & CF_GODMODE)
	.loc 1 552 5
	testl	%eax, %eax	# _18
	je	.L13	#,
# st_stuff.c:554: 	  if (plyr->mo)
	.loc 1 554 12
	movq	plyr(%rip), %rax	# plyr, plyr.8_19
	movq	(%rax), %rax	# plyr.8_19->mo, _20
# st_stuff.c:554: 	  if (plyr->mo)
	.loc 1 554 7
	testq	%rax, %rax	# _20
	je	.L14	#,
# st_stuff.c:555: 	    plyr->mo->health = 100;
	.loc 1 555 10
	movq	plyr(%rip), %rax	# plyr, plyr.9_21
	movq	(%rax), %rax	# plyr.9_21->mo, _22
# st_stuff.c:555: 	    plyr->mo->health = 100;
	.loc 1 555 23
	movl	$100, 164(%rax)	#, _22->health
.L14:
# st_stuff.c:557: 	  plyr->health = 100;
	.loc 1 557 8
	movq	plyr(%rip), %rax	# plyr, plyr.10_23
# st_stuff.c:557: 	  plyr->health = 100;
	.loc 1 557 17
	movl	$100, 36(%rax)	#, plyr.10_23->health
# st_stuff.c:558: 	  plyr->message = STSTR_DQDON;
	.loc 1 558 8
	movq	plyr(%rip), %rax	# plyr, plyr.11_24
# st_stuff.c:558: 	  plyr->message = STSTR_DQDON;
	.loc 1 558 18
	leaq	.LC0(%rip), %rdx	#, tmp252
	movq	%rdx, 224(%rax)	# tmp252, plyr.11_24->message
	jmp	.L15	#
.L13:
# st_stuff.c:561: 	  plyr->message = STSTR_DQDOFF;
	.loc 1 561 8
	movq	plyr(%rip), %rax	# plyr, plyr.12_25
# st_stuff.c:561: 	  plyr->message = STSTR_DQDOFF;
	.loc 1 561 18
	leaq	.LC1(%rip), %rdx	#, tmp253
	movq	%rdx, 224(%rax)	# tmp253, plyr.12_25->message
	jmp	.L15	#
.L12:
# st_stuff.c:564:       else if (cht_CheckCheat(&cheat_ammonokey, ev->data1))
	.loc 1 564 51
	movq	-40(%rbp), %rax	# ev, tmp254
	movl	4(%rax), %eax	# ev_190(D)->data1, _26
# st_stuff.c:564:       else if (cht_CheckCheat(&cheat_ammonokey, ev->data1))
	.loc 1 564 16
	movsbl	%al, %eax	# _27, _28
	movl	%eax, %esi	# _28,
	leaq	cheat_ammonokey(%rip), %rax	#, tmp255
	movq	%rax, %rdi	# tmp255,
	call	cht_CheckCheat@PLT	#
# st_stuff.c:564:       else if (cht_CheckCheat(&cheat_ammonokey, ev->data1))
	.loc 1 564 15 discriminator 1
	testl	%eax, %eax	# _29
	je	.L16	#,
# st_stuff.c:566: 	plyr->armorpoints = 200;
	.loc 1 566 6
	movq	plyr(%rip), %rax	# plyr, plyr.13_30
# st_stuff.c:566: 	plyr->armorpoints = 200;
	.loc 1 566 20
	movl	$200, 40(%rax)	#, plyr.13_30->armorpoints
# st_stuff.c:567: 	plyr->armortype = 2;
	.loc 1 567 6
	movq	plyr(%rip), %rax	# plyr, plyr.14_31
# st_stuff.c:567: 	plyr->armortype = 2;
	.loc 1 567 18
	movl	$2, 44(%rax)	#, plyr.14_31->armortype
# st_stuff.c:569: 	for (i=0;i<NUMWEAPONS;i++)
	.loc 1 569 8
	movl	$0, -28(%rbp)	#, i
# st_stuff.c:569: 	for (i=0;i<NUMWEAPONS;i++)
	.loc 1 569 2
	jmp	.L17	#
.L18:
# st_stuff.c:570: 	  plyr->weaponowned[i] = true;
	.loc 1 570 8
	movq	plyr(%rip), %rax	# plyr, plyr.15_32
# st_stuff.c:570: 	  plyr->weaponowned[i] = true;
	.loc 1 570 25
	movl	-28(%rbp), %edx	# i, tmp257
	movslq	%edx, %rdx	# tmp257, tmp256
	addq	$28, %rdx	#, tmp258
	movl	$1, 12(%rax,%rdx,4)	#, plyr.15_32->weaponowned[i_163]
# st_stuff.c:569: 	for (i=0;i<NUMWEAPONS;i++)
	.loc 1 569 25 discriminator 3
	addl	$1, -28(%rbp)	#, i
.L17:
# st_stuff.c:569: 	for (i=0;i<NUMWEAPONS;i++)
	.loc 1 569 12 discriminator 1
	cmpl	$8, -28(%rbp)	#, i
	jle	.L18	#,
# st_stuff.c:572: 	for (i=0;i<NUMAMMO;i++)
	.loc 1 572 8
	movl	$0, -28(%rbp)	#, i
# st_stuff.c:572: 	for (i=0;i<NUMAMMO;i++)
	.loc 1 572 2
	jmp	.L19	#
.L20:
# st_stuff.c:573: 	  plyr->ammo[i] = plyr->maxammo[i];
	.loc 1 573 24
	movq	plyr(%rip), %rdx	# plyr, plyr.16_33
# st_stuff.c:573: 	  plyr->ammo[i] = plyr->maxammo[i];
	.loc 1 573 8
	movq	plyr(%rip), %rax	# plyr, plyr.17_34
# st_stuff.c:573: 	  plyr->ammo[i] = plyr->maxammo[i];
	.loc 1 573 33
	movl	-28(%rbp), %ecx	# i, tmp260
	movslq	%ecx, %rcx	# tmp260, tmp259
	addq	$44, %rcx	#, tmp261
	movl	(%rdx,%rcx,4), %edx	# plyr.16_33->maxammo[i_164], _35
# st_stuff.c:573: 	  plyr->ammo[i] = plyr->maxammo[i];
	.loc 1 573 18
	movl	-28(%rbp), %ecx	# i, tmp263
	movslq	%ecx, %rcx	# tmp263, tmp262
	addq	$40, %rcx	#, tmp264
	movl	%edx, (%rax,%rcx,4)	# _35, plyr.17_34->ammo[i_164]
# st_stuff.c:572: 	for (i=0;i<NUMAMMO;i++)
	.loc 1 572 22 discriminator 3
	addl	$1, -28(%rbp)	#, i
.L19:
# st_stuff.c:572: 	for (i=0;i<NUMAMMO;i++)
	.loc 1 572 12 discriminator 1
	cmpl	$3, -28(%rbp)	#, i
	jle	.L20	#,
# st_stuff.c:575: 	plyr->message = STSTR_FAADDED;
	.loc 1 575 6
	movq	plyr(%rip), %rax	# plyr, plyr.18_36
# st_stuff.c:575: 	plyr->message = STSTR_FAADDED;
	.loc 1 575 16
	leaq	.LC2(%rip), %rdx	#, tmp265
	movq	%rdx, 224(%rax)	# tmp265, plyr.18_36->message
	jmp	.L15	#
.L16:
# st_stuff.c:578:       else if (cht_CheckCheat(&cheat_ammo, ev->data1))
	.loc 1 578 46
	movq	-40(%rbp), %rax	# ev, tmp266
	movl	4(%rax), %eax	# ev_190(D)->data1, _37
# st_stuff.c:578:       else if (cht_CheckCheat(&cheat_ammo, ev->data1))
	.loc 1 578 16
	movsbl	%al, %eax	# _38, _39
	movl	%eax, %esi	# _39,
	leaq	cheat_ammo(%rip), %rax	#, tmp267
	movq	%rax, %rdi	# tmp267,
	call	cht_CheckCheat@PLT	#
# st_stuff.c:578:       else if (cht_CheckCheat(&cheat_ammo, ev->data1))
	.loc 1 578 15 discriminator 1
	testl	%eax, %eax	# _40
	je	.L21	#,
# st_stuff.c:580: 	plyr->armorpoints = 200;
	.loc 1 580 6
	movq	plyr(%rip), %rax	# plyr, plyr.19_41
# st_stuff.c:580: 	plyr->armorpoints = 200;
	.loc 1 580 20
	movl	$200, 40(%rax)	#, plyr.19_41->armorpoints
# st_stuff.c:581: 	plyr->armortype = 2;
	.loc 1 581 6
	movq	plyr(%rip), %rax	# plyr, plyr.20_42
# st_stuff.c:581: 	plyr->armortype = 2;
	.loc 1 581 18
	movl	$2, 44(%rax)	#, plyr.20_42->armortype
# st_stuff.c:583: 	for (i=0;i<NUMWEAPONS;i++)
	.loc 1 583 8
	movl	$0, -28(%rbp)	#, i
# st_stuff.c:583: 	for (i=0;i<NUMWEAPONS;i++)
	.loc 1 583 2
	jmp	.L22	#
.L23:
# st_stuff.c:584: 	  plyr->weaponowned[i] = true;
	.loc 1 584 8
	movq	plyr(%rip), %rax	# plyr, plyr.21_43
# st_stuff.c:584: 	  plyr->weaponowned[i] = true;
	.loc 1 584 25
	movl	-28(%rbp), %edx	# i, tmp269
	movslq	%edx, %rdx	# tmp269, tmp268
	addq	$28, %rdx	#, tmp270
	movl	$1, 12(%rax,%rdx,4)	#, plyr.21_43->weaponowned[i_165]
# st_stuff.c:583: 	for (i=0;i<NUMWEAPONS;i++)
	.loc 1 583 25 discriminator 3
	addl	$1, -28(%rbp)	#, i
.L22:
# st_stuff.c:583: 	for (i=0;i<NUMWEAPONS;i++)
	.loc 1 583 12 discriminator 1
	cmpl	$8, -28(%rbp)	#, i
	jle	.L23	#,
# st_stuff.c:586: 	for (i=0;i<NUMAMMO;i++)
	.loc 1 586 8
	movl	$0, -28(%rbp)	#, i
# st_stuff.c:586: 	for (i=0;i<NUMAMMO;i++)
	.loc 1 586 2
	jmp	.L24	#
.L25:
# st_stuff.c:587: 	  plyr->ammo[i] = plyr->maxammo[i];
	.loc 1 587 24
	movq	plyr(%rip), %rdx	# plyr, plyr.22_44
# st_stuff.c:587: 	  plyr->ammo[i] = plyr->maxammo[i];
	.loc 1 587 8
	movq	plyr(%rip), %rax	# plyr, plyr.23_45
# st_stuff.c:587: 	  plyr->ammo[i] = plyr->maxammo[i];
	.loc 1 587 33
	movl	-28(%rbp), %ecx	# i, tmp272
	movslq	%ecx, %rcx	# tmp272, tmp271
	addq	$44, %rcx	#, tmp273
	movl	(%rdx,%rcx,4), %edx	# plyr.22_44->maxammo[i_166], _46
# st_stuff.c:587: 	  plyr->ammo[i] = plyr->maxammo[i];
	.loc 1 587 18
	movl	-28(%rbp), %ecx	# i, tmp275
	movslq	%ecx, %rcx	# tmp275, tmp274
	addq	$40, %rcx	#, tmp276
	movl	%edx, (%rax,%rcx,4)	# _46, plyr.23_45->ammo[i_166]
# st_stuff.c:586: 	for (i=0;i<NUMAMMO;i++)
	.loc 1 586 22 discriminator 3
	addl	$1, -28(%rbp)	#, i
.L24:
# st_stuff.c:586: 	for (i=0;i<NUMAMMO;i++)
	.loc 1 586 12 discriminator 1
	cmpl	$3, -28(%rbp)	#, i
	jle	.L25	#,
# st_stuff.c:589: 	for (i=0;i<NUMCARDS;i++)
	.loc 1 589 8
	movl	$0, -28(%rbp)	#, i
# st_stuff.c:589: 	for (i=0;i<NUMCARDS;i++)
	.loc 1 589 2
	jmp	.L26	#
.L27:
# st_stuff.c:590: 	  plyr->cards[i] = true;
	.loc 1 590 8
	movq	plyr(%rip), %rax	# plyr, plyr.24_47
# st_stuff.c:590: 	  plyr->cards[i] = true;
	.loc 1 590 19
	movl	-28(%rbp), %edx	# i, tmp278
	movslq	%edx, %rdx	# tmp278, tmp277
	addq	$16, %rdx	#, tmp279
	movl	$1, 8(%rax,%rdx,4)	#, plyr.24_47->cards[i_167]
# st_stuff.c:589: 	for (i=0;i<NUMCARDS;i++)
	.loc 1 589 23 discriminator 3
	addl	$1, -28(%rbp)	#, i
.L26:
# st_stuff.c:589: 	for (i=0;i<NUMCARDS;i++)
	.loc 1 589 12 discriminator 1
	cmpl	$5, -28(%rbp)	#, i
	jle	.L27	#,
# st_stuff.c:592: 	plyr->message = STSTR_KFAADDED;
	.loc 1 592 6
	movq	plyr(%rip), %rax	# plyr, plyr.25_48
# st_stuff.c:592: 	plyr->message = STSTR_KFAADDED;
	.loc 1 592 16
	leaq	.LC3(%rip), %rdx	#, tmp280
	movq	%rdx, 224(%rax)	# tmp280, plyr.25_48->message
	jmp	.L15	#
.L21:
# st_stuff.c:595:       else if (cht_CheckCheat(&cheat_mus, ev->data1))
	.loc 1 595 45
	movq	-40(%rbp), %rax	# ev, tmp281
	movl	4(%rax), %eax	# ev_190(D)->data1, _49
# st_stuff.c:595:       else if (cht_CheckCheat(&cheat_mus, ev->data1))
	.loc 1 595 16
	movsbl	%al, %eax	# _50, _51
	movl	%eax, %esi	# _51,
	leaq	cheat_mus(%rip), %rax	#, tmp282
	movq	%rax, %rdi	# tmp282,
	call	cht_CheckCheat@PLT	#
# st_stuff.c:595:       else if (cht_CheckCheat(&cheat_mus, ev->data1))
	.loc 1 595 15 discriminator 1
	testl	%eax, %eax	# _52
	je	.L28	#,
.LBB2:
# st_stuff.c:601: 	plyr->message = STSTR_MUS;
	.loc 1 601 6
	movq	plyr(%rip), %rax	# plyr, plyr.26_53
# st_stuff.c:601: 	plyr->message = STSTR_MUS;
	.loc 1 601 16
	leaq	.LC4(%rip), %rdx	#, tmp283
	movq	%rdx, 224(%rax)	# tmp283, plyr.26_53->message
# st_stuff.c:602: 	cht_GetParam(&cheat_mus, buf);
	.loc 1 602 2
	leaq	-11(%rbp), %rax	#, tmp284
	movq	%rax, %rsi	# tmp284,
	leaq	cheat_mus(%rip), %rax	#, tmp285
	movq	%rax, %rdi	# tmp285,
	call	cht_GetParam@PLT	#
# st_stuff.c:604: 	if (gamemode == commercial)
	.loc 1 604 15
	movl	gamemode(%rip), %eax	# gamemode, gamemode.27_54
# st_stuff.c:604: 	if (gamemode == commercial)
	.loc 1 604 5
	cmpl	$2, %eax	#, gamemode.27_54
	jne	.L29	#,
# st_stuff.c:606: 	  musnum = mus_runnin + (buf[0]-'0')*10 + buf[1]-'0' - 1;
	.loc 1 606 30
	movzbl	-11(%rbp), %eax	# MEM[(char[3] *)_272][0], _55
	movsbl	%al, %eax	# _55, _56
# st_stuff.c:606: 	  musnum = mus_runnin + (buf[0]-'0')*10 + buf[1]-'0' - 1;
	.loc 1 606 33
	leal	-48(%rax), %edx	#, _57
# st_stuff.c:606: 	  musnum = mus_runnin + (buf[0]-'0')*10 + buf[1]-'0' - 1;
	.loc 1 606 38
	movl	%edx, %eax	# _57, tmp286
	sall	$2, %eax	#, tmp286
	addl	%edx, %eax	# _57, tmp286
	addl	%eax, %eax	# tmp287
# st_stuff.c:606: 	  musnum = mus_runnin + (buf[0]-'0')*10 + buf[1]-'0' - 1;
	.loc 1 606 24
	leal	33(%rax), %edx	#, _59
# st_stuff.c:606: 	  musnum = mus_runnin + (buf[0]-'0')*10 + buf[1]-'0' - 1;
	.loc 1 606 47
	movzbl	-10(%rbp), %eax	# MEM[(char[3] *)_272][1], _60
	movsbl	%al, %eax	# _60, _61
# st_stuff.c:606: 	  musnum = mus_runnin + (buf[0]-'0')*10 + buf[1]-'0' - 1;
	.loc 1 606 42
	addl	%edx, %eax	# _59, _62
# st_stuff.c:606: 	  musnum = mus_runnin + (buf[0]-'0')*10 + buf[1]-'0' - 1;
	.loc 1 606 11
	subl	$49, %eax	#, tmp288
	movl	%eax, -16(%rbp)	# tmp288, musnum
# st_stuff.c:608: 	  if (((buf[0]-'0')*10 + buf[1]-'0') > 35)
	.loc 1 608 13
	movzbl	-11(%rbp), %eax	# MEM[(char[3] *)_272][0], _63
	movsbl	%al, %eax	# _63, _64
# st_stuff.c:608: 	  if (((buf[0]-'0')*10 + buf[1]-'0') > 35)
	.loc 1 608 16
	leal	-48(%rax), %edx	#, _65
# st_stuff.c:608: 	  if (((buf[0]-'0')*10 + buf[1]-'0') > 35)
	.loc 1 608 21
	movl	%edx, %eax	# _65, tmp289
	sall	$2, %eax	#, tmp289
	addl	%edx, %eax	# _65, tmp289
	addl	%eax, %eax	# tmp290
	movl	%eax, %edx	# tmp289, _66
# st_stuff.c:608: 	  if (((buf[0]-'0')*10 + buf[1]-'0') > 35)
	.loc 1 608 30
	movzbl	-10(%rbp), %eax	# MEM[(char[3] *)_272][1], _67
	movsbl	%al, %eax	# _67, _68
# st_stuff.c:608: 	  if (((buf[0]-'0')*10 + buf[1]-'0') > 35)
	.loc 1 608 25
	addl	%edx, %eax	# _66, _69
# st_stuff.c:608: 	  if (((buf[0]-'0')*10 + buf[1]-'0') > 35)
	.loc 1 608 7
	cmpl	$83, %eax	#, _69
	jle	.L30	#,
# st_stuff.c:609: 	    plyr->message = STSTR_NOMUS;
	.loc 1 609 10
	movq	plyr(%rip), %rax	# plyr, plyr.28_70
# st_stuff.c:609: 	    plyr->message = STSTR_NOMUS;
	.loc 1 609 20
	leaq	.LC5(%rip), %rdx	#, tmp291
	movq	%rdx, 224(%rax)	# tmp291, plyr.28_70->message
	jmp	.L15	#
.L30:
# st_stuff.c:611: 	    S_ChangeMusic(musnum, 1);
	.loc 1 611 6
	movl	-16(%rbp), %eax	# musnum, tmp292
	movl	$1, %esi	#,
	movl	%eax, %edi	# tmp292,
	call	S_ChangeMusic@PLT	#
	jmp	.L15	#
.L29:
# st_stuff.c:615: 	  musnum = mus_e1m1 + (buf[0]-'1')*9 + (buf[1]-'1');
	.loc 1 615 28
	movzbl	-11(%rbp), %eax	# MEM[(char[3] *)_272][0], _71
	movsbl	%al, %eax	# _71, _72
# st_stuff.c:615: 	  musnum = mus_e1m1 + (buf[0]-'1')*9 + (buf[1]-'1');
	.loc 1 615 31
	leal	-49(%rax), %edx	#, _73
# st_stuff.c:615: 	  musnum = mus_e1m1 + (buf[0]-'1')*9 + (buf[1]-'1');
	.loc 1 615 36
	movl	%edx, %eax	# _73, tmp293
	sall	$3, %eax	#, tmp293
	addl	%edx, %eax	# _73, _74
# st_stuff.c:615: 	  musnum = mus_e1m1 + (buf[0]-'1')*9 + (buf[1]-'1');
	.loc 1 615 22
	leal	1(%rax), %edx	#, _75
# st_stuff.c:615: 	  musnum = mus_e1m1 + (buf[0]-'1')*9 + (buf[1]-'1');
	.loc 1 615 45
	movzbl	-10(%rbp), %eax	# MEM[(char[3] *)_272][1], _76
	movsbl	%al, %eax	# _76, _77
# st_stuff.c:615: 	  musnum = mus_e1m1 + (buf[0]-'1')*9 + (buf[1]-'1');
	.loc 1 615 48
	subl	$49, %eax	#, _78
# st_stuff.c:615: 	  musnum = mus_e1m1 + (buf[0]-'1')*9 + (buf[1]-'1');
	.loc 1 615 11
	addl	%edx, %eax	# _75, tmp294
	movl	%eax, -16(%rbp)	# tmp294, musnum
# st_stuff.c:617: 	  if (((buf[0]-'1')*9 + buf[1]-'1') > 31)
	.loc 1 617 13
	movzbl	-11(%rbp), %eax	# MEM[(char[3] *)_272][0], _79
	movsbl	%al, %eax	# _79, _80
# st_stuff.c:617: 	  if (((buf[0]-'1')*9 + buf[1]-'1') > 31)
	.loc 1 617 16
	leal	-49(%rax), %edx	#, _81
# st_stuff.c:617: 	  if (((buf[0]-'1')*9 + buf[1]-'1') > 31)
	.loc 1 617 21
	movl	%edx, %eax	# _81, tmp295
	sall	$3, %eax	#, tmp295
	addl	%eax, %edx	# tmp295, _82
# st_stuff.c:617: 	  if (((buf[0]-'1')*9 + buf[1]-'1') > 31)
	.loc 1 617 29
	movzbl	-10(%rbp), %eax	# MEM[(char[3] *)_272][1], _83
	movsbl	%al, %eax	# _83, _84
# st_stuff.c:617: 	  if (((buf[0]-'1')*9 + buf[1]-'1') > 31)
	.loc 1 617 24
	addl	%edx, %eax	# _82, _85
# st_stuff.c:617: 	  if (((buf[0]-'1')*9 + buf[1]-'1') > 31)
	.loc 1 617 7
	cmpl	$80, %eax	#, _85
	jle	.L32	#,
# st_stuff.c:618: 	    plyr->message = STSTR_NOMUS;
	.loc 1 618 10
	movq	plyr(%rip), %rax	# plyr, plyr.29_86
# st_stuff.c:618: 	    plyr->message = STSTR_NOMUS;
	.loc 1 618 20
	leaq	.LC5(%rip), %rdx	#, tmp296
	movq	%rdx, 224(%rax)	# tmp296, plyr.29_86->message
	jmp	.L15	#
.L32:
# st_stuff.c:620: 	    S_ChangeMusic(musnum, 1);
	.loc 1 620 6
	movl	-16(%rbp), %eax	# musnum, tmp297
	movl	$1, %esi	#,
	movl	%eax, %edi	# tmp297,
	call	S_ChangeMusic@PLT	#
	jmp	.L15	#
.L28:
.LBE2:
# st_stuff.c:625:       else if ( cht_CheckCheat(&cheat_noclip, ev->data1) 
	.loc 1 625 49
	movq	-40(%rbp), %rax	# ev, tmp298
	movl	4(%rax), %eax	# ev_190(D)->data1, _87
# st_stuff.c:625:       else if ( cht_CheckCheat(&cheat_noclip, ev->data1) 
	.loc 1 625 17
	movsbl	%al, %eax	# _88, _89
	movl	%eax, %esi	# _89,
	leaq	cheat_noclip(%rip), %rax	#, tmp299
	movq	%rax, %rdi	# tmp299,
	call	cht_CheckCheat@PLT	#
# st_stuff.c:625:       else if ( cht_CheckCheat(&cheat_noclip, ev->data1) 
	.loc 1 625 15 discriminator 1
	testl	%eax, %eax	# _90
	jne	.L33	#,
# st_stuff.c:626: 		|| cht_CheckCheat(&cheat_commercial_noclip,ev->data1) )
	.loc 1 626 48
	movq	-40(%rbp), %rax	# ev, tmp300
	movl	4(%rax), %eax	# ev_190(D)->data1, _91
# st_stuff.c:626: 		|| cht_CheckCheat(&cheat_commercial_noclip,ev->data1) )
	.loc 1 626 6
	movsbl	%al, %eax	# _92, _93
	movl	%eax, %esi	# _93,
	leaq	cheat_commercial_noclip(%rip), %rax	#, tmp301
	movq	%rax, %rdi	# tmp301,
	call	cht_CheckCheat@PLT	#
# st_stuff.c:626: 		|| cht_CheckCheat(&cheat_commercial_noclip,ev->data1) )
	.loc 1 626 3 discriminator 1
	testl	%eax, %eax	# _94
	je	.L15	#,
.L33:
# st_stuff.c:628: 	plyr->cheats ^= CF_NOCLIP;
	.loc 1 628 6
	movq	plyr(%rip), %rax	# plyr, plyr.30_95
	movl	200(%rax), %edx	# plyr.30_95->cheats, _96
	movq	plyr(%rip), %rax	# plyr, plyr.31_97
# st_stuff.c:628: 	plyr->cheats ^= CF_NOCLIP;
	.loc 1 628 15
	xorl	$1, %edx	#, _98
	movl	%edx, 200(%rax)	# _98, plyr.31_97->cheats
# st_stuff.c:630: 	if (plyr->cheats & CF_NOCLIP)
	.loc 1 630 10
	movq	plyr(%rip), %rax	# plyr, plyr.32_99
	movl	200(%rax), %eax	# plyr.32_99->cheats, _100
# st_stuff.c:630: 	if (plyr->cheats & CF_NOCLIP)
	.loc 1 630 19
	andl	$1, %eax	#, _101
# st_stuff.c:630: 	if (plyr->cheats & CF_NOCLIP)
	.loc 1 630 5
	testl	%eax, %eax	# _101
	je	.L34	#,
# st_stuff.c:631: 	  plyr->message = STSTR_NCON;
	.loc 1 631 8
	movq	plyr(%rip), %rax	# plyr, plyr.33_102
# st_stuff.c:631: 	  plyr->message = STSTR_NCON;
	.loc 1 631 18
	leaq	.LC6(%rip), %rdx	#, tmp302
	movq	%rdx, 224(%rax)	# tmp302, plyr.33_102->message
	jmp	.L15	#
.L34:
# st_stuff.c:633: 	  plyr->message = STSTR_NCOFF;
	.loc 1 633 8
	movq	plyr(%rip), %rax	# plyr, plyr.34_103
# st_stuff.c:633: 	  plyr->message = STSTR_NCOFF;
	.loc 1 633 18
	leaq	.LC7(%rip), %rdx	#, tmp303
	movq	%rdx, 224(%rax)	# tmp303, plyr.34_103->message
.L15:
# st_stuff.c:636:       for (i=0;i<6;i++)
	.loc 1 636 13
	movl	$0, -28(%rbp)	#, i
# st_stuff.c:636:       for (i=0;i<6;i++)
	.loc 1 636 7
	jmp	.L35	#
.L40:
# st_stuff.c:638: 	if (cht_CheckCheat(&cheat_powerup[i], ev->data1))
	.loc 1 638 42
	movq	-40(%rbp), %rax	# ev, tmp304
	movl	4(%rax), %eax	# ev_190(D)->data1, _104
# st_stuff.c:638: 	if (cht_CheckCheat(&cheat_powerup[i], ev->data1))
	.loc 1 638 6
	movsbl	%al, %eax	# _105, _106
	movl	-28(%rbp), %edx	# i, tmp306
	movslq	%edx, %rdx	# tmp306, tmp305
	movq	%rdx, %rcx	# tmp305, tmp305
	salq	$4, %rcx	#, tmp305
	leaq	cheat_powerup(%rip), %rdx	#, tmp308
	addq	%rcx, %rdx	# tmp307, _107
	movl	%eax, %esi	# _106,
	movq	%rdx, %rdi	# _107,
	call	cht_CheckCheat@PLT	#
# st_stuff.c:638: 	if (cht_CheckCheat(&cheat_powerup[i], ev->data1))
	.loc 1 638 5 discriminator 1
	testl	%eax, %eax	# _108
	je	.L36	#,
# st_stuff.c:640: 	  if (!plyr->powers[i])
	.loc 1 640 13
	movq	plyr(%rip), %rax	# plyr, plyr.35_109
# st_stuff.c:640: 	  if (!plyr->powers[i])
	.loc 1 640 21
	movl	-28(%rbp), %edx	# i, tmp310
	movslq	%edx, %rdx	# tmp310, tmp309
	addq	$12, %rdx	#, tmp311
	movl	(%rax,%rdx,4), %eax	# plyr.35_109->powers[i_168], _110
# st_stuff.c:640: 	  if (!plyr->powers[i])
	.loc 1 640 7
	testl	%eax, %eax	# _110
	jne	.L37	#,
# st_stuff.c:641: 	    P_GivePower( plyr, i);
	.loc 1 641 6
	movq	plyr(%rip), %rax	# plyr, plyr.36_111
	movl	-28(%rbp), %edx	# i, tmp312
	movl	%edx, %esi	# tmp312,
	movq	%rax, %rdi	# plyr.36_111,
	call	P_GivePower@PLT	#
	jmp	.L38	#
.L37:
# st_stuff.c:642: 	  else if (i!=pw_strength)
	.loc 1 642 12
	cmpl	$1, -28(%rbp)	#, i
	je	.L39	#,
# st_stuff.c:643: 	    plyr->powers[i] = 1;
	.loc 1 643 10
	movq	plyr(%rip), %rax	# plyr, plyr.37_112
# st_stuff.c:643: 	    plyr->powers[i] = 1;
	.loc 1 643 22
	movl	-28(%rbp), %edx	# i, tmp314
	movslq	%edx, %rdx	# tmp314, tmp313
	addq	$12, %rdx	#, tmp315
	movl	$1, (%rax,%rdx,4)	#, plyr.37_112->powers[i_168]
	jmp	.L38	#
.L39:
# st_stuff.c:645: 	    plyr->powers[i] = 0;
	.loc 1 645 10
	movq	plyr(%rip), %rax	# plyr, plyr.38_113
# st_stuff.c:645: 	    plyr->powers[i] = 0;
	.loc 1 645 22
	movl	-28(%rbp), %edx	# i, tmp317
	movslq	%edx, %rdx	# tmp317, tmp316
	addq	$12, %rdx	#, tmp318
	movl	$0, (%rax,%rdx,4)	#, plyr.38_113->powers[i_168]
.L38:
# st_stuff.c:647: 	  plyr->message = STSTR_BEHOLDX;
	.loc 1 647 8
	movq	plyr(%rip), %rax	# plyr, plyr.39_114
# st_stuff.c:647: 	  plyr->message = STSTR_BEHOLDX;
	.loc 1 647 18
	leaq	.LC8(%rip), %rdx	#, tmp319
	movq	%rdx, 224(%rax)	# tmp319, plyr.39_114->message
.L36:
# st_stuff.c:636:       for (i=0;i<6;i++)
	.loc 1 636 21 discriminator 2
	addl	$1, -28(%rbp)	#, i
.L35:
# st_stuff.c:636:       for (i=0;i<6;i++)
	.loc 1 636 17 discriminator 1
	cmpl	$5, -28(%rbp)	#, i
	jle	.L40	#,
# st_stuff.c:652:       if (cht_CheckCheat(&cheat_powerup[6], ev->data1))
	.loc 1 652 47
	movq	-40(%rbp), %rax	# ev, tmp320
	movl	4(%rax), %eax	# ev_190(D)->data1, _115
# st_stuff.c:652:       if (cht_CheckCheat(&cheat_powerup[6], ev->data1))
	.loc 1 652 11
	movsbl	%al, %eax	# _116, _117
	movl	%eax, %esi	# _117,
	leaq	96+cheat_powerup(%rip), %rax	#, tmp321
	movq	%rax, %rdi	# tmp321,
	call	cht_CheckCheat@PLT	#
# st_stuff.c:652:       if (cht_CheckCheat(&cheat_powerup[6], ev->data1))
	.loc 1 652 10 discriminator 1
	testl	%eax, %eax	# _118
	je	.L41	#,
# st_stuff.c:654: 	plyr->message = STSTR_BEHOLD;
	.loc 1 654 6
	movq	plyr(%rip), %rax	# plyr, plyr.40_119
# st_stuff.c:654: 	plyr->message = STSTR_BEHOLD;
	.loc 1 654 16
	leaq	.LC9(%rip), %rdx	#, tmp322
	movq	%rdx, 224(%rax)	# tmp322, plyr.40_119->message
	jmp	.L11	#
.L41:
# st_stuff.c:657:       else if (cht_CheckCheat(&cheat_choppers, ev->data1))
	.loc 1 657 50
	movq	-40(%rbp), %rax	# ev, tmp323
	movl	4(%rax), %eax	# ev_190(D)->data1, _120
# st_stuff.c:657:       else if (cht_CheckCheat(&cheat_choppers, ev->data1))
	.loc 1 657 16
	movsbl	%al, %eax	# _121, _122
	movl	%eax, %esi	# _122,
	leaq	cheat_choppers(%rip), %rax	#, tmp324
	movq	%rax, %rdi	# tmp324,
	call	cht_CheckCheat@PLT	#
# st_stuff.c:657:       else if (cht_CheckCheat(&cheat_choppers, ev->data1))
	.loc 1 657 15 discriminator 1
	testl	%eax, %eax	# _123
	je	.L42	#,
# st_stuff.c:659: 	plyr->weaponowned[wp_chainsaw] = true;
	.loc 1 659 6
	movq	plyr(%rip), %rax	# plyr, plyr.41_124
# st_stuff.c:659: 	plyr->weaponowned[wp_chainsaw] = true;
	.loc 1 659 33
	movl	$1, 152(%rax)	#, plyr.41_124->weaponowned[7]
# st_stuff.c:660: 	plyr->powers[pw_invulnerability] = true;
	.loc 1 660 6
	movq	plyr(%rip), %rax	# plyr, plyr.42_125
# st_stuff.c:660: 	plyr->powers[pw_invulnerability] = true;
	.loc 1 660 35
	movl	$1, 48(%rax)	#, plyr.42_125->powers[0]
# st_stuff.c:661: 	plyr->message = STSTR_CHOPPERS;
	.loc 1 661 6
	movq	plyr(%rip), %rax	# plyr, plyr.43_126
# st_stuff.c:661: 	plyr->message = STSTR_CHOPPERS;
	.loc 1 661 16
	leaq	.LC10(%rip), %rdx	#, tmp325
	movq	%rdx, 224(%rax)	# tmp325, plyr.43_126->message
	jmp	.L11	#
.L42:
# st_stuff.c:664:       else if (cht_CheckCheat(&cheat_mypos, ev->data1))
	.loc 1 664 47
	movq	-40(%rbp), %rax	# ev, tmp326
	movl	4(%rax), %eax	# ev_190(D)->data1, _127
# st_stuff.c:664:       else if (cht_CheckCheat(&cheat_mypos, ev->data1))
	.loc 1 664 16
	movsbl	%al, %eax	# _128, _129
	movl	%eax, %esi	# _129,
	leaq	cheat_mypos(%rip), %rax	#, tmp327
	movq	%rax, %rdi	# tmp327,
	call	cht_CheckCheat@PLT	#
# st_stuff.c:664:       else if (cht_CheckCheat(&cheat_mypos, ev->data1))
	.loc 1 664 15 discriminator 1
	testl	%eax, %eax	# _130
	je	.L11	#,
.LBB3:
# st_stuff.c:670: 		players[consoleplayer].mo->y);
	.loc 1 670 25
	movl	consoleplayer(%rip), %eax	# consoleplayer, consoleplayer.44_131
	movslq	%eax, %rdx	# consoleplayer.44_131, tmp328
	movq	%rdx, %rax	# tmp328, tmp330
	salq	$2, %rax	#, tmp330
	addq	%rdx, %rax	# tmp328, tmp330
	salq	$6, %rax	#, tmp331
	movq	%rax, %rdx	# tmp330, tmp329
	leaq	players(%rip), %rax	#, tmp332
	movq	(%rdx,%rax), %rax	# players[consoleplayer.44_131].mo, _132
# st_stuff.c:667: 	sprintf(buf, "ang=0x%x;x,y=(0x%x,0x%x)",
	.loc 1 667 2
	movl	28(%rax), %esi	# _132->y, _133
# st_stuff.c:669: 		players[consoleplayer].mo->x,
	.loc 1 669 25
	movl	consoleplayer(%rip), %eax	# consoleplayer, consoleplayer.45_134
	movslq	%eax, %rdx	# consoleplayer.45_134, tmp333
	movq	%rdx, %rax	# tmp333, tmp335
	salq	$2, %rax	#, tmp335
	addq	%rdx, %rax	# tmp333, tmp335
	salq	$6, %rax	#, tmp336
	movq	%rax, %rdx	# tmp335, tmp334
	leaq	players(%rip), %rax	#, tmp337
	movq	(%rdx,%rax), %rax	# players[consoleplayer.45_134].mo, _135
# st_stuff.c:667: 	sprintf(buf, "ang=0x%x;x,y=(0x%x,0x%x)",
	.loc 1 667 2
	movl	24(%rax), %ecx	# _135->x, _136
# st_stuff.c:668: 		players[consoleplayer].mo->angle,
	.loc 1 668 25
	movl	consoleplayer(%rip), %eax	# consoleplayer, consoleplayer.46_137
	movslq	%eax, %rdx	# consoleplayer.46_137, tmp338
	movq	%rdx, %rax	# tmp338, tmp340
	salq	$2, %rax	#, tmp340
	addq	%rdx, %rax	# tmp338, tmp340
	salq	$6, %rax	#, tmp341
	movq	%rax, %rdx	# tmp340, tmp339
	leaq	players(%rip), %rax	#, tmp342
	movq	(%rdx,%rax), %rax	# players[consoleplayer.46_137].mo, _138
# st_stuff.c:667: 	sprintf(buf, "ang=0x%x;x,y=(0x%x,0x%x)",
	.loc 1 667 2
	movl	56(%rax), %eax	# _138->angle, _139
	movl	%esi, %r8d	# _133,
	movl	%eax, %edx	# _139,
	leaq	.LC11(%rip), %rax	#, tmp343
	movq	%rax, %rsi	# tmp343,
	leaq	buf.5(%rip), %rax	#, tmp344
	movq	%rax, %rdi	# tmp344,
	movl	$0, %eax	#,
	call	sprintf@PLT	#
# st_stuff.c:671: 	plyr->message = buf;
	.loc 1 671 6
	movq	plyr(%rip), %rax	# plyr, plyr.47_140
# st_stuff.c:671: 	plyr->message = buf;
	.loc 1 671 16
	leaq	buf.5(%rip), %rdx	#, tmp345
	movq	%rdx, 224(%rax)	# tmp345, plyr.47_140->message
.L11:
.LBE3:
# st_stuff.c:676:     if (cht_CheckCheat(&cheat_clev, ev->data1))
	.loc 1 676 39
	movq	-40(%rbp), %rax	# ev, tmp346
	movl	4(%rax), %eax	# ev_190(D)->data1, _141
# st_stuff.c:676:     if (cht_CheckCheat(&cheat_clev, ev->data1))
	.loc 1 676 9
	movsbl	%al, %eax	# _142, _143
	movl	%eax, %esi	# _143,
	leaq	cheat_clev(%rip), %rax	#, tmp347
	movq	%rax, %rdi	# tmp347,
	call	cht_CheckCheat@PLT	#
# st_stuff.c:676:     if (cht_CheckCheat(&cheat_clev, ev->data1))
	.loc 1 676 8 discriminator 1
	testl	%eax, %eax	# _144
	je	.L10	#,
.LBB4:
# st_stuff.c:682:       cht_GetParam(&cheat_clev, buf);
	.loc 1 682 7
	leaq	-11(%rbp), %rax	#, tmp348
	movq	%rax, %rsi	# tmp348,
	leaq	cheat_clev(%rip), %rax	#, tmp349
	movq	%rax, %rdi	# tmp349,
	call	cht_GetParam@PLT	#
# st_stuff.c:684:       if (gamemode == commercial)
	.loc 1 684 20
	movl	gamemode(%rip), %eax	# gamemode, gamemode.48_145
# st_stuff.c:684:       if (gamemode == commercial)
	.loc 1 684 10
	cmpl	$2, %eax	#, gamemode.48_145
	jne	.L43	#,
# st_stuff.c:686: 	epsd = 0;
	.loc 1 686 7
	movl	$0, -24(%rbp)	#, epsd
# st_stuff.c:687: 	map = (buf[0] - '0')*10 + buf[1] - '0';
	.loc 1 687 12
	movzbl	-11(%rbp), %eax	# MEM[(char[3] *)_272][0], _146
	movsbl	%al, %eax	# _146, _147
# st_stuff.c:687: 	map = (buf[0] - '0')*10 + buf[1] - '0';
	.loc 1 687 16
	leal	-48(%rax), %edx	#, _148
# st_stuff.c:687: 	map = (buf[0] - '0')*10 + buf[1] - '0';
	.loc 1 687 22
	movl	%edx, %eax	# _148, tmp350
	sall	$2, %eax	#, tmp350
	addl	%edx, %eax	# _148, tmp350
	addl	%eax, %eax	# tmp351
	movl	%eax, %edx	# tmp350, _149
# st_stuff.c:687: 	map = (buf[0] - '0')*10 + buf[1] - '0';
	.loc 1 687 31
	movzbl	-10(%rbp), %eax	# MEM[(char[3] *)_272][1], _150
	movsbl	%al, %eax	# _150, _151
# st_stuff.c:687: 	map = (buf[0] - '0')*10 + buf[1] - '0';
	.loc 1 687 26
	addl	%edx, %eax	# _149, _152
# st_stuff.c:687: 	map = (buf[0] - '0')*10 + buf[1] - '0';
	.loc 1 687 6
	subl	$48, %eax	#, tmp352
	movl	%eax, -20(%rbp)	# tmp352, map
	jmp	.L44	#
.L43:
# st_stuff.c:691: 	epsd = buf[0] - '0';
	.loc 1 691 12
	movzbl	-11(%rbp), %eax	# MEM[(char[3] *)_272][0], _153
	movsbl	%al, %eax	# _153, _154
# st_stuff.c:691: 	epsd = buf[0] - '0';
	.loc 1 691 7
	subl	$48, %eax	#, tmp353
	movl	%eax, -24(%rbp)	# tmp353, epsd
# st_stuff.c:692: 	map = buf[1] - '0';
	.loc 1 692 11
	movzbl	-10(%rbp), %eax	# MEM[(char[3] *)_272][1], _155
	movsbl	%al, %eax	# _155, _156
# st_stuff.c:692: 	map = buf[1] - '0';
	.loc 1 692 6
	subl	$48, %eax	#, tmp354
	movl	%eax, -20(%rbp)	# tmp354, map
.L44:
# st_stuff.c:696:       if (epsd < 1)
	.loc 1 696 10
	cmpl	$0, -24(%rbp)	#, epsd
	jg	.L45	#,
# st_stuff.c:697: 	return false;
	.loc 1 697 9
	movl	$0, %eax	#, _171
	jmp	.L56	#
.L45:
# st_stuff.c:699:       if (map < 1)
	.loc 1 699 10
	cmpl	$0, -20(%rbp)	#, map
	jg	.L47	#,
# st_stuff.c:700: 	return false;
	.loc 1 700 9
	movl	$0, %eax	#, _171
	jmp	.L56	#
.L47:
# st_stuff.c:703:       if ((gamemode == retail)
	.loc 1 703 21
	movl	gamemode(%rip), %eax	# gamemode, gamemode.49_157
# st_stuff.c:703:       if ((gamemode == retail)
	.loc 1 703 10
	cmpl	$3, %eax	#, gamemode.49_157
	jne	.L48	#,
# st_stuff.c:704: 	  && ((epsd > 4) || (map > 9)))
	.loc 1 704 4
	cmpl	$4, -24(%rbp)	#, epsd
	jg	.L49	#,
# st_stuff.c:704: 	  && ((epsd > 4) || (map > 9)))
	.loc 1 704 19 discriminator 1
	cmpl	$9, -20(%rbp)	#, map
	jle	.L48	#,
.L49:
# st_stuff.c:705: 	return false;
	.loc 1 705 9
	movl	$0, %eax	#, _171
	jmp	.L56	#
.L48:
# st_stuff.c:707:       if ((gamemode == registered)
	.loc 1 707 21
	movl	gamemode(%rip), %eax	# gamemode, gamemode.50_158
# st_stuff.c:707:       if ((gamemode == registered)
	.loc 1 707 10
	cmpl	$1, %eax	#, gamemode.50_158
	jne	.L50	#,
# st_stuff.c:708: 	  && ((epsd > 3) || (map > 9)))
	.loc 1 708 4
	cmpl	$3, -24(%rbp)	#, epsd
	jg	.L51	#,
# st_stuff.c:708: 	  && ((epsd > 3) || (map > 9)))
	.loc 1 708 19 discriminator 1
	cmpl	$9, -20(%rbp)	#, map
	jle	.L50	#,
.L51:
# st_stuff.c:709: 	return false;
	.loc 1 709 9
	movl	$0, %eax	#, _171
	jmp	.L56	#
.L50:
# st_stuff.c:711:       if ((gamemode == shareware)
	.loc 1 711 21
	movl	gamemode(%rip), %eax	# gamemode, gamemode.51_159
# st_stuff.c:711:       if ((gamemode == shareware)
	.loc 1 711 10
	testl	%eax, %eax	# gamemode.51_159
	jne	.L52	#,
# st_stuff.c:712: 	  && ((epsd > 1) || (map > 9)))
	.loc 1 712 4
	cmpl	$1, -24(%rbp)	#, epsd
	jg	.L53	#,
# st_stuff.c:712: 	  && ((epsd > 1) || (map > 9)))
	.loc 1 712 19 discriminator 1
	cmpl	$9, -20(%rbp)	#, map
	jle	.L52	#,
.L53:
# st_stuff.c:713: 	return false;
	.loc 1 713 9
	movl	$0, %eax	#, _171
	jmp	.L56	#
.L52:
# st_stuff.c:715:       if ((gamemode == commercial)
	.loc 1 715 21
	movl	gamemode(%rip), %eax	# gamemode, gamemode.52_160
# st_stuff.c:715:       if ((gamemode == commercial)
	.loc 1 715 10
	cmpl	$2, %eax	#, gamemode.52_160
	jne	.L54	#,
# st_stuff.c:716: 	&& (( epsd > 1) || (map > 34)))
	.loc 1 716 2
	cmpl	$1, -24(%rbp)	#, epsd
	jg	.L55	#,
# st_stuff.c:716: 	&& (( epsd > 1) || (map > 34)))
	.loc 1 716 18 discriminator 1
	cmpl	$34, -20(%rbp)	#, map
	jle	.L54	#,
.L55:
# st_stuff.c:717: 	return false;
	.loc 1 717 9
	movl	$0, %eax	#, _171
	jmp	.L56	#
.L54:
# st_stuff.c:720:       plyr->message = STSTR_CLEV;
	.loc 1 720 11
	movq	plyr(%rip), %rax	# plyr, plyr.53_161
# st_stuff.c:720:       plyr->message = STSTR_CLEV;
	.loc 1 720 21
	leaq	.LC12(%rip), %rdx	#, tmp355
	movq	%rdx, 224(%rax)	# tmp355, plyr.53_161->message
# st_stuff.c:721:       G_DeferedInitNew(gameskill, epsd, map);
	.loc 1 721 7
	movl	gameskill(%rip), %eax	# gameskill, gameskill.54_162
	movl	-20(%rbp), %edx	# map, tmp356
	movl	-24(%rbp), %ecx	# epsd, tmp357
	movl	%ecx, %esi	# tmp357,
	movl	%eax, %edi	# gameskill.54_162,
	call	G_DeferedInitNew@PLT	#
.L10:
.LBE4:
# st_stuff.c:724:   return false;
	.loc 1 724 10
	movl	$0, %eax	#, _171
.L56:
# st_stuff.c:725: }
	.loc 1 725 1
	movq	-8(%rbp), %rdx	# D.8211, tmp360
	subq	%fs:40, %rdx	# MEM[(<address-space-1> long unsigned int *)40B], tmp360
	je	.L57	#,
	call	__stack_chk_fail@PLT	#
.L57:
	leave	
	.cfi_def_cfa 7, 8
	ret	
	.cfi_endproc
.LFE1:
	.size	ST_Responder, .-ST_Responder
	.globl	ST_calcPainOffset
	.type	ST_calcPainOffset, @function
ST_calcPainOffset:
.LFB2:
	.loc 1 730 1
	.cfi_startproc
	endbr64	
	pushq	%rbp	#
	.cfi_def_cfa_offset 16
	.cfi_offset 6, -16
	movq	%rsp, %rbp	#,
	.cfi_def_cfa_register 6
# st_stuff.c:735:     health = plyr->health > 100 ? 100 : plyr->health;
	.loc 1 735 18
	movq	plyr(%rip), %rax	# plyr, plyr.55_1
	movl	36(%rax), %eax	# plyr.55_1->health, _2
# st_stuff.c:735:     health = plyr->health > 100 ? 100 : plyr->health;
	.loc 1 735 12
	movl	$100, %edx	#, tmp101
	cmpl	%edx, %eax	# tmp101, _2
	cmovg	%edx, %eax	# _2,, tmp101, tmp91
	movl	%eax, -4(%rbp)	# tmp91, health
# st_stuff.c:737:     if (health != oldhealth)
	.loc 1 737 16
	movl	oldhealth.4(%rip), %eax	# oldhealth, oldhealth.56_3
# st_stuff.c:737:     if (health != oldhealth)
	.loc 1 737 8
	cmpl	%eax, -4(%rbp)	# oldhealth.56_3, health
	je	.L59	#,
# st_stuff.c:739: 	lastcalc = ST_FACESTRIDE * (((100 - health) * ST_NUMPAINFACES) / 101);
	.loc 1 739 36
	movl	$100, %eax	#, tmp92
	subl	-4(%rbp), %eax	# health, tmp92
	movl	%eax, %edx	# tmp92, _4
# st_stuff.c:739: 	lastcalc = ST_FACESTRIDE * (((100 - health) * ST_NUMPAINFACES) / 101);
	.loc 1 739 46
	movl	%edx, %eax	# _4, tmp93
	sall	$2, %eax	#, tmp93
	addl	%edx, %eax	# _4, _5
# st_stuff.c:739: 	lastcalc = ST_FACESTRIDE * (((100 - health) * ST_NUMPAINFACES) / 101);
	.loc 1 739 65
	movslq	%eax, %rdx	# _5, tmp94
	imulq	$680390859, %rdx, %rdx	#, tmp94, tmp95
	shrq	$32, %rdx	#, tmp96
	sarl	$4, %edx	#, tmp97
	sarl	$31, %eax	#, tmp98
	subl	%eax, %edx	# tmp98, _6
# st_stuff.c:739: 	lastcalc = ST_FACESTRIDE * (((100 - health) * ST_NUMPAINFACES) / 101);
	.loc 1 739 27
	leal	0(,%rdx,8), %eax	#, _7
# st_stuff.c:739: 	lastcalc = ST_FACESTRIDE * (((100 - health) * ST_NUMPAINFACES) / 101);
	.loc 1 739 11
	movl	%eax, lastcalc.3(%rip)	# _7, lastcalc
# st_stuff.c:740: 	oldhealth = health;
	.loc 1 740 12
	movl	-4(%rbp), %eax	# health, tmp99
	movl	%eax, oldhealth.4(%rip)	# tmp99, oldhealth
.L59:
# st_stuff.c:742:     return lastcalc;
	.loc 1 742 12
	movl	lastcalc.3(%rip), %eax	# lastcalc, _13
# st_stuff.c:743: }
	.loc 1 743 1
	popq	%rbp	#
	.cfi_def_cfa 7, 8
	ret	
	.cfi_endproc
.LFE2:
	.size	ST_calcPainOffset, .-ST_calcPainOffset
	.globl	ST_updateFaceWidget
	.type	ST_updateFaceWidget, @function
ST_updateFaceWidget:
.LFB3:
	.loc 1 753 1
	.cfi_startproc
	endbr64	
	pushq	%rbp	#
	.cfi_def_cfa_offset 16
	.cfi_offset 6, -16
	movq	%rsp, %rbp	#,
	.cfi_def_cfa_register 6
	subq	$16, %rsp	#,
# st_stuff.c:761:     if (priority < 10)
	.loc 1 761 18
	movl	priority.2(%rip), %eax	# priority, priority.57_1
# st_stuff.c:761:     if (priority < 10)
	.loc 1 761 8
	cmpl	$9, %eax	#, priority.57_1
	jg	.L62	#,
# st_stuff.c:764: 	if (!plyr->health)
	.loc 1 764 11
	movq	plyr(%rip), %rax	# plyr, plyr.58_2
	movl	36(%rax), %eax	# plyr.58_2->health, _3
# st_stuff.c:764: 	if (!plyr->health)
	.loc 1 764 5
	testl	%eax, %eax	# _3
	jne	.L62	#,
# st_stuff.c:766: 	    priority = 9;
	.loc 1 766 15
	movl	$9, priority.2(%rip)	#, priority
# st_stuff.c:767: 	    st_faceindex = ST_DEADFACE;
	.loc 1 767 19
	movl	$41, st_faceindex(%rip)	#, st_faceindex
# st_stuff.c:768: 	    st_facecount = 1;
	.loc 1 768 19
	movl	$1, st_facecount(%rip)	#, st_facecount
.L62:
# st_stuff.c:772:     if (priority < 9)
	.loc 1 772 18
	movl	priority.2(%rip), %eax	# priority, priority.59_4
# st_stuff.c:772:     if (priority < 9)
	.loc 1 772 8
	cmpl	$8, %eax	#, priority.59_4
	jg	.L63	#,
# st_stuff.c:774: 	if (plyr->bonuscount)
	.loc 1 774 10
	movq	plyr(%rip), %rax	# plyr, plyr.60_5
	movl	236(%rax), %eax	# plyr.60_5->bonuscount, _6
# st_stuff.c:774: 	if (plyr->bonuscount)
	.loc 1 774 5
	testl	%eax, %eax	# _6
	je	.L63	#,
# st_stuff.c:777: 	    doevilgrin = false;
	.loc 1 777 17
	movl	$0, -8(%rbp)	#, doevilgrin
# st_stuff.c:779: 	    for (i=0;i<NUMWEAPONS;i++)
	.loc 1 779 12
	movl	$0, -16(%rbp)	#, i
# st_stuff.c:779: 	    for (i=0;i<NUMWEAPONS;i++)
	.loc 1 779 6
	jmp	.L64	#
.L66:
# st_stuff.c:781: 		if (oldweaponsowned[i] != plyr->weaponowned[i])
	.loc 1 781 22
	movl	-16(%rbp), %eax	# i, tmp174
	cltq
	leaq	0(,%rax,4), %rdx	#, tmp175
	leaq	oldweaponsowned(%rip), %rax	#, tmp176
	movl	(%rdx,%rax), %edx	# oldweaponsowned[i_92], _7
# st_stuff.c:781: 		if (oldweaponsowned[i] != plyr->weaponowned[i])
	.loc 1 781 33
	movq	plyr(%rip), %rax	# plyr, plyr.61_8
# st_stuff.c:781: 		if (oldweaponsowned[i] != plyr->weaponowned[i])
	.loc 1 781 46
	movl	-16(%rbp), %ecx	# i, tmp178
	movslq	%ecx, %rcx	# tmp178, tmp177
	addq	$28, %rcx	#, tmp179
	movl	12(%rax,%rcx,4), %eax	# plyr.61_8->weaponowned[i_92], _9
# st_stuff.c:781: 		if (oldweaponsowned[i] != plyr->weaponowned[i])
	.loc 1 781 6
	cmpl	%eax, %edx	# _9, _7
	je	.L65	#,
# st_stuff.c:783: 		    doevilgrin = true;
	.loc 1 783 18
	movl	$1, -8(%rbp)	#, doevilgrin
# st_stuff.c:784: 		    oldweaponsowned[i] = plyr->weaponowned[i];
	.loc 1 784 32
	movq	plyr(%rip), %rax	# plyr, plyr.62_10
# st_stuff.c:784: 		    oldweaponsowned[i] = plyr->weaponowned[i];
	.loc 1 784 45
	movl	-16(%rbp), %edx	# i, tmp181
	movslq	%edx, %rdx	# tmp181, tmp180
	addq	$28, %rdx	#, tmp182
	movl	12(%rax,%rdx,4), %eax	# plyr.62_10->weaponowned[i_92], _11
# st_stuff.c:784: 		    oldweaponsowned[i] = plyr->weaponowned[i];
	.loc 1 784 26
	movl	-16(%rbp), %edx	# i, tmp184
	movslq	%edx, %rdx	# tmp184, tmp183
	leaq	0(,%rdx,4), %rcx	#, tmp185
	leaq	oldweaponsowned(%rip), %rdx	#, tmp186
	movl	%eax, (%rcx,%rdx)	# _11, oldweaponsowned[i_92]
.L65:
# st_stuff.c:779: 	    for (i=0;i<NUMWEAPONS;i++)
	.loc 1 779 29 discriminator 2
	addl	$1, -16(%rbp)	#, i
.L64:
# st_stuff.c:779: 	    for (i=0;i<NUMWEAPONS;i++)
	.loc 1 779 16 discriminator 1
	cmpl	$8, -16(%rbp)	#, i
	jle	.L66	#,
# st_stuff.c:787: 	    if (doevilgrin) 
	.loc 1 787 9
	cmpl	$0, -8(%rbp)	#, doevilgrin
	je	.L63	#,
# st_stuff.c:790: 		priority = 8;
	.loc 1 790 12
	movl	$8, priority.2(%rip)	#, priority
# st_stuff.c:791: 		st_facecount = ST_EVILGRINCOUNT;
	.loc 1 791 16
	movl	$70, st_facecount(%rip)	#, st_facecount
# st_stuff.c:792: 		st_faceindex = ST_calcPainOffset() + ST_EVILGRINOFFSET;
	.loc 1 792 18
	call	ST_calcPainOffset	#
# st_stuff.c:792: 		st_faceindex = ST_calcPainOffset() + ST_EVILGRINOFFSET;
	.loc 1 792 38 discriminator 1
	addl	$6, %eax	#, _13
# st_stuff.c:792: 		st_faceindex = ST_calcPainOffset() + ST_EVILGRINOFFSET;
	.loc 1 792 16 discriminator 1
	movl	%eax, st_faceindex(%rip)	# _13, st_faceindex
.L63:
# st_stuff.c:798:     if (priority < 8)
	.loc 1 798 18
	movl	priority.2(%rip), %eax	# priority, priority.63_14
# st_stuff.c:798:     if (priority < 8)
	.loc 1 798 8
	cmpl	$7, %eax	#, priority.63_14
	jg	.L67	#,
# st_stuff.c:800: 	if (plyr->damagecount
	.loc 1 800 10
	movq	plyr(%rip), %rax	# plyr, plyr.64_15
	movl	232(%rax), %eax	# plyr.64_15->damagecount, _16
# st_stuff.c:800: 	if (plyr->damagecount
	.loc 1 800 5
	testl	%eax, %eax	# _16
	je	.L67	#,
# st_stuff.c:801: 	    && plyr->attacker
	.loc 1 801 13
	movq	plyr(%rip), %rax	# plyr, plyr.65_17
	movq	240(%rax), %rax	# plyr.65_17->attacker, _18
# st_stuff.c:801: 	    && plyr->attacker
	.loc 1 801 6
	testq	%rax, %rax	# _18
	je	.L67	#,
# st_stuff.c:802: 	    && plyr->attacker != plyr->mo)
	.loc 1 802 13
	movq	plyr(%rip), %rax	# plyr, plyr.66_19
	movq	240(%rax), %rdx	# plyr.66_19->attacker, _20
# st_stuff.c:802: 	    && plyr->attacker != plyr->mo)
	.loc 1 802 31
	movq	plyr(%rip), %rax	# plyr, plyr.67_21
	movq	(%rax), %rax	# plyr.67_21->mo, _22
# st_stuff.c:802: 	    && plyr->attacker != plyr->mo)
	.loc 1 802 6
	cmpq	%rax, %rdx	# _22, _20
	je	.L67	#,
# st_stuff.c:805: 	    priority = 7;
	.loc 1 805 15
	movl	$7, priority.2(%rip)	#, priority
# st_stuff.c:807: 	    if (plyr->health - st_oldhealth > ST_MUCHPAIN)
	.loc 1 807 14
	movq	plyr(%rip), %rax	# plyr, plyr.68_23
	movl	36(%rax), %edx	# plyr.68_23->health, _24
# st_stuff.c:807: 	    if (plyr->health - st_oldhealth > ST_MUCHPAIN)
	.loc 1 807 23
	movl	st_oldhealth(%rip), %eax	# st_oldhealth, st_oldhealth.69_25
	subl	%eax, %edx	# st_oldhealth.69_25, _26
# st_stuff.c:807: 	    if (plyr->health - st_oldhealth > ST_MUCHPAIN)
	.loc 1 807 9
	cmpl	$20, %edx	#, _26
	jle	.L68	#,
# st_stuff.c:809: 		st_facecount = ST_TURNCOUNT;
	.loc 1 809 16
	movl	$35, st_facecount(%rip)	#, st_facecount
# st_stuff.c:810: 		st_faceindex = ST_calcPainOffset() + ST_OUCHOFFSET;
	.loc 1 810 18
	call	ST_calcPainOffset	#
# st_stuff.c:810: 		st_faceindex = ST_calcPainOffset() + ST_OUCHOFFSET;
	.loc 1 810 38 discriminator 1
	addl	$5, %eax	#, _28
# st_stuff.c:810: 		st_faceindex = ST_calcPainOffset() + ST_OUCHOFFSET;
	.loc 1 810 16 discriminator 1
	movl	%eax, st_faceindex(%rip)	# _28, st_faceindex
	jmp	.L67	#
.L68:
# st_stuff.c:817: 					      plyr->attacker->y);
	.loc 1 817 16
	movq	plyr(%rip), %rax	# plyr, plyr.70_29
	movq	240(%rax), %rax	# plyr.70_29->attacker, _30
# st_stuff.c:814: 		badguyangle = R_PointToAngle2(plyr->mo->x,
	.loc 1 814 17
	movl	28(%rax), %ecx	# _30->y, _31
# st_stuff.c:816: 					      plyr->attacker->x,
	.loc 1 816 16
	movq	plyr(%rip), %rax	# plyr, plyr.71_32
	movq	240(%rax), %rax	# plyr.71_32->attacker, _33
# st_stuff.c:814: 		badguyangle = R_PointToAngle2(plyr->mo->x,
	.loc 1 814 17
	movl	24(%rax), %edx	# _33->x, _34
# st_stuff.c:815: 					      plyr->mo->y,
	.loc 1 815 16
	movq	plyr(%rip), %rax	# plyr, plyr.72_35
	movq	(%rax), %rax	# plyr.72_35->mo, _36
# st_stuff.c:814: 		badguyangle = R_PointToAngle2(plyr->mo->x,
	.loc 1 814 17
	movl	28(%rax), %esi	# _36->y, _37
# st_stuff.c:814: 		badguyangle = R_PointToAngle2(plyr->mo->x,
	.loc 1 814 37
	movq	plyr(%rip), %rax	# plyr, plyr.73_38
	movq	(%rax), %rax	# plyr.73_38->mo, _39
# st_stuff.c:814: 		badguyangle = R_PointToAngle2(plyr->mo->x,
	.loc 1 814 17
	movl	24(%rax), %eax	# _39->x, _40
	movl	%eax, %edi	# _40,
	call	R_PointToAngle2@PLT	#
	movl	%eax, -4(%rbp)	# tmp187, badguyangle
# st_stuff.c:819: 		if (badguyangle > plyr->mo->angle)
	.loc 1 819 25
	movq	plyr(%rip), %rax	# plyr, plyr.74_41
	movq	(%rax), %rax	# plyr.74_41->mo, _42
# st_stuff.c:819: 		if (badguyangle > plyr->mo->angle)
	.loc 1 819 29
	movl	56(%rax), %eax	# _42->angle, _43
# st_stuff.c:819: 		if (badguyangle > plyr->mo->angle)
	.loc 1 819 6
	cmpl	-4(%rbp), %eax	# badguyangle, _43
	jnb	.L69	#,
# st_stuff.c:822: 		    diffang = badguyangle - plyr->mo->angle;
	.loc 1 822 35
	movq	plyr(%rip), %rax	# plyr, plyr.75_44
	movq	(%rax), %rax	# plyr.75_44->mo, _45
# st_stuff.c:822: 		    diffang = badguyangle - plyr->mo->angle;
	.loc 1 822 39
	movl	56(%rax), %eax	# _45->angle, _46
# st_stuff.c:822: 		    diffang = badguyangle - plyr->mo->angle;
	.loc 1 822 15
	movl	-4(%rbp), %edx	# badguyangle, tmp191
	subl	%eax, %edx	# _46, tmp190
	movl	%edx, -12(%rbp)	# tmp190, diffang
# st_stuff.c:823: 		    i = diffang > ANG180; 
	.loc 1 823 19
	cmpl	$-2147483648, -12(%rbp)	#, diffang
	seta	%al	#, _47
# st_stuff.c:823: 		    i = diffang > ANG180; 
	.loc 1 823 9
	movzbl	%al, %eax	# _47, tmp192
	movl	%eax, -16(%rbp)	# tmp192, i
	jmp	.L70	#
.L69:
# st_stuff.c:828: 		    diffang = plyr->mo->angle - badguyangle;
	.loc 1 828 21
	movq	plyr(%rip), %rax	# plyr, plyr.76_48
	movq	(%rax), %rax	# plyr.76_48->mo, _49
# st_stuff.c:828: 		    diffang = plyr->mo->angle - badguyangle;
	.loc 1 828 25
	movl	56(%rax), %eax	# _49->angle, _50
# st_stuff.c:828: 		    diffang = plyr->mo->angle - badguyangle;
	.loc 1 828 15
	subl	-4(%rbp), %eax	# badguyangle, tmp194
	movl	%eax, -12(%rbp)	# tmp194, diffang
# st_stuff.c:829: 		    i = diffang <= ANG180; 
	.loc 1 829 19
	cmpl	$-2147483648, -12(%rbp)	#, diffang
	setbe	%al	#, _51
# st_stuff.c:829: 		    i = diffang <= ANG180; 
	.loc 1 829 9
	movzbl	%al, %eax	# _51, tmp195
	movl	%eax, -16(%rbp)	# tmp195, i
.L70:
# st_stuff.c:833: 		st_facecount = ST_TURNCOUNT;
	.loc 1 833 16
	movl	$35, st_facecount(%rip)	#, st_facecount
# st_stuff.c:834: 		st_faceindex = ST_calcPainOffset();
	.loc 1 834 18
	call	ST_calcPainOffset	#
# st_stuff.c:834: 		st_faceindex = ST_calcPainOffset();
	.loc 1 834 16 discriminator 1
	movl	%eax, st_faceindex(%rip)	# _52, st_faceindex
# st_stuff.c:836: 		if (diffang < ANG45)
	.loc 1 836 6
	cmpl	$536870911, -12(%rbp)	#, diffang
	ja	.L71	#,
# st_stuff.c:839: 		    st_faceindex += ST_RAMPAGEOFFSET;
	.loc 1 839 20
	movl	st_faceindex(%rip), %eax	# st_faceindex, st_faceindex.77_53
	addl	$7, %eax	#, _54
	movl	%eax, st_faceindex(%rip)	# _54, st_faceindex
	jmp	.L67	#
.L71:
# st_stuff.c:841: 		else if (i)
	.loc 1 841 11
	cmpl	$0, -16(%rbp)	#, i
	je	.L72	#,
# st_stuff.c:844: 		    st_faceindex += ST_TURNOFFSET;
	.loc 1 844 20
	movl	st_faceindex(%rip), %eax	# st_faceindex, st_faceindex.78_55
	addl	$3, %eax	#, _56
	movl	%eax, st_faceindex(%rip)	# _56, st_faceindex
	jmp	.L67	#
.L72:
# st_stuff.c:849: 		    st_faceindex += ST_TURNOFFSET+1;
	.loc 1 849 20
	movl	st_faceindex(%rip), %eax	# st_faceindex, st_faceindex.79_57
	addl	$4, %eax	#, _58
	movl	%eax, st_faceindex(%rip)	# _58, st_faceindex
.L67:
# st_stuff.c:855:     if (priority < 7)
	.loc 1 855 18
	movl	priority.2(%rip), %eax	# priority, priority.80_59
# st_stuff.c:855:     if (priority < 7)
	.loc 1 855 8
	cmpl	$6, %eax	#, priority.80_59
	jg	.L73	#,
# st_stuff.c:858: 	if (plyr->damagecount)
	.loc 1 858 10
	movq	plyr(%rip), %rax	# plyr, plyr.81_60
	movl	232(%rax), %eax	# plyr.81_60->damagecount, _61
# st_stuff.c:858: 	if (plyr->damagecount)
	.loc 1 858 5
	testl	%eax, %eax	# _61
	je	.L73	#,
# st_stuff.c:860: 	    if (plyr->health - st_oldhealth > ST_MUCHPAIN)
	.loc 1 860 14
	movq	plyr(%rip), %rax	# plyr, plyr.82_62
	movl	36(%rax), %edx	# plyr.82_62->health, _63
# st_stuff.c:860: 	    if (plyr->health - st_oldhealth > ST_MUCHPAIN)
	.loc 1 860 23
	movl	st_oldhealth(%rip), %eax	# st_oldhealth, st_oldhealth.83_64
	subl	%eax, %edx	# st_oldhealth.83_64, _65
# st_stuff.c:860: 	    if (plyr->health - st_oldhealth > ST_MUCHPAIN)
	.loc 1 860 9
	cmpl	$20, %edx	#, _65
	jle	.L74	#,
# st_stuff.c:862: 		priority = 7;
	.loc 1 862 12
	movl	$7, priority.2(%rip)	#, priority
# st_stuff.c:863: 		st_facecount = ST_TURNCOUNT;
	.loc 1 863 16
	movl	$35, st_facecount(%rip)	#, st_facecount
# st_stuff.c:864: 		st_faceindex = ST_calcPainOffset() + ST_OUCHOFFSET;
	.loc 1 864 18
	call	ST_calcPainOffset	#
# st_stuff.c:864: 		st_faceindex = ST_calcPainOffset() + ST_OUCHOFFSET;
	.loc 1 864 38 discriminator 1
	addl	$5, %eax	#, _67
# st_stuff.c:864: 		st_faceindex = ST_calcPainOffset() + ST_OUCHOFFSET;
	.loc 1 864 16 discriminator 1
	movl	%eax, st_faceindex(%rip)	# _67, st_faceindex
	jmp	.L73	#
.L74:
# st_stuff.c:868: 		priority = 6;
	.loc 1 868 12
	movl	$6, priority.2(%rip)	#, priority
# st_stuff.c:869: 		st_facecount = ST_TURNCOUNT;
	.loc 1 869 16
	movl	$35, st_facecount(%rip)	#, st_facecount
# st_stuff.c:870: 		st_faceindex = ST_calcPainOffset() + ST_RAMPAGEOFFSET;
	.loc 1 870 18
	call	ST_calcPainOffset	#
# st_stuff.c:870: 		st_faceindex = ST_calcPainOffset() + ST_RAMPAGEOFFSET;
	.loc 1 870 38 discriminator 1
	addl	$7, %eax	#, _69
# st_stuff.c:870: 		st_faceindex = ST_calcPainOffset() + ST_RAMPAGEOFFSET;
	.loc 1 870 16 discriminator 1
	movl	%eax, st_faceindex(%rip)	# _69, st_faceindex
.L73:
# st_stuff.c:877:     if (priority < 6)
	.loc 1 877 18
	movl	priority.2(%rip), %eax	# priority, priority.84_70
# st_stuff.c:877:     if (priority < 6)
	.loc 1 877 8
	cmpl	$5, %eax	#, priority.84_70
	jg	.L75	#,
# st_stuff.c:880: 	if (plyr->attackdown)
	.loc 1 880 10
	movq	plyr(%rip), %rax	# plyr, plyr.85_71
	movl	192(%rax), %eax	# plyr.85_71->attackdown, _72
# st_stuff.c:880: 	if (plyr->attackdown)
	.loc 1 880 5
	testl	%eax, %eax	# _72
	je	.L76	#,
# st_stuff.c:882: 	    if (lastattackdown==-1)
	.loc 1 882 24
	movl	lastattackdown.1(%rip), %eax	# lastattackdown, lastattackdown.86_73
# st_stuff.c:882: 	    if (lastattackdown==-1)
	.loc 1 882 9
	cmpl	$-1, %eax	#, lastattackdown.86_73
	jne	.L77	#,
# st_stuff.c:883: 		lastattackdown = ST_RAMPAGEDELAY;
	.loc 1 883 18
	movl	$70, lastattackdown.1(%rip)	#, lastattackdown
	jmp	.L75	#
.L77:
# st_stuff.c:884: 	    else if (!--lastattackdown)
	.loc 1 884 16
	movl	lastattackdown.1(%rip), %eax	# lastattackdown, lastattackdown.87_74
	subl	$1, %eax	#, _75
# st_stuff.c:884: 	    else if (!--lastattackdown)
	.loc 1 884 14
	movl	%eax, lastattackdown.1(%rip)	# _75, lastattackdown
# st_stuff.c:884: 	    else if (!--lastattackdown)
	.loc 1 884 16
	movl	lastattackdown.1(%rip), %eax	# lastattackdown, lastattackdown.88_76
# st_stuff.c:884: 	    else if (!--lastattackdown)
	.loc 1 884 14
	testl	%eax, %eax	# lastattackdown.88_76
	jne	.L75	#,
# st_stuff.c:886: 		priority = 5;
	.loc 1 886 12
	movl	$5, priority.2(%rip)	#, priority
# st_stuff.c:887: 		st_faceindex = ST_calcPainOffset() + ST_RAMPAGEOFFSET;
	.loc 1 887 18
	call	ST_calcPainOffset	#
# st_stuff.c:887: 		st_faceindex = ST_calcPainOffset() + ST_RAMPAGEOFFSET;
	.loc 1 887 38 discriminator 1
	addl	$7, %eax	#, _78
# st_stuff.c:887: 		st_faceindex = ST_calcPainOffset() + ST_RAMPAGEOFFSET;
	.loc 1 887 16 discriminator 1
	movl	%eax, st_faceindex(%rip)	# _78, st_faceindex
# st_stuff.c:888: 		st_facecount = 1;
	.loc 1 888 16
	movl	$1, st_facecount(%rip)	#, st_facecount
# st_stuff.c:889: 		lastattackdown = 1;
	.loc 1 889 18
	movl	$1, lastattackdown.1(%rip)	#, lastattackdown
	jmp	.L75	#
.L76:
# st_stuff.c:893: 	    lastattackdown = -1;
	.loc 1 893 21
	movl	$-1, lastattackdown.1(%rip)	#, lastattackdown
.L75:
# st_stuff.c:897:     if (priority < 5)
	.loc 1 897 18
	movl	priority.2(%rip), %eax	# priority, priority.89_79
# st_stuff.c:897:     if (priority < 5)
	.loc 1 897 8
	cmpl	$4, %eax	#, priority.89_79
	jg	.L78	#,
# st_stuff.c:900: 	if ((plyr->cheats & CF_GODMODE)
	.loc 1 900 11
	movq	plyr(%rip), %rax	# plyr, plyr.90_80
	movl	200(%rax), %eax	# plyr.90_80->cheats, _81
# st_stuff.c:900: 	if ((plyr->cheats & CF_GODMODE)
	.loc 1 900 20
	andl	$2, %eax	#, _82
# st_stuff.c:900: 	if ((plyr->cheats & CF_GODMODE)
	.loc 1 900 5
	testl	%eax, %eax	# _82
	jne	.L79	#,
# st_stuff.c:901: 	    || plyr->powers[pw_invulnerability])
	.loc 1 901 13
	movq	plyr(%rip), %rax	# plyr, plyr.91_83
# st_stuff.c:901: 	    || plyr->powers[pw_invulnerability])
	.loc 1 901 21
	movl	48(%rax), %eax	# plyr.91_83->powers[0], _84
# st_stuff.c:901: 	    || plyr->powers[pw_invulnerability])
	.loc 1 901 6
	testl	%eax, %eax	# _84
	je	.L78	#,
.L79:
# st_stuff.c:903: 	    priority = 4;
	.loc 1 903 15
	movl	$4, priority.2(%rip)	#, priority
# st_stuff.c:905: 	    st_faceindex = ST_GODFACE;
	.loc 1 905 19
	movl	$40, st_faceindex(%rip)	#, st_faceindex
# st_stuff.c:906: 	    st_facecount = 1;
	.loc 1 906 19
	movl	$1, st_facecount(%rip)	#, st_facecount
.L78:
# st_stuff.c:913:     if (!st_facecount)
	.loc 1 913 9
	movl	st_facecount(%rip), %eax	# st_facecount, st_facecount.92_85
# st_stuff.c:913:     if (!st_facecount)
	.loc 1 913 8
	testl	%eax, %eax	# st_facecount.92_85
	jne	.L80	#,
# st_stuff.c:915: 	st_faceindex = ST_calcPainOffset() + (st_randomnumber % 3);
	.loc 1 915 17
	call	ST_calcPainOffset	#
	movl	%eax, %esi	#, _86
# st_stuff.c:915: 	st_faceindex = ST_calcPainOffset() + (st_randomnumber % 3);
	.loc 1 915 56 discriminator 1
	movl	st_randomnumber(%rip), %ecx	# st_randomnumber, st_randomnumber.93_87
	movslq	%ecx, %rax	# st_randomnumber.93_87, tmp196
	imulq	$1431655766, %rax, %rax	#, tmp196, tmp197
	shrq	$32, %rax	#, tmp197
	movq	%rax, %rdx	# tmp197, tmp198
	movl	%ecx, %eax	# st_randomnumber.93_87, tmp199
	sarl	$31, %eax	#, tmp199
	subl	%eax, %edx	# tmp199, _88
	movl	%edx, %eax	# _88, tmp200
	addl	%eax, %eax	# tmp200
	addl	%edx, %eax	# _88, tmp200
	subl	%eax, %ecx	# tmp200, st_randomnumber.93_87
	movl	%ecx, %edx	# st_randomnumber.93_87, _88
# st_stuff.c:915: 	st_faceindex = ST_calcPainOffset() + (st_randomnumber % 3);
	.loc 1 915 37 discriminator 1
	leal	(%rsi,%rdx), %eax	#, _89
# st_stuff.c:915: 	st_faceindex = ST_calcPainOffset() + (st_randomnumber % 3);
	.loc 1 915 15 discriminator 1
	movl	%eax, st_faceindex(%rip)	# _89, st_faceindex
# st_stuff.c:916: 	st_facecount = ST_STRAIGHTFACECOUNT;
	.loc 1 916 15
	movl	$17, st_facecount(%rip)	#, st_facecount
# st_stuff.c:917: 	priority = 0;
	.loc 1 917 11
	movl	$0, priority.2(%rip)	#, priority
.L80:
# st_stuff.c:920:     st_facecount--;
	.loc 1 920 17
	movl	st_facecount(%rip), %eax	# st_facecount, st_facecount.94_90
	subl	$1, %eax	#, _91
	movl	%eax, st_facecount(%rip)	# _91, st_facecount
# st_stuff.c:922: }
	.loc 1 922 1
	nop	
	leave	
	.cfi_def_cfa 7, 8
	ret	
	.cfi_endproc
.LFE3:
	.size	ST_updateFaceWidget, .-ST_updateFaceWidget
	.globl	ST_updateWidgets
	.type	ST_updateWidgets, @function
ST_updateWidgets:
.LFB4:
	.loc 1 925 1
	.cfi_startproc
	endbr64	
	pushq	%rbp	#
	.cfi_def_cfa_offset 16
	.cfi_offset 6, -16
	movq	%rsp, %rbp	#,
	.cfi_def_cfa_register 6
	subq	$16, %rsp	#,
# st_stuff.c:932:     if (weaponinfo[plyr->readyweapon].ammo == am_noammo)
	.loc 1 932 24
	movq	plyr(%rip), %rax	# plyr, plyr.95_1
	movl	116(%rax), %eax	# plyr.95_1->readyweapon, _2
# st_stuff.c:932:     if (weaponinfo[plyr->readyweapon].ammo == am_noammo)
	.loc 1 932 38
	movl	%eax, %edx	# _2, tmp124
	movq	%rdx, %rax	# tmp124, tmp126
	addq	%rax, %rax	# tmp126
	addq	%rdx, %rax	# tmp124, tmp126
	salq	$3, %rax	#, tmp127
	movq	%rax, %rdx	# tmp126, tmp125
	leaq	weaponinfo(%rip), %rax	#, tmp128
	movl	(%rdx,%rax), %eax	# weaponinfo[_2].ammo, _3
# st_stuff.c:932:     if (weaponinfo[plyr->readyweapon].ammo == am_noammo)
	.loc 1 932 8
	cmpl	$5, %eax	#, _3
	jne	.L82	#,
# st_stuff.c:933: 	w_ready.num = &largeammo;
	.loc 1 933 14
	leaq	largeammo.0(%rip), %rax	#, tmp129
	movq	%rax, 16+w_ready(%rip)	# tmp129, w_ready.num
	jmp	.L83	#
.L82:
# st_stuff.c:935: 	w_ready.num = &plyr->ammo[weaponinfo[plyr->readyweapon].ammo];
	.loc 1 935 21
	movq	plyr(%rip), %rdx	# plyr, plyr.96_4
# st_stuff.c:935: 	w_ready.num = &plyr->ammo[weaponinfo[plyr->readyweapon].ammo];
	.loc 1 935 43
	movq	plyr(%rip), %rax	# plyr, plyr.97_5
	movl	116(%rax), %eax	# plyr.97_5->readyweapon, _6
# st_stuff.c:935: 	w_ready.num = &plyr->ammo[weaponinfo[plyr->readyweapon].ammo];
	.loc 1 935 57
	movl	%eax, %ecx	# _6, tmp130
	movq	%rcx, %rax	# tmp130, tmp132
	addq	%rax, %rax	# tmp132
	addq	%rcx, %rax	# tmp130, tmp132
	salq	$3, %rax	#, tmp133
	movq	%rax, %rcx	# tmp132, tmp131
	leaq	weaponinfo(%rip), %rax	#, tmp134
	movl	(%rcx,%rax), %eax	# weaponinfo[_6].ammo, _7
# st_stuff.c:935: 	w_ready.num = &plyr->ammo[weaponinfo[plyr->readyweapon].ammo];
	.loc 1 935 16
	movl	%eax, %eax	# _7, tmp135
	addq	$40, %rax	#, tmp136
	salq	$2, %rax	#, tmp137
	addq	%rdx, %rax	# plyr.96_4, _8
# st_stuff.c:935: 	w_ready.num = &plyr->ammo[weaponinfo[plyr->readyweapon].ammo];
	.loc 1 935 14
	movq	%rax, 16+w_ready(%rip)	# _8, w_ready.num
.L83:
# st_stuff.c:945:     w_ready.data = plyr->readyweapon;
	.loc 1 945 24
	movq	plyr(%rip), %rax	# plyr, plyr.98_9
	movl	116(%rax), %eax	# plyr.98_9->readyweapon, _10
# st_stuff.c:945:     w_ready.data = plyr->readyweapon;
	.loc 1 945 18
	movl	%eax, 40+w_ready(%rip)	# _11, w_ready.data
# st_stuff.c:953:     for (i=0;i<3;i++)
	.loc 1 953 11
	movl	$0, -4(%rbp)	#, i
# st_stuff.c:953:     for (i=0;i<3;i++)
	.loc 1 953 5
	jmp	.L84	#
.L88:
# st_stuff.c:955: 	keyboxes[i] = plyr->cards[i] ? i : -1;
	.loc 1 955 20
	movq	plyr(%rip), %rax	# plyr, plyr.100_12
# st_stuff.c:955: 	keyboxes[i] = plyr->cards[i] ? i : -1;
	.loc 1 955 27
	movl	-4(%rbp), %edx	# i, tmp139
	movslq	%edx, %rdx	# tmp139, tmp138
	addq	$16, %rdx	#, tmp140
	movl	8(%rax,%rdx,4), %eax	# plyr.100_12->cards[i_40], _13
# st_stuff.c:955: 	keyboxes[i] = plyr->cards[i] ? i : -1;
	.loc 1 955 35
	testl	%eax, %eax	# _13
	je	.L85	#,
# st_stuff.c:955: 	keyboxes[i] = plyr->cards[i] ? i : -1;
	.loc 1 955 35 is_stmt 0 discriminator 1
	movl	-4(%rbp), %eax	# i, iftmp.99_42
	jmp	.L86	#
.L85:
# st_stuff.c:955: 	keyboxes[i] = plyr->cards[i] ? i : -1;
	.loc 1 955 35 discriminator 2
	movl	$-1, %eax	#, iftmp.99_42
.L86:
# st_stuff.c:955: 	keyboxes[i] = plyr->cards[i] ? i : -1;
	.loc 1 955 14 is_stmt 1 discriminator 4
	movl	-4(%rbp), %edx	# i, tmp142
	movslq	%edx, %rdx	# tmp142, tmp141
	leaq	0(,%rdx,4), %rcx	#, tmp143
	leaq	keyboxes(%rip), %rdx	#, tmp144
	movl	%eax, (%rcx,%rdx)	# iftmp.99_42, keyboxes[i_40]
# st_stuff.c:957: 	if (plyr->cards[i+3])
	.loc 1 957 10
	movq	plyr(%rip), %rax	# plyr, plyr.101_14
# st_stuff.c:957: 	if (plyr->cards[i+3])
	.loc 1 957 19
	movl	-4(%rbp), %edx	# i, tmp145
	addl	$3, %edx	#, _15
# st_stuff.c:957: 	if (plyr->cards[i+3])
	.loc 1 957 17
	movslq	%edx, %rdx	# _15, tmp146
	addq	$16, %rdx	#, tmp147
	movl	8(%rax,%rdx,4), %eax	# plyr.101_14->cards[_15], _16
# st_stuff.c:957: 	if (plyr->cards[i+3])
	.loc 1 957 5
	testl	%eax, %eax	# _16
	je	.L87	#,
# st_stuff.c:958: 	    keyboxes[i] = i+3;
	.loc 1 958 21
	movl	-4(%rbp), %eax	# i, tmp148
	leal	3(%rax), %ecx	#, _17
# st_stuff.c:958: 	    keyboxes[i] = i+3;
	.loc 1 958 18
	movl	-4(%rbp), %eax	# i, tmp150
	cltq
	leaq	0(,%rax,4), %rdx	#, tmp151
	leaq	keyboxes(%rip), %rax	#, tmp152
	movl	%ecx, (%rdx,%rax)	# _17, keyboxes[i_40]
.L87:
# st_stuff.c:953:     for (i=0;i<3;i++)
	.loc 1 953 19 discriminator 2
	addl	$1, -4(%rbp)	#, i
.L84:
# st_stuff.c:953:     for (i=0;i<3;i++)
	.loc 1 953 15 discriminator 1
	cmpl	$2, -4(%rbp)	#, i
	jle	.L88	#,
# st_stuff.c:962:     ST_updateFaceWidget();
	.loc 1 962 5
	call	ST_updateFaceWidget	#
# st_stuff.c:965:     st_notdeathmatch = !deathmatch;
	.loc 1 965 24
	movl	deathmatch(%rip), %eax	# deathmatch, deathmatch.102_18
	testl	%eax, %eax	# deathmatch.102_18
	sete	%al	#, _19
	movzbl	%al, %eax	# _19, _20
# st_stuff.c:965:     st_notdeathmatch = !deathmatch;
	.loc 1 965 22
	movl	%eax, st_notdeathmatch(%rip)	# _20, st_notdeathmatch
# st_stuff.c:968:     st_armson = st_statusbaron && !deathmatch; 
	.loc 1 968 17
	movl	st_statusbaron(%rip), %eax	# st_statusbaron, st_statusbaron.104_21
# st_stuff.c:968:     st_armson = st_statusbaron && !deathmatch; 
	.loc 1 968 32
	testl	%eax, %eax	# st_statusbaron.104_21
	je	.L89	#,
# st_stuff.c:968:     st_armson = st_statusbaron && !deathmatch; 
	.loc 1 968 35 discriminator 1
	movl	deathmatch(%rip), %eax	# deathmatch, deathmatch.105_22
# st_stuff.c:968:     st_armson = st_statusbaron && !deathmatch; 
	.loc 1 968 32 discriminator 1
	testl	%eax, %eax	# deathmatch.105_22
	jne	.L89	#,
# st_stuff.c:968:     st_armson = st_statusbaron && !deathmatch; 
	.loc 1 968 32 is_stmt 0 discriminator 3
	movl	$1, %eax	#, iftmp.103_43
# st_stuff.c:968:     st_armson = st_statusbaron && !deathmatch; 
	.loc 1 968 32
	jmp	.L90	#
.L89:
# st_stuff.c:968:     st_armson = st_statusbaron && !deathmatch; 
	.loc 1 968 32 discriminator 4
	movl	$0, %eax	#, iftmp.103_43
.L90:
# st_stuff.c:968:     st_armson = st_statusbaron && !deathmatch; 
	.loc 1 968 15 is_stmt 1 discriminator 6
	movl	%eax, st_armson(%rip)	# iftmp.106_23, st_armson
# st_stuff.c:971:     st_fragson = deathmatch && st_statusbaron; 
	.loc 1 971 18
	movl	deathmatch(%rip), %eax	# deathmatch, deathmatch.108_24
# st_stuff.c:971:     st_fragson = deathmatch && st_statusbaron; 
	.loc 1 971 29
	testl	%eax, %eax	# deathmatch.108_24
	je	.L91	#,
# st_stuff.c:971:     st_fragson = deathmatch && st_statusbaron; 
	.loc 1 971 29 is_stmt 0 discriminator 1
	movl	st_statusbaron(%rip), %eax	# st_statusbaron, st_statusbaron.109_25
	testl	%eax, %eax	# st_statusbaron.109_25
	je	.L91	#,
# st_stuff.c:971:     st_fragson = deathmatch && st_statusbaron; 
	.loc 1 971 29 discriminator 3
	movl	$1, %eax	#, iftmp.107_44
# st_stuff.c:971:     st_fragson = deathmatch && st_statusbaron; 
	.loc 1 971 29
	jmp	.L92	#
.L91:
# st_stuff.c:971:     st_fragson = deathmatch && st_statusbaron; 
	.loc 1 971 29 discriminator 4
	movl	$0, %eax	#, iftmp.107_44
.L92:
# st_stuff.c:971:     st_fragson = deathmatch && st_statusbaron; 
	.loc 1 971 16 is_stmt 1 discriminator 6
	movl	%eax, st_fragson(%rip)	# iftmp.110_26, st_fragson
# st_stuff.c:972:     st_fragscount = 0;
	.loc 1 972 19
	movl	$0, st_fragscount(%rip)	#, st_fragscount
# st_stuff.c:974:     for (i=0 ; i<MAXPLAYERS ; i++)
	.loc 1 974 11
	movl	$0, -4(%rbp)	#, i
# st_stuff.c:974:     for (i=0 ; i<MAXPLAYERS ; i++)
	.loc 1 974 5
	jmp	.L93	#
.L96:
# st_stuff.c:976: 	if (i != consoleplayer)
	.loc 1 976 8
	movl	consoleplayer(%rip), %eax	# consoleplayer, consoleplayer.111_27
# st_stuff.c:976: 	if (i != consoleplayer)
	.loc 1 976 5
	cmpl	%eax, -4(%rbp)	# consoleplayer.111_27, i
	je	.L94	#,
# st_stuff.c:977: 	    st_fragscount += plyr->frags[i];
	.loc 1 977 27
	movq	plyr(%rip), %rax	# plyr, plyr.112_28
# st_stuff.c:977: 	    st_fragscount += plyr->frags[i];
	.loc 1 977 34
	movl	-4(%rbp), %edx	# i, tmp154
	movslq	%edx, %rdx	# tmp154, tmp153
	addq	$24, %rdx	#, tmp155
	movl	4(%rax,%rdx,4), %edx	# plyr.112_28->frags[i_41], _29
# st_stuff.c:977: 	    st_fragscount += plyr->frags[i];
	.loc 1 977 20
	movl	st_fragscount(%rip), %eax	# st_fragscount, st_fragscount.113_30
	addl	%edx, %eax	# _29, _31
	movl	%eax, st_fragscount(%rip)	# _31, st_fragscount
	jmp	.L95	#
.L94:
# st_stuff.c:979: 	    st_fragscount -= plyr->frags[i];
	.loc 1 979 20
	movl	st_fragscount(%rip), %edx	# st_fragscount, st_fragscount.114_32
# st_stuff.c:979: 	    st_fragscount -= plyr->frags[i];
	.loc 1 979 27
	movq	plyr(%rip), %rax	# plyr, plyr.115_33
# st_stuff.c:979: 	    st_fragscount -= plyr->frags[i];
	.loc 1 979 34
	movl	-4(%rbp), %ecx	# i, tmp157
	movslq	%ecx, %rcx	# tmp157, tmp156
	addq	$24, %rcx	#, tmp158
	movl	4(%rax,%rcx,4), %eax	# plyr.115_33->frags[i_41], _34
# st_stuff.c:979: 	    st_fragscount -= plyr->frags[i];
	.loc 1 979 20
	subl	%eax, %edx	# _34, _35
	movl	%edx, st_fragscount(%rip)	# _35, st_fragscount
.L95:
# st_stuff.c:974:     for (i=0 ; i<MAXPLAYERS ; i++)
	.loc 1 974 32 discriminator 2
	addl	$1, -4(%rbp)	#, i
.L93:
# st_stuff.c:974:     for (i=0 ; i<MAXPLAYERS ; i++)
	.loc 1 974 17 discriminator 1
	cmpl	$3, -4(%rbp)	#, i
	jle	.L96	#,
# st_stuff.c:983:     if (!--st_msgcounter)
	.loc 1 983 10
	movl	st_msgcounter(%rip), %eax	# st_msgcounter, st_msgcounter.116_36
	subl	$1, %eax	#, _37
# st_stuff.c:983:     if (!--st_msgcounter)
	.loc 1 983 8
	movl	%eax, st_msgcounter(%rip)	# _37, st_msgcounter
# st_stuff.c:983:     if (!--st_msgcounter)
	.loc 1 983 10
	movl	st_msgcounter(%rip), %eax	# st_msgcounter, st_msgcounter.117_38
# st_stuff.c:983:     if (!--st_msgcounter)
	.loc 1 983 8
	testl	%eax, %eax	# st_msgcounter.117_38
	jne	.L98	#,
# st_stuff.c:984: 	st_chat = st_oldchat;
	.loc 1 984 10
	movl	st_oldchat(%rip), %eax	# st_oldchat, st_oldchat.118_39
	movl	%eax, st_chat(%rip)	# st_oldchat.118_39, st_chat
.L98:
# st_stuff.c:986: }
	.loc 1 986 1
	nop	
	leave	
	.cfi_def_cfa 7, 8
	ret	
	.cfi_endproc
.LFE4:
	.size	ST_updateWidgets, .-ST_updateWidgets
	.globl	ST_Ticker
	.type	ST_Ticker, @function
ST_Ticker:
.LFB5:
	.loc 1 989 1
	.cfi_startproc
	endbr64	
	pushq	%rbp	#
	.cfi_def_cfa_offset 16
	.cfi_offset 6, -16
	movq	%rsp, %rbp	#,
	.cfi_def_cfa_register 6
# st_stuff.c:991:     st_clock++;
	.loc 1 991 13
	movl	st_clock(%rip), %eax	# st_clock, st_clock.119_1
	addl	$1, %eax	#, _2
	movl	%eax, st_clock(%rip)	# _2, st_clock
# st_stuff.c:992:     st_randomnumber = M_Random();
	.loc 1 992 23
	call	M_Random@PLT	#
# st_stuff.c:992:     st_randomnumber = M_Random();
	.loc 1 992 21 discriminator 1
	movl	%eax, st_randomnumber(%rip)	# _3, st_randomnumber
# st_stuff.c:993:     ST_updateWidgets();
	.loc 1 993 5
	call	ST_updateWidgets	#
# st_stuff.c:994:     st_oldhealth = plyr->health;
	.loc 1 994 24
	movq	plyr(%rip), %rax	# plyr, plyr.120_4
	movl	36(%rax), %eax	# plyr.120_4->health, _5
# st_stuff.c:994:     st_oldhealth = plyr->health;
	.loc 1 994 18
	movl	%eax, st_oldhealth(%rip)	# _5, st_oldhealth
# st_stuff.c:996: }
	.loc 1 996 1
	nop	
	popq	%rbp	#
	.cfi_def_cfa 7, 8
	ret	
	.cfi_endproc
.LFE5:
	.size	ST_Ticker, .-ST_Ticker
	.local	st_palette
	.comm	st_palette,4,4
	.globl	ST_doPaletteStuff
	.type	ST_doPaletteStuff, @function
ST_doPaletteStuff:
.LFB6:
	.loc 1 1001 1
	.cfi_startproc
	endbr64	
	pushq	%rbp	#
	.cfi_def_cfa_offset 16
	.cfi_offset 6, -16
	movq	%rsp, %rbp	#,
	.cfi_def_cfa_register 6
	subq	$32, %rsp	#,
# st_stuff.c:1008:     cnt = plyr->damagecount;
	.loc 1 1008 15
	movq	plyr(%rip), %rax	# plyr, plyr.121_1
# st_stuff.c:1008:     cnt = plyr->damagecount;
	.loc 1 1008 9
	movl	232(%rax), %eax	# plyr.121_1->damagecount, tmp104
	movl	%eax, -16(%rbp)	# tmp104, cnt
# st_stuff.c:1010:     if (plyr->powers[pw_strength])
	.loc 1 1010 13
	movq	plyr(%rip), %rax	# plyr, plyr.122_2
# st_stuff.c:1010:     if (plyr->powers[pw_strength])
	.loc 1 1010 21
	movl	52(%rax), %eax	# plyr.122_2->powers[1], _3
# st_stuff.c:1010:     if (plyr->powers[pw_strength])
	.loc 1 1010 8
	testl	%eax, %eax	# _3
	je	.L101	#,
# st_stuff.c:1013:   	bzc = 12 - (plyr->powers[pw_strength]>>6);
	.loc 1 1013 20
	movq	plyr(%rip), %rax	# plyr, plyr.123_4
# st_stuff.c:1013:   	bzc = 12 - (plyr->powers[pw_strength]>>6);
	.loc 1 1013 28
	movl	52(%rax), %eax	# plyr.123_4->powers[1], _5
# st_stuff.c:1013:   	bzc = 12 - (plyr->powers[pw_strength]>>6);
	.loc 1 1013 41
	sarl	$6, %eax	#, _5
	movl	%eax, %edx	# _5, _6
# st_stuff.c:1013:   	bzc = 12 - (plyr->powers[pw_strength]>>6);
	.loc 1 1013 8
	movl	$12, %eax	#, tmp105
	subl	%edx, %eax	# _6, tmp106
	movl	%eax, -12(%rbp)	# tmp106, bzc
# st_stuff.c:1015: 	if (bzc > cnt)
	.loc 1 1015 5
	movl	-12(%rbp), %eax	# bzc, tmp107
	cmpl	-16(%rbp), %eax	# cnt, tmp107
	jle	.L101	#,
# st_stuff.c:1016: 	    cnt = bzc;
	.loc 1 1016 10
	movl	-12(%rbp), %eax	# bzc, tmp108
	movl	%eax, -16(%rbp)	# tmp108, cnt
.L101:
# st_stuff.c:1019:     if (cnt)
	.loc 1 1019 8
	cmpl	$0, -16(%rbp)	#, cnt
	je	.L102	#,
# st_stuff.c:1021: 	palette = (cnt+7)>>3;
	.loc 1 1021 16
	movl	-16(%rbp), %eax	# cnt, tmp109
	addl	$7, %eax	#, _7
# st_stuff.c:1021: 	palette = (cnt+7)>>3;
	.loc 1 1021 10
	sarl	$3, %eax	#, tmp110
	movl	%eax, -20(%rbp)	# tmp110, palette
# st_stuff.c:1023: 	if (palette >= NUMREDPALS)
	.loc 1 1023 5
	cmpl	$7, -20(%rbp)	#, palette
	jle	.L103	#,
# st_stuff.c:1024: 	    palette = NUMREDPALS-1;
	.loc 1 1024 14
	movl	$7, -20(%rbp)	#, palette
.L103:
# st_stuff.c:1026: 	palette += STARTREDPALS;
	.loc 1 1026 10
	addl	$1, -20(%rbp)	#, palette
	jmp	.L104	#
.L102:
# st_stuff.c:1029:     else if (plyr->bonuscount)
	.loc 1 1029 18
	movq	plyr(%rip), %rax	# plyr, plyr.124_8
	movl	236(%rax), %eax	# plyr.124_8->bonuscount, _9
# st_stuff.c:1029:     else if (plyr->bonuscount)
	.loc 1 1029 13
	testl	%eax, %eax	# _9
	je	.L105	#,
# st_stuff.c:1031: 	palette = (plyr->bonuscount+7)>>3;
	.loc 1 1031 17
	movq	plyr(%rip), %rax	# plyr, plyr.125_10
	movl	236(%rax), %eax	# plyr.125_10->bonuscount, _11
# st_stuff.c:1031: 	palette = (plyr->bonuscount+7)>>3;
	.loc 1 1031 29
	addl	$7, %eax	#, _12
# st_stuff.c:1031: 	palette = (plyr->bonuscount+7)>>3;
	.loc 1 1031 10
	sarl	$3, %eax	#, tmp111
	movl	%eax, -20(%rbp)	# tmp111, palette
# st_stuff.c:1033: 	if (palette >= NUMBONUSPALS)
	.loc 1 1033 5
	cmpl	$3, -20(%rbp)	#, palette
	jle	.L106	#,
# st_stuff.c:1034: 	    palette = NUMBONUSPALS-1;
	.loc 1 1034 14
	movl	$3, -20(%rbp)	#, palette
.L106:
# st_stuff.c:1036: 	palette += STARTBONUSPALS;
	.loc 1 1036 10
	addl	$9, -20(%rbp)	#, palette
	jmp	.L104	#
.L105:
# st_stuff.c:1039:     else if ( plyr->powers[pw_ironfeet] > 4*32
	.loc 1 1039 19
	movq	plyr(%rip), %rax	# plyr, plyr.126_13
# st_stuff.c:1039:     else if ( plyr->powers[pw_ironfeet] > 4*32
	.loc 1 1039 27
	movl	60(%rax), %eax	# plyr.126_13->powers[3], _14
# st_stuff.c:1039:     else if ( plyr->powers[pw_ironfeet] > 4*32
	.loc 1 1039 13
	cmpl	$128, %eax	#, _14
	jg	.L107	#,
# st_stuff.c:1040: 	      || plyr->powers[pw_ironfeet]&8)
	.loc 1 1040 15
	movq	plyr(%rip), %rax	# plyr, plyr.127_15
# st_stuff.c:1040: 	      || plyr->powers[pw_ironfeet]&8)
	.loc 1 1040 23
	movl	60(%rax), %eax	# plyr.127_15->powers[3], _16
# st_stuff.c:1040: 	      || plyr->powers[pw_ironfeet]&8)
	.loc 1 1040 36
	andl	$8, %eax	#, _17
# st_stuff.c:1040: 	      || plyr->powers[pw_ironfeet]&8)
	.loc 1 1040 8
	testl	%eax, %eax	# _17
	je	.L108	#,
.L107:
# st_stuff.c:1041: 	palette = RADIATIONPAL;
	.loc 1 1041 10
	movl	$13, -20(%rbp)	#, palette
	jmp	.L104	#
.L108:
# st_stuff.c:1043: 	palette = 0;
	.loc 1 1043 10
	movl	$0, -20(%rbp)	#, palette
.L104:
# st_stuff.c:1045:     if (palette != st_palette)
	.loc 1 1045 17
	movl	st_palette(%rip), %eax	# st_palette, st_palette.128_18
# st_stuff.c:1045:     if (palette != st_palette)
	.loc 1 1045 8
	cmpl	%eax, -20(%rbp)	# st_palette.128_18, palette
	je	.L110	#,
# st_stuff.c:1047: 	st_palette = palette;
	.loc 1 1047 13
	movl	-20(%rbp), %eax	# palette, tmp112
	movl	%eax, st_palette(%rip)	# tmp112, st_palette
# st_stuff.c:1048: 	pal = (byte *) W_CacheLumpNum (lu_palette, PU_CACHE)+palette*768;
	.loc 1 1048 8
	movl	lu_palette(%rip), %eax	# lu_palette, lu_palette.129_19
# st_stuff.c:1048: 	pal = (byte *) W_CacheLumpNum (lu_palette, PU_CACHE)+palette*768;
	.loc 1 1048 17
	movl	$101, %esi	#,
	movl	%eax, %edi	# lu_palette.129_19,
	call	W_CacheLumpNum@PLT	#
	movq	%rax, %rcx	#, _20
# st_stuff.c:1048: 	pal = (byte *) W_CacheLumpNum (lu_palette, PU_CACHE)+palette*768;
	.loc 1 1048 62 discriminator 1
	movl	-20(%rbp), %edx	# palette, tmp113
	movl	%edx, %eax	# tmp113, tmp114
	addl	%eax, %eax	# tmp114
	addl	%edx, %eax	# tmp113, tmp114
	sall	$8, %eax	#, tmp115
	cltq
# st_stuff.c:1048: 	pal = (byte *) W_CacheLumpNum (lu_palette, PU_CACHE)+palette*768;
	.loc 1 1048 6 discriminator 1
	addq	%rcx, %rax	# _20, tmp116
	movq	%rax, -8(%rbp)	# tmp116, pal
# st_stuff.c:1049: 	I_SetPalette (pal);
	.loc 1 1049 2
	movq	-8(%rbp), %rax	# pal, tmp117
	movq	%rax, %rdi	# tmp117,
	call	I_SetPalette@PLT	#
.L110:
# st_stuff.c:1052: }
	.loc 1 1052 1
	nop	
	leave	
	.cfi_def_cfa 7, 8
	ret	
	.cfi_endproc
.LFE6:
	.size	ST_doPaletteStuff, .-ST_doPaletteStuff
	.globl	ST_drawWidgets
	.type	ST_drawWidgets, @function
ST_drawWidgets:
.LFB7:
	.loc 1 1055 1
	.cfi_startproc
	endbr64	
	pushq	%rbp	#
	.cfi_def_cfa_offset 16
	.cfi_offset 6, -16
	movq	%rsp, %rbp	#,
	.cfi_def_cfa_register 6
	subq	$32, %rsp	#,
	movl	%edi, -20(%rbp)	# refresh, refresh
# st_stuff.c:1059:     st_armson = st_statusbaron && !deathmatch;
	.loc 1 1059 17
	movl	st_statusbaron(%rip), %eax	# st_statusbaron, st_statusbaron.131_1
# st_stuff.c:1059:     st_armson = st_statusbaron && !deathmatch;
	.loc 1 1059 32
	testl	%eax, %eax	# st_statusbaron.131_1
	je	.L112	#,
# st_stuff.c:1059:     st_armson = st_statusbaron && !deathmatch;
	.loc 1 1059 35 discriminator 1
	movl	deathmatch(%rip), %eax	# deathmatch, deathmatch.132_2
# st_stuff.c:1059:     st_armson = st_statusbaron && !deathmatch;
	.loc 1 1059 32 discriminator 1
	testl	%eax, %eax	# deathmatch.132_2
	jne	.L112	#,
# st_stuff.c:1059:     st_armson = st_statusbaron && !deathmatch;
	.loc 1 1059 32 is_stmt 0 discriminator 3
	movl	$1, %eax	#, iftmp.130_16
# st_stuff.c:1059:     st_armson = st_statusbaron && !deathmatch;
	.loc 1 1059 32
	jmp	.L113	#
.L112:
# st_stuff.c:1059:     st_armson = st_statusbaron && !deathmatch;
	.loc 1 1059 32 discriminator 4
	movl	$0, %eax	#, iftmp.130_16
.L113:
# st_stuff.c:1059:     st_armson = st_statusbaron && !deathmatch;
	.loc 1 1059 15 is_stmt 1 discriminator 6
	movl	%eax, st_armson(%rip)	# iftmp.133_3, st_armson
# st_stuff.c:1062:     st_fragson = deathmatch && st_statusbaron; 
	.loc 1 1062 18
	movl	deathmatch(%rip), %eax	# deathmatch, deathmatch.135_4
# st_stuff.c:1062:     st_fragson = deathmatch && st_statusbaron; 
	.loc 1 1062 29
	testl	%eax, %eax	# deathmatch.135_4
	je	.L114	#,
# st_stuff.c:1062:     st_fragson = deathmatch && st_statusbaron; 
	.loc 1 1062 29 is_stmt 0 discriminator 1
	movl	st_statusbaron(%rip), %eax	# st_statusbaron, st_statusbaron.136_5
	testl	%eax, %eax	# st_statusbaron.136_5
	je	.L114	#,
# st_stuff.c:1062:     st_fragson = deathmatch && st_statusbaron; 
	.loc 1 1062 29 discriminator 3
	movl	$1, %eax	#, iftmp.134_17
# st_stuff.c:1062:     st_fragson = deathmatch && st_statusbaron; 
	.loc 1 1062 29
	jmp	.L115	#
.L114:
# st_stuff.c:1062:     st_fragson = deathmatch && st_statusbaron; 
	.loc 1 1062 29 discriminator 4
	movl	$0, %eax	#, iftmp.134_17
.L115:
# st_stuff.c:1062:     st_fragson = deathmatch && st_statusbaron; 
	.loc 1 1062 16 is_stmt 1 discriminator 6
	movl	%eax, st_fragson(%rip)	# iftmp.137_6, st_fragson
# st_stuff.c:1064:     STlib_updateNum(&w_ready, refresh);
	.loc 1 1064 5
	movl	-20(%rbp), %eax	# refresh, tmp96
	movl	%eax, %esi	# tmp96,
	leaq	w_ready(%rip), %rax	#, tmp97
	movq	%rax, %rdi	# tmp97,
	call	STlib_updateNum@PLT	#
# st_stuff.c:1066:     for (i=0;i<4;i++)
	.loc 1 1066 11
	movl	$0, -4(%rbp)	#, i
# st_stuff.c:1066:     for (i=0;i<4;i++)
	.loc 1 1066 5
	jmp	.L116	#
.L117:
# st_stuff.c:1068: 	STlib_updateNum(&w_ammo[i], refresh);
	.loc 1 1068 2
	movl	-4(%rbp), %eax	# i, tmp99
	movslq	%eax, %rdx	# tmp99, tmp98
	movq	%rdx, %rax	# tmp98, tmp100
	addq	%rax, %rax	# tmp100
	addq	%rdx, %rax	# tmp98, tmp100
	salq	$4, %rax	#, tmp101
	leaq	w_ammo(%rip), %rdx	#, tmp102
	addq	%rax, %rdx	# tmp100, _7
	movl	-20(%rbp), %eax	# refresh, tmp103
	movl	%eax, %esi	# tmp103,
	movq	%rdx, %rdi	# _7,
	call	STlib_updateNum@PLT	#
# st_stuff.c:1069: 	STlib_updateNum(&w_maxammo[i], refresh);
	.loc 1 1069 2
	movl	-4(%rbp), %eax	# i, tmp105
	movslq	%eax, %rdx	# tmp105, tmp104
	movq	%rdx, %rax	# tmp104, tmp106
	addq	%rax, %rax	# tmp106
	addq	%rdx, %rax	# tmp104, tmp106
	salq	$4, %rax	#, tmp107
	leaq	w_maxammo(%rip), %rdx	#, tmp108
	addq	%rax, %rdx	# tmp106, _8
	movl	-20(%rbp), %eax	# refresh, tmp109
	movl	%eax, %esi	# tmp109,
	movq	%rdx, %rdi	# _8,
	call	STlib_updateNum@PLT	#
# st_stuff.c:1066:     for (i=0;i<4;i++)
	.loc 1 1066 19 discriminator 3
	addl	$1, -4(%rbp)	#, i
.L116:
# st_stuff.c:1066:     for (i=0;i<4;i++)
	.loc 1 1066 15 discriminator 1
	cmpl	$3, -4(%rbp)	#, i
	jle	.L117	#,
# st_stuff.c:1072:     STlib_updatePercent(&w_health, refresh);
	.loc 1 1072 5
	movl	-20(%rbp), %eax	# refresh, refresh.138_9
	movl	%eax, %esi	# refresh.138_9,
	leaq	w_health(%rip), %rax	#, tmp110
	movq	%rax, %rdi	# tmp110,
	call	STlib_updatePercent@PLT	#
# st_stuff.c:1073:     STlib_updatePercent(&w_armor, refresh);
	.loc 1 1073 5
	movl	-20(%rbp), %eax	# refresh, refresh.139_10
	movl	%eax, %esi	# refresh.139_10,
	leaq	w_armor(%rip), %rax	#, tmp111
	movq	%rax, %rdi	# tmp111,
	call	STlib_updatePercent@PLT	#
# st_stuff.c:1075:     STlib_updateBinIcon(&w_armsbg, refresh);
	.loc 1 1075 5
	movl	-20(%rbp), %eax	# refresh, tmp112
	movl	%eax, %esi	# tmp112,
	leaq	w_armsbg(%rip), %rax	#, tmp113
	movq	%rax, %rdi	# tmp113,
	call	STlib_updateBinIcon@PLT	#
# st_stuff.c:1077:     for (i=0;i<6;i++)
	.loc 1 1077 11
	movl	$0, -4(%rbp)	#, i
# st_stuff.c:1077:     for (i=0;i<6;i++)
	.loc 1 1077 5
	jmp	.L118	#
.L119:
# st_stuff.c:1078: 	STlib_updateMultIcon(&w_arms[i], refresh);
	.loc 1 1078 2
	movl	-4(%rbp), %eax	# i, tmp115
	movslq	%eax, %rdx	# tmp115, tmp114
	movq	%rdx, %rax	# tmp114, tmp116
	addq	%rax, %rax	# tmp116
	addq	%rdx, %rax	# tmp114, tmp116
	salq	$4, %rax	#, tmp117
	leaq	w_arms(%rip), %rdx	#, tmp118
	addq	%rax, %rdx	# tmp116, _11
	movl	-20(%rbp), %eax	# refresh, tmp119
	movl	%eax, %esi	# tmp119,
	movq	%rdx, %rdi	# _11,
	call	STlib_updateMultIcon@PLT	#
# st_stuff.c:1077:     for (i=0;i<6;i++)
	.loc 1 1077 19 discriminator 3
	addl	$1, -4(%rbp)	#, i
.L118:
# st_stuff.c:1077:     for (i=0;i<6;i++)
	.loc 1 1077 15 discriminator 1
	cmpl	$5, -4(%rbp)	#, i
	jle	.L119	#,
# st_stuff.c:1080:     STlib_updateMultIcon(&w_faces, refresh);
	.loc 1 1080 5
	movl	-20(%rbp), %eax	# refresh, tmp120
	movl	%eax, %esi	# tmp120,
	leaq	w_faces(%rip), %rax	#, tmp121
	movq	%rax, %rdi	# tmp121,
	call	STlib_updateMultIcon@PLT	#
# st_stuff.c:1082:     for (i=0;i<3;i++)
	.loc 1 1082 11
	movl	$0, -4(%rbp)	#, i
# st_stuff.c:1082:     for (i=0;i<3;i++)
	.loc 1 1082 5
	jmp	.L120	#
.L121:
# st_stuff.c:1083: 	STlib_updateMultIcon(&w_keyboxes[i], refresh);
	.loc 1 1083 2
	movl	-4(%rbp), %eax	# i, tmp123
	movslq	%eax, %rdx	# tmp123, tmp122
	movq	%rdx, %rax	# tmp122, tmp124
	addq	%rax, %rax	# tmp124
	addq	%rdx, %rax	# tmp122, tmp124
	salq	$4, %rax	#, tmp125
	leaq	w_keyboxes(%rip), %rdx	#, tmp126
	addq	%rax, %rdx	# tmp124, _12
	movl	-20(%rbp), %eax	# refresh, tmp127
	movl	%eax, %esi	# tmp127,
	movq	%rdx, %rdi	# _12,
	call	STlib_updateMultIcon@PLT	#
# st_stuff.c:1082:     for (i=0;i<3;i++)
	.loc 1 1082 19 discriminator 3
	addl	$1, -4(%rbp)	#, i
.L120:
# st_stuff.c:1082:     for (i=0;i<3;i++)
	.loc 1 1082 15 discriminator 1
	cmpl	$2, -4(%rbp)	#, i
	jle	.L121	#,
# st_stuff.c:1085:     STlib_updateNum(&w_frags, refresh);
	.loc 1 1085 5
	movl	-20(%rbp), %eax	# refresh, tmp128
	movl	%eax, %esi	# tmp128,
	leaq	w_frags(%rip), %rax	#, tmp129
	movq	%rax, %rdi	# tmp129,
	call	STlib_updateNum@PLT	#
# st_stuff.c:1087: }
	.loc 1 1087 1
	nop	
	leave	
	.cfi_def_cfa 7, 8
	ret	
	.cfi_endproc
.LFE7:
	.size	ST_drawWidgets, .-ST_drawWidgets
	.globl	ST_doRefresh
	.type	ST_doRefresh, @function
ST_doRefresh:
.LFB8:
	.loc 1 1090 1
	.cfi_startproc
	endbr64	
	pushq	%rbp	#
	.cfi_def_cfa_offset 16
	.cfi_offset 6, -16
	movq	%rsp, %rbp	#,
	.cfi_def_cfa_register 6
# st_stuff.c:1092:     st_firsttime = false;
	.loc 1 1092 18
	movl	$0, st_firsttime(%rip)	#, st_firsttime
# st_stuff.c:1095:     ST_refreshBackground();
	.loc 1 1095 5
	call	ST_refreshBackground	#
# st_stuff.c:1098:     ST_drawWidgets(true);
	.loc 1 1098 5
	movl	$1, %edi	#,
	call	ST_drawWidgets	#
# st_stuff.c:1100: }
	.loc 1 1100 1
	nop	
	popq	%rbp	#
	.cfi_def_cfa 7, 8
	ret	
	.cfi_endproc
.LFE8:
	.size	ST_doRefresh, .-ST_doRefresh
	.globl	ST_diffDraw
	.type	ST_diffDraw, @function
ST_diffDraw:
.LFB9:
	.loc 1 1103 1
	.cfi_startproc
	endbr64	
	pushq	%rbp	#
	.cfi_def_cfa_offset 16
	.cfi_offset 6, -16
	movq	%rsp, %rbp	#,
	.cfi_def_cfa_register 6
# st_stuff.c:1105:     ST_drawWidgets(false);
	.loc 1 1105 5
	movl	$0, %edi	#,
	call	ST_drawWidgets	#
# st_stuff.c:1106: }
	.loc 1 1106 1
	nop	
	popq	%rbp	#
	.cfi_def_cfa 7, 8
	ret	
	.cfi_endproc
.LFE9:
	.size	ST_diffDraw, .-ST_diffDraw
	.globl	ST_Drawer
	.type	ST_Drawer, @function
ST_Drawer:
.LFB10:
	.loc 1 1109 1
	.cfi_startproc
	endbr64	
	pushq	%rbp	#
	.cfi_def_cfa_offset 16
	.cfi_offset 6, -16
	movq	%rsp, %rbp	#,
	.cfi_def_cfa_register 6
	subq	$16, %rsp	#,
	movl	%edi, -4(%rbp)	# fullscreen, fullscreen
	movl	%esi, -8(%rbp)	# refresh, refresh
# st_stuff.c:1111:     st_statusbaron = (!fullscreen) || automapactive;
	.loc 1 1111 36
	cmpl	$0, -4(%rbp)	#, fullscreen
	je	.L125	#,
# st_stuff.c:1111:     st_statusbaron = (!fullscreen) || automapactive;
	.loc 1 1111 36 is_stmt 0 discriminator 2
	movl	automapactive(%rip), %eax	# automapactive, automapactive.141_1
	testl	%eax, %eax	# automapactive.141_1
	je	.L126	#,
.L125:
# st_stuff.c:1111:     st_statusbaron = (!fullscreen) || automapactive;
	.loc 1 1111 36 discriminator 3
	movl	$1, %eax	#, iftmp.140_6
# st_stuff.c:1111:     st_statusbaron = (!fullscreen) || automapactive;
	.loc 1 1111 36
	jmp	.L127	#
.L126:
# st_stuff.c:1111:     st_statusbaron = (!fullscreen) || automapactive;
	.loc 1 1111 36 discriminator 4
	movl	$0, %eax	#, iftmp.140_6
.L127:
# st_stuff.c:1111:     st_statusbaron = (!fullscreen) || automapactive;
	.loc 1 1111 20 is_stmt 1 discriminator 6
	movl	%eax, st_statusbaron(%rip)	# iftmp.142_2, st_statusbaron
# st_stuff.c:1112:     st_firsttime = st_firsttime || refresh;
	.loc 1 1112 20
	movl	st_firsttime(%rip), %eax	# st_firsttime, st_firsttime.144_3
# st_stuff.c:1112:     st_firsttime = st_firsttime || refresh;
	.loc 1 1112 33
	testl	%eax, %eax	# st_firsttime.144_3
	jne	.L128	#,
# st_stuff.c:1112:     st_firsttime = st_firsttime || refresh;
	.loc 1 1112 33 is_stmt 0 discriminator 2
	cmpl	$0, -8(%rbp)	#, refresh
	je	.L129	#,
.L128:
# st_stuff.c:1112:     st_firsttime = st_firsttime || refresh;
	.loc 1 1112 33 discriminator 3
	movl	$1, %eax	#, iftmp.143_7
# st_stuff.c:1112:     st_firsttime = st_firsttime || refresh;
	.loc 1 1112 33
	jmp	.L130	#
.L129:
# st_stuff.c:1112:     st_firsttime = st_firsttime || refresh;
	.loc 1 1112 33 discriminator 4
	movl	$0, %eax	#, iftmp.143_7
.L130:
# st_stuff.c:1112:     st_firsttime = st_firsttime || refresh;
	.loc 1 1112 18 is_stmt 1 discriminator 6
	movl	%eax, st_firsttime(%rip)	# iftmp.145_4, st_firsttime
# st_stuff.c:1115:     ST_doPaletteStuff();
	.loc 1 1115 5
	call	ST_doPaletteStuff	#
# st_stuff.c:1118:     if (st_firsttime) ST_doRefresh();
	.loc 1 1118 9
	movl	st_firsttime(%rip), %eax	# st_firsttime, st_firsttime.146_5
# st_stuff.c:1118:     if (st_firsttime) ST_doRefresh();
	.loc 1 1118 8
	testl	%eax, %eax	# st_firsttime.146_5
	je	.L131	#,
# st_stuff.c:1118:     if (st_firsttime) ST_doRefresh();
	.loc 1 1118 23 discriminator 1
	call	ST_doRefresh	#
# st_stuff.c:1122: }
	.loc 1 1122 1
	jmp	.L133	#
.L131:
# st_stuff.c:1120:     else ST_diffDraw();
	.loc 1 1120 10
	call	ST_diffDraw	#
.L133:
# st_stuff.c:1122: }
	.loc 1 1122 1
	nop	
	leave	
	.cfi_def_cfa 7, 8
	ret	
	.cfi_endproc
.LFE10:
	.size	ST_Drawer, .-ST_Drawer
	.section	.rodata
.LC13:
	.string	"STTNUM%d"
.LC14:
	.string	"STYSNUM%d"
.LC15:
	.string	"STTPRCNT"
.LC16:
	.string	"STKEYS%d"
.LC17:
	.string	"STARMS"
.LC18:
	.string	"STGNUM%d"
.LC19:
	.string	"STFB%d"
.LC20:
	.string	"STBAR"
.LC21:
	.string	"STFST%d%d"
.LC22:
	.string	"STFTR%d0"
.LC23:
	.string	"STFTL%d0"
.LC24:
	.string	"STFOUCH%d"
.LC25:
	.string	"STFEVL%d"
.LC26:
	.string	"STFKILL%d"
.LC27:
	.string	"STFGOD0"
.LC28:
	.string	"STFDEAD0"
	.text
	.globl	ST_loadGraphics
	.type	ST_loadGraphics, @function
ST_loadGraphics:
.LFB11:
	.loc 1 1125 1
	.cfi_startproc
	endbr64	
	pushq	%rbp	#
	.cfi_def_cfa_offset 16
	.cfi_offset 6, -16
	movq	%rsp, %rbp	#,
	.cfi_def_cfa_register 6
	pushq	%rbx	#
	subq	$40, %rsp	#,
	.cfi_offset 3, -24
# st_stuff.c:1125: {
	.loc 1 1125 1
	movq	%fs:40, %rax	# MEM[(<address-space-1> long unsigned int *)40B], tmp215
	movq	%rax, -24(%rbp)	# tmp215, D.8226
	xorl	%eax, %eax	# tmp215
# st_stuff.c:1134:     for (i=0;i<10;i++)
	.loc 1 1134 11
	movl	$0, -48(%rbp)	#, i
# st_stuff.c:1134:     for (i=0;i<10;i++)
	.loc 1 1134 5
	jmp	.L135	#
.L136:
# st_stuff.c:1136: 	sprintf(namebuf, "STTNUM%d", i);
	.loc 1 1136 2
	movl	-48(%rbp), %edx	# i, tmp110
	leaq	-33(%rbp), %rax	#, tmp111
	leaq	.LC13(%rip), %rcx	#, tmp112
	movq	%rcx, %rsi	# tmp112,
	movq	%rax, %rdi	# tmp111,
	movl	$0, %eax	#,
	call	sprintf@PLT	#
# st_stuff.c:1137: 	tallnum[i] = (patch_t *) W_CacheLumpName(namebuf, PU_STATIC);
	.loc 1 1137 27
	leaq	-33(%rbp), %rax	#, tmp113
	movl	$1, %esi	#,
	movq	%rax, %rdi	# tmp113,
	call	W_CacheLumpName@PLT	#
# st_stuff.c:1137: 	tallnum[i] = (patch_t *) W_CacheLumpName(namebuf, PU_STATIC);
	.loc 1 1137 13 discriminator 1
	movl	-48(%rbp), %edx	# i, tmp115
	movslq	%edx, %rdx	# tmp115, tmp114
	leaq	0(,%rdx,8), %rcx	#, tmp116
	leaq	tallnum(%rip), %rdx	#, tmp117
	movq	%rax, (%rcx,%rdx)	# _1, tallnum[i_29]
# st_stuff.c:1139: 	sprintf(namebuf, "STYSNUM%d", i);
	.loc 1 1139 2
	movl	-48(%rbp), %edx	# i, tmp118
	leaq	-33(%rbp), %rax	#, tmp119
	leaq	.LC14(%rip), %rcx	#, tmp120
	movq	%rcx, %rsi	# tmp120,
	movq	%rax, %rdi	# tmp119,
	movl	$0, %eax	#,
	call	sprintf@PLT	#
# st_stuff.c:1140: 	shortnum[i] = (patch_t *) W_CacheLumpName(namebuf, PU_STATIC);
	.loc 1 1140 28
	leaq	-33(%rbp), %rax	#, tmp121
	movl	$1, %esi	#,
	movq	%rax, %rdi	# tmp121,
	call	W_CacheLumpName@PLT	#
# st_stuff.c:1140: 	shortnum[i] = (patch_t *) W_CacheLumpName(namebuf, PU_STATIC);
	.loc 1 1140 14 discriminator 1
	movl	-48(%rbp), %edx	# i, tmp123
	movslq	%edx, %rdx	# tmp123, tmp122
	leaq	0(,%rdx,8), %rcx	#, tmp124
	leaq	shortnum(%rip), %rdx	#, tmp125
	movq	%rax, (%rcx,%rdx)	# _2, shortnum[i_29]
# st_stuff.c:1134:     for (i=0;i<10;i++)
	.loc 1 1134 20 discriminator 3
	addl	$1, -48(%rbp)	#, i
.L135:
# st_stuff.c:1134:     for (i=0;i<10;i++)
	.loc 1 1134 15 discriminator 1
	cmpl	$9, -48(%rbp)	#, i
	jle	.L136	#,
# st_stuff.c:1145:     tallpercent = (patch_t *) W_CacheLumpName("STTPRCNT", PU_STATIC);
	.loc 1 1145 31
	movl	$1, %esi	#,
	leaq	.LC15(%rip), %rax	#, tmp126
	movq	%rax, %rdi	# tmp126,
	call	W_CacheLumpName@PLT	#
# st_stuff.c:1145:     tallpercent = (patch_t *) W_CacheLumpName("STTPRCNT", PU_STATIC);
	.loc 1 1145 17 discriminator 1
	movq	%rax, tallpercent(%rip)	# _3, tallpercent
# st_stuff.c:1148:     for (i=0;i<NUMCARDS;i++)
	.loc 1 1148 11
	movl	$0, -48(%rbp)	#, i
# st_stuff.c:1148:     for (i=0;i<NUMCARDS;i++)
	.loc 1 1148 5
	jmp	.L137	#
.L138:
# st_stuff.c:1150: 	sprintf(namebuf, "STKEYS%d", i);
	.loc 1 1150 2
	movl	-48(%rbp), %edx	# i, tmp127
	leaq	-33(%rbp), %rax	#, tmp128
	leaq	.LC16(%rip), %rcx	#, tmp129
	movq	%rcx, %rsi	# tmp129,
	movq	%rax, %rdi	# tmp128,
	movl	$0, %eax	#,
	call	sprintf@PLT	#
# st_stuff.c:1151: 	keys[i] = (patch_t *) W_CacheLumpName(namebuf, PU_STATIC);
	.loc 1 1151 24
	leaq	-33(%rbp), %rax	#, tmp130
	movl	$1, %esi	#,
	movq	%rax, %rdi	# tmp130,
	call	W_CacheLumpName@PLT	#
# st_stuff.c:1151: 	keys[i] = (patch_t *) W_CacheLumpName(namebuf, PU_STATIC);
	.loc 1 1151 10 discriminator 1
	movl	-48(%rbp), %edx	# i, tmp132
	movslq	%edx, %rdx	# tmp132, tmp131
	leaq	0(,%rdx,8), %rcx	#, tmp133
	leaq	keys(%rip), %rdx	#, tmp134
	movq	%rax, (%rcx,%rdx)	# _4, keys[i_30]
# st_stuff.c:1148:     for (i=0;i<NUMCARDS;i++)
	.loc 1 1148 26 discriminator 3
	addl	$1, -48(%rbp)	#, i
.L137:
# st_stuff.c:1148:     for (i=0;i<NUMCARDS;i++)
	.loc 1 1148 15 discriminator 1
	cmpl	$5, -48(%rbp)	#, i
	jle	.L138	#,
# st_stuff.c:1155:     armsbg = (patch_t *) W_CacheLumpName("STARMS", PU_STATIC);
	.loc 1 1155 26
	movl	$1, %esi	#,
	leaq	.LC17(%rip), %rax	#, tmp135
	movq	%rax, %rdi	# tmp135,
	call	W_CacheLumpName@PLT	#
# st_stuff.c:1155:     armsbg = (patch_t *) W_CacheLumpName("STARMS", PU_STATIC);
	.loc 1 1155 12 discriminator 1
	movq	%rax, armsbg(%rip)	# _5, armsbg
# st_stuff.c:1158:     for (i=0;i<6;i++)
	.loc 1 1158 11
	movl	$0, -48(%rbp)	#, i
# st_stuff.c:1158:     for (i=0;i<6;i++)
	.loc 1 1158 5
	jmp	.L139	#
.L140:
# st_stuff.c:1160: 	sprintf(namebuf, "STGNUM%d", i+2);
	.loc 1 1160 2
	movl	-48(%rbp), %eax	# i, tmp136
	leal	2(%rax), %edx	#, _6
	leaq	-33(%rbp), %rax	#, tmp137
	leaq	.LC18(%rip), %rcx	#, tmp138
	movq	%rcx, %rsi	# tmp138,
	movq	%rax, %rdi	# tmp137,
	movl	$0, %eax	#,
	call	sprintf@PLT	#
# st_stuff.c:1163: 	arms[i][0] = (patch_t *) W_CacheLumpName(namebuf, PU_STATIC);
	.loc 1 1163 27
	leaq	-33(%rbp), %rax	#, tmp139
	movl	$1, %esi	#,
	movq	%rax, %rdi	# tmp139,
	call	W_CacheLumpName@PLT	#
# st_stuff.c:1163: 	arms[i][0] = (patch_t *) W_CacheLumpName(namebuf, PU_STATIC);
	.loc 1 1163 13 discriminator 1
	movl	-48(%rbp), %edx	# i, tmp141
	movslq	%edx, %rdx	# tmp141, tmp140
	movq	%rdx, %rcx	# tmp140, tmp140
	salq	$4, %rcx	#, tmp140
	leaq	arms(%rip), %rdx	#, tmp143
	movq	%rax, (%rcx,%rdx)	# _7, arms[i_31][0]
# st_stuff.c:1166: 	arms[i][1] = shortnum[i+2]; 
	.loc 1 1166 25
	movl	-48(%rbp), %eax	# i, tmp144
	addl	$2, %eax	#, _8
# st_stuff.c:1166: 	arms[i][1] = shortnum[i+2]; 
	.loc 1 1166 23
	cltq
	leaq	0(,%rax,8), %rdx	#, tmp146
	leaq	shortnum(%rip), %rax	#, tmp147
	movq	(%rdx,%rax), %rax	# shortnum[_8], _9
# st_stuff.c:1166: 	arms[i][1] = shortnum[i+2]; 
	.loc 1 1166 13
	movl	-48(%rbp), %edx	# i, tmp149
	movslq	%edx, %rdx	# tmp149, tmp148
	movq	%rdx, %rcx	# tmp148, tmp148
	salq	$4, %rcx	#, tmp148
	leaq	8+arms(%rip), %rdx	#, tmp151
	movq	%rax, (%rcx,%rdx)	# _9, arms[i_31][1]
# st_stuff.c:1158:     for (i=0;i<6;i++)
	.loc 1 1158 19 discriminator 3
	addl	$1, -48(%rbp)	#, i
.L139:
# st_stuff.c:1158:     for (i=0;i<6;i++)
	.loc 1 1158 15 discriminator 1
	cmpl	$5, -48(%rbp)	#, i
	jle	.L140	#,
# st_stuff.c:1170:     sprintf(namebuf, "STFB%d", consoleplayer);
	.loc 1 1170 5
	movl	consoleplayer(%rip), %edx	# consoleplayer, consoleplayer.147_10
	leaq	-33(%rbp), %rax	#, tmp152
	leaq	.LC19(%rip), %rcx	#, tmp153
	movq	%rcx, %rsi	# tmp153,
	movq	%rax, %rdi	# tmp152,
	movl	$0, %eax	#,
	call	sprintf@PLT	#
# st_stuff.c:1171:     faceback = (patch_t *) W_CacheLumpName(namebuf, PU_STATIC);
	.loc 1 1171 28
	leaq	-33(%rbp), %rax	#, tmp154
	movl	$1, %esi	#,
	movq	%rax, %rdi	# tmp154,
	call	W_CacheLumpName@PLT	#
# st_stuff.c:1171:     faceback = (patch_t *) W_CacheLumpName(namebuf, PU_STATIC);
	.loc 1 1171 14 discriminator 1
	movq	%rax, faceback(%rip)	# _11, faceback
# st_stuff.c:1174:     sbar = (patch_t *) W_CacheLumpName("STBAR", PU_STATIC);
	.loc 1 1174 24
	movl	$1, %esi	#,
	leaq	.LC20(%rip), %rax	#, tmp155
	movq	%rax, %rdi	# tmp155,
	call	W_CacheLumpName@PLT	#
# st_stuff.c:1174:     sbar = (patch_t *) W_CacheLumpName("STBAR", PU_STATIC);
	.loc 1 1174 10 discriminator 1
	movq	%rax, sbar(%rip)	# _12, sbar
# st_stuff.c:1177:     facenum = 0;
	.loc 1 1177 13
	movl	$0, -40(%rbp)	#, facenum
# st_stuff.c:1178:     for (i=0;i<ST_NUMPAINFACES;i++)
	.loc 1 1178 11
	movl	$0, -48(%rbp)	#, i
# st_stuff.c:1178:     for (i=0;i<ST_NUMPAINFACES;i++)
	.loc 1 1178 5
	jmp	.L141	#
.L144:
# st_stuff.c:1180: 	for (j=0;j<ST_NUMSTRAIGHTFACES;j++)
	.loc 1 1180 8
	movl	$0, -44(%rbp)	#, j
# st_stuff.c:1180: 	for (j=0;j<ST_NUMSTRAIGHTFACES;j++)
	.loc 1 1180 2
	jmp	.L142	#
.L143:
# st_stuff.c:1182: 	    sprintf(namebuf, "STFST%d%d", i, j);
	.loc 1 1182 6
	movl	-44(%rbp), %ecx	# j, tmp156
	movl	-48(%rbp), %edx	# i, tmp157
	leaq	-33(%rbp), %rax	#, tmp158
	leaq	.LC21(%rip), %rsi	#, tmp159
	movq	%rax, %rdi	# tmp158,
	movl	$0, %eax	#,
	call	sprintf@PLT	#
# st_stuff.c:1183: 	    faces[facenum++] = W_CacheLumpName(namebuf, PU_STATIC);
	.loc 1 1183 19
	movl	-40(%rbp), %ebx	# facenum, facenum.148_13
	leal	1(%rbx), %eax	#, tmp160
	movl	%eax, -40(%rbp)	# tmp160, facenum
# st_stuff.c:1183: 	    faces[facenum++] = W_CacheLumpName(namebuf, PU_STATIC);
	.loc 1 1183 25
	leaq	-33(%rbp), %rax	#, tmp161
	movl	$1, %esi	#,
	movq	%rax, %rdi	# tmp161,
	call	W_CacheLumpName@PLT	#
# st_stuff.c:1183: 	    faces[facenum++] = W_CacheLumpName(namebuf, PU_STATIC);
	.loc 1 1183 23 discriminator 1
	movslq	%ebx, %rdx	# facenum.148_13, tmp162
	leaq	0(,%rdx,8), %rcx	#, tmp163
	leaq	faces(%rip), %rdx	#, tmp164
	movq	%rax, (%rcx,%rdx)	# _14, faces[facenum.148_13]
# st_stuff.c:1180: 	for (j=0;j<ST_NUMSTRAIGHTFACES;j++)
	.loc 1 1180 34 discriminator 3
	addl	$1, -44(%rbp)	#, j
.L142:
# st_stuff.c:1180: 	for (j=0;j<ST_NUMSTRAIGHTFACES;j++)
	.loc 1 1180 12 discriminator 1
	cmpl	$2, -44(%rbp)	#, j
	jle	.L143	#,
# st_stuff.c:1185: 	sprintf(namebuf, "STFTR%d0", i);	// turn right
	.loc 1 1185 2
	movl	-48(%rbp), %edx	# i, tmp165
	leaq	-33(%rbp), %rax	#, tmp166
	leaq	.LC22(%rip), %rcx	#, tmp167
	movq	%rcx, %rsi	# tmp167,
	movq	%rax, %rdi	# tmp166,
	movl	$0, %eax	#,
	call	sprintf@PLT	#
# st_stuff.c:1186: 	faces[facenum++] = W_CacheLumpName(namebuf, PU_STATIC);
	.loc 1 1186 15
	movl	-40(%rbp), %ebx	# facenum, facenum.149_15
	leal	1(%rbx), %eax	#, tmp168
	movl	%eax, -40(%rbp)	# tmp168, facenum
# st_stuff.c:1186: 	faces[facenum++] = W_CacheLumpName(namebuf, PU_STATIC);
	.loc 1 1186 21
	leaq	-33(%rbp), %rax	#, tmp169
	movl	$1, %esi	#,
	movq	%rax, %rdi	# tmp169,
	call	W_CacheLumpName@PLT	#
# st_stuff.c:1186: 	faces[facenum++] = W_CacheLumpName(namebuf, PU_STATIC);
	.loc 1 1186 19 discriminator 1
	movslq	%ebx, %rdx	# facenum.149_15, tmp170
	leaq	0(,%rdx,8), %rcx	#, tmp171
	leaq	faces(%rip), %rdx	#, tmp172
	movq	%rax, (%rcx,%rdx)	# _16, faces[facenum.149_15]
# st_stuff.c:1187: 	sprintf(namebuf, "STFTL%d0", i);	// turn left
	.loc 1 1187 2
	movl	-48(%rbp), %edx	# i, tmp173
	leaq	-33(%rbp), %rax	#, tmp174
	leaq	.LC23(%rip), %rcx	#, tmp175
	movq	%rcx, %rsi	# tmp175,
	movq	%rax, %rdi	# tmp174,
	movl	$0, %eax	#,
	call	sprintf@PLT	#
# st_stuff.c:1188: 	faces[facenum++] = W_CacheLumpName(namebuf, PU_STATIC);
	.loc 1 1188 15
	movl	-40(%rbp), %ebx	# facenum, facenum.150_17
	leal	1(%rbx), %eax	#, tmp176
	movl	%eax, -40(%rbp)	# tmp176, facenum
# st_stuff.c:1188: 	faces[facenum++] = W_CacheLumpName(namebuf, PU_STATIC);
	.loc 1 1188 21
	leaq	-33(%rbp), %rax	#, tmp177
	movl	$1, %esi	#,
	movq	%rax, %rdi	# tmp177,
	call	W_CacheLumpName@PLT	#
# st_stuff.c:1188: 	faces[facenum++] = W_CacheLumpName(namebuf, PU_STATIC);
	.loc 1 1188 19 discriminator 1
	movslq	%ebx, %rdx	# facenum.150_17, tmp178
	leaq	0(,%rdx,8), %rcx	#, tmp179
	leaq	faces(%rip), %rdx	#, tmp180
	movq	%rax, (%rcx,%rdx)	# _18, faces[facenum.150_17]
# st_stuff.c:1189: 	sprintf(namebuf, "STFOUCH%d", i);	// ouch!
	.loc 1 1189 2
	movl	-48(%rbp), %edx	# i, tmp181
	leaq	-33(%rbp), %rax	#, tmp182
	leaq	.LC24(%rip), %rcx	#, tmp183
	movq	%rcx, %rsi	# tmp183,
	movq	%rax, %rdi	# tmp182,
	movl	$0, %eax	#,
	call	sprintf@PLT	#
# st_stuff.c:1190: 	faces[facenum++] = W_CacheLumpName(namebuf, PU_STATIC);
	.loc 1 1190 15
	movl	-40(%rbp), %ebx	# facenum, facenum.151_19
	leal	1(%rbx), %eax	#, tmp184
	movl	%eax, -40(%rbp)	# tmp184, facenum
# st_stuff.c:1190: 	faces[facenum++] = W_CacheLumpName(namebuf, PU_STATIC);
	.loc 1 1190 21
	leaq	-33(%rbp), %rax	#, tmp185
	movl	$1, %esi	#,
	movq	%rax, %rdi	# tmp185,
	call	W_CacheLumpName@PLT	#
# st_stuff.c:1190: 	faces[facenum++] = W_CacheLumpName(namebuf, PU_STATIC);
	.loc 1 1190 19 discriminator 1
	movslq	%ebx, %rdx	# facenum.151_19, tmp186
	leaq	0(,%rdx,8), %rcx	#, tmp187
	leaq	faces(%rip), %rdx	#, tmp188
	movq	%rax, (%rcx,%rdx)	# _20, faces[facenum.151_19]
# st_stuff.c:1191: 	sprintf(namebuf, "STFEVL%d", i);	// evil grin ;)
	.loc 1 1191 2
	movl	-48(%rbp), %edx	# i, tmp189
	leaq	-33(%rbp), %rax	#, tmp190
	leaq	.LC25(%rip), %rcx	#, tmp191
	movq	%rcx, %rsi	# tmp191,
	movq	%rax, %rdi	# tmp190,
	movl	$0, %eax	#,
	call	sprintf@PLT	#
# st_stuff.c:1192: 	faces[facenum++] = W_CacheLumpName(namebuf, PU_STATIC);
	.loc 1 1192 15
	movl	-40(%rbp), %ebx	# facenum, facenum.152_21
	leal	1(%rbx), %eax	#, tmp192
	movl	%eax, -40(%rbp)	# tmp192, facenum
# st_stuff.c:1192: 	faces[facenum++] = W_CacheLumpName(namebuf, PU_STATIC);
	.loc 1 1192 21
	leaq	-33(%rbp), %rax	#, tmp193
	movl	$1, %esi	#,
	movq	%rax, %rdi	# tmp193,
	call	W_CacheLumpName@PLT	#
# st_stuff.c:1192: 	faces[facenum++] = W_CacheLumpName(namebuf, PU_STATIC);
	.loc 1 1192 19 discriminator 1
	movslq	%ebx, %rdx	# facenum.152_21, tmp194
	leaq	0(,%rdx,8), %rcx	#, tmp195
	leaq	faces(%rip), %rdx	#, tmp196
	movq	%rax, (%rcx,%rdx)	# _22, faces[facenum.152_21]
# st_stuff.c:1193: 	sprintf(namebuf, "STFKILL%d", i);	// pissed off
	.loc 1 1193 2
	movl	-48(%rbp), %edx	# i, tmp197
	leaq	-33(%rbp), %rax	#, tmp198
	leaq	.LC26(%rip), %rcx	#, tmp199
	movq	%rcx, %rsi	# tmp199,
	movq	%rax, %rdi	# tmp198,
	movl	$0, %eax	#,
	call	sprintf@PLT	#
# st_stuff.c:1194: 	faces[facenum++] = W_CacheLumpName(namebuf, PU_STATIC);
	.loc 1 1194 15
	movl	-40(%rbp), %ebx	# facenum, facenum.153_23
	leal	1(%rbx), %eax	#, tmp200
	movl	%eax, -40(%rbp)	# tmp200, facenum
# st_stuff.c:1194: 	faces[facenum++] = W_CacheLumpName(namebuf, PU_STATIC);
	.loc 1 1194 21
	leaq	-33(%rbp), %rax	#, tmp201
	movl	$1, %esi	#,
	movq	%rax, %rdi	# tmp201,
	call	W_CacheLumpName@PLT	#
# st_stuff.c:1194: 	faces[facenum++] = W_CacheLumpName(namebuf, PU_STATIC);
	.loc 1 1194 19 discriminator 1
	movslq	%ebx, %rdx	# facenum.153_23, tmp202
	leaq	0(,%rdx,8), %rcx	#, tmp203
	leaq	faces(%rip), %rdx	#, tmp204
	movq	%rax, (%rcx,%rdx)	# _24, faces[facenum.153_23]
# st_stuff.c:1178:     for (i=0;i<ST_NUMPAINFACES;i++)
	.loc 1 1178 33 discriminator 2
	addl	$1, -48(%rbp)	#, i
.L141:
# st_stuff.c:1178:     for (i=0;i<ST_NUMPAINFACES;i++)
	.loc 1 1178 15 discriminator 1
	cmpl	$4, -48(%rbp)	#, i
	jle	.L144	#,
# st_stuff.c:1196:     faces[facenum++] = W_CacheLumpName("STFGOD0", PU_STATIC);
	.loc 1 1196 18
	movl	-40(%rbp), %ebx	# facenum, facenum.154_25
	leal	1(%rbx), %eax	#, tmp205
	movl	%eax, -40(%rbp)	# tmp205, facenum
# st_stuff.c:1196:     faces[facenum++] = W_CacheLumpName("STFGOD0", PU_STATIC);
	.loc 1 1196 24
	movl	$1, %esi	#,
	leaq	.LC27(%rip), %rax	#, tmp206
	movq	%rax, %rdi	# tmp206,
	call	W_CacheLumpName@PLT	#
# st_stuff.c:1196:     faces[facenum++] = W_CacheLumpName("STFGOD0", PU_STATIC);
	.loc 1 1196 22 discriminator 1
	movslq	%ebx, %rdx	# facenum.154_25, tmp207
	leaq	0(,%rdx,8), %rcx	#, tmp208
	leaq	faces(%rip), %rdx	#, tmp209
	movq	%rax, (%rcx,%rdx)	# _26, faces[facenum.154_25]
# st_stuff.c:1197:     faces[facenum++] = W_CacheLumpName("STFDEAD0", PU_STATIC);
	.loc 1 1197 18
	movl	-40(%rbp), %ebx	# facenum, facenum.155_27
	leal	1(%rbx), %eax	#, tmp210
	movl	%eax, -40(%rbp)	# tmp210, facenum
# st_stuff.c:1197:     faces[facenum++] = W_CacheLumpName("STFDEAD0", PU_STATIC);
	.loc 1 1197 24
	movl	$1, %esi	#,
	leaq	.LC28(%rip), %rax	#, tmp211
	movq	%rax, %rdi	# tmp211,
	call	W_CacheLumpName@PLT	#
# st_stuff.c:1197:     faces[facenum++] = W_CacheLumpName("STFDEAD0", PU_STATIC);
	.loc 1 1197 22 discriminator 1
	movslq	%ebx, %rdx	# facenum.155_27, tmp212
	leaq	0(,%rdx,8), %rcx	#, tmp213
	leaq	faces(%rip), %rdx	#, tmp214
	movq	%rax, (%rcx,%rdx)	# _28, faces[facenum.155_27]
# st_stuff.c:1199: }
	.loc 1 1199 1
	nop	
	movq	-24(%rbp), %rax	# D.8226, tmp216
	subq	%fs:40, %rax	# MEM[(<address-space-1> long unsigned int *)40B], tmp216
	je	.L145	#,
	call	__stack_chk_fail@PLT	#
.L145:
	movq	-8(%rbp), %rbx	#,
	leave	
	.cfi_def_cfa 7, 8
	ret	
	.cfi_endproc
.LFE11:
	.size	ST_loadGraphics, .-ST_loadGraphics
	.section	.rodata
.LC29:
	.string	"PLAYPAL"
	.text
	.globl	ST_loadData
	.type	ST_loadData, @function
ST_loadData:
.LFB12:
	.loc 1 1202 1
	.cfi_startproc
	endbr64	
	pushq	%rbp	#
	.cfi_def_cfa_offset 16
	.cfi_offset 6, -16
	movq	%rsp, %rbp	#,
	.cfi_def_cfa_register 6
# st_stuff.c:1203:     lu_palette = W_GetNumForName ("PLAYPAL");
	.loc 1 1203 18
	leaq	.LC29(%rip), %rax	#, tmp83
	movq	%rax, %rdi	# tmp83,
	call	W_GetNumForName@PLT	#
# st_stuff.c:1203:     lu_palette = W_GetNumForName ("PLAYPAL");
	.loc 1 1203 16 discriminator 1
	movl	%eax, lu_palette(%rip)	# _1, lu_palette
# st_stuff.c:1204:     ST_loadGraphics();
	.loc 1 1204 5
	call	ST_loadGraphics	#
# st_stuff.c:1205: }
	.loc 1 1205 1
	nop	
	popq	%rbp	#
	.cfi_def_cfa 7, 8
	ret	
	.cfi_endproc
.LFE12:
	.size	ST_loadData, .-ST_loadData
	.section	.rodata
.LC30:
	.string	"Z_CT at st_stuff.c:%i"
	.text
	.globl	ST_unloadGraphics
	.type	ST_unloadGraphics, @function
ST_unloadGraphics:
.LFB13:
	.loc 1 1208 1
	.cfi_startproc
	endbr64	
	pushq	%rbp	#
	.cfi_def_cfa_offset 16
	.cfi_offset 6, -16
	movq	%rsp, %rbp	#,
	.cfi_def_cfa_register 6
	subq	$16, %rsp	#,
# st_stuff.c:1213:     for (i=0;i<10;i++)
	.loc 1 1213 11
	movl	$0, -4(%rbp)	#, i
# st_stuff.c:1213:     for (i=0;i<10;i++)
	.loc 1 1213 5
	jmp	.L148	#
.L151:
# st_stuff.c:1215: 	Z_ChangeTag(tallnum[i], PU_CACHE);
	.loc 1 1215 2
	movl	-4(%rbp), %eax	# i, tmp119
	cltq
	leaq	0(,%rax,8), %rdx	#, tmp120
	leaq	tallnum(%rip), %rax	#, tmp121
	movq	(%rdx,%rax), %rax	# tallnum[i_37], _1
	subq	$40, %rax	#, _2
	movl	20(%rax), %eax	# _2->id, _3
	cmpl	$1919505, %eax	#, _3
	je	.L149	#,
# st_stuff.c:1215: 	Z_ChangeTag(tallnum[i], PU_CACHE);
	.loc 1 1215 2 is_stmt 0 discriminator 1
	movl	$1215, %esi	#,
	leaq	.LC30(%rip), %rax	#, tmp122
	movq	%rax, %rdi	# tmp122,
	movl	$0, %eax	#,
	call	I_Error@PLT	#
.L149:
# st_stuff.c:1215: 	Z_ChangeTag(tallnum[i], PU_CACHE);
	.loc 1 1215 2 discriminator 3
	movl	-4(%rbp), %eax	# i, tmp124
	cltq
	leaq	0(,%rax,8), %rdx	#, tmp125
	leaq	tallnum(%rip), %rax	#, tmp126
	movq	(%rdx,%rax), %rax	# tallnum[i_37], _4
	movl	$101, %esi	#,
	movq	%rax, %rdi	# _4,
	call	Z_ChangeTag2@PLT	#
# st_stuff.c:1216: 	Z_ChangeTag(shortnum[i], PU_CACHE);
	.loc 1 1216 2 is_stmt 1
	movl	-4(%rbp), %eax	# i, tmp128
	cltq
	leaq	0(,%rax,8), %rdx	#, tmp129
	leaq	shortnum(%rip), %rax	#, tmp130
	movq	(%rdx,%rax), %rax	# shortnum[i_37], _5
	subq	$40, %rax	#, _6
	movl	20(%rax), %eax	# _6->id, _7
	cmpl	$1919505, %eax	#, _7
	je	.L150	#,
# st_stuff.c:1216: 	Z_ChangeTag(shortnum[i], PU_CACHE);
	.loc 1 1216 2 is_stmt 0 discriminator 1
	movl	$1216, %esi	#,
	leaq	.LC30(%rip), %rax	#, tmp131
	movq	%rax, %rdi	# tmp131,
	movl	$0, %eax	#,
	call	I_Error@PLT	#
.L150:
# st_stuff.c:1216: 	Z_ChangeTag(shortnum[i], PU_CACHE);
	.loc 1 1216 2 discriminator 3
	movl	-4(%rbp), %eax	# i, tmp133
	cltq
	leaq	0(,%rax,8), %rdx	#, tmp134
	leaq	shortnum(%rip), %rax	#, tmp135
	movq	(%rdx,%rax), %rax	# shortnum[i_37], _8
	movl	$101, %esi	#,
	movq	%rax, %rdi	# _8,
	call	Z_ChangeTag2@PLT	#
# st_stuff.c:1213:     for (i=0;i<10;i++)
	.loc 1 1213 20 is_stmt 1 discriminator 2
	addl	$1, -4(%rbp)	#, i
.L148:
# st_stuff.c:1213:     for (i=0;i<10;i++)
	.loc 1 1213 15 discriminator 1
	cmpl	$9, -4(%rbp)	#, i
	jle	.L151	#,
# st_stuff.c:1219:     Z_ChangeTag(tallpercent, PU_CACHE); 
	.loc 1 1219 5
	movq	tallpercent(%rip), %rax	# tallpercent, tallpercent.156_9
	subq	$40, %rax	#, _10
	movl	20(%rax), %eax	# _10->id, _11
	cmpl	$1919505, %eax	#, _11
	je	.L152	#,
# st_stuff.c:1219:     Z_ChangeTag(tallpercent, PU_CACHE); 
	.loc 1 1219 5 is_stmt 0 discriminator 1
	movl	$1219, %esi	#,
	leaq	.LC30(%rip), %rax	#, tmp136
	movq	%rax, %rdi	# tmp136,
	movl	$0, %eax	#,
	call	I_Error@PLT	#
.L152:
# st_stuff.c:1219:     Z_ChangeTag(tallpercent, PU_CACHE); 
	.loc 1 1219 5 discriminator 3
	movq	tallpercent(%rip), %rax	# tallpercent, tallpercent.157_12
	movl	$101, %esi	#,
	movq	%rax, %rdi	# tallpercent.157_12,
	call	Z_ChangeTag2@PLT	#
# st_stuff.c:1222:     Z_ChangeTag(armsbg, PU_CACHE); 
	.loc 1 1222 5 is_stmt 1
	movq	armsbg(%rip), %rax	# armsbg, armsbg.158_13
	subq	$40, %rax	#, _14
	movl	20(%rax), %eax	# _14->id, _15
	cmpl	$1919505, %eax	#, _15
	je	.L153	#,
# st_stuff.c:1222:     Z_ChangeTag(armsbg, PU_CACHE); 
	.loc 1 1222 5 is_stmt 0 discriminator 1
	movl	$1222, %esi	#,
	leaq	.LC30(%rip), %rax	#, tmp137
	movq	%rax, %rdi	# tmp137,
	movl	$0, %eax	#,
	call	I_Error@PLT	#
.L153:
# st_stuff.c:1222:     Z_ChangeTag(armsbg, PU_CACHE); 
	.loc 1 1222 5 discriminator 3
	movq	armsbg(%rip), %rax	# armsbg, armsbg.159_16
	movl	$101, %esi	#,
	movq	%rax, %rdi	# armsbg.159_16,
	call	Z_ChangeTag2@PLT	#
# st_stuff.c:1225:     for (i=0;i<6;i++)
	.loc 1 1225 11 is_stmt 1
	movl	$0, -4(%rbp)	#, i
# st_stuff.c:1225:     for (i=0;i<6;i++)
	.loc 1 1225 5
	jmp	.L154	#
.L156:
# st_stuff.c:1226: 	Z_ChangeTag(arms[i][0], PU_CACHE);
	.loc 1 1226 2
	movl	-4(%rbp), %eax	# i, tmp139
	cltq
	salq	$4, %rax	#, tmp138
	movq	%rax, %rdx	# tmp138, tmp140
	leaq	arms(%rip), %rax	#, tmp141
	movq	(%rdx,%rax), %rax	# arms[i_38][0], _17
	subq	$40, %rax	#, _18
	movl	20(%rax), %eax	# _18->id, _19
	cmpl	$1919505, %eax	#, _19
	je	.L155	#,
# st_stuff.c:1226: 	Z_ChangeTag(arms[i][0], PU_CACHE);
	.loc 1 1226 2 is_stmt 0 discriminator 1
	movl	$1226, %esi	#,
	leaq	.LC30(%rip), %rax	#, tmp142
	movq	%rax, %rdi	# tmp142,
	movl	$0, %eax	#,
	call	I_Error@PLT	#
.L155:
# st_stuff.c:1226: 	Z_ChangeTag(arms[i][0], PU_CACHE);
	.loc 1 1226 2 discriminator 3
	movl	-4(%rbp), %eax	# i, tmp144
	cltq
	salq	$4, %rax	#, tmp143
	movq	%rax, %rdx	# tmp143, tmp145
	leaq	arms(%rip), %rax	#, tmp146
	movq	(%rdx,%rax), %rax	# arms[i_38][0], _20
	movl	$101, %esi	#,
	movq	%rax, %rdi	# _20,
	call	Z_ChangeTag2@PLT	#
# st_stuff.c:1225:     for (i=0;i<6;i++)
	.loc 1 1225 19 is_stmt 1 discriminator 2
	addl	$1, -4(%rbp)	#, i
.L154:
# st_stuff.c:1225:     for (i=0;i<6;i++)
	.loc 1 1225 15 discriminator 1
	cmpl	$5, -4(%rbp)	#, i
	jle	.L156	#,
# st_stuff.c:1229:     for (i=0;i<NUMCARDS;i++)
	.loc 1 1229 11
	movl	$0, -4(%rbp)	#, i
# st_stuff.c:1229:     for (i=0;i<NUMCARDS;i++)
	.loc 1 1229 5
	jmp	.L157	#
.L159:
# st_stuff.c:1230: 	Z_ChangeTag(keys[i], PU_CACHE);
	.loc 1 1230 2
	movl	-4(%rbp), %eax	# i, tmp148
	cltq
	leaq	0(,%rax,8), %rdx	#, tmp149
	leaq	keys(%rip), %rax	#, tmp150
	movq	(%rdx,%rax), %rax	# keys[i_39], _21
	subq	$40, %rax	#, _22
	movl	20(%rax), %eax	# _22->id, _23
	cmpl	$1919505, %eax	#, _23
	je	.L158	#,
# st_stuff.c:1230: 	Z_ChangeTag(keys[i], PU_CACHE);
	.loc 1 1230 2 is_stmt 0 discriminator 1
	movl	$1230, %esi	#,
	leaq	.LC30(%rip), %rax	#, tmp151
	movq	%rax, %rdi	# tmp151,
	movl	$0, %eax	#,
	call	I_Error@PLT	#
.L158:
# st_stuff.c:1230: 	Z_ChangeTag(keys[i], PU_CACHE);
	.loc 1 1230 2 discriminator 3
	movl	-4(%rbp), %eax	# i, tmp153
	cltq
	leaq	0(,%rax,8), %rdx	#, tmp154
	leaq	keys(%rip), %rax	#, tmp155
	movq	(%rdx,%rax), %rax	# keys[i_39], _24
	movl	$101, %esi	#,
	movq	%rax, %rdi	# _24,
	call	Z_ChangeTag2@PLT	#
# st_stuff.c:1229:     for (i=0;i<NUMCARDS;i++)
	.loc 1 1229 26 is_stmt 1 discriminator 2
	addl	$1, -4(%rbp)	#, i
.L157:
# st_stuff.c:1229:     for (i=0;i<NUMCARDS;i++)
	.loc 1 1229 15 discriminator 1
	cmpl	$5, -4(%rbp)	#, i
	jle	.L159	#,
# st_stuff.c:1232:     Z_ChangeTag(sbar, PU_CACHE);
	.loc 1 1232 5
	movq	sbar(%rip), %rax	# sbar, sbar.160_25
	subq	$40, %rax	#, _26
	movl	20(%rax), %eax	# _26->id, _27
	cmpl	$1919505, %eax	#, _27
	je	.L160	#,
# st_stuff.c:1232:     Z_ChangeTag(sbar, PU_CACHE);
	.loc 1 1232 5 is_stmt 0 discriminator 1
	movl	$1232, %esi	#,
	leaq	.LC30(%rip), %rax	#, tmp156
	movq	%rax, %rdi	# tmp156,
	movl	$0, %eax	#,
	call	I_Error@PLT	#
.L160:
# st_stuff.c:1232:     Z_ChangeTag(sbar, PU_CACHE);
	.loc 1 1232 5 discriminator 3
	movq	sbar(%rip), %rax	# sbar, sbar.161_28
	movl	$101, %esi	#,
	movq	%rax, %rdi	# sbar.161_28,
	call	Z_ChangeTag2@PLT	#
# st_stuff.c:1233:     Z_ChangeTag(faceback, PU_CACHE);
	.loc 1 1233 5 is_stmt 1
	movq	faceback(%rip), %rax	# faceback, faceback.162_29
	subq	$40, %rax	#, _30
	movl	20(%rax), %eax	# _30->id, _31
	cmpl	$1919505, %eax	#, _31
	je	.L161	#,
# st_stuff.c:1233:     Z_ChangeTag(faceback, PU_CACHE);
	.loc 1 1233 5 is_stmt 0 discriminator 1
	movl	$1233, %esi	#,
	leaq	.LC30(%rip), %rax	#, tmp157
	movq	%rax, %rdi	# tmp157,
	movl	$0, %eax	#,
	call	I_Error@PLT	#
.L161:
# st_stuff.c:1233:     Z_ChangeTag(faceback, PU_CACHE);
	.loc 1 1233 5 discriminator 3
	movq	faceback(%rip), %rax	# faceback, faceback.163_32
	movl	$101, %esi	#,
	movq	%rax, %rdi	# faceback.163_32,
	call	Z_ChangeTag2@PLT	#
# st_stuff.c:1235:     for (i=0;i<ST_NUMFACES;i++)
	.loc 1 1235 11 is_stmt 1
	movl	$0, -4(%rbp)	#, i
# st_stuff.c:1235:     for (i=0;i<ST_NUMFACES;i++)
	.loc 1 1235 5
	jmp	.L162	#
.L164:
# st_stuff.c:1236: 	Z_ChangeTag(faces[i], PU_CACHE);
	.loc 1 1236 2
	movl	-4(%rbp), %eax	# i, tmp159
	cltq
	leaq	0(,%rax,8), %rdx	#, tmp160
	leaq	faces(%rip), %rax	#, tmp161
	movq	(%rdx,%rax), %rax	# faces[i_40], _33
	subq	$40, %rax	#, _34
	movl	20(%rax), %eax	# _34->id, _35
	cmpl	$1919505, %eax	#, _35
	je	.L163	#,
# st_stuff.c:1236: 	Z_ChangeTag(faces[i], PU_CACHE);
	.loc 1 1236 2 is_stmt 0 discriminator 1
	movl	$1236, %esi	#,
	leaq	.LC30(%rip), %rax	#, tmp162
	movq	%rax, %rdi	# tmp162,
	movl	$0, %eax	#,
	call	I_Error@PLT	#
.L163:
# st_stuff.c:1236: 	Z_ChangeTag(faces[i], PU_CACHE);
	.loc 1 1236 2 discriminator 3
	movl	-4(%rbp), %eax	# i, tmp164
	cltq
	leaq	0(,%rax,8), %rdx	#, tmp165
	leaq	faces(%rip), %rax	#, tmp166
	movq	(%rdx,%rax), %rax	# faces[i_40], _36
	movl	$101, %esi	#,
	movq	%rax, %rdi	# _36,
	call	Z_ChangeTag2@PLT	#
# st_stuff.c:1235:     for (i=0;i<ST_NUMFACES;i++)
	.loc 1 1235 29 is_stmt 1 discriminator 2
	addl	$1, -4(%rbp)	#, i
.L162:
# st_stuff.c:1235:     for (i=0;i<ST_NUMFACES;i++)
	.loc 1 1235 15 discriminator 1
	cmpl	$41, -4(%rbp)	#, i
	jle	.L164	#,
# st_stuff.c:1242: }
	.loc 1 1242 1
	nop	
	nop	
	leave	
	.cfi_def_cfa 7, 8
	ret	
	.cfi_endproc
.LFE13:
	.size	ST_unloadGraphics, .-ST_unloadGraphics
	.globl	ST_unloadData
	.type	ST_unloadData, @function
ST_unloadData:
.LFB14:
	.loc 1 1245 1
	.cfi_startproc
	endbr64	
	pushq	%rbp	#
	.cfi_def_cfa_offset 16
	.cfi_offset 6, -16
	movq	%rsp, %rbp	#,
	.cfi_def_cfa_register 6
# st_stuff.c:1246:     ST_unloadGraphics();
	.loc 1 1246 5
	call	ST_unloadGraphics	#
# st_stuff.c:1247: }
	.loc 1 1247 1
	nop	
	popq	%rbp	#
	.cfi_def_cfa 7, 8
	ret	
	.cfi_endproc
.LFE14:
	.size	ST_unloadData, .-ST_unloadData
	.globl	ST_initData
	.type	ST_initData, @function
ST_initData:
.LFB15:
	.loc 1 1250 1
	.cfi_startproc
	endbr64	
	pushq	%rbp	#
	.cfi_def_cfa_offset 16
	.cfi_offset 6, -16
	movq	%rsp, %rbp	#,
	.cfi_def_cfa_register 6
	subq	$16, %rsp	#,
# st_stuff.c:1254:     st_firsttime = true;
	.loc 1 1254 18
	movl	$1, st_firsttime(%rip)	#, st_firsttime
# st_stuff.c:1255:     plyr = &players[consoleplayer];
	.loc 1 1255 20
	movl	consoleplayer(%rip), %eax	# consoleplayer, consoleplayer.164_1
# st_stuff.c:1255:     plyr = &players[consoleplayer];
	.loc 1 1255 12
	movslq	%eax, %rdx	# consoleplayer.164_1, tmp87
	movq	%rdx, %rax	# tmp87, tmp88
	salq	$2, %rax	#, tmp88
	addq	%rdx, %rax	# tmp87, tmp88
	salq	$6, %rax	#, tmp89
	leaq	players(%rip), %rdx	#, tmp90
	addq	%rdx, %rax	# tmp90, _2
# st_stuff.c:1255:     plyr = &players[consoleplayer];
	.loc 1 1255 10
	movq	%rax, plyr(%rip)	# _2, plyr
# st_stuff.c:1257:     st_clock = 0;
	.loc 1 1257 14
	movl	$0, st_clock(%rip)	#, st_clock
# st_stuff.c:1258:     st_chatstate = StartChatState;
	.loc 1 1258 18
	movl	$0, st_chatstate(%rip)	#, st_chatstate
# st_stuff.c:1259:     st_gamestate = FirstPersonState;
	.loc 1 1259 18
	movl	$1, st_gamestate(%rip)	#, st_gamestate
# st_stuff.c:1261:     st_statusbaron = true;
	.loc 1 1261 20
	movl	$1, st_statusbaron(%rip)	#, st_statusbaron
# st_stuff.c:1262:     st_oldchat = st_chat = false;
	.loc 1 1262 26
	movl	$0, st_chat(%rip)	#, st_chat
# st_stuff.c:1262:     st_oldchat = st_chat = false;
	.loc 1 1262 16
	movl	st_chat(%rip), %eax	# st_chat, st_chat.165_3
	movl	%eax, st_oldchat(%rip)	# st_chat.165_3, st_oldchat
# st_stuff.c:1263:     st_cursoron = false;
	.loc 1 1263 17
	movl	$0, st_cursoron(%rip)	#, st_cursoron
# st_stuff.c:1265:     st_faceindex = 0;
	.loc 1 1265 18
	movl	$0, st_faceindex(%rip)	#, st_faceindex
# st_stuff.c:1266:     st_palette = -1;
	.loc 1 1266 16
	movl	$-1, st_palette(%rip)	#, st_palette
# st_stuff.c:1268:     st_oldhealth = -1;
	.loc 1 1268 18
	movl	$-1, st_oldhealth(%rip)	#, st_oldhealth
# st_stuff.c:1270:     for (i=0;i<NUMWEAPONS;i++)
	.loc 1 1270 11
	movl	$0, -4(%rbp)	#, i
# st_stuff.c:1270:     for (i=0;i<NUMWEAPONS;i++)
	.loc 1 1270 5
	jmp	.L167	#
.L168:
# st_stuff.c:1271: 	oldweaponsowned[i] = plyr->weaponowned[i];
	.loc 1 1271 27
	movq	plyr(%rip), %rax	# plyr, plyr.166_4
# st_stuff.c:1271: 	oldweaponsowned[i] = plyr->weaponowned[i];
	.loc 1 1271 40
	movl	-4(%rbp), %edx	# i, tmp92
	movslq	%edx, %rdx	# tmp92, tmp91
	addq	$28, %rdx	#, tmp93
	movl	12(%rax,%rdx,4), %eax	# plyr.166_4->weaponowned[i_6], _5
# st_stuff.c:1271: 	oldweaponsowned[i] = plyr->weaponowned[i];
	.loc 1 1271 21
	movl	-4(%rbp), %edx	# i, tmp95
	movslq	%edx, %rdx	# tmp95, tmp94
	leaq	0(,%rdx,4), %rcx	#, tmp96
	leaq	oldweaponsowned(%rip), %rdx	#, tmp97
	movl	%eax, (%rcx,%rdx)	# _5, oldweaponsowned[i_6]
# st_stuff.c:1270:     for (i=0;i<NUMWEAPONS;i++)
	.loc 1 1270 28 discriminator 3
	addl	$1, -4(%rbp)	#, i
.L167:
# st_stuff.c:1270:     for (i=0;i<NUMWEAPONS;i++)
	.loc 1 1270 15 discriminator 1
	cmpl	$8, -4(%rbp)	#, i
	jle	.L168	#,
# st_stuff.c:1273:     for (i=0;i<3;i++)
	.loc 1 1273 11
	movl	$0, -4(%rbp)	#, i
# st_stuff.c:1273:     for (i=0;i<3;i++)
	.loc 1 1273 5
	jmp	.L169	#
.L170:
# st_stuff.c:1274: 	keyboxes[i] = -1;
	.loc 1 1274 14
	movl	-4(%rbp), %eax	# i, tmp99
	cltq
	leaq	0(,%rax,4), %rdx	#, tmp100
	leaq	keyboxes(%rip), %rax	#, tmp101
	movl	$-1, (%rdx,%rax)	#, keyboxes[i_7]
# st_stuff.c:1273:     for (i=0;i<3;i++)
	.loc 1 1273 19 discriminator 3
	addl	$1, -4(%rbp)	#, i
.L169:
# st_stuff.c:1273:     for (i=0;i<3;i++)
	.loc 1 1273 15 discriminator 1
	cmpl	$2, -4(%rbp)	#, i
	jle	.L170	#,
# st_stuff.c:1276:     STlib_init();
	.loc 1 1276 5
	call	STlib_init@PLT	#
# st_stuff.c:1278: }
	.loc 1 1278 1
	nop	
	leave	
	.cfi_def_cfa 7, 8
	ret	
	.cfi_endproc
.LFE15:
	.size	ST_initData, .-ST_initData
	.globl	ST_createWidgets
	.type	ST_createWidgets, @function
ST_createWidgets:
.LFB16:
	.loc 1 1283 1
	.cfi_startproc
	endbr64	
	pushq	%rbp	#
	.cfi_def_cfa_offset 16
	.cfi_offset 6, -16
	movq	%rsp, %rbp	#,
	.cfi_def_cfa_register 6
	subq	$16, %rsp	#,
# st_stuff.c:1292: 		  &plyr->ammo[weaponinfo[plyr->readyweapon].ammo],
	.loc 1 1292 10
	movq	plyr(%rip), %rdx	# plyr, plyr.167_1
# st_stuff.c:1292: 		  &plyr->ammo[weaponinfo[plyr->readyweapon].ammo],
	.loc 1 1292 32
	movq	plyr(%rip), %rax	# plyr, plyr.168_2
	movl	116(%rax), %eax	# plyr.168_2->readyweapon, _3
# st_stuff.c:1292: 		  &plyr->ammo[weaponinfo[plyr->readyweapon].ammo],
	.loc 1 1292 46
	movl	%eax, %ecx	# _3, tmp124
	movq	%rcx, %rax	# tmp124, tmp126
	addq	%rax, %rax	# tmp126
	addq	%rcx, %rax	# tmp124, tmp126
	salq	$3, %rax	#, tmp127
	movq	%rax, %rcx	# tmp126, tmp125
	leaq	weaponinfo(%rip), %rax	#, tmp128
	movl	(%rcx,%rax), %eax	# weaponinfo[_3].ammo, _4
# st_stuff.c:1288:     STlib_initNum(&w_ready,
	.loc 1 1288 5
	movl	%eax, %eax	# _4, tmp129
	addq	$40, %rax	#, tmp130
	salq	$2, %rax	#, tmp131
	addq	%rdx, %rax	# plyr.167_1, _5
	subq	$8, %rsp	#,
	pushq	$3	#
	leaq	st_statusbaron(%rip), %r9	#,
	movq	%rax, %r8	# _5,
	leaq	tallnum(%rip), %rax	#, tmp132
	movq	%rax, %rcx	# tmp132,
	movl	$171, %edx	#,
	movl	$44, %esi	#,
	leaq	w_ready(%rip), %rax	#, tmp133
	movq	%rax, %rdi	# tmp133,
	call	STlib_initNum@PLT	#
	addq	$16, %rsp	#,
# st_stuff.c:1297:     w_ready.data = plyr->readyweapon; 
	.loc 1 1297 24
	movq	plyr(%rip), %rax	# plyr, plyr.169_6
	movl	116(%rax), %eax	# plyr.169_6->readyweapon, _7
# st_stuff.c:1297:     w_ready.data = plyr->readyweapon; 
	.loc 1 1297 18
	movl	%eax, 40+w_ready(%rip)	# _8, w_ready.data
# st_stuff.c:1300:     STlib_initPercent(&w_health,
	.loc 1 1300 5
	movq	tallpercent(%rip), %rax	# tallpercent, tallpercent.170_9
# st_stuff.c:1304: 		      &plyr->health,
	.loc 1 1304 14
	movq	plyr(%rip), %rdx	# plyr, plyr.171_10
# st_stuff.c:1300:     STlib_initPercent(&w_health,
	.loc 1 1300 5
	addq	$36, %rdx	#, _11
	subq	$8, %rsp	#,
	pushq	%rax	# tallpercent.170_9
	leaq	st_statusbaron(%rip), %r9	#,
	movq	%rdx, %r8	# _11,
	leaq	tallnum(%rip), %rax	#, tmp134
	movq	%rax, %rcx	# tmp134,
	movl	$171, %edx	#,
	movl	$90, %esi	#,
	leaq	w_health(%rip), %rax	#, tmp135
	movq	%rax, %rdi	# tmp135,
	call	STlib_initPercent@PLT	#
	addq	$16, %rsp	#,
# st_stuff.c:1309:     STlib_initBinIcon(&w_armsbg,
	.loc 1 1309 5
	movq	armsbg(%rip), %rax	# armsbg, armsbg.172_12
	leaq	st_statusbaron(%rip), %r9	#,
	leaq	st_notdeathmatch(%rip), %r8	#,
	movq	%rax, %rcx	# armsbg.172_12,
	movl	$168, %edx	#,
	movl	$104, %esi	#,
	leaq	w_armsbg(%rip), %rax	#, tmp136
	movq	%rax, %rdi	# tmp136,
	call	STlib_initBinIcon@PLT	#
# st_stuff.c:1317:     for(i=0;i<6;i++)
	.loc 1 1317 10
	movl	$0, -4(%rbp)	#, i
# st_stuff.c:1317:     for(i=0;i<6;i++)
	.loc 1 1317 5
	jmp	.L172	#
.L173:
# st_stuff.c:1322: 			   arms[i], (int *) &plyr->weaponowned[i+1],
	.loc 1 1322 29
	movq	plyr(%rip), %rax	# plyr, plyr.173_13
# st_stuff.c:1322: 			   arms[i], (int *) &plyr->weaponowned[i+1],
	.loc 1 1322 44
	movl	-4(%rbp), %edx	# i, tmp137
	addl	$1, %edx	#, _14
# st_stuff.c:1322: 			   arms[i], (int *) &plyr->weaponowned[i+1],
	.loc 1 1322 24
	movslq	%edx, %rdx	# _14, tmp138
	addq	$28, %rdx	#, tmp139
	salq	$2, %rdx	#, tmp140
	addq	%rdx, %rax	# tmp140, tmp141
	leaq	12(%rax), %r8	#, _15
# st_stuff.c:1322: 			   arms[i], (int *) &plyr->weaponowned[i+1],
	.loc 1 1322 11
	movl	-4(%rbp), %eax	# i, tmp143
	cltq
	salq	$4, %rax	#, tmp142
	movq	%rax, %rdx	# tmp142, tmp144
	leaq	arms(%rip), %rax	#, tmp145
	leaq	(%rdx,%rax), %r10	#, _16
# st_stuff.c:1321: 			   ST_ARMSY+(i/3)*ST_ARMSYSPACE,
	.loc 1 1321 18
	movl	-4(%rbp), %eax	# i, tmp146
	movslq	%eax, %rdx	# tmp146, tmp147
	imulq	$1431655766, %rdx, %rdx	#, tmp147, tmp148
	shrq	$32, %rdx	#, tmp149
	sarl	$31, %eax	#, tmp150
	subl	%eax, %edx	# tmp150, _17
# st_stuff.c:1321: 			   ST_ARMSY+(i/3)*ST_ARMSYSPACE,
	.loc 1 1321 21
	movl	%edx, %eax	# _17, tmp151
	sall	$2, %eax	#, tmp151
	addl	%edx, %eax	# _17, tmp151
	addl	%eax, %eax	# tmp152
# st_stuff.c:1319: 	STlib_initMultIcon(&w_arms[i],
	.loc 1 1319 2
	leal	172(%rax), %edi	#, _19
# st_stuff.c:1320: 			   ST_ARMSX+(i%3)*ST_ARMSXSPACE,
	.loc 1 1320 18
	movl	-4(%rbp), %ecx	# i, tmp153
	movslq	%ecx, %rax	# tmp153, tmp154
	imulq	$1431655766, %rax, %rax	#, tmp154, tmp155
	shrq	$32, %rax	#, tmp155
	movq	%rax, %rdx	# tmp155, tmp156
	movl	%ecx, %eax	# tmp153, tmp157
	sarl	$31, %eax	#, tmp157
	subl	%eax, %edx	# tmp157, _20
	movl	%edx, %eax	# _20, tmp158
	addl	%eax, %eax	# tmp158
	addl	%edx, %eax	# _20, tmp158
	subl	%eax, %ecx	# tmp158, tmp153
	movl	%ecx, %edx	# tmp153, _20
# st_stuff.c:1320: 			   ST_ARMSX+(i%3)*ST_ARMSXSPACE,
	.loc 1 1320 21
	movl	%edx, %eax	# _20, tmp159
	addl	%eax, %eax	# tmp159
	addl	%edx, %eax	# _20, tmp159
	sall	$2, %eax	#, tmp160
# st_stuff.c:1319: 	STlib_initMultIcon(&w_arms[i],
	.loc 1 1319 2
	leal	111(%rax), %esi	#, _22
	movl	-4(%rbp), %eax	# i, tmp162
	movslq	%eax, %rdx	# tmp162, tmp161
	movq	%rdx, %rax	# tmp161, tmp163
	addq	%rax, %rax	# tmp163
	addq	%rdx, %rax	# tmp161, tmp163
	salq	$4, %rax	#, tmp164
	leaq	w_arms(%rip), %rdx	#, tmp165
	addq	%rdx, %rax	# tmp165, _23
	leaq	st_armson(%rip), %r9	#,
	movq	%r10, %rcx	# _16,
	movl	%edi, %edx	# _19,
	movq	%rax, %rdi	# _23,
	call	STlib_initMultIcon@PLT	#
# st_stuff.c:1317:     for(i=0;i<6;i++)
	.loc 1 1317 18 discriminator 3
	addl	$1, -4(%rbp)	#, i
.L172:
# st_stuff.c:1317:     for(i=0;i<6;i++)
	.loc 1 1317 14 discriminator 1
	cmpl	$5, -4(%rbp)	#, i
	jle	.L173	#,
# st_stuff.c:1327:     STlib_initNum(&w_frags,
	.loc 1 1327 5
	subq	$8, %rsp	#,
	pushq	$2	#
	leaq	st_fragson(%rip), %r9	#,
	leaq	st_fragscount(%rip), %r8	#,
	leaq	tallnum(%rip), %rax	#, tmp166
	movq	%rax, %rcx	# tmp166,
	movl	$171, %edx	#,
	movl	$138, %esi	#,
	leaq	w_frags(%rip), %rax	#, tmp167
	movq	%rax, %rdi	# tmp167,
	call	STlib_initNum@PLT	#
	addq	$16, %rsp	#,
# st_stuff.c:1336:     STlib_initMultIcon(&w_faces,
	.loc 1 1336 5
	leaq	st_statusbaron(%rip), %r9	#,
	leaq	st_faceindex(%rip), %r8	#,
	leaq	faces(%rip), %rax	#, tmp168
	movq	%rax, %rcx	# tmp168,
	movl	$168, %edx	#,
	movl	$143, %esi	#,
	leaq	w_faces(%rip), %rax	#, tmp169
	movq	%rax, %rdi	# tmp169,
	call	STlib_initMultIcon@PLT	#
# st_stuff.c:1344:     STlib_initPercent(&w_armor,
	.loc 1 1344 5
	movq	tallpercent(%rip), %rax	# tallpercent, tallpercent.174_24
# st_stuff.c:1348: 		      &plyr->armorpoints,
	.loc 1 1348 14
	movq	plyr(%rip), %rdx	# plyr, plyr.175_25
# st_stuff.c:1344:     STlib_initPercent(&w_armor,
	.loc 1 1344 5
	addq	$40, %rdx	#, _26
	subq	$8, %rsp	#,
	pushq	%rax	# tallpercent.174_24
	leaq	st_statusbaron(%rip), %r9	#,
	movq	%rdx, %r8	# _26,
	leaq	tallnum(%rip), %rax	#, tmp170
	movq	%rax, %rcx	# tmp170,
	movl	$171, %edx	#,
	movl	$221, %esi	#,
	leaq	w_armor(%rip), %rax	#, tmp171
	movq	%rax, %rdi	# tmp171,
	call	STlib_initPercent@PLT	#
	addq	$16, %rsp	#,
# st_stuff.c:1352:     STlib_initMultIcon(&w_keyboxes[0],
	.loc 1 1352 5
	leaq	st_statusbaron(%rip), %r9	#,
	leaq	keyboxes(%rip), %r8	#,
	leaq	keys(%rip), %rax	#, tmp172
	movq	%rax, %rcx	# tmp172,
	movl	$171, %edx	#,
	movl	$239, %esi	#,
	leaq	w_keyboxes(%rip), %rax	#, tmp173
	movq	%rax, %rdi	# tmp173,
	call	STlib_initMultIcon@PLT	#
# st_stuff.c:1359:     STlib_initMultIcon(&w_keyboxes[1],
	.loc 1 1359 5
	leaq	st_statusbaron(%rip), %r9	#,
	leaq	4+keyboxes(%rip), %r8	#,
	leaq	keys(%rip), %rax	#, tmp174
	movq	%rax, %rcx	# tmp174,
	movl	$181, %edx	#,
	movl	$239, %esi	#,
	leaq	48+w_keyboxes(%rip), %rax	#, tmp175
	movq	%rax, %rdi	# tmp175,
	call	STlib_initMultIcon@PLT	#
# st_stuff.c:1366:     STlib_initMultIcon(&w_keyboxes[2],
	.loc 1 1366 5
	leaq	st_statusbaron(%rip), %r9	#,
	leaq	8+keyboxes(%rip), %r8	#,
	leaq	keys(%rip), %rax	#, tmp176
	movq	%rax, %rcx	# tmp176,
	movl	$191, %edx	#,
	movl	$239, %esi	#,
	leaq	96+w_keyboxes(%rip), %rax	#, tmp177
	movq	%rax, %rdi	# tmp177,
	call	STlib_initMultIcon@PLT	#
# st_stuff.c:1378: 		  &plyr->ammo[0],
	.loc 1 1378 10
	movq	plyr(%rip), %rax	# plyr, plyr.176_27
# st_stuff.c:1374:     STlib_initNum(&w_ammo[0],
	.loc 1 1374 5
	addq	$160, %rax	#, _28
	subq	$8, %rsp	#,
	pushq	$3	#
	leaq	st_statusbaron(%rip), %r9	#,
	movq	%rax, %r8	# _28,
	leaq	shortnum(%rip), %rax	#, tmp178
	movq	%rax, %rcx	# tmp178,
	movl	$173, %edx	#,
	movl	$288, %esi	#,
	leaq	w_ammo(%rip), %rax	#, tmp179
	movq	%rax, %rdi	# tmp179,
	call	STlib_initNum@PLT	#
	addq	$16, %rsp	#,
# st_stuff.c:1386: 		  &plyr->ammo[1],
	.loc 1 1386 10
	movq	plyr(%rip), %rax	# plyr, plyr.177_29
# st_stuff.c:1382:     STlib_initNum(&w_ammo[1],
	.loc 1 1382 5
	addq	$164, %rax	#, _30
	subq	$8, %rsp	#,
	pushq	$3	#
	leaq	st_statusbaron(%rip), %r9	#,
	movq	%rax, %r8	# _30,
	leaq	shortnum(%rip), %rax	#, tmp180
	movq	%rax, %rcx	# tmp180,
	movl	$179, %edx	#,
	movl	$288, %esi	#,
	leaq	48+w_ammo(%rip), %rax	#, tmp181
	movq	%rax, %rdi	# tmp181,
	call	STlib_initNum@PLT	#
	addq	$16, %rsp	#,
# st_stuff.c:1394: 		  &plyr->ammo[2],
	.loc 1 1394 10
	movq	plyr(%rip), %rax	# plyr, plyr.178_31
# st_stuff.c:1390:     STlib_initNum(&w_ammo[2],
	.loc 1 1390 5
	addq	$168, %rax	#, _32
	subq	$8, %rsp	#,
	pushq	$3	#
	leaq	st_statusbaron(%rip), %r9	#,
	movq	%rax, %r8	# _32,
	leaq	shortnum(%rip), %rax	#, tmp182
	movq	%rax, %rcx	# tmp182,
	movl	$191, %edx	#,
	movl	$288, %esi	#,
	leaq	96+w_ammo(%rip), %rax	#, tmp183
	movq	%rax, %rdi	# tmp183,
	call	STlib_initNum@PLT	#
	addq	$16, %rsp	#,
# st_stuff.c:1402: 		  &plyr->ammo[3],
	.loc 1 1402 10
	movq	plyr(%rip), %rax	# plyr, plyr.179_33
# st_stuff.c:1398:     STlib_initNum(&w_ammo[3],
	.loc 1 1398 5
	addq	$172, %rax	#, _34
	subq	$8, %rsp	#,
	pushq	$3	#
	leaq	st_statusbaron(%rip), %r9	#,
	movq	%rax, %r8	# _34,
	leaq	shortnum(%rip), %rax	#, tmp184
	movq	%rax, %rcx	# tmp184,
	movl	$185, %edx	#,
	movl	$288, %esi	#,
	leaq	144+w_ammo(%rip), %rax	#, tmp185
	movq	%rax, %rdi	# tmp185,
	call	STlib_initNum@PLT	#
	addq	$16, %rsp	#,
# st_stuff.c:1411: 		  &plyr->maxammo[0],
	.loc 1 1411 10
	movq	plyr(%rip), %rax	# plyr, plyr.180_35
# st_stuff.c:1407:     STlib_initNum(&w_maxammo[0],
	.loc 1 1407 5
	addq	$176, %rax	#, _36
	subq	$8, %rsp	#,
	pushq	$3	#
	leaq	st_statusbaron(%rip), %r9	#,
	movq	%rax, %r8	# _36,
	leaq	shortnum(%rip), %rax	#, tmp186
	movq	%rax, %rcx	# tmp186,
	movl	$173, %edx	#,
	movl	$314, %esi	#,
	leaq	w_maxammo(%rip), %rax	#, tmp187
	movq	%rax, %rdi	# tmp187,
	call	STlib_initNum@PLT	#
	addq	$16, %rsp	#,
# st_stuff.c:1419: 		  &plyr->maxammo[1],
	.loc 1 1419 10
	movq	plyr(%rip), %rax	# plyr, plyr.181_37
# st_stuff.c:1415:     STlib_initNum(&w_maxammo[1],
	.loc 1 1415 5
	addq	$180, %rax	#, _38
	subq	$8, %rsp	#,
	pushq	$3	#
	leaq	st_statusbaron(%rip), %r9	#,
	movq	%rax, %r8	# _38,
	leaq	shortnum(%rip), %rax	#, tmp188
	movq	%rax, %rcx	# tmp188,
	movl	$179, %edx	#,
	movl	$314, %esi	#,
	leaq	48+w_maxammo(%rip), %rax	#, tmp189
	movq	%rax, %rdi	# tmp189,
	call	STlib_initNum@PLT	#
	addq	$16, %rsp	#,
# st_stuff.c:1427: 		  &plyr->maxammo[2],
	.loc 1 1427 10
	movq	plyr(%rip), %rax	# plyr, plyr.182_39
# st_stuff.c:1423:     STlib_initNum(&w_maxammo[2],
	.loc 1 1423 5
	addq	$184, %rax	#, _40
	subq	$8, %rsp	#,
	pushq	$3	#
	leaq	st_statusbaron(%rip), %r9	#,
	movq	%rax, %r8	# _40,
	leaq	shortnum(%rip), %rax	#, tmp190
	movq	%rax, %rcx	# tmp190,
	movl	$191, %edx	#,
	movl	$314, %esi	#,
	leaq	96+w_maxammo(%rip), %rax	#, tmp191
	movq	%rax, %rdi	# tmp191,
	call	STlib_initNum@PLT	#
	addq	$16, %rsp	#,
# st_stuff.c:1435: 		  &plyr->maxammo[3],
	.loc 1 1435 10
	movq	plyr(%rip), %rax	# plyr, plyr.183_41
# st_stuff.c:1431:     STlib_initNum(&w_maxammo[3],
	.loc 1 1431 5
	addq	$188, %rax	#, _42
	subq	$8, %rsp	#,
	pushq	$3	#
	leaq	st_statusbaron(%rip), %r9	#,
	movq	%rax, %r8	# _42,
	leaq	shortnum(%rip), %rax	#, tmp192
	movq	%rax, %rcx	# tmp192,
	movl	$185, %edx	#,
	movl	$314, %esi	#,
	leaq	144+w_maxammo(%rip), %rax	#, tmp193
	movq	%rax, %rdi	# tmp193,
	call	STlib_initNum@PLT	#
	addq	$16, %rsp	#,
# st_stuff.c:1439: }
	.loc 1 1439 1
	nop	
	leave	
	.cfi_def_cfa 7, 8
	ret	
	.cfi_endproc
.LFE16:
	.size	ST_createWidgets, .-ST_createWidgets
	.data
	.align 4
	.type	st_stopped, @object
	.size	st_stopped, 4
st_stopped:
	.long	1
	.text
	.globl	ST_Start
	.type	ST_Start, @function
ST_Start:
.LFB17:
	.loc 1 1445 1
	.cfi_startproc
	endbr64	
	pushq	%rbp	#
	.cfi_def_cfa_offset 16
	.cfi_offset 6, -16
	movq	%rsp, %rbp	#,
	.cfi_def_cfa_register 6
# st_stuff.c:1447:     if (!st_stopped)
	.loc 1 1447 9
	movl	st_stopped(%rip), %eax	# st_stopped, st_stopped.184_1
# st_stuff.c:1447:     if (!st_stopped)
	.loc 1 1447 8
	testl	%eax, %eax	# st_stopped.184_1
	jne	.L175	#,
# st_stuff.c:1448: 	ST_Stop();
	.loc 1 1448 2
	call	ST_Stop	#
.L175:
# st_stuff.c:1450:     ST_initData();
	.loc 1 1450 5
	call	ST_initData	#
# st_stuff.c:1451:     ST_createWidgets();
	.loc 1 1451 5
	call	ST_createWidgets	#
# st_stuff.c:1452:     st_stopped = false;
	.loc 1 1452 16
	movl	$0, st_stopped(%rip)	#, st_stopped
# st_stuff.c:1454: }
	.loc 1 1454 1
	nop	
	popq	%rbp	#
	.cfi_def_cfa 7, 8
	ret	
	.cfi_endproc
.LFE17:
	.size	ST_Start, .-ST_Start
	.globl	ST_Stop
	.type	ST_Stop, @function
ST_Stop:
.LFB18:
	.loc 1 1457 1
	.cfi_startproc
	endbr64	
	pushq	%rbp	#
	.cfi_def_cfa_offset 16
	.cfi_offset 6, -16
	movq	%rsp, %rbp	#,
	.cfi_def_cfa_register 6
# st_stuff.c:1458:     if (st_stopped)
	.loc 1 1458 9
	movl	st_stopped(%rip), %eax	# st_stopped, st_stopped.185_1
# st_stuff.c:1458:     if (st_stopped)
	.loc 1 1458 8
	testl	%eax, %eax	# st_stopped.185_1
	jne	.L179	#,
# st_stuff.c:1461:     I_SetPalette (W_CacheLumpNum (lu_palette, PU_CACHE));
	.loc 1 1461 5
	movl	lu_palette(%rip), %eax	# lu_palette, lu_palette.186_2
# st_stuff.c:1461:     I_SetPalette (W_CacheLumpNum (lu_palette, PU_CACHE));
	.loc 1 1461 19
	movl	$101, %esi	#,
	movl	%eax, %edi	# lu_palette.186_2,
	call	W_CacheLumpNum@PLT	#
# st_stuff.c:1461:     I_SetPalette (W_CacheLumpNum (lu_palette, PU_CACHE));
	.loc 1 1461 5 discriminator 1
	movq	%rax, %rdi	# _3,
	call	I_SetPalette@PLT	#
# st_stuff.c:1463:     st_stopped = true;
	.loc 1 1463 16
	movl	$1, st_stopped(%rip)	#, st_stopped
	jmp	.L176	#
.L179:
# st_stuff.c:1459: 	return;
	.loc 1 1459 2
	nop	
.L176:
# st_stuff.c:1464: }
	.loc 1 1464 1
	popq	%rbp	#
	.cfi_def_cfa 7, 8
	ret	
	.cfi_endproc
.LFE18:
	.size	ST_Stop, .-ST_Stop
	.globl	ST_Init
	.type	ST_Init, @function
ST_Init:
.LFB19:
	.loc 1 1467 1
	.cfi_startproc
	endbr64	
	pushq	%rbp	#
	.cfi_def_cfa_offset 16
	.cfi_offset 6, -16
	movq	%rsp, %rbp	#,
	.cfi_def_cfa_register 6
# st_stuff.c:1468:     veryfirsttime = 0;
	.loc 1 1468 19
	movl	$0, veryfirsttime(%rip)	#, veryfirsttime
# st_stuff.c:1469:     ST_loadData();
	.loc 1 1469 5
	call	ST_loadData	#
# st_stuff.c:1470:     screens[4] = (byte *) Z_Malloc(ST_WIDTH*ST_HEIGHT, PU_STATIC, 0);
	.loc 1 1470 27
	movl	$0, %edx	#,
	movl	$1, %esi	#,
	movl	$10240, %edi	#,
	call	Z_Malloc@PLT	#
# st_stuff.c:1470:     screens[4] = (byte *) Z_Malloc(ST_WIDTH*ST_HEIGHT, PU_STATIC, 0);
	.loc 1 1470 16 discriminator 1
	movq	%rax, 32+screens(%rip)	# _1, screens[4]
# st_stuff.c:1471: }
	.loc 1 1471 1
	nop	
	popq	%rbp	#
	.cfi_def_cfa 7, 8
	ret	
	.cfi_endproc
.LFE19:
	.size	ST_Init, .-ST_Init
	.local	buf.5
	.comm	buf.5,52,32
	.data
	.align 4
	.type	oldhealth.4, @object
	.size	oldhealth.4, 4
oldhealth.4:
	.long	-1
	.local	lastcalc.3
	.comm	lastcalc.3,4,4
	.local	priority.2
	.comm	priority.2,4,4
	.align 4
	.type	lastattackdown.1, @object
	.size	lastattackdown.1, 4
lastattackdown.1:
	.long	-1
	.align 4
	.type	largeammo.0, @object
	.size	largeammo.0, 4
largeammo.0:
	.long	1994
	.text
.Letext0:
	.file 2 "doomtype.h"
	.file 3 "d_ticcmd.h"
	.file 4 "d_event.h"
	.file 5 "z_zone.h"
	.file 6 "doomdef.h"
	.file 7 "st_stuff.h"
	.file 8 "m_fixed.h"
	.file 9 "d_think.h"
	.file 10 "tables.h"
	.file 11 "doomdata.h"
	.file 12 "info.h"
	.file 13 "p_mobj.h"
	.file 14 "r_defs.h"
	.file 15 "d_player.h"
	.file 16 "st_lib.h"
	.file 17 "d_items.h"
	.file 18 "p_pspr.h"
	.file 19 "m_cheat.h"
	.file 20 "v_video.h"
	.file 21 "doomstat.h"
	.file 22 "sounds.h"
	.file 23 "i_system.h"
	.file 24 "w_wad.h"
	.file 25 "i_video.h"
	.file 26 "r_main.h"
	.file 27 "g_game.h"
	.file 28 "/usr/include/stdio.h"
	.file 29 "p_inter.h"
	.file 30 "s_sound.h"
	.file 31 "m_random.h"
	.section	.note.GNU-stack,"",@progbits
	.section	.note.gnu.property,"a"
	.align 8
	.long	1f - 0f
	.long	4f - 1f
	.long	5
0:
	.string	"GNU"
1:
	.align 8
	.long	0xc0000002
	.long	3f - 2f
2:
	.long	0x3
3:
	.align 8
4:
