	.file	"wi_stuff.c"
# GNU C17 (Ubuntu 13.3.0-6ubuntu2~24.04) version 13.3.0 (x86_64-linux-gnu)
#	compiled by GNU C version 13.3.0, GMP version 6.3.0, MPFR version 4.2.1, MPC version 1.3.1, isl version isl-0.26-GMP

# GGC heuristics: --param ggc-min-expand=100 --param ggc-min-heapsize=131072
# options passed: -mtune=generic -march=x86-64 -g -fasynchronous-unwind-tables -fstack-protector-strong -fstack-clash-protection -fcf-protection
	.text
.Ltext0:
	.file 0 "/home/astrid/Documents/enseignements/DOOM/linuxdoom-1.10" "wi_stuff.c"
	.section	.rodata
	.align 32
	.type	rcsid, @object
	.size	rcsid, 51
rcsid:
	.string	"$Id: wi_stuff.c,v 1.7 1997/02/03 22:45:13 b1 Exp $"
	.data
	.align 32
	.type	lnodes, @object
	.size	lnodes, 288
lnodes:
# x:
	.long	185
# y:
	.long	164
# x:
	.long	148
# y:
	.long	143
# x:
	.long	69
# y:
	.long	122
# x:
	.long	209
# y:
	.long	102
# x:
	.long	116
# y:
	.long	89
# x:
	.long	166
# y:
	.long	55
# x:
	.long	71
# y:
	.long	56
# x:
	.long	135
# y:
	.long	29
# x:
	.long	71
# y:
	.long	24
# x:
	.long	254
# y:
	.long	25
# x:
	.long	97
# y:
	.long	50
# x:
	.long	188
# y:
	.long	64
# x:
	.long	128
# y:
	.long	78
# x:
	.long	214
# y:
	.long	92
# x:
	.long	133
# y:
	.long	130
# x:
	.long	208
# y:
	.long	136
# x:
	.long	148
# y:
	.long	140
# x:
	.long	235
# y:
	.long	158
# x:
	.long	156
# y:
	.long	168
# x:
	.long	48
# y:
	.long	154
# x:
	.long	174
# y:
	.long	95
# x:
	.long	265
# y:
	.long	75
# x:
	.long	130
# y:
	.long	48
# x:
	.long	279
# y:
	.long	23
# x:
	.long	198
# y:
	.long	48
# x:
	.long	140
# y:
	.long	25
# x:
	.long	281
# y:
	.long	136
	.zero	72
	.align 32
	.type	epsd0animinfo, @object
	.size	epsd0animinfo, 720
epsd0animinfo:
# type:
	.long	0
# period:
	.long	11
# nanims:
	.long	3
# loc:
# x:
	.long	224
# y:
	.long	104
	.zero	52
# type:
	.long	0
# period:
	.long	11
# nanims:
	.long	3
# loc:
# x:
	.long	184
# y:
	.long	160
	.zero	52
# type:
	.long	0
# period:
	.long	11
# nanims:
	.long	3
# loc:
# x:
	.long	112
# y:
	.long	136
	.zero	52
# type:
	.long	0
# period:
	.long	11
# nanims:
	.long	3
# loc:
# x:
	.long	72
# y:
	.long	112
	.zero	52
# type:
	.long	0
# period:
	.long	11
# nanims:
	.long	3
# loc:
# x:
	.long	88
# y:
	.long	96
	.zero	52
# type:
	.long	0
# period:
	.long	11
# nanims:
	.long	3
# loc:
# x:
	.long	64
# y:
	.long	48
	.zero	52
# type:
	.long	0
# period:
	.long	11
# nanims:
	.long	3
# loc:
# x:
	.long	192
# y:
	.long	40
	.zero	52
# type:
	.long	0
# period:
	.long	11
# nanims:
	.long	3
# loc:
# x:
	.long	136
# y:
	.long	16
	.zero	52
# type:
	.long	0
# period:
	.long	11
# nanims:
	.long	3
# loc:
# x:
	.long	80
# y:
	.long	16
	.zero	52
# type:
	.long	0
# period:
	.long	11
# nanims:
	.long	3
# loc:
# x:
	.long	64
# y:
	.long	24
	.zero	52
	.align 32
	.type	epsd1animinfo, @object
	.size	epsd1animinfo, 648
epsd1animinfo:
# type:
	.long	2
# period:
	.long	11
# nanims:
	.long	1
# loc:
# x:
	.long	128
# y:
	.long	136
# data1:
	.long	1
	.zero	48
# type:
	.long	2
# period:
	.long	11
# nanims:
	.long	1
# loc:
# x:
	.long	128
# y:
	.long	136
# data1:
	.long	2
	.zero	48
# type:
	.long	2
# period:
	.long	11
# nanims:
	.long	1
# loc:
# x:
	.long	128
# y:
	.long	136
# data1:
	.long	3
	.zero	48
# type:
	.long	2
# period:
	.long	11
# nanims:
	.long	1
# loc:
# x:
	.long	128
# y:
	.long	136
# data1:
	.long	4
	.zero	48
# type:
	.long	2
# period:
	.long	11
# nanims:
	.long	1
# loc:
# x:
	.long	128
# y:
	.long	136
# data1:
	.long	5
	.zero	48
# type:
	.long	2
# period:
	.long	11
# nanims:
	.long	1
# loc:
# x:
	.long	128
# y:
	.long	136
# data1:
	.long	6
	.zero	48
# type:
	.long	2
# period:
	.long	11
# nanims:
	.long	1
# loc:
# x:
	.long	128
# y:
	.long	136
# data1:
	.long	7
	.zero	48
# type:
	.long	2
# period:
	.long	11
# nanims:
	.long	3
# loc:
# x:
	.long	192
# y:
	.long	144
# data1:
	.long	8
	.zero	48
# type:
	.long	2
# period:
	.long	11
# nanims:
	.long	1
# loc:
# x:
	.long	128
# y:
	.long	136
# data1:
	.long	8
	.zero	48
	.align 32
	.type	epsd2animinfo, @object
	.size	epsd2animinfo, 432
epsd2animinfo:
# type:
	.long	0
# period:
	.long	11
# nanims:
	.long	3
# loc:
# x:
	.long	104
# y:
	.long	168
	.zero	52
# type:
	.long	0
# period:
	.long	11
# nanims:
	.long	3
# loc:
# x:
	.long	40
# y:
	.long	136
	.zero	52
# type:
	.long	0
# period:
	.long	11
# nanims:
	.long	3
# loc:
# x:
	.long	160
# y:
	.long	96
	.zero	52
# type:
	.long	0
# period:
	.long	11
# nanims:
	.long	3
# loc:
# x:
	.long	104
# y:
	.long	80
	.zero	52
# type:
	.long	0
# period:
	.long	11
# nanims:
	.long	3
# loc:
# x:
	.long	120
# y:
	.long	32
	.zero	52
# type:
	.long	0
# period:
	.long	8
# nanims:
	.long	3
# loc:
# x:
	.long	40
# y:
	.long	0
	.zero	52
	.align 16
	.type	NUMANIMS, @object
	.size	NUMANIMS, 16
NUMANIMS:
	.long	10
	.long	9
	.long	6
	.zero	4
	.section	.data.rel.local,"aw"
	.align 32
	.type	anims, @object
	.size	anims, 32
anims:
	.quad	epsd0animinfo
	.quad	epsd1animinfo
	.quad	epsd2animinfo
	.zero	8
	.local	acceleratestage
	.comm	acceleratestage,4,4
	.local	me
	.comm	me,4,4
	.local	state
	.comm	state,4,4
	.local	wbs
	.comm	wbs,8,8
	.local	plrs
	.comm	plrs,8,8
	.local	cnt
	.comm	cnt,4,4
	.local	bcnt
	.comm	bcnt,4,4
	.local	firstrefresh
	.comm	firstrefresh,4,4
	.local	cnt_kills
	.comm	cnt_kills,16,16
	.local	cnt_items
	.comm	cnt_items,16,16
	.local	cnt_secret
	.comm	cnt_secret,16,16
	.local	cnt_time
	.comm	cnt_time,4,4
	.local	cnt_par
	.comm	cnt_par,4,4
	.local	cnt_pause
	.comm	cnt_pause,4,4
	.local	NUMCMAPS
	.comm	NUMCMAPS,4,4
	.local	bg
	.comm	bg,8,8
	.local	yah
	.comm	yah,16,16
	.local	splat
	.comm	splat,8,8
	.local	percent
	.comm	percent,8,8
	.local	colon
	.comm	colon,8,8
	.local	num
	.comm	num,80,32
	.local	wiminus
	.comm	wiminus,8,8
	.local	finished
	.comm	finished,8,8
	.local	entering
	.comm	entering,8,8
	.local	sp_secret
	.comm	sp_secret,8,8
	.local	kills
	.comm	kills,8,8
	.local	secret
	.comm	secret,8,8
	.local	items
	.comm	items,8,8
	.local	frags
	.comm	frags,8,8
	.local	time
	.comm	time,8,8
	.local	par
	.comm	par,8,8
	.local	sucks
	.comm	sucks,8,8
	.local	killers
	.comm	killers,8,8
	.local	victims
	.comm	victims,8,8
	.local	total
	.comm	total,8,8
	.local	star
	.comm	star,8,8
	.local	bstar
	.comm	bstar,8,8
	.local	p
	.comm	p,32,32
	.local	bp
	.comm	bp,32,32
	.local	lnames
	.comm	lnames,8,8
	.text
	.globl	WI_slamBackground
	.type	WI_slamBackground, @function
WI_slamBackground:
.LFB0:
	.file 1 "wi_stuff.c"
	.loc 1 407 1
	.cfi_startproc
	endbr64	
	pushq	%rbp	#
	.cfi_def_cfa_offset 16
	.cfi_offset 6, -16
	movq	%rsp, %rbp	#,
	.cfi_def_cfa_register 6
# wi_stuff.c:408:     memcpy(screens[0], screens[1], SCREENWIDTH * SCREENHEIGHT);
	.loc 1 408 31
	movq	8+screens(%rip), %rcx	# screens[1], _1
# wi_stuff.c:408:     memcpy(screens[0], screens[1], SCREENWIDTH * SCREENHEIGHT);
	.loc 1 408 19
	movq	screens(%rip), %rax	# screens[0], _2
# wi_stuff.c:408:     memcpy(screens[0], screens[1], SCREENWIDTH * SCREENHEIGHT);
	.loc 1 408 5
	movl	$64000, %edx	#,
	movq	%rcx, %rsi	# _1,
	movq	%rax, %rdi	# _2,
	call	memcpy@PLT	#
# wi_stuff.c:409:     V_MarkRect (0, 0, SCREENWIDTH, SCREENHEIGHT);
	.loc 1 409 5
	movl	$200, %ecx	#,
	movl	$320, %edx	#,
	movl	$0, %esi	#,
	movl	$0, %edi	#,
	call	V_MarkRect@PLT	#
# wi_stuff.c:410: }
	.loc 1 410 1
	nop	
	popq	%rbp	#
	.cfi_def_cfa 7, 8
	ret	
	.cfi_endproc
.LFE0:
	.size	WI_slamBackground, .-WI_slamBackground
	.globl	WI_Responder
	.type	WI_Responder, @function
WI_Responder:
.LFB1:
	.loc 1 415 1
	.cfi_startproc
	endbr64	
	pushq	%rbp	#
	.cfi_def_cfa_offset 16
	.cfi_offset 6, -16
	movq	%rsp, %rbp	#,
	.cfi_def_cfa_register 6
	movq	%rdi, -8(%rbp)	# ev, ev
# wi_stuff.c:416:     return false;
	.loc 1 416 12
	movl	$0, %eax	#, _1
# wi_stuff.c:417: }
	.loc 1 417 1
	popq	%rbp	#
	.cfi_def_cfa 7, 8
	ret	
	.cfi_endproc
.LFE1:
	.size	WI_Responder, .-WI_Responder
	.globl	WI_drawLF
	.type	WI_drawLF, @function
WI_drawLF:
.LFB2:
	.loc 1 422 1
	.cfi_startproc
	endbr64	
	pushq	%rbp	#
	.cfi_def_cfa_offset 16
	.cfi_offset 6, -16
	movq	%rsp, %rbp	#,
	.cfi_def_cfa_register 6
	subq	$16, %rsp	#,
# wi_stuff.c:423:     int y = WI_TITLEY;
	.loc 1 423 9
	movl	$2, -4(%rbp)	#, y
# wi_stuff.c:427: 		y, FB, lnames[wbs->last]);
	.loc 1 427 16
	movq	lnames(%rip), %rdx	# lnames, lnames.0_1
# wi_stuff.c:427: 		y, FB, lnames[wbs->last]);
	.loc 1 427 20
	movq	wbs(%rip), %rax	# wbs, wbs.1_2
	movl	8(%rax), %eax	# wbs.1_2->last, _3
	cltq
# wi_stuff.c:427: 		y, FB, lnames[wbs->last]);
	.loc 1 427 16
	salq	$3, %rax	#, _5
	addq	%rdx, %rax	# lnames.0_1, _6
# wi_stuff.c:426:     V_DrawPatch((SCREENWIDTH - SHORT(lnames[wbs->last]->width))/2,
	.loc 1 426 5
	movq	(%rax), %rdx	# *_6, _7
# wi_stuff.c:426:     V_DrawPatch((SCREENWIDTH - SHORT(lnames[wbs->last]->width))/2,
	.loc 1 426 32
	movq	lnames(%rip), %rcx	# lnames, lnames.2_8
	movq	wbs(%rip), %rax	# wbs, wbs.3_9
	movl	8(%rax), %eax	# wbs.3_9->last, _10
	cltq
	salq	$3, %rax	#, _12
	addq	%rcx, %rax	# lnames.2_8, _13
	movq	(%rax), %rax	# *_13, _14
	movzwl	(%rax), %eax	# _14->width, _15
	movswl	%ax, %ecx	# _15, _16
# wi_stuff.c:426:     V_DrawPatch((SCREENWIDTH - SHORT(lnames[wbs->last]->width))/2,
	.loc 1 426 30
	movl	$320, %eax	#, tmp117
	subl	%ecx, %eax	# _16, _17
# wi_stuff.c:426:     V_DrawPatch((SCREENWIDTH - SHORT(lnames[wbs->last]->width))/2,
	.loc 1 426 5
	movl	%eax, %ecx	# _17, tmp118
	shrl	$31, %ecx	#, tmp118
	addl	%ecx, %eax	# tmp118, tmp119
	sarl	%eax	# tmp120
	movl	%eax, %edi	# tmp120, _18
	movl	-4(%rbp), %eax	# y, tmp121
	movq	%rdx, %rcx	# _7,
	movl	$0, %edx	#,
	movl	%eax, %esi	# tmp121,
	call	V_DrawPatch@PLT	#
# wi_stuff.c:430:     y += (5*SHORT(lnames[wbs->last]->height))/4;
	.loc 1 430 13
	movq	lnames(%rip), %rdx	# lnames, lnames.4_19
	movq	wbs(%rip), %rax	# wbs, wbs.5_20
	movl	8(%rax), %eax	# wbs.5_20->last, _21
	cltq
	salq	$3, %rax	#, _23
	addq	%rdx, %rax	# lnames.4_19, _24
	movq	(%rax), %rax	# *_24, _25
	movzwl	2(%rax), %eax	# _25->height, _26
	movswl	%ax, %edx	# _26, _27
# wi_stuff.c:430:     y += (5*SHORT(lnames[wbs->last]->height))/4;
	.loc 1 430 12
	movl	%edx, %eax	# _27, tmp122
	sall	$2, %eax	#, tmp122
	addl	%edx, %eax	# _27, _28
# wi_stuff.c:430:     y += (5*SHORT(lnames[wbs->last]->height))/4;
	.loc 1 430 46
	leal	3(%rax), %edx	#, tmp124
	testl	%eax, %eax	# tmp123
	cmovs	%edx, %eax	# tmp124,, tmp123
	sarl	$2, %eax	#, tmp125
# wi_stuff.c:430:     y += (5*SHORT(lnames[wbs->last]->height))/4;
	.loc 1 430 7
	addl	%eax, -4(%rbp)	# _29, y
# wi_stuff.c:432:     V_DrawPatch((SCREENWIDTH - SHORT(finished->width))/2,
	.loc 1 432 5
	movq	finished(%rip), %rdx	# finished, finished.6_30
# wi_stuff.c:432:     V_DrawPatch((SCREENWIDTH - SHORT(finished->width))/2,
	.loc 1 432 32
	movq	finished(%rip), %rax	# finished, finished.7_31
	movzwl	(%rax), %eax	# finished.7_31->width, _32
	movswl	%ax, %ecx	# _32, _33
# wi_stuff.c:432:     V_DrawPatch((SCREENWIDTH - SHORT(finished->width))/2,
	.loc 1 432 30
	movl	$320, %eax	#, tmp126
	subl	%ecx, %eax	# _33, _34
# wi_stuff.c:432:     V_DrawPatch((SCREENWIDTH - SHORT(finished->width))/2,
	.loc 1 432 5
	movl	%eax, %ecx	# _34, tmp127
	shrl	$31, %ecx	#, tmp127
	addl	%ecx, %eax	# tmp127, tmp128
	sarl	%eax	# tmp129
	movl	%eax, %edi	# tmp129, _35
	movl	-4(%rbp), %eax	# y, tmp130
	movq	%rdx, %rcx	# finished.6_30,
	movl	$0, %edx	#,
	movl	%eax, %esi	# tmp130,
	call	V_DrawPatch@PLT	#
# wi_stuff.c:434: }
	.loc 1 434 1
	nop	
	leave	
	.cfi_def_cfa 7, 8
	ret	
	.cfi_endproc
.LFE2:
	.size	WI_drawLF, .-WI_drawLF
	.globl	WI_drawEL
	.type	WI_drawEL, @function
WI_drawEL:
.LFB3:
	.loc 1 440 1
	.cfi_startproc
	endbr64	
	pushq	%rbp	#
	.cfi_def_cfa_offset 16
	.cfi_offset 6, -16
	movq	%rsp, %rbp	#,
	.cfi_def_cfa_register 6
	subq	$16, %rsp	#,
# wi_stuff.c:441:     int y = WI_TITLEY;
	.loc 1 441 9
	movl	$2, -4(%rbp)	#, y
# wi_stuff.c:444:     V_DrawPatch((SCREENWIDTH - SHORT(entering->width))/2,
	.loc 1 444 5
	movq	entering(%rip), %rdx	# entering, entering.8_1
# wi_stuff.c:444:     V_DrawPatch((SCREENWIDTH - SHORT(entering->width))/2,
	.loc 1 444 32
	movq	entering(%rip), %rax	# entering, entering.9_2
	movzwl	(%rax), %eax	# entering.9_2->width, _3
	movswl	%ax, %ecx	# _3, _4
# wi_stuff.c:444:     V_DrawPatch((SCREENWIDTH - SHORT(entering->width))/2,
	.loc 1 444 30
	movl	$320, %eax	#, tmp117
	subl	%ecx, %eax	# _4, _5
# wi_stuff.c:444:     V_DrawPatch((SCREENWIDTH - SHORT(entering->width))/2,
	.loc 1 444 5
	movl	%eax, %ecx	# _5, tmp118
	shrl	$31, %ecx	#, tmp118
	addl	%ecx, %eax	# tmp118, tmp119
	sarl	%eax	# tmp120
	movl	%eax, %edi	# tmp120, _6
	movl	-4(%rbp), %eax	# y, tmp121
	movq	%rdx, %rcx	# entering.8_1,
	movl	$0, %edx	#,
	movl	%eax, %esi	# tmp121,
	call	V_DrawPatch@PLT	#
# wi_stuff.c:448:     y += (5*SHORT(lnames[wbs->next]->height))/4;
	.loc 1 448 13
	movq	lnames(%rip), %rdx	# lnames, lnames.10_7
	movq	wbs(%rip), %rax	# wbs, wbs.11_8
	movl	12(%rax), %eax	# wbs.11_8->next, _9
	cltq
	salq	$3, %rax	#, _11
	addq	%rdx, %rax	# lnames.10_7, _12
	movq	(%rax), %rax	# *_12, _13
	movzwl	2(%rax), %eax	# _13->height, _14
	movswl	%ax, %edx	# _14, _15
# wi_stuff.c:448:     y += (5*SHORT(lnames[wbs->next]->height))/4;
	.loc 1 448 12
	movl	%edx, %eax	# _15, tmp122
	sall	$2, %eax	#, tmp122
	addl	%edx, %eax	# _15, _16
# wi_stuff.c:448:     y += (5*SHORT(lnames[wbs->next]->height))/4;
	.loc 1 448 46
	leal	3(%rax), %edx	#, tmp124
	testl	%eax, %eax	# tmp123
	cmovs	%edx, %eax	# tmp124,, tmp123
	sarl	$2, %eax	#, tmp125
# wi_stuff.c:448:     y += (5*SHORT(lnames[wbs->next]->height))/4;
	.loc 1 448 7
	addl	%eax, -4(%rbp)	# _17, y
# wi_stuff.c:451: 		y, FB, lnames[wbs->next]);
	.loc 1 451 16
	movq	lnames(%rip), %rdx	# lnames, lnames.12_18
# wi_stuff.c:451: 		y, FB, lnames[wbs->next]);
	.loc 1 451 20
	movq	wbs(%rip), %rax	# wbs, wbs.13_19
	movl	12(%rax), %eax	# wbs.13_19->next, _20
	cltq
# wi_stuff.c:451: 		y, FB, lnames[wbs->next]);
	.loc 1 451 16
	salq	$3, %rax	#, _22
	addq	%rdx, %rax	# lnames.12_18, _23
# wi_stuff.c:450:     V_DrawPatch((SCREENWIDTH - SHORT(lnames[wbs->next]->width))/2,
	.loc 1 450 5
	movq	(%rax), %rdx	# *_23, _24
# wi_stuff.c:450:     V_DrawPatch((SCREENWIDTH - SHORT(lnames[wbs->next]->width))/2,
	.loc 1 450 32
	movq	lnames(%rip), %rcx	# lnames, lnames.14_25
	movq	wbs(%rip), %rax	# wbs, wbs.15_26
	movl	12(%rax), %eax	# wbs.15_26->next, _27
	cltq
	salq	$3, %rax	#, _29
	addq	%rcx, %rax	# lnames.14_25, _30
	movq	(%rax), %rax	# *_30, _31
	movzwl	(%rax), %eax	# _31->width, _32
	movswl	%ax, %ecx	# _32, _33
# wi_stuff.c:450:     V_DrawPatch((SCREENWIDTH - SHORT(lnames[wbs->next]->width))/2,
	.loc 1 450 30
	movl	$320, %eax	#, tmp126
	subl	%ecx, %eax	# _33, _34
# wi_stuff.c:450:     V_DrawPatch((SCREENWIDTH - SHORT(lnames[wbs->next]->width))/2,
	.loc 1 450 5
	movl	%eax, %ecx	# _34, tmp127
	shrl	$31, %ecx	#, tmp127
	addl	%ecx, %eax	# tmp127, tmp128
	sarl	%eax	# tmp129
	movl	%eax, %edi	# tmp129, _35
	movl	-4(%rbp), %eax	# y, tmp130
	movq	%rdx, %rcx	# _24,
	movl	$0, %edx	#,
	movl	%eax, %esi	# tmp130,
	call	V_DrawPatch@PLT	#
# wi_stuff.c:453: }
	.loc 1 453 1
	nop	
	leave	
	.cfi_def_cfa 7, 8
	ret	
	.cfi_endproc
.LFE3:
	.size	WI_drawEL, .-WI_drawEL
	.section	.rodata
	.align 8
.LC0:
	.string	"Could not place patch on level %d"
	.text
	.globl	WI_drawOnLnode
	.type	WI_drawOnLnode, @function
WI_drawOnLnode:
.LFB4:
	.loc 1 459 1
	.cfi_startproc
	endbr64	
	pushq	%rbp	#
	.cfi_def_cfa_offset 16
	.cfi_offset 6, -16
	movq	%rsp, %rbp	#,
	.cfi_def_cfa_register 6
	subq	$48, %rsp	#,
	movl	%edi, -36(%rbp)	# n, n
	movq	%rsi, -48(%rbp)	# c, c
# wi_stuff.c:466:     boolean	fits = false;
	.loc 1 466 13
	movl	$0, -20(%rbp)	#, fits
# wi_stuff.c:468:     i = 0;
	.loc 1 468 7
	movl	$0, -24(%rbp)	#, i
.L10:
# wi_stuff.c:471: 	left = lnodes[wbs->epsd][n].x - SHORT(c[i]->leftoffset);
	.loc 1 471 19
	movq	wbs(%rip), %rax	# wbs, wbs.16_1
	movl	(%rax), %eax	# wbs.16_1->epsd, _2
# wi_stuff.c:471: 	left = lnodes[wbs->epsd][n].x - SHORT(c[i]->leftoffset);
	.loc 1 471 29
	movl	-36(%rbp), %edx	# n, tmp124
	movslq	%edx, %rcx	# tmp124, tmp123
	movslq	%eax, %rdx	# _2, tmp125
	movq	%rdx, %rax	# tmp125, tmp126
	salq	$3, %rax	#, tmp126
	addq	%rdx, %rax	# tmp125, tmp126
	addq	%rcx, %rax	# tmp123, tmp127
	leaq	0(,%rax,8), %rdx	#, tmp128
	leaq	lnodes(%rip), %rax	#, tmp129
	movl	(%rdx,%rax), %edx	# lnodes[_2][n_50(D)].x, _3
# wi_stuff.c:471: 	left = lnodes[wbs->epsd][n].x - SHORT(c[i]->leftoffset);
	.loc 1 471 34
	movl	-24(%rbp), %eax	# i, tmp130
	cltq
	leaq	0(,%rax,8), %rcx	#, _5
	movq	-48(%rbp), %rax	# c, tmp131
	addq	%rcx, %rax	# _5, _6
	movq	(%rax), %rax	# *_6, _7
	movzwl	4(%rax), %eax	# _7->leftoffset, _8
	cwtl
# wi_stuff.c:471: 	left = lnodes[wbs->epsd][n].x - SHORT(c[i]->leftoffset);
	.loc 1 471 7
	subl	%eax, %edx	# _9, tmp132
	movl	%edx, -16(%rbp)	# tmp132, left
# wi_stuff.c:472: 	top = lnodes[wbs->epsd][n].y - SHORT(c[i]->topoffset);
	.loc 1 472 18
	movq	wbs(%rip), %rax	# wbs, wbs.17_10
	movl	(%rax), %eax	# wbs.17_10->epsd, _11
# wi_stuff.c:472: 	top = lnodes[wbs->epsd][n].y - SHORT(c[i]->topoffset);
	.loc 1 472 28
	movl	-36(%rbp), %edx	# n, tmp134
	movslq	%edx, %rcx	# tmp134, tmp133
	movslq	%eax, %rdx	# _11, tmp135
	movq	%rdx, %rax	# tmp135, tmp136
	salq	$3, %rax	#, tmp136
	addq	%rdx, %rax	# tmp135, tmp136
	addq	%rcx, %rax	# tmp133, tmp137
	leaq	0(,%rax,8), %rdx	#, tmp138
	leaq	4+lnodes(%rip), %rax	#, tmp139
	movl	(%rdx,%rax), %edx	# lnodes[_11][n_50(D)].y, _12
# wi_stuff.c:472: 	top = lnodes[wbs->epsd][n].y - SHORT(c[i]->topoffset);
	.loc 1 472 33
	movl	-24(%rbp), %eax	# i, tmp140
	cltq
	leaq	0(,%rax,8), %rcx	#, _14
	movq	-48(%rbp), %rax	# c, tmp141
	addq	%rcx, %rax	# _14, _15
	movq	(%rax), %rax	# *_15, _16
	movzwl	6(%rax), %eax	# _16->topoffset, _17
	cwtl
# wi_stuff.c:472: 	top = lnodes[wbs->epsd][n].y - SHORT(c[i]->topoffset);
	.loc 1 472 6
	subl	%eax, %edx	# _18, tmp142
	movl	%edx, -12(%rbp)	# tmp142, top
# wi_stuff.c:473: 	right = left + SHORT(c[i]->width);
	.loc 1 473 17
	movl	-24(%rbp), %eax	# i, tmp143
	cltq
	leaq	0(,%rax,8), %rdx	#, _20
	movq	-48(%rbp), %rax	# c, tmp144
	addq	%rdx, %rax	# _20, _21
	movq	(%rax), %rax	# *_21, _22
	movzwl	(%rax), %eax	# _22->width, _23
	movswl	%ax, %edx	# _23, _24
# wi_stuff.c:473: 	right = left + SHORT(c[i]->width);
	.loc 1 473 8
	movl	-16(%rbp), %eax	# left, tmp148
	addl	%edx, %eax	# _24, tmp147
	movl	%eax, -8(%rbp)	# tmp147, right
# wi_stuff.c:474: 	bottom = top + SHORT(c[i]->height);
	.loc 1 474 17
	movl	-24(%rbp), %eax	# i, tmp149
	cltq
	leaq	0(,%rax,8), %rdx	#, _26
	movq	-48(%rbp), %rax	# c, tmp150
	addq	%rdx, %rax	# _26, _27
	movq	(%rax), %rax	# *_27, _28
	movzwl	2(%rax), %eax	# _28->height, _29
	movswl	%ax, %edx	# _29, _30
# wi_stuff.c:474: 	bottom = top + SHORT(c[i]->height);
	.loc 1 474 9
	movl	-12(%rbp), %eax	# top, tmp154
	addl	%edx, %eax	# _30, tmp153
	movl	%eax, -4(%rbp)	# tmp153, bottom
# wi_stuff.c:476: 	if (left >= 0
	.loc 1 476 5
	cmpl	$0, -16(%rbp)	#, left
	js	.L7	#,
# wi_stuff.c:477: 	    && right < SCREENWIDTH
	.loc 1 477 6
	cmpl	$319, -8(%rbp)	#, right
	jg	.L7	#,
# wi_stuff.c:478: 	    && top >= 0
	.loc 1 478 6
	cmpl	$0, -12(%rbp)	#, top
	js	.L7	#,
# wi_stuff.c:479: 	    && bottom < SCREENHEIGHT)
	.loc 1 479 6
	cmpl	$199, -4(%rbp)	#, bottom
	jg	.L7	#,
# wi_stuff.c:481: 	    fits = true;
	.loc 1 481 11
	movl	$1, -20(%rbp)	#, fits
	jmp	.L8	#
.L7:
# wi_stuff.c:485: 	    i++;
	.loc 1 485 7
	addl	$1, -24(%rbp)	#, i
.L8:
# wi_stuff.c:487:     } while (!fits && i!=2);
	.loc 1 487 20
	cmpl	$0, -20(%rbp)	#, fits
	jne	.L9	#,
# wi_stuff.c:487:     } while (!fits && i!=2);
	.loc 1 487 20 is_stmt 0 discriminator 1
	cmpl	$2, -24(%rbp)	#, i
	jne	.L10	#,
.L9:
# wi_stuff.c:489:     if (fits && i<2)
	.loc 1 489 8 is_stmt 1
	cmpl	$0, -20(%rbp)	#, fits
	je	.L11	#,
# wi_stuff.c:489:     if (fits && i<2)
	.loc 1 489 14 discriminator 1
	cmpl	$1, -24(%rbp)	#, i
	jg	.L11	#,
# wi_stuff.c:492: 		    FB, c[i]);
	.loc 1 492 12
	movl	-24(%rbp), %eax	# i, tmp155
	cltq
	leaq	0(,%rax,8), %rdx	#, _32
	movq	-48(%rbp), %rax	# c, tmp156
	addq	%rdx, %rax	# _32, _33
# wi_stuff.c:491: 	V_DrawPatch(lnodes[wbs->epsd][n].x, lnodes[wbs->epsd][n].y,
	.loc 1 491 2
	movq	(%rax), %rcx	# *_33, _34
# wi_stuff.c:491: 	V_DrawPatch(lnodes[wbs->epsd][n].x, lnodes[wbs->epsd][n].y,
	.loc 1 491 48
	movq	wbs(%rip), %rax	# wbs, wbs.18_35
	movl	(%rax), %eax	# wbs.18_35->epsd, _36
# wi_stuff.c:491: 	V_DrawPatch(lnodes[wbs->epsd][n].x, lnodes[wbs->epsd][n].y,
	.loc 1 491 2
	movl	-36(%rbp), %edx	# n, tmp158
	movslq	%edx, %rsi	# tmp158, tmp157
	movslq	%eax, %rdx	# _36, tmp159
	movq	%rdx, %rax	# tmp159, tmp160
	salq	$3, %rax	#, tmp160
	addq	%rdx, %rax	# tmp159, tmp160
	addq	%rsi, %rax	# tmp157, tmp161
	leaq	0(,%rax,8), %rdx	#, tmp162
	leaq	4+lnodes(%rip), %rax	#, tmp163
	movl	(%rdx,%rax), %esi	# lnodes[_36][n_50(D)].y, _37
# wi_stuff.c:491: 	V_DrawPatch(lnodes[wbs->epsd][n].x, lnodes[wbs->epsd][n].y,
	.loc 1 491 24
	movq	wbs(%rip), %rax	# wbs, wbs.19_38
	movl	(%rax), %eax	# wbs.19_38->epsd, _39
# wi_stuff.c:491: 	V_DrawPatch(lnodes[wbs->epsd][n].x, lnodes[wbs->epsd][n].y,
	.loc 1 491 2
	movl	-36(%rbp), %edx	# n, tmp165
	movslq	%edx, %rdi	# tmp165, tmp164
	movslq	%eax, %rdx	# _39, tmp166
	movq	%rdx, %rax	# tmp166, tmp167
	salq	$3, %rax	#, tmp167
	addq	%rdx, %rax	# tmp166, tmp167
	addq	%rdi, %rax	# tmp164, tmp168
	leaq	0(,%rax,8), %rdx	#, tmp169
	leaq	lnodes(%rip), %rax	#, tmp170
	movl	(%rdx,%rax), %eax	# lnodes[_39][n_50(D)].x, _40
	movl	$0, %edx	#,
	movl	%eax, %edi	# _40,
	call	V_DrawPatch@PLT	#
	jmp	.L12	#
.L11:
# wi_stuff.c:497: 	printf("Could not place patch on level %d", n+1); 
	.loc 1 497 2
	movl	-36(%rbp), %eax	# n, tmp171
	addl	$1, %eax	#, _41
	movl	%eax, %esi	# _41,
	leaq	.LC0(%rip), %rax	#, tmp172
	movq	%rax, %rdi	# tmp172,
	movl	$0, %eax	#,
	call	printf@PLT	#
# wi_stuff.c:499: }
	.loc 1 499 1
	nop	
.L12:
	nop	
	leave	
	.cfi_def_cfa 7, 8
	ret	
	.cfi_endproc
.LFE4:
	.size	WI_drawOnLnode, .-WI_drawOnLnode
	.globl	WI_initAnimatedBack
	.type	WI_initAnimatedBack, @function
WI_initAnimatedBack:
.LFB5:
	.loc 1 504 1
	.cfi_startproc
	endbr64	
	pushq	%rbp	#
	.cfi_def_cfa_offset 16
	.cfi_offset 6, -16
	movq	%rsp, %rbp	#,
	.cfi_def_cfa_register 6
	pushq	%rbx	#
	subq	$24, %rsp	#,
	.cfi_offset 3, -24
# wi_stuff.c:508:     if (gamemode == commercial)
	.loc 1 508 18
	movl	gamemode(%rip), %eax	# gamemode, gamemode.20_1
# wi_stuff.c:508:     if (gamemode == commercial)
	.loc 1 508 8
	cmpl	$2, %eax	#, gamemode.20_1
	je	.L22	#,
# wi_stuff.c:511:     if (wbs->epsd > 2)
	.loc 1 511 12
	movq	wbs(%rip), %rax	# wbs, wbs.21_2
	movl	(%rax), %eax	# wbs.21_2->epsd, _3
# wi_stuff.c:511:     if (wbs->epsd > 2)
	.loc 1 511 8
	cmpl	$2, %eax	#, _3
	jg	.L23	#,
# wi_stuff.c:514:     for (i=0;i<NUMANIMS[wbs->epsd];i++)
	.loc 1 514 11
	movl	$0, -28(%rbp)	#, i
# wi_stuff.c:514:     for (i=0;i<NUMANIMS[wbs->epsd];i++)
	.loc 1 514 5
	jmp	.L17	#
.L21:
# wi_stuff.c:516: 	a = &anims[wbs->epsd][i];
	.loc 1 516 16
	movq	wbs(%rip), %rax	# wbs, wbs.22_4
	movl	(%rax), %eax	# wbs.22_4->epsd, _5
# wi_stuff.c:516: 	a = &anims[wbs->epsd][i];
	.loc 1 516 12
	cltq
	leaq	0(,%rax,8), %rdx	#, tmp113
	leaq	anims(%rip), %rax	#, tmp114
	movq	(%rdx,%rax), %rcx	# anims[_5], _6
# wi_stuff.c:516: 	a = &anims[wbs->epsd][i];
	.loc 1 516 23
	movl	-28(%rbp), %eax	# i, tmp115
	movslq	%eax, %rdx	# tmp115, _7
	movq	%rdx, %rax	# _7, tmp116
	salq	$3, %rax	#, tmp116
	addq	%rdx, %rax	# _7, tmp116
	salq	$3, %rax	#, tmp117
# wi_stuff.c:516: 	a = &anims[wbs->epsd][i];
	.loc 1 516 4
	addq	%rcx, %rax	# _6, tmp118
	movq	%rax, -24(%rbp)	# tmp118, a
# wi_stuff.c:519: 	a->ctr = -1;
	.loc 1 519 9
	movq	-24(%rbp), %rax	# a, tmp119
	movl	$-1, 64(%rax)	#, a_37->ctr
# wi_stuff.c:522: 	if (a->type == ANIM_ALWAYS)
	.loc 1 522 7
	movq	-24(%rbp), %rax	# a, tmp120
	movl	(%rax), %eax	# a_37->type, _9
# wi_stuff.c:522: 	if (a->type == ANIM_ALWAYS)
	.loc 1 522 5
	testl	%eax, %eax	# _9
	jne	.L18	#,
# wi_stuff.c:523: 	    a->nexttic = bcnt + 1 + (M_Random()%a->period);
	.loc 1 523 24
	movl	bcnt(%rip), %eax	# bcnt, bcnt.23_10
	leal	1(%rax), %ebx	#, _11
# wi_stuff.c:523: 	    a->nexttic = bcnt + 1 + (M_Random()%a->period);
	.loc 1 523 31
	call	M_Random@PLT	#
# wi_stuff.c:523: 	    a->nexttic = bcnt + 1 + (M_Random()%a->period);
	.loc 1 523 43 discriminator 1
	movq	-24(%rbp), %rdx	# a, tmp121
	movl	4(%rdx), %esi	# a_37->period, _13
# wi_stuff.c:523: 	    a->nexttic = bcnt + 1 + (M_Random()%a->period);
	.loc 1 523 41 discriminator 1
	cltd
	idivl	%esi	# _13
	movl	%edx, %ecx	# tmp122, tmp122
	movl	%ecx, %eax	# tmp122, _14
# wi_stuff.c:523: 	    a->nexttic = bcnt + 1 + (M_Random()%a->period);
	.loc 1 523 28 discriminator 1
	leal	(%rbx,%rax), %edx	#, _15
# wi_stuff.c:523: 	    a->nexttic = bcnt + 1 + (M_Random()%a->period);
	.loc 1 523 17 discriminator 1
	movq	-24(%rbp), %rax	# a, tmp124
	movl	%edx, 56(%rax)	# _15, a_37->nexttic
	jmp	.L19	#
.L18:
# wi_stuff.c:524: 	else if (a->type == ANIM_RANDOM)
	.loc 1 524 12
	movq	-24(%rbp), %rax	# a, tmp125
	movl	(%rax), %eax	# a_37->type, _16
# wi_stuff.c:524: 	else if (a->type == ANIM_RANDOM)
	.loc 1 524 10
	cmpl	$1, %eax	#, _16
	jne	.L20	#,
# wi_stuff.c:525: 	    a->nexttic = bcnt + 1 + a->data2+(M_Random()%a->data1);
	.loc 1 525 24
	movl	bcnt(%rip), %eax	# bcnt, bcnt.24_17
	leal	1(%rax), %edx	#, _18
# wi_stuff.c:525: 	    a->nexttic = bcnt + 1 + a->data2+(M_Random()%a->data1);
	.loc 1 525 31
	movq	-24(%rbp), %rax	# a, tmp126
	movl	24(%rax), %eax	# a_37->data2, _19
# wi_stuff.c:525: 	    a->nexttic = bcnt + 1 + a->data2+(M_Random()%a->data1);
	.loc 1 525 28
	leal	(%rdx,%rax), %ebx	#, _20
# wi_stuff.c:525: 	    a->nexttic = bcnt + 1 + a->data2+(M_Random()%a->data1);
	.loc 1 525 40
	call	M_Random@PLT	#
# wi_stuff.c:525: 	    a->nexttic = bcnt + 1 + a->data2+(M_Random()%a->data1);
	.loc 1 525 52 discriminator 1
	movq	-24(%rbp), %rdx	# a, tmp127
	movl	20(%rdx), %edi	# a_37->data1, _22
# wi_stuff.c:525: 	    a->nexttic = bcnt + 1 + a->data2+(M_Random()%a->data1);
	.loc 1 525 50 discriminator 1
	cltd
	idivl	%edi	# _22
	movl	%edx, %ecx	# tmp128, tmp128
	movl	%ecx, %eax	# tmp128, _23
# wi_stuff.c:525: 	    a->nexttic = bcnt + 1 + a->data2+(M_Random()%a->data1);
	.loc 1 525 38 discriminator 1
	leal	(%rbx,%rax), %edx	#, _24
# wi_stuff.c:525: 	    a->nexttic = bcnt + 1 + a->data2+(M_Random()%a->data1);
	.loc 1 525 17 discriminator 1
	movq	-24(%rbp), %rax	# a, tmp130
	movl	%edx, 56(%rax)	# _24, a_37->nexttic
	jmp	.L19	#
.L20:
# wi_stuff.c:526: 	else if (a->type == ANIM_LEVEL)
	.loc 1 526 12
	movq	-24(%rbp), %rax	# a, tmp131
	movl	(%rax), %eax	# a_37->type, _25
# wi_stuff.c:526: 	else if (a->type == ANIM_LEVEL)
	.loc 1 526 10
	cmpl	$2, %eax	#, _25
	jne	.L19	#,
# wi_stuff.c:527: 	    a->nexttic = bcnt + 1;
	.loc 1 527 24
	movl	bcnt(%rip), %eax	# bcnt, bcnt.25_26
	leal	1(%rax), %edx	#, _27
# wi_stuff.c:527: 	    a->nexttic = bcnt + 1;
	.loc 1 527 17
	movq	-24(%rbp), %rax	# a, tmp132
	movl	%edx, 56(%rax)	# _27, a_37->nexttic
.L19:
# wi_stuff.c:514:     for (i=0;i<NUMANIMS[wbs->epsd];i++)
	.loc 1 514 37 discriminator 2
	addl	$1, -28(%rbp)	#, i
.L17:
# wi_stuff.c:514:     for (i=0;i<NUMANIMS[wbs->epsd];i++)
	.loc 1 514 28 discriminator 1
	movq	wbs(%rip), %rax	# wbs, wbs.26_28
	movl	(%rax), %eax	# wbs.26_28->epsd, _29
# wi_stuff.c:514:     for (i=0;i<NUMANIMS[wbs->epsd];i++)
	.loc 1 514 24 discriminator 1
	cltq
	leaq	0(,%rax,4), %rdx	#, tmp134
	leaq	NUMANIMS(%rip), %rax	#, tmp135
	movl	(%rdx,%rax), %eax	# NUMANIMS[_29], _30
# wi_stuff.c:514:     for (i=0;i<NUMANIMS[wbs->epsd];i++)
	.loc 1 514 15 discriminator 1
	cmpl	%eax, -28(%rbp)	# _30, i
	jl	.L21	#,
	jmp	.L13	#
.L22:
# wi_stuff.c:509: 	return;
	.loc 1 509 2
	nop	
	jmp	.L13	#
.L23:
# wi_stuff.c:512: 	return;
	.loc 1 512 2
	nop	
.L13:
# wi_stuff.c:530: }
	.loc 1 530 1
	movq	-8(%rbp), %rbx	#,
	leave	
	.cfi_def_cfa 7, 8
	ret	
	.cfi_endproc
.LFE5:
	.size	WI_initAnimatedBack, .-WI_initAnimatedBack
	.globl	WI_updateAnimatedBack
	.type	WI_updateAnimatedBack, @function
WI_updateAnimatedBack:
.LFB6:
	.loc 1 533 1
	.cfi_startproc
	endbr64	
	pushq	%rbp	#
	.cfi_def_cfa_offset 16
	.cfi_offset 6, -16
	movq	%rsp, %rbp	#,
	.cfi_def_cfa_register 6
	pushq	%rbx	#
	subq	$24, %rsp	#,
	.cfi_offset 3, -24
# wi_stuff.c:537:     if (gamemode == commercial)
	.loc 1 537 18
	movl	gamemode(%rip), %eax	# gamemode, gamemode.27_1
# wi_stuff.c:537:     if (gamemode == commercial)
	.loc 1 537 8
	cmpl	$2, %eax	#, gamemode.27_1
	je	.L40	#,
# wi_stuff.c:540:     if (wbs->epsd > 2)
	.loc 1 540 12
	movq	wbs(%rip), %rax	# wbs, wbs.28_2
	movl	(%rax), %eax	# wbs.28_2->epsd, _3
# wi_stuff.c:540:     if (wbs->epsd > 2)
	.loc 1 540 8
	cmpl	$2, %eax	#, _3
	jg	.L41	#,
# wi_stuff.c:543:     for (i=0;i<NUMANIMS[wbs->epsd];i++)
	.loc 1 543 11
	movl	$0, -28(%rbp)	#, i
# wi_stuff.c:543:     for (i=0;i<NUMANIMS[wbs->epsd];i++)
	.loc 1 543 5
	jmp	.L28	#
.L39:
# wi_stuff.c:545: 	a = &anims[wbs->epsd][i];
	.loc 1 545 16
	movq	wbs(%rip), %rax	# wbs, wbs.29_4
	movl	(%rax), %eax	# wbs.29_4->epsd, _5
# wi_stuff.c:545: 	a = &anims[wbs->epsd][i];
	.loc 1 545 12
	cltq
	leaq	0(,%rax,8), %rdx	#, tmp131
	leaq	anims(%rip), %rax	#, tmp132
	movq	(%rdx,%rax), %rcx	# anims[_5], _6
# wi_stuff.c:545: 	a = &anims[wbs->epsd][i];
	.loc 1 545 23
	movl	-28(%rbp), %eax	# i, tmp133
	movslq	%eax, %rdx	# tmp133, _7
	movq	%rdx, %rax	# _7, tmp134
	salq	$3, %rax	#, tmp134
	addq	%rdx, %rax	# _7, tmp134
	salq	$3, %rax	#, tmp135
# wi_stuff.c:545: 	a = &anims[wbs->epsd][i];
	.loc 1 545 4
	addq	%rcx, %rax	# _6, tmp136
	movq	%rax, -24(%rbp)	# tmp136, a
# wi_stuff.c:547: 	if (bcnt == a->nexttic)
	.loc 1 547 15
	movq	-24(%rbp), %rax	# a, tmp137
	movl	56(%rax), %edx	# a_59->nexttic, _9
# wi_stuff.c:547: 	if (bcnt == a->nexttic)
	.loc 1 547 11
	movl	bcnt(%rip), %eax	# bcnt, bcnt.30_10
# wi_stuff.c:547: 	if (bcnt == a->nexttic)
	.loc 1 547 5
	cmpl	%eax, %edx	# bcnt.30_10, _9
	jne	.L29	#,
# wi_stuff.c:549: 	    switch (a->type)
	.loc 1 549 15
	movq	-24(%rbp), %rax	# a, tmp138
	movl	(%rax), %eax	# a_59->type, _11
# wi_stuff.c:549: 	    switch (a->type)
	.loc 1 549 6
	cmpl	$2, %eax	#, _11
	je	.L30	#,
	cmpl	$2, %eax	#, _11
	ja	.L29	#,
	testl	%eax, %eax	# _11
	je	.L31	#,
	cmpl	$1, %eax	#, _11
	je	.L32	#,
	jmp	.L29	#
.L31:
# wi_stuff.c:552: 		if (++a->ctr >= a->nanims) a->ctr = 0;
	.loc 1 552 10
	movq	-24(%rbp), %rax	# a, tmp139
	movl	64(%rax), %eax	# a_59->ctr, _12
# wi_stuff.c:552: 		if (++a->ctr >= a->nanims) a->ctr = 0;
	.loc 1 552 7
	leal	1(%rax), %edx	#, _13
# wi_stuff.c:552: 		if (++a->ctr >= a->nanims) a->ctr = 0;
	.loc 1 552 6
	movq	-24(%rbp), %rax	# a, tmp140
	movl	%edx, 64(%rax)	# _13, a_59->ctr
# wi_stuff.c:552: 		if (++a->ctr >= a->nanims) a->ctr = 0;
	.loc 1 552 10
	movq	-24(%rbp), %rax	# a, tmp141
	movl	64(%rax), %edx	# a_59->ctr, _14
# wi_stuff.c:552: 		if (++a->ctr >= a->nanims) a->ctr = 0;
	.loc 1 552 20
	movq	-24(%rbp), %rax	# a, tmp142
	movl	8(%rax), %eax	# a_59->nanims, _15
# wi_stuff.c:552: 		if (++a->ctr >= a->nanims) a->ctr = 0;
	.loc 1 552 6
	cmpl	%eax, %edx	# _15, _14
	jl	.L33	#,
# wi_stuff.c:552: 		if (++a->ctr >= a->nanims) a->ctr = 0;
	.loc 1 552 37 discriminator 1
	movq	-24(%rbp), %rax	# a, tmp143
	movl	$0, 64(%rax)	#, a_59->ctr
.L33:
# wi_stuff.c:553: 		a->nexttic = bcnt + a->period;
	.loc 1 553 24
	movq	-24(%rbp), %rax	# a, tmp144
	movl	4(%rax), %edx	# a_59->period, _16
# wi_stuff.c:553: 		a->nexttic = bcnt + a->period;
	.loc 1 553 21
	movl	bcnt(%rip), %eax	# bcnt, bcnt.31_17
	addl	%eax, %edx	# bcnt.31_17, _18
# wi_stuff.c:553: 		a->nexttic = bcnt + a->period;
	.loc 1 553 14
	movq	-24(%rbp), %rax	# a, tmp145
	movl	%edx, 56(%rax)	# _18, a_59->nexttic
# wi_stuff.c:554: 		break;
	.loc 1 554 3
	jmp	.L29	#
.L32:
# wi_stuff.c:557: 		a->ctr++;
	.loc 1 557 4
	movq	-24(%rbp), %rax	# a, tmp146
	movl	64(%rax), %eax	# a_59->ctr, _19
# wi_stuff.c:557: 		a->ctr++;
	.loc 1 557 9
	leal	1(%rax), %edx	#, _20
	movq	-24(%rbp), %rax	# a, tmp147
	movl	%edx, 64(%rax)	# _20, a_59->ctr
# wi_stuff.c:558: 		if (a->ctr == a->nanims)
	.loc 1 558 8
	movq	-24(%rbp), %rax	# a, tmp148
	movl	64(%rax), %edx	# a_59->ctr, _21
# wi_stuff.c:558: 		if (a->ctr == a->nanims)
	.loc 1 558 18
	movq	-24(%rbp), %rax	# a, tmp149
	movl	8(%rax), %eax	# a_59->nanims, _22
# wi_stuff.c:558: 		if (a->ctr == a->nanims)
	.loc 1 558 6
	cmpl	%eax, %edx	# _22, _21
	jne	.L34	#,
# wi_stuff.c:560: 		    a->ctr = -1;
	.loc 1 560 14
	movq	-24(%rbp), %rax	# a, tmp150
	movl	$-1, 64(%rax)	#, a_59->ctr
# wi_stuff.c:561: 		    a->nexttic = bcnt+a->data2+(M_Random()%a->data1);
	.loc 1 561 26
	movq	-24(%rbp), %rax	# a, tmp151
	movl	24(%rax), %edx	# a_59->data2, _23
# wi_stuff.c:561: 		    a->nexttic = bcnt+a->data2+(M_Random()%a->data1);
	.loc 1 561 24
	movl	bcnt(%rip), %eax	# bcnt, bcnt.32_24
	leal	(%rdx,%rax), %ebx	#, _25
# wi_stuff.c:561: 		    a->nexttic = bcnt+a->data2+(M_Random()%a->data1);
	.loc 1 561 35
	call	M_Random@PLT	#
# wi_stuff.c:561: 		    a->nexttic = bcnt+a->data2+(M_Random()%a->data1);
	.loc 1 561 47 discriminator 1
	movq	-24(%rbp), %rdx	# a, tmp152
	movl	20(%rdx), %esi	# a_59->data1, _27
# wi_stuff.c:561: 		    a->nexttic = bcnt+a->data2+(M_Random()%a->data1);
	.loc 1 561 45 discriminator 1
	cltd
	idivl	%esi	# _27
	movl	%edx, %ecx	# tmp153, tmp153
	movl	%ecx, %eax	# tmp153, _28
# wi_stuff.c:561: 		    a->nexttic = bcnt+a->data2+(M_Random()%a->data1);
	.loc 1 561 33 discriminator 1
	leal	(%rbx,%rax), %edx	#, _29
# wi_stuff.c:561: 		    a->nexttic = bcnt+a->data2+(M_Random()%a->data1);
	.loc 1 561 18 discriminator 1
	movq	-24(%rbp), %rax	# a, tmp155
	movl	%edx, 56(%rax)	# _29, a_59->nexttic
# wi_stuff.c:564: 		break;
	.loc 1 564 3
	jmp	.L29	#
.L34:
# wi_stuff.c:563: 		else a->nexttic = bcnt + a->period;
	.loc 1 563 29
	movq	-24(%rbp), %rax	# a, tmp156
	movl	4(%rax), %edx	# a_59->period, _30
# wi_stuff.c:563: 		else a->nexttic = bcnt + a->period;
	.loc 1 563 26
	movl	bcnt(%rip), %eax	# bcnt, bcnt.33_31
	addl	%eax, %edx	# bcnt.33_31, _32
# wi_stuff.c:563: 		else a->nexttic = bcnt + a->period;
	.loc 1 563 19
	movq	-24(%rbp), %rax	# a, tmp157
	movl	%edx, 56(%rax)	# _32, a_59->nexttic
# wi_stuff.c:564: 		break;
	.loc 1 564 3
	jmp	.L29	#
.L30:
# wi_stuff.c:568: 		if (!(state == StatCount && i == 7)
	.loc 1 568 15
	movl	state(%rip), %eax	# state, state.34_33
# wi_stuff.c:568: 		if (!(state == StatCount && i == 7)
	.loc 1 568 6
	testl	%eax, %eax	# state.34_33
	jne	.L36	#,
# wi_stuff.c:568: 		if (!(state == StatCount && i == 7)
	.loc 1 568 7 discriminator 1
	cmpl	$7, -28(%rbp)	#, i
	je	.L42	#,
.L36:
# wi_stuff.c:569: 		    && wbs->next == a->data1)
	.loc 1 569 13
	movq	wbs(%rip), %rax	# wbs, wbs.35_34
	movl	12(%rax), %edx	# wbs.35_34->next, _35
# wi_stuff.c:569: 		    && wbs->next == a->data1)
	.loc 1 569 24
	movq	-24(%rbp), %rax	# a, tmp158
	movl	20(%rax), %eax	# a_59->data1, _36
# wi_stuff.c:569: 		    && wbs->next == a->data1)
	.loc 1 569 7
	cmpl	%eax, %edx	# _36, _35
	jne	.L42	#,
# wi_stuff.c:571: 		    a->ctr++;
	.loc 1 571 8
	movq	-24(%rbp), %rax	# a, tmp159
	movl	64(%rax), %eax	# a_59->ctr, _37
# wi_stuff.c:571: 		    a->ctr++;
	.loc 1 571 13
	leal	1(%rax), %edx	#, _38
	movq	-24(%rbp), %rax	# a, tmp160
	movl	%edx, 64(%rax)	# _38, a_59->ctr
# wi_stuff.c:572: 		    if (a->ctr == a->nanims) a->ctr--;
	.loc 1 572 12
	movq	-24(%rbp), %rax	# a, tmp161
	movl	64(%rax), %edx	# a_59->ctr, _39
# wi_stuff.c:572: 		    if (a->ctr == a->nanims) a->ctr--;
	.loc 1 572 22
	movq	-24(%rbp), %rax	# a, tmp162
	movl	8(%rax), %eax	# a_59->nanims, _40
# wi_stuff.c:572: 		    if (a->ctr == a->nanims) a->ctr--;
	.loc 1 572 10
	cmpl	%eax, %edx	# _40, _39
	jne	.L38	#,
# wi_stuff.c:572: 		    if (a->ctr == a->nanims) a->ctr--;
	.loc 1 572 33 discriminator 1
	movq	-24(%rbp), %rax	# a, tmp163
	movl	64(%rax), %eax	# a_59->ctr, _41
# wi_stuff.c:572: 		    if (a->ctr == a->nanims) a->ctr--;
	.loc 1 572 38 discriminator 1
	leal	-1(%rax), %edx	#, _42
	movq	-24(%rbp), %rax	# a, tmp164
	movl	%edx, 64(%rax)	# _42, a_59->ctr
.L38:
# wi_stuff.c:573: 		    a->nexttic = bcnt + a->period;
	.loc 1 573 28
	movq	-24(%rbp), %rax	# a, tmp165
	movl	4(%rax), %edx	# a_59->period, _43
# wi_stuff.c:573: 		    a->nexttic = bcnt + a->period;
	.loc 1 573 25
	movl	bcnt(%rip), %eax	# bcnt, bcnt.36_44
	addl	%eax, %edx	# bcnt.36_44, _45
# wi_stuff.c:573: 		    a->nexttic = bcnt + a->period;
	.loc 1 573 18
	movq	-24(%rbp), %rax	# a, tmp166
	movl	%edx, 56(%rax)	# _45, a_59->nexttic
.L42:
# wi_stuff.c:575: 		break;
	.loc 1 575 3
	nop	
.L29:
# wi_stuff.c:543:     for (i=0;i<NUMANIMS[wbs->epsd];i++)
	.loc 1 543 37 discriminator 2
	addl	$1, -28(%rbp)	#, i
.L28:
# wi_stuff.c:543:     for (i=0;i<NUMANIMS[wbs->epsd];i++)
	.loc 1 543 28 discriminator 1
	movq	wbs(%rip), %rax	# wbs, wbs.37_46
	movl	(%rax), %eax	# wbs.37_46->epsd, _47
# wi_stuff.c:543:     for (i=0;i<NUMANIMS[wbs->epsd];i++)
	.loc 1 543 24 discriminator 1
	cltq
	leaq	0(,%rax,4), %rdx	#, tmp168
	leaq	NUMANIMS(%rip), %rax	#, tmp169
	movl	(%rdx,%rax), %eax	# NUMANIMS[_47], _48
# wi_stuff.c:543:     for (i=0;i<NUMANIMS[wbs->epsd];i++)
	.loc 1 543 15 discriminator 1
	cmpl	%eax, -28(%rbp)	# _48, i
	jl	.L39	#,
	jmp	.L24	#
.L40:
# wi_stuff.c:538: 	return;
	.loc 1 538 2
	nop	
	jmp	.L24	#
.L41:
# wi_stuff.c:541: 	return;
	.loc 1 541 2
	nop	
.L24:
# wi_stuff.c:581: }
	.loc 1 581 1
	movq	-8(%rbp), %rbx	#,
	leave	
	.cfi_def_cfa 7, 8
	ret	
	.cfi_endproc
.LFE6:
	.size	WI_updateAnimatedBack, .-WI_updateAnimatedBack
	.globl	WI_drawAnimatedBack
	.type	WI_drawAnimatedBack, @function
WI_drawAnimatedBack:
.LFB7:
	.loc 1 584 1
	.cfi_startproc
	endbr64	
	pushq	%rbp	#
	.cfi_def_cfa_offset 16
	.cfi_offset 6, -16
	movq	%rsp, %rbp	#,
	.cfi_def_cfa_register 6
# wi_stuff.c:589: 	return;
	.loc 1 589 2
	nop	
# wi_stuff.c:602: }
	.loc 1 602 1
	popq	%rbp	#
	.cfi_def_cfa 7, 8
	ret	
	.cfi_endproc
.LFE7:
	.size	WI_drawAnimatedBack, .-WI_drawAnimatedBack
	.globl	WI_drawNum
	.type	WI_drawNum, @function
WI_drawNum:
.LFB8:
	.loc 1 617 1
	.cfi_startproc
	endbr64	
	pushq	%rbp	#
	.cfi_def_cfa_offset 16
	.cfi_offset 6, -16
	movq	%rsp, %rbp	#,
	.cfi_def_cfa_register 6
	subq	$32, %rsp	#,
	movl	%edi, -20(%rbp)	# x, x
	movl	%esi, -24(%rbp)	# y, y
	movl	%edx, -28(%rbp)	# n, n
	movl	%ecx, -32(%rbp)	# digits, digits
# wi_stuff.c:619:     int		fontwidth = SHORT(num[0]->width);
	.loc 1 619 22
	movq	num(%rip), %rax	# num[0], _1
	movzwl	(%rax), %eax	# _1->width, _2
# wi_stuff.c:619:     int		fontwidth = SHORT(num[0]->width);
	.loc 1 619 10
	cwtl
	movl	%eax, -8(%rbp)	# tmp91, fontwidth
# wi_stuff.c:623:     if (digits < 0)
	.loc 1 623 8
	cmpl	$0, -32(%rbp)	#, digits
	jns	.L46	#,
# wi_stuff.c:625: 	if (!n)
	.loc 1 625 5
	cmpl	$0, -28(%rbp)	#, n
	jne	.L47	#,
# wi_stuff.c:628: 	    digits = 1;
	.loc 1 628 13
	movl	$1, -32(%rbp)	#, digits
	jmp	.L46	#
.L47:
# wi_stuff.c:633: 	    digits = 0;
	.loc 1 633 13
	movl	$0, -32(%rbp)	#, digits
# wi_stuff.c:634: 	    temp = n;
	.loc 1 634 11
	movl	-28(%rbp), %eax	# n, tmp92
	movl	%eax, -12(%rbp)	# tmp92, temp
# wi_stuff.c:636: 	    while (temp)
	.loc 1 636 12
	jmp	.L48	#
.L49:
# wi_stuff.c:638: 		temp /= 10;
	.loc 1 638 8
	movl	-12(%rbp), %eax	# temp, tmp94
	movslq	%eax, %rdx	# tmp94, tmp95
	imulq	$1717986919, %rdx, %rdx	#, tmp95, tmp96
	shrq	$32, %rdx	#, tmp97
	movl	%edx, %ecx	# tmp97, tmp98
	sarl	$2, %ecx	#, tmp98
	cltd
	movl	%ecx, %eax	# tmp98, tmp98
	subl	%edx, %eax	# tmp99, tmp98
	movl	%eax, -12(%rbp)	# tmp93, temp
# wi_stuff.c:639: 		digits++;
	.loc 1 639 9
	addl	$1, -32(%rbp)	#, digits
.L48:
# wi_stuff.c:636: 	    while (temp)
	.loc 1 636 13
	cmpl	$0, -12(%rbp)	#, temp
	jne	.L49	#,
.L46:
# wi_stuff.c:644:     neg = n < 0;
	.loc 1 644 13
	movl	-28(%rbp), %eax	# n, tmp101
	shrl	$31, %eax	#, tmp100
# wi_stuff.c:644:     neg = n < 0;
	.loc 1 644 9
	movzbl	%al, %eax	# _3, tmp102
	movl	%eax, -4(%rbp)	# tmp102, neg
# wi_stuff.c:645:     if (neg)
	.loc 1 645 8
	cmpl	$0, -4(%rbp)	#, neg
	je	.L50	#,
# wi_stuff.c:646: 	n = -n;
	.loc 1 646 4
	negl	-28(%rbp)	# n
.L50:
# wi_stuff.c:649:     if (n == 1994)
	.loc 1 649 8
	cmpl	$1994, -28(%rbp)	#, n
	jne	.L53	#,
# wi_stuff.c:650: 	return 0;
	.loc 1 650 9
	movl	$0, %eax	#, _16
	jmp	.L52	#
.L54:
# wi_stuff.c:655: 	x -= fontwidth;
	.loc 1 655 4
	movl	-8(%rbp), %eax	# fontwidth, tmp103
	subl	%eax, -20(%rbp)	# tmp103, x
# wi_stuff.c:656: 	V_DrawPatch(x, y, FB, num[ n % 10 ]);
	.loc 1 656 31
	movl	-28(%rbp), %ecx	# n, tmp104
	movslq	%ecx, %rax	# tmp104, tmp105
	imulq	$1717986919, %rax, %rax	#, tmp105, tmp106
	shrq	$32, %rax	#, tmp107
	movl	%eax, %edx	# tmp107, tmp108
	sarl	$2, %edx	#, tmp108
	movl	%ecx, %eax	# tmp104, tmp109
	sarl	$31, %eax	#, tmp109
	subl	%eax, %edx	# tmp109, _4
	movl	%edx, %eax	# _4, tmp110
	sall	$2, %eax	#, tmp110
	addl	%edx, %eax	# _4, tmp110
	addl	%eax, %eax	# tmp111
	subl	%eax, %ecx	# tmp110, tmp104
	movl	%ecx, %edx	# tmp104, _4
# wi_stuff.c:656: 	V_DrawPatch(x, y, FB, num[ n % 10 ]);
	.loc 1 656 2
	movslq	%edx, %rax	# _4, tmp112
	leaq	0(,%rax,8), %rdx	#, tmp113
	leaq	num(%rip), %rax	#, tmp114
	movq	(%rdx,%rax), %rdx	# num[_4], _5
	movl	-24(%rbp), %esi	# y, tmp115
	movl	-20(%rbp), %eax	# x, tmp116
	movq	%rdx, %rcx	# _5,
	movl	$0, %edx	#,
	movl	%eax, %edi	# tmp116,
	call	V_DrawPatch@PLT	#
# wi_stuff.c:657: 	n /= 10;
	.loc 1 657 4
	movl	-28(%rbp), %eax	# n, tmp118
	movslq	%eax, %rdx	# tmp118, tmp119
	imulq	$1717986919, %rdx, %rdx	#, tmp119, tmp120
	shrq	$32, %rdx	#, tmp121
	movl	%edx, %ecx	# tmp121, tmp122
	sarl	$2, %ecx	#, tmp122
	cltd
	movl	%ecx, %eax	# tmp122, tmp122
	subl	%edx, %eax	# tmp123, tmp122
	movl	%eax, -28(%rbp)	# tmp117, n
.L53:
# wi_stuff.c:653:     while (digits--)
	.loc 1 653 18
	movl	-32(%rbp), %eax	# digits, digits.41_6
	leal	-1(%rax), %edx	#, tmp124
	movl	%edx, -32(%rbp)	# tmp124, digits
# wi_stuff.c:653:     while (digits--)
	.loc 1 653 12
	testl	%eax, %eax	# digits.41_6
	jne	.L54	#,
# wi_stuff.c:661:     if (neg)
	.loc 1 661 8
	cmpl	$0, -4(%rbp)	#, neg
	je	.L55	#,
# wi_stuff.c:662: 	V_DrawPatch(x-=8, y, FB, wiminus);
	.loc 1 662 2
	movq	wiminus(%rip), %rdx	# wiminus, wiminus.42_7
	subl	$8, -20(%rbp)	#, x
	movl	-24(%rbp), %esi	# y, tmp125
	movl	-20(%rbp), %eax	# x, tmp126
	movq	%rdx, %rcx	# wiminus.42_7,
	movl	$0, %edx	#,
	movl	%eax, %edi	# tmp126,
	call	V_DrawPatch@PLT	#
.L55:
# wi_stuff.c:664:     return x;
	.loc 1 664 12
	movl	-20(%rbp), %eax	# x, _16
.L52:
# wi_stuff.c:666: }
	.loc 1 666 1
	leave	
	.cfi_def_cfa 7, 8
	ret	
	.cfi_endproc
.LFE8:
	.size	WI_drawNum, .-WI_drawNum
	.globl	WI_drawPercent
	.type	WI_drawPercent, @function
WI_drawPercent:
.LFB9:
	.loc 1 673 1
	.cfi_startproc
	endbr64	
	pushq	%rbp	#
	.cfi_def_cfa_offset 16
	.cfi_offset 6, -16
	movq	%rsp, %rbp	#,
	.cfi_def_cfa_register 6
	subq	$16, %rsp	#,
	movl	%edi, -4(%rbp)	# x, x
	movl	%esi, -8(%rbp)	# y, y
	movl	%edx, -12(%rbp)	# p, p
# wi_stuff.c:674:     if (p < 0)
	.loc 1 674 8
	cmpl	$0, -12(%rbp)	#, p
	js	.L59	#,
# wi_stuff.c:677:     V_DrawPatch(x, y, FB, percent);
	.loc 1 677 5
	movq	percent(%rip), %rdx	# percent, percent.43_1
	movl	-8(%rbp), %esi	# y, tmp83
	movl	-4(%rbp), %eax	# x, tmp84
	movq	%rdx, %rcx	# percent.43_1,
	movl	$0, %edx	#,
	movl	%eax, %edi	# tmp84,
	call	V_DrawPatch@PLT	#
# wi_stuff.c:678:     WI_drawNum(x, y, p, -1);
	.loc 1 678 5
	movl	-12(%rbp), %edx	# p, tmp85
	movl	-8(%rbp), %esi	# y, tmp86
	movl	-4(%rbp), %eax	# x, tmp87
	movl	$-1, %ecx	#,
	movl	%eax, %edi	# tmp87,
	call	WI_drawNum	#
	jmp	.L56	#
.L59:
# wi_stuff.c:675: 	return;
	.loc 1 675 2
	nop	
.L56:
# wi_stuff.c:679: }
	.loc 1 679 1
	leave	
	.cfi_def_cfa 7, 8
	ret	
	.cfi_endproc
.LFE9:
	.size	WI_drawPercent, .-WI_drawPercent
	.globl	WI_drawTime
	.type	WI_drawTime, @function
WI_drawTime:
.LFB10:
	.loc 1 692 1
	.cfi_startproc
	endbr64	
	pushq	%rbp	#
	.cfi_def_cfa_offset 16
	.cfi_offset 6, -16
	movq	%rsp, %rbp	#,
	.cfi_def_cfa_register 6
	subq	$32, %rsp	#,
	movl	%edi, -20(%rbp)	# x, x
	movl	%esi, -24(%rbp)	# y, y
	movl	%edx, -28(%rbp)	# t, t
# wi_stuff.c:697:     if (t<0)
	.loc 1 697 8
	cmpl	$0, -28(%rbp)	#, t
	js	.L67	#,
# wi_stuff.c:700:     if (t <= 61*59)
	.loc 1 700 8
	cmpl	$3599, -28(%rbp)	#, t
	jg	.L63	#,
# wi_stuff.c:702: 	div = 1;
	.loc 1 702 6
	movl	$1, -8(%rbp)	#, div
.L66:
# wi_stuff.c:706: 	    n = (t / div) % 60;
	.loc 1 706 13
	movl	-28(%rbp), %eax	# t, tmp97
	cltd
	idivl	-8(%rbp)	# div
# wi_stuff.c:706: 	    n = (t / div) % 60;
	.loc 1 706 8
	movslq	%eax, %rdx	# _1, tmp98
	imulq	$-2004318071, %rdx, %rdx	#, tmp98, tmp99
	shrq	$32, %rdx	#, tmp100
	addl	%eax, %edx	# _1, tmp101
	sarl	$5, %edx	#, tmp102
	movl	%eax, %ecx	# _1, tmp103
	sarl	$31, %ecx	#, tmp103
	subl	%ecx, %edx	# tmp103, tmp104
	movl	%edx, -4(%rbp)	# tmp104, n
	movl	-4(%rbp), %edx	# n, tmp106
	imull	$60, %edx, %edx	#, tmp106, tmp105
	subl	%edx, %eax	# tmp105, tmp107
	movl	%eax, -4(%rbp)	# tmp107, n
# wi_stuff.c:707: 	    x = WI_drawNum(x, y, n, 2) - SHORT(colon->width);
	.loc 1 707 10
	movl	-4(%rbp), %edx	# n, tmp108
	movl	-24(%rbp), %esi	# y, tmp109
	movl	-20(%rbp), %eax	# x, tmp110
	movl	$2, %ecx	#,
	movl	%eax, %edi	# tmp110,
	call	WI_drawNum	#
	movl	%eax, %edx	#, _2
# wi_stuff.c:707: 	    x = WI_drawNum(x, y, n, 2) - SHORT(colon->width);
	.loc 1 707 35 discriminator 1
	movq	colon(%rip), %rax	# colon, colon.44_3
	movzwl	(%rax), %eax	# colon.44_3->width, _4
	cwtl
# wi_stuff.c:707: 	    x = WI_drawNum(x, y, n, 2) - SHORT(colon->width);
	.loc 1 707 8 discriminator 1
	subl	%eax, %edx	# _5, tmp111
	movl	%edx, -20(%rbp)	# tmp111, x
# wi_stuff.c:708: 	    div *= 60;
	.loc 1 708 10
	movl	-8(%rbp), %eax	# div, tmp113
	imull	$60, %eax, %eax	#, tmp113, tmp112
	movl	%eax, -8(%rbp)	# tmp112, div
# wi_stuff.c:711: 	    if (div==60 || t / div)
	.loc 1 711 9
	cmpl	$60, -8(%rbp)	#, div
	je	.L64	#,
# wi_stuff.c:711: 	    if (div==60 || t / div)
	.loc 1 711 23 discriminator 1
	movl	-28(%rbp), %eax	# t, tmp116
	cltd
	idivl	-8(%rbp)	# div
# wi_stuff.c:711: 	    if (div==60 || t / div)
	.loc 1 711 18 discriminator 1
	testl	%eax, %eax	# _6
	je	.L65	#,
.L64:
# wi_stuff.c:712: 		V_DrawPatch(x, y, FB, colon);
	.loc 1 712 3
	movq	colon(%rip), %rdx	# colon, colon.45_7
	movl	-24(%rbp), %esi	# y, tmp117
	movl	-20(%rbp), %eax	# x, tmp118
	movq	%rdx, %rcx	# colon.45_7,
	movl	$0, %edx	#,
	movl	%eax, %edi	# tmp118,
	call	V_DrawPatch@PLT	#
.L65:
# wi_stuff.c:714: 	} while (t / div);
	.loc 1 714 13
	movl	-28(%rbp), %eax	# t, tmp121
	cltd
	idivl	-8(%rbp)	# div
# wi_stuff.c:714: 	} while (t / div);
	.loc 1 714 11
	testl	%eax, %eax	# _8
	jne	.L66	#,
	jmp	.L60	#
.L63:
# wi_stuff.c:719: 	V_DrawPatch(x - SHORT(sucks->width), y, FB, sucks); 
	.loc 1 719 2
	movq	sucks(%rip), %rdx	# sucks, sucks.46_9
# wi_stuff.c:719: 	V_DrawPatch(x - SHORT(sucks->width), y, FB, sucks); 
	.loc 1 719 18
	movq	sucks(%rip), %rax	# sucks, sucks.47_10
	movzwl	(%rax), %eax	# sucks.47_10->width, _11
	cwtl
# wi_stuff.c:719: 	V_DrawPatch(x - SHORT(sucks->width), y, FB, sucks); 
	.loc 1 719 2
	movl	-20(%rbp), %ecx	# x, tmp122
	movl	%ecx, %edi	# tmp122, tmp122
	subl	%eax, %edi	# _12, tmp122
	movl	-24(%rbp), %eax	# y, tmp123
	movq	%rdx, %rcx	# sucks.46_9,
	movl	$0, %edx	#,
	movl	%eax, %esi	# tmp123,
	call	V_DrawPatch@PLT	#
	jmp	.L60	#
.L67:
# wi_stuff.c:698: 	return;
	.loc 1 698 2
	nop	
.L60:
# wi_stuff.c:721: }
	.loc 1 721 1
	leave	
	.cfi_def_cfa 7, 8
	ret	
	.cfi_endproc
.LFE10:
	.size	WI_drawTime, .-WI_drawTime
	.globl	WI_End
	.type	WI_End, @function
WI_End:
.LFB11:
	.loc 1 725 1
	.cfi_startproc
	endbr64	
	pushq	%rbp	#
	.cfi_def_cfa_offset 16
	.cfi_offset 6, -16
	movq	%rsp, %rbp	#,
	.cfi_def_cfa_register 6
# wi_stuff.c:727:     WI_unloadData();
	.loc 1 727 5
	call	WI_unloadData	#
# wi_stuff.c:728: }
	.loc 1 728 1
	nop	
	popq	%rbp	#
	.cfi_def_cfa 7, 8
	ret	
	.cfi_endproc
.LFE11:
	.size	WI_End, .-WI_End
	.globl	WI_initNoState
	.type	WI_initNoState, @function
WI_initNoState:
.LFB12:
	.loc 1 731 1
	.cfi_startproc
	endbr64	
	pushq	%rbp	#
	.cfi_def_cfa_offset 16
	.cfi_offset 6, -16
	movq	%rsp, %rbp	#,
	.cfi_def_cfa_register 6
# wi_stuff.c:732:     state = NoState;
	.loc 1 732 11
	movl	$-1, state(%rip)	#, state
# wi_stuff.c:733:     acceleratestage = 0;
	.loc 1 733 21
	movl	$0, acceleratestage(%rip)	#, acceleratestage
# wi_stuff.c:734:     cnt = 10;
	.loc 1 734 9
	movl	$10, cnt(%rip)	#, cnt
# wi_stuff.c:735: }
	.loc 1 735 1
	nop	
	popq	%rbp	#
	.cfi_def_cfa 7, 8
	ret	
	.cfi_endproc
.LFE12:
	.size	WI_initNoState, .-WI_initNoState
	.globl	WI_updateNoState
	.type	WI_updateNoState, @function
WI_updateNoState:
.LFB13:
	.loc 1 737 29
	.cfi_startproc
	endbr64	
	pushq	%rbp	#
	.cfi_def_cfa_offset 16
	.cfi_offset 6, -16
	movq	%rsp, %rbp	#,
	.cfi_def_cfa_register 6
# wi_stuff.c:739:     WI_updateAnimatedBack();
	.loc 1 739 5
	call	WI_updateAnimatedBack	#
# wi_stuff.c:741:     if (!--cnt)
	.loc 1 741 10
	movl	cnt(%rip), %eax	# cnt, cnt.48_1
	subl	$1, %eax	#, _2
# wi_stuff.c:741:     if (!--cnt)
	.loc 1 741 8
	movl	%eax, cnt(%rip)	# _2, cnt
# wi_stuff.c:741:     if (!--cnt)
	.loc 1 741 10
	movl	cnt(%rip), %eax	# cnt, cnt.49_3
# wi_stuff.c:741:     if (!--cnt)
	.loc 1 741 8
	testl	%eax, %eax	# cnt.49_3
	jne	.L72	#,
# wi_stuff.c:743: 	WI_End();
	.loc 1 743 2
	call	WI_End	#
# wi_stuff.c:744: 	G_WorldDone();
	.loc 1 744 2
	call	G_WorldDone@PLT	#
.L72:
# wi_stuff.c:747: }
	.loc 1 747 1
	nop	
	popq	%rbp	#
	.cfi_def_cfa 7, 8
	ret	
	.cfi_endproc
.LFE13:
	.size	WI_updateNoState, .-WI_updateNoState
	.local	snl_pointeron
	.comm	snl_pointeron,4,4
	.globl	WI_initShowNextLoc
	.type	WI_initShowNextLoc, @function
WI_initShowNextLoc:
.LFB14:
	.loc 1 753 1
	.cfi_startproc
	endbr64	
	pushq	%rbp	#
	.cfi_def_cfa_offset 16
	.cfi_offset 6, -16
	movq	%rsp, %rbp	#,
	.cfi_def_cfa_register 6
# wi_stuff.c:754:     state = ShowNextLoc;
	.loc 1 754 11
	movl	$1, state(%rip)	#, state
# wi_stuff.c:755:     acceleratestage = 0;
	.loc 1 755 21
	movl	$0, acceleratestage(%rip)	#, acceleratestage
# wi_stuff.c:756:     cnt = SHOWNEXTLOCDELAY * TICRATE;
	.loc 1 756 9
	movl	$140, cnt(%rip)	#, cnt
# wi_stuff.c:758:     WI_initAnimatedBack();
	.loc 1 758 5
	call	WI_initAnimatedBack	#
# wi_stuff.c:759: }
	.loc 1 759 1
	nop	
	popq	%rbp	#
	.cfi_def_cfa 7, 8
	ret	
	.cfi_endproc
.LFE14:
	.size	WI_initShowNextLoc, .-WI_initShowNextLoc
	.globl	WI_updateShowNextLoc
	.type	WI_updateShowNextLoc, @function
WI_updateShowNextLoc:
.LFB15:
	.loc 1 762 1
	.cfi_startproc
	endbr64	
	pushq	%rbp	#
	.cfi_def_cfa_offset 16
	.cfi_offset 6, -16
	movq	%rsp, %rbp	#,
	.cfi_def_cfa_register 6
# wi_stuff.c:763:     WI_updateAnimatedBack();
	.loc 1 763 5
	call	WI_updateAnimatedBack	#
# wi_stuff.c:765:     if (!--cnt || acceleratestage)
	.loc 1 765 10
	movl	cnt(%rip), %eax	# cnt, cnt.50_1
	subl	$1, %eax	#, _2
# wi_stuff.c:765:     if (!--cnt || acceleratestage)
	.loc 1 765 8
	movl	%eax, cnt(%rip)	# _2, cnt
# wi_stuff.c:765:     if (!--cnt || acceleratestage)
	.loc 1 765 10
	movl	cnt(%rip), %eax	# cnt, cnt.51_3
# wi_stuff.c:765:     if (!--cnt || acceleratestage)
	.loc 1 765 8
	testl	%eax, %eax	# cnt.51_3
	je	.L75	#,
# wi_stuff.c:765:     if (!--cnt || acceleratestage)
	.loc 1 765 16 discriminator 1
	movl	acceleratestage(%rip), %eax	# acceleratestage, acceleratestage.52_4
	testl	%eax, %eax	# acceleratestage.52_4
	je	.L76	#,
.L75:
# wi_stuff.c:766: 	WI_initNoState();
	.loc 1 766 2
	call	WI_initNoState	#
	jmp	.L77	#
.L76:
# wi_stuff.c:768: 	snl_pointeron = (cnt & 31) < 20;
	.loc 1 768 23
	movl	cnt(%rip), %eax	# cnt, cnt.53_5
	andl	$31, %eax	#, _6
# wi_stuff.c:768: 	snl_pointeron = (cnt & 31) < 20;
	.loc 1 768 29
	cmpl	$19, %eax	#, _6
	setle	%al	#, _7
	movzbl	%al, %eax	# _7, _8
# wi_stuff.c:768: 	snl_pointeron = (cnt & 31) < 20;
	.loc 1 768 16
	movl	%eax, snl_pointeron(%rip)	# _8, snl_pointeron
# wi_stuff.c:769: }
	.loc 1 769 1
	nop	
.L77:
	nop	
	popq	%rbp	#
	.cfi_def_cfa 7, 8
	ret	
	.cfi_endproc
.LFE15:
	.size	WI_updateShowNextLoc, .-WI_updateShowNextLoc
	.globl	WI_drawShowNextLoc
	.type	WI_drawShowNextLoc, @function
WI_drawShowNextLoc:
.LFB16:
	.loc 1 772 1
	.cfi_startproc
	endbr64	
	pushq	%rbp	#
	.cfi_def_cfa_offset 16
	.cfi_offset 6, -16
	movq	%rsp, %rbp	#,
	.cfi_def_cfa_register 6
	subq	$16, %rsp	#,
# wi_stuff.c:777:     WI_slamBackground();
	.loc 1 777 5
	call	WI_slamBackground	#
# wi_stuff.c:780:     WI_drawAnimatedBack(); 
	.loc 1 780 5
	call	WI_drawAnimatedBack	#
# wi_stuff.c:782:     if ( gamemode != commercial)
	.loc 1 782 19
	movl	gamemode(%rip), %eax	# gamemode, gamemode.54_1
# wi_stuff.c:782:     if ( gamemode != commercial)
	.loc 1 782 8
	cmpl	$2, %eax	#, gamemode.54_1
	je	.L79	#,
# wi_stuff.c:784:   	if (wbs->epsd > 2)
	.loc 1 784 11
	movq	wbs(%rip), %rax	# wbs, wbs.55_2
	movl	(%rax), %eax	# wbs.55_2->epsd, _3
# wi_stuff.c:784:   	if (wbs->epsd > 2)
	.loc 1 784 7
	cmpl	$2, %eax	#, _3
	jle	.L80	#,
# wi_stuff.c:786: 	    WI_drawEL();
	.loc 1 786 6
	call	WI_drawEL	#
# wi_stuff.c:787: 	    return;
	.loc 1 787 6
	jmp	.L78	#
.L80:
# wi_stuff.c:790: 	last = (wbs->last == 8) ? wbs->next - 1 : wbs->last;
	.loc 1 790 13
	movq	wbs(%rip), %rax	# wbs, wbs.57_4
	movl	8(%rax), %eax	# wbs.57_4->last, _5
# wi_stuff.c:790: 	last = (wbs->last == 8) ? wbs->next - 1 : wbs->last;
	.loc 1 790 42
	cmpl	$8, %eax	#, _5
	jne	.L82	#,
# wi_stuff.c:790: 	last = (wbs->last == 8) ? wbs->next - 1 : wbs->last;
	.loc 1 790 31 discriminator 1
	movq	wbs(%rip), %rax	# wbs, wbs.58_6
	movl	12(%rax), %eax	# wbs.58_6->next, _7
# wi_stuff.c:790: 	last = (wbs->last == 8) ? wbs->next - 1 : wbs->last;
	.loc 1 790 42 discriminator 1
	subl	$1, %eax	#, iftmp.56_18
	jmp	.L83	#
.L82:
# wi_stuff.c:790: 	last = (wbs->last == 8) ? wbs->next - 1 : wbs->last;
	.loc 1 790 47 discriminator 2
	movq	wbs(%rip), %rax	# wbs, wbs.59_8
# wi_stuff.c:790: 	last = (wbs->last == 8) ? wbs->next - 1 : wbs->last;
	.loc 1 790 42 discriminator 2
	movl	8(%rax), %eax	# wbs.59_8->last, iftmp.56_18
.L83:
# wi_stuff.c:790: 	last = (wbs->last == 8) ? wbs->next - 1 : wbs->last;
	.loc 1 790 7 discriminator 4
	movl	%eax, -4(%rbp)	# iftmp.56_18, last
# wi_stuff.c:793: 	for (i=0 ; i<=last ; i++)
	.loc 1 793 8
	movl	$0, -8(%rbp)	#, i
# wi_stuff.c:793: 	for (i=0 ; i<=last ; i++)
	.loc 1 793 2
	jmp	.L84	#
.L85:
# wi_stuff.c:794: 	    WI_drawOnLnode(i, &splat);
	.loc 1 794 6
	movl	-8(%rbp), %eax	# i, tmp99
	leaq	splat(%rip), %rdx	#, tmp100
	movq	%rdx, %rsi	# tmp100,
	movl	%eax, %edi	# tmp99,
	call	WI_drawOnLnode	#
# wi_stuff.c:793: 	for (i=0 ; i<=last ; i++)
	.loc 1 793 24 discriminator 3
	addl	$1, -8(%rbp)	#, i
.L84:
# wi_stuff.c:793: 	for (i=0 ; i<=last ; i++)
	.loc 1 793 14 discriminator 1
	movl	-8(%rbp), %eax	# i, tmp101
	cmpl	-4(%rbp), %eax	# last, tmp101
	jle	.L85	#,
# wi_stuff.c:797: 	if (wbs->didsecret)
	.loc 1 797 9
	movq	wbs(%rip), %rax	# wbs, wbs.60_9
	movl	4(%rax), %eax	# wbs.60_9->didsecret, _10
# wi_stuff.c:797: 	if (wbs->didsecret)
	.loc 1 797 5
	testl	%eax, %eax	# _10
	je	.L86	#,
# wi_stuff.c:798: 	    WI_drawOnLnode(8, &splat);
	.loc 1 798 6
	leaq	splat(%rip), %rax	#, tmp102
	movq	%rax, %rsi	# tmp102,
	movl	$8, %edi	#,
	call	WI_drawOnLnode	#
.L86:
# wi_stuff.c:801: 	if (snl_pointeron)
	.loc 1 801 6
	movl	snl_pointeron(%rip), %eax	# snl_pointeron, snl_pointeron.61_11
# wi_stuff.c:801: 	if (snl_pointeron)
	.loc 1 801 5
	testl	%eax, %eax	# snl_pointeron.61_11
	je	.L79	#,
# wi_stuff.c:802: 	    WI_drawOnLnode(wbs->next, yah); 
	.loc 1 802 24
	movq	wbs(%rip), %rax	# wbs, wbs.62_12
# wi_stuff.c:802: 	    WI_drawOnLnode(wbs->next, yah); 
	.loc 1 802 6
	movl	12(%rax), %eax	# wbs.62_12->next, _13
	leaq	yah(%rip), %rdx	#, tmp103
	movq	%rdx, %rsi	# tmp103,
	movl	%eax, %edi	# _13,
	call	WI_drawOnLnode	#
.L79:
# wi_stuff.c:806:     if ( (gamemode != commercial)
	.loc 1 806 20
	movl	gamemode(%rip), %eax	# gamemode, gamemode.63_14
# wi_stuff.c:806:     if ( (gamemode != commercial)
	.loc 1 806 8
	cmpl	$2, %eax	#, gamemode.63_14
	jne	.L87	#,
# wi_stuff.c:807: 	 || wbs->next != 30)
	.loc 1 807 9
	movq	wbs(%rip), %rax	# wbs, wbs.64_15
	movl	12(%rax), %eax	# wbs.64_15->next, _16
# wi_stuff.c:807: 	 || wbs->next != 30)
	.loc 1 807 3
	cmpl	$30, %eax	#, _16
	je	.L78	#,
.L87:
# wi_stuff.c:808: 	WI_drawEL();  
	.loc 1 808 2
	call	WI_drawEL	#
.L78:
# wi_stuff.c:810: }
	.loc 1 810 1
	leave	
	.cfi_def_cfa 7, 8
	ret	
	.cfi_endproc
.LFE16:
	.size	WI_drawShowNextLoc, .-WI_drawShowNextLoc
	.globl	WI_drawNoState
	.type	WI_drawNoState, @function
WI_drawNoState:
.LFB17:
	.loc 1 813 1
	.cfi_startproc
	endbr64	
	pushq	%rbp	#
	.cfi_def_cfa_offset 16
	.cfi_offset 6, -16
	movq	%rsp, %rbp	#,
	.cfi_def_cfa_register 6
# wi_stuff.c:814:     snl_pointeron = true;
	.loc 1 814 19
	movl	$1, snl_pointeron(%rip)	#, snl_pointeron
# wi_stuff.c:815:     WI_drawShowNextLoc();
	.loc 1 815 5
	call	WI_drawShowNextLoc	#
# wi_stuff.c:816: }
	.loc 1 816 1
	nop	
	popq	%rbp	#
	.cfi_def_cfa 7, 8
	ret	
	.cfi_endproc
.LFE17:
	.size	WI_drawNoState, .-WI_drawNoState
	.globl	WI_fragSum
	.type	WI_fragSum, @function
WI_fragSum:
.LFB18:
	.loc 1 819 1
	.cfi_startproc
	endbr64	
	pushq	%rbp	#
	.cfi_def_cfa_offset 16
	.cfi_offset 6, -16
	movq	%rsp, %rbp	#,
	.cfi_def_cfa_register 6
	movl	%edi, -20(%rbp)	# playernum, playernum
# wi_stuff.c:821:     int		frags = 0;
	.loc 1 821 10
	movl	$0, -4(%rbp)	#, frags
# wi_stuff.c:823:     for (i=0 ; i<MAXPLAYERS ; i++)
	.loc 1 823 11
	movl	$0, -8(%rbp)	#, i
# wi_stuff.c:823:     for (i=0 ; i<MAXPLAYERS ; i++)
	.loc 1 823 5
	jmp	.L90	#
.L92:
# wi_stuff.c:825: 	if (playeringame[i]
	.loc 1 825 18
	movl	-8(%rbp), %eax	# i, tmp96
	cltq
	leaq	0(,%rax,4), %rdx	#, tmp97
	leaq	playeringame(%rip), %rax	#, tmp98
	movl	(%rdx,%rax), %eax	# playeringame[i_12], _1
# wi_stuff.c:825: 	if (playeringame[i]
	.loc 1 825 5
	testl	%eax, %eax	# _1
	je	.L91	#,
# wi_stuff.c:826: 	    && i!=playernum)
	.loc 1 826 6
	movl	-8(%rbp), %eax	# i, tmp99
	cmpl	-20(%rbp), %eax	# playernum, tmp99
	je	.L91	#,
# wi_stuff.c:828: 	    frags += plrs[playernum].frags[i];
	.loc 1 828 19
	movq	plrs(%rip), %rcx	# plrs, plrs.65_2
	movl	-20(%rbp), %eax	# playernum, tmp100
	movslq	%eax, %rdx	# tmp100, _3
	movq	%rdx, %rax	# _3, tmp101
	salq	$2, %rax	#, tmp101
	addq	%rdx, %rax	# _3, tmp101
	salq	$3, %rax	#, tmp102
	addq	%rcx, %rax	# plrs.65_2, _5
# wi_stuff.c:828: 	    frags += plrs[playernum].frags[i];
	.loc 1 828 36
	movl	-8(%rbp), %edx	# i, tmp104
	movslq	%edx, %rdx	# tmp104, tmp103
	addq	$4, %rdx	#, tmp105
	movl	4(%rax,%rdx,4), %eax	# _5->frags[i_12], _6
# wi_stuff.c:828: 	    frags += plrs[playernum].frags[i];
	.loc 1 828 12
	addl	%eax, -4(%rbp)	# _6, frags
.L91:
# wi_stuff.c:823:     for (i=0 ; i<MAXPLAYERS ; i++)
	.loc 1 823 32 discriminator 2
	addl	$1, -8(%rbp)	#, i
.L90:
# wi_stuff.c:823:     for (i=0 ; i<MAXPLAYERS ; i++)
	.loc 1 823 17 discriminator 1
	cmpl	$3, -8(%rbp)	#, i
	jle	.L92	#,
# wi_stuff.c:834:     frags -= plrs[playernum].frags[playernum];
	.loc 1 834 18
	movq	plrs(%rip), %rcx	# plrs, plrs.66_7
	movl	-20(%rbp), %eax	# playernum, tmp106
	movslq	%eax, %rdx	# tmp106, _8
	movq	%rdx, %rax	# _8, tmp107
	salq	$2, %rax	#, tmp107
	addq	%rdx, %rax	# _8, tmp107
	salq	$3, %rax	#, tmp108
	addq	%rcx, %rax	# plrs.66_7, _10
# wi_stuff.c:834:     frags -= plrs[playernum].frags[playernum];
	.loc 1 834 35
	movl	-20(%rbp), %edx	# playernum, tmp110
	movslq	%edx, %rdx	# tmp110, tmp109
	addq	$4, %rdx	#, tmp111
	movl	4(%rax,%rdx,4), %eax	# _10->frags[playernum_18(D)], _11
# wi_stuff.c:834:     frags -= plrs[playernum].frags[playernum];
	.loc 1 834 11
	subl	%eax, -4(%rbp)	# _11, frags
# wi_stuff.c:838:     return frags;
	.loc 1 838 12
	movl	-4(%rbp), %eax	# frags, _20
# wi_stuff.c:839: }
	.loc 1 839 1
	popq	%rbp	#
	.cfi_def_cfa 7, 8
	ret	
	.cfi_endproc
.LFE18:
	.size	WI_fragSum, .-WI_fragSum
	.local	dm_state
	.comm	dm_state,4,4
	.local	dm_frags
	.comm	dm_frags,64,32
	.local	dm_totals
	.comm	dm_totals,16,16
	.globl	WI_initDeathmatchStats
	.type	WI_initDeathmatchStats, @function
WI_initDeathmatchStats:
.LFB19:
	.loc 1 850 1
	.cfi_startproc
	endbr64	
	pushq	%rbp	#
	.cfi_def_cfa_offset 16
	.cfi_offset 6, -16
	movq	%rsp, %rbp	#,
	.cfi_def_cfa_register 6
	subq	$16, %rsp	#,
# wi_stuff.c:855:     state = StatCount;
	.loc 1 855 11
	movl	$0, state(%rip)	#, state
# wi_stuff.c:856:     acceleratestage = 0;
	.loc 1 856 21
	movl	$0, acceleratestage(%rip)	#, acceleratestage
# wi_stuff.c:857:     dm_state = 1;
	.loc 1 857 14
	movl	$1, dm_state(%rip)	#, dm_state
# wi_stuff.c:859:     cnt_pause = TICRATE;
	.loc 1 859 15
	movl	$35, cnt_pause(%rip)	#, cnt_pause
# wi_stuff.c:861:     for (i=0 ; i<MAXPLAYERS ; i++)
	.loc 1 861 11
	movl	$0, -8(%rbp)	#, i
# wi_stuff.c:861:     for (i=0 ; i<MAXPLAYERS ; i++)
	.loc 1 861 5
	jmp	.L95	#
.L100:
# wi_stuff.c:863: 	if (playeringame[i])
	.loc 1 863 18
	movl	-8(%rbp), %eax	# i, tmp85
	cltq
	leaq	0(,%rax,4), %rdx	#, tmp86
	leaq	playeringame(%rip), %rax	#, tmp87
	movl	(%rdx,%rax), %eax	# playeringame[i_3], _1
# wi_stuff.c:863: 	if (playeringame[i])
	.loc 1 863 5
	testl	%eax, %eax	# _1
	je	.L96	#,
# wi_stuff.c:865: 	    for (j=0 ; j<MAXPLAYERS ; j++)
	.loc 1 865 12
	movl	$0, -4(%rbp)	#, j
# wi_stuff.c:865: 	    for (j=0 ; j<MAXPLAYERS ; j++)
	.loc 1 865 6
	jmp	.L97	#
.L99:
# wi_stuff.c:866: 		if (playeringame[j])
	.loc 1 866 19
	movl	-4(%rbp), %eax	# j, tmp89
	cltq
	leaq	0(,%rax,4), %rdx	#, tmp90
	leaq	playeringame(%rip), %rax	#, tmp91
	movl	(%rdx,%rax), %eax	# playeringame[j_4], _2
# wi_stuff.c:866: 		if (playeringame[j])
	.loc 1 866 6
	testl	%eax, %eax	# _2
	je	.L98	#,
# wi_stuff.c:867: 		    dm_frags[i][j] = 0;
	.loc 1 867 22
	movl	-4(%rbp), %eax	# j, tmp93
	cltq
	movl	-8(%rbp), %edx	# i, tmp95
	movslq	%edx, %rdx	# tmp95, tmp94
	salq	$2, %rdx	#, tmp96
	addq	%rdx, %rax	# tmp96, tmp97
	leaq	0(,%rax,4), %rdx	#, tmp98
	leaq	dm_frags(%rip), %rax	#, tmp99
	movl	$0, (%rdx,%rax)	#, dm_frags[i_3][j_4]
.L98:
# wi_stuff.c:865: 	    for (j=0 ; j<MAXPLAYERS ; j++)
	.loc 1 865 33 discriminator 2
	addl	$1, -4(%rbp)	#, j
.L97:
# wi_stuff.c:865: 	    for (j=0 ; j<MAXPLAYERS ; j++)
	.loc 1 865 18 discriminator 1
	cmpl	$3, -4(%rbp)	#, j
	jle	.L99	#,
# wi_stuff.c:869: 	    dm_totals[i] = 0;
	.loc 1 869 19
	movl	-8(%rbp), %eax	# i, tmp101
	cltq
	leaq	0(,%rax,4), %rdx	#, tmp102
	leaq	dm_totals(%rip), %rax	#, tmp103
	movl	$0, (%rdx,%rax)	#, dm_totals[i_3]
.L96:
# wi_stuff.c:861:     for (i=0 ; i<MAXPLAYERS ; i++)
	.loc 1 861 32 discriminator 2
	addl	$1, -8(%rbp)	#, i
.L95:
# wi_stuff.c:861:     for (i=0 ; i<MAXPLAYERS ; i++)
	.loc 1 861 17 discriminator 1
	cmpl	$3, -8(%rbp)	#, i
	jle	.L100	#,
# wi_stuff.c:873:     WI_initAnimatedBack();
	.loc 1 873 5
	call	WI_initAnimatedBack	#
# wi_stuff.c:874: }
	.loc 1 874 1
	nop	
	leave	
	.cfi_def_cfa 7, 8
	ret	
	.cfi_endproc
.LFE19:
	.size	WI_initDeathmatchStats, .-WI_initDeathmatchStats
	.globl	WI_updateDeathmatchStats
	.type	WI_updateDeathmatchStats, @function
WI_updateDeathmatchStats:
.LFB20:
	.loc 1 879 1
	.cfi_startproc
	endbr64	
	pushq	%rbp	#
	.cfi_def_cfa_offset 16
	.cfi_offset 6, -16
	movq	%rsp, %rbp	#,
	.cfi_def_cfa_register 6
	subq	$16, %rsp	#,
# wi_stuff.c:886:     WI_updateAnimatedBack();
	.loc 1 886 5
	call	WI_updateAnimatedBack	#
# wi_stuff.c:888:     if (acceleratestage && dm_state != 4)
	.loc 1 888 9
	movl	acceleratestage(%rip), %eax	# acceleratestage, acceleratestage.67_1
# wi_stuff.c:888:     if (acceleratestage && dm_state != 4)
	.loc 1 888 8
	testl	%eax, %eax	# acceleratestage.67_1
	je	.L102	#,
# wi_stuff.c:888:     if (acceleratestage && dm_state != 4)
	.loc 1 888 37 discriminator 1
	movl	dm_state(%rip), %eax	# dm_state, dm_state.68_2
# wi_stuff.c:888:     if (acceleratestage && dm_state != 4)
	.loc 1 888 25 discriminator 1
	cmpl	$4, %eax	#, dm_state.68_2
	je	.L102	#,
# wi_stuff.c:890: 	acceleratestage = 0;
	.loc 1 890 18
	movl	$0, acceleratestage(%rip)	#, acceleratestage
# wi_stuff.c:892: 	for (i=0 ; i<MAXPLAYERS ; i++)
	.loc 1 892 8
	movl	$0, -12(%rbp)	#, i
# wi_stuff.c:892: 	for (i=0 ; i<MAXPLAYERS ; i++)
	.loc 1 892 2
	jmp	.L103	#
.L108:
# wi_stuff.c:894: 	    if (playeringame[i])
	.loc 1 894 22
	movl	-12(%rbp), %eax	# i, tmp130
	cltq
	leaq	0(,%rax,4), %rdx	#, tmp131
	leaq	playeringame(%rip), %rax	#, tmp132
	movl	(%rdx,%rax), %eax	# playeringame[i_48], _3
# wi_stuff.c:894: 	    if (playeringame[i])
	.loc 1 894 9
	testl	%eax, %eax	# _3
	je	.L104	#,
# wi_stuff.c:896: 		for (j=0 ; j<MAXPLAYERS ; j++)
	.loc 1 896 9
	movl	$0, -8(%rbp)	#, j
# wi_stuff.c:896: 		for (j=0 ; j<MAXPLAYERS ; j++)
	.loc 1 896 3
	jmp	.L105	#
.L107:
# wi_stuff.c:897: 		    if (playeringame[j])
	.loc 1 897 23
	movl	-8(%rbp), %eax	# j, tmp134
	cltq
	leaq	0(,%rax,4), %rdx	#, tmp135
	leaq	playeringame(%rip), %rax	#, tmp136
	movl	(%rdx,%rax), %eax	# playeringame[j_50], _4
# wi_stuff.c:897: 		    if (playeringame[j])
	.loc 1 897 10
	testl	%eax, %eax	# _4
	je	.L106	#,
# wi_stuff.c:898: 			dm_frags[i][j] = plrs[i].frags[j];
	.loc 1 898 25
	movq	plrs(%rip), %rcx	# plrs, plrs.69_5
	movl	-12(%rbp), %eax	# i, tmp137
	movslq	%eax, %rdx	# tmp137, _6
	movq	%rdx, %rax	# _6, tmp138
	salq	$2, %rax	#, tmp138
	addq	%rdx, %rax	# _6, tmp138
	salq	$3, %rax	#, tmp139
	addq	%rcx, %rax	# plrs.69_5, _8
# wi_stuff.c:898: 			dm_frags[i][j] = plrs[i].frags[j];
	.loc 1 898 34
	movl	-8(%rbp), %edx	# j, tmp141
	movslq	%edx, %rdx	# tmp141, tmp140
	addq	$4, %rdx	#, tmp142
	movl	4(%rax,%rdx,4), %eax	# _8->frags[j_50], _9
# wi_stuff.c:898: 			dm_frags[i][j] = plrs[i].frags[j];
	.loc 1 898 19
	movl	-8(%rbp), %edx	# j, tmp144
	movslq	%edx, %rdx	# tmp144, tmp143
	movl	-12(%rbp), %ecx	# i, tmp146
	movslq	%ecx, %rcx	# tmp146, tmp145
	salq	$2, %rcx	#, tmp147
	addq	%rcx, %rdx	# tmp147, tmp148
	leaq	0(,%rdx,4), %rcx	#, tmp149
	leaq	dm_frags(%rip), %rdx	#, tmp150
	movl	%eax, (%rcx,%rdx)	# _9, dm_frags[i_48][j_50]
.L106:
# wi_stuff.c:896: 		for (j=0 ; j<MAXPLAYERS ; j++)
	.loc 1 896 30 discriminator 2
	addl	$1, -8(%rbp)	#, j
.L105:
# wi_stuff.c:896: 		for (j=0 ; j<MAXPLAYERS ; j++)
	.loc 1 896 15 discriminator 1
	cmpl	$3, -8(%rbp)	#, j
	jle	.L107	#,
# wi_stuff.c:900: 		dm_totals[i] = WI_fragSum(i);
	.loc 1 900 18
	movl	-12(%rbp), %eax	# i, tmp151
	movl	%eax, %edi	# tmp151,
	call	WI_fragSum	#
# wi_stuff.c:900: 		dm_totals[i] = WI_fragSum(i);
	.loc 1 900 16 discriminator 1
	movl	-12(%rbp), %edx	# i, tmp153
	movslq	%edx, %rdx	# tmp153, tmp152
	leaq	0(,%rdx,4), %rcx	#, tmp154
	leaq	dm_totals(%rip), %rdx	#, tmp155
	movl	%eax, (%rcx,%rdx)	# _10, dm_totals[i_48]
.L104:
# wi_stuff.c:892: 	for (i=0 ; i<MAXPLAYERS ; i++)
	.loc 1 892 29 discriminator 2
	addl	$1, -12(%rbp)	#, i
.L103:
# wi_stuff.c:892: 	for (i=0 ; i<MAXPLAYERS ; i++)
	.loc 1 892 14 discriminator 1
	cmpl	$3, -12(%rbp)	#, i
	jle	.L108	#,
# wi_stuff.c:905: 	S_StartSound(0, sfx_barexp);
	.loc 1 905 2
	movl	$82, %esi	#,
	movl	$0, %edi	#,
	call	S_StartSound@PLT	#
# wi_stuff.c:906: 	dm_state = 4;
	.loc 1 906 11
	movl	$4, dm_state(%rip)	#, dm_state
.L102:
# wi_stuff.c:910:     if (dm_state == 2)
	.loc 1 910 18
	movl	dm_state(%rip), %eax	# dm_state, dm_state.70_11
# wi_stuff.c:910:     if (dm_state == 2)
	.loc 1 910 8
	cmpl	$2, %eax	#, dm_state.70_11
	jne	.L109	#,
# wi_stuff.c:912: 	if (!(bcnt&3))
	.loc 1 912 12
	movl	bcnt(%rip), %eax	# bcnt, bcnt.71_12
	andl	$3, %eax	#, _13
# wi_stuff.c:912: 	if (!(bcnt&3))
	.loc 1 912 5
	testl	%eax, %eax	# _13
	jne	.L110	#,
# wi_stuff.c:913: 	    S_StartSound(0, sfx_pistol);
	.loc 1 913 6
	movl	$1, %esi	#,
	movl	$0, %edi	#,
	call	S_StartSound@PLT	#
.L110:
# wi_stuff.c:915: 	stillticking = false;
	.loc 1 915 15
	movl	$0, -4(%rbp)	#, stillticking
# wi_stuff.c:917: 	for (i=0 ; i<MAXPLAYERS ; i++)
	.loc 1 917 8
	movl	$0, -12(%rbp)	#, i
# wi_stuff.c:917: 	for (i=0 ; i<MAXPLAYERS ; i++)
	.loc 1 917 2
	jmp	.L111	#
.L121:
# wi_stuff.c:919: 	    if (playeringame[i])
	.loc 1 919 22
	movl	-12(%rbp), %eax	# i, tmp157
	cltq
	leaq	0(,%rax,4), %rdx	#, tmp158
	leaq	playeringame(%rip), %rax	#, tmp159
	movl	(%rdx,%rax), %eax	# playeringame[i_49], _14
# wi_stuff.c:919: 	    if (playeringame[i])
	.loc 1 919 9
	testl	%eax, %eax	# _14
	je	.L112	#,
# wi_stuff.c:921: 		for (j=0 ; j<MAXPLAYERS ; j++)
	.loc 1 921 9
	movl	$0, -8(%rbp)	#, j
# wi_stuff.c:921: 		for (j=0 ; j<MAXPLAYERS ; j++)
	.loc 1 921 3
	jmp	.L113	#
.L119:
# wi_stuff.c:923: 		    if (playeringame[j]
	.loc 1 923 23
	movl	-8(%rbp), %eax	# j, tmp161
	cltq
	leaq	0(,%rax,4), %rdx	#, tmp162
	leaq	playeringame(%rip), %rax	#, tmp163
	movl	(%rdx,%rax), %eax	# playeringame[j_51], _15
# wi_stuff.c:923: 		    if (playeringame[j]
	.loc 1 923 10
	testl	%eax, %eax	# _15
	je	.L114	#,
# wi_stuff.c:924: 			&& dm_frags[i][j] != plrs[i].frags[j])
	.loc 1 924 18
	movl	-8(%rbp), %eax	# j, tmp165
	cltq
	movl	-12(%rbp), %edx	# i, tmp167
	movslq	%edx, %rdx	# tmp167, tmp166
	salq	$2, %rdx	#, tmp168
	addq	%rdx, %rax	# tmp168, tmp169
	leaq	0(,%rax,4), %rdx	#, tmp170
	leaq	dm_frags(%rip), %rax	#, tmp171
	movl	(%rdx,%rax), %ecx	# dm_frags[i_49][j_51], _16
# wi_stuff.c:924: 			&& dm_frags[i][j] != plrs[i].frags[j])
	.loc 1 924 29
	movq	plrs(%rip), %rsi	# plrs, plrs.72_17
	movl	-12(%rbp), %eax	# i, tmp172
	movslq	%eax, %rdx	# tmp172, _18
	movq	%rdx, %rax	# _18, tmp173
	salq	$2, %rax	#, tmp173
	addq	%rdx, %rax	# _18, tmp173
	salq	$3, %rax	#, tmp174
	addq	%rsi, %rax	# plrs.72_17, _20
# wi_stuff.c:924: 			&& dm_frags[i][j] != plrs[i].frags[j])
	.loc 1 924 38
	movl	-8(%rbp), %edx	# j, tmp176
	movslq	%edx, %rdx	# tmp176, tmp175
	addq	$4, %rdx	#, tmp177
	movl	4(%rax,%rdx,4), %eax	# _20->frags[j_51], _21
# wi_stuff.c:924: 			&& dm_frags[i][j] != plrs[i].frags[j])
	.loc 1 924 4
	cmpl	%eax, %ecx	# _21, _16
	je	.L114	#,
# wi_stuff.c:926: 			if (plrs[i].frags[j] < 0)
	.loc 1 926 12
	movq	plrs(%rip), %rcx	# plrs, plrs.73_22
	movl	-12(%rbp), %eax	# i, tmp178
	movslq	%eax, %rdx	# tmp178, _23
	movq	%rdx, %rax	# _23, tmp179
	salq	$2, %rax	#, tmp179
	addq	%rdx, %rax	# _23, tmp179
	salq	$3, %rax	#, tmp180
	addq	%rcx, %rax	# plrs.73_22, _25
# wi_stuff.c:926: 			if (plrs[i].frags[j] < 0)
	.loc 1 926 21
	movl	-8(%rbp), %edx	# j, tmp182
	movslq	%edx, %rdx	# tmp182, tmp181
	addq	$4, %rdx	#, tmp183
	movl	4(%rax,%rdx,4), %eax	# _25->frags[j_51], _26
# wi_stuff.c:926: 			if (plrs[i].frags[j] < 0)
	.loc 1 926 7
	testl	%eax, %eax	# _26
	jns	.L115	#,
# wi_stuff.c:927: 			    dm_frags[i][j]--;
	.loc 1 927 19
	movl	-8(%rbp), %eax	# j, tmp185
	cltq
	movl	-12(%rbp), %edx	# i, tmp187
	movslq	%edx, %rdx	# tmp187, tmp186
	salq	$2, %rdx	#, tmp188
	addq	%rdx, %rax	# tmp188, tmp189
	leaq	0(,%rax,4), %rdx	#, tmp190
	leaq	dm_frags(%rip), %rax	#, tmp191
	movl	(%rdx,%rax), %eax	# dm_frags[i_49][j_51], _27
# wi_stuff.c:927: 			    dm_frags[i][j]--;
	.loc 1 927 22
	leal	-1(%rax), %ecx	#, _28
	movl	-8(%rbp), %eax	# j, tmp193
	cltq
	movl	-12(%rbp), %edx	# i, tmp195
	movslq	%edx, %rdx	# tmp195, tmp194
	salq	$2, %rdx	#, tmp196
	addq	%rdx, %rax	# tmp196, tmp197
	leaq	0(,%rax,4), %rdx	#, tmp198
	leaq	dm_frags(%rip), %rax	#, tmp199
	movl	%ecx, (%rdx,%rax)	# _28, dm_frags[i_49][j_51]
	jmp	.L116	#
.L115:
# wi_stuff.c:929: 			    dm_frags[i][j]++;
	.loc 1 929 19
	movl	-8(%rbp), %eax	# j, tmp201
	cltq
	movl	-12(%rbp), %edx	# i, tmp203
	movslq	%edx, %rdx	# tmp203, tmp202
	salq	$2, %rdx	#, tmp204
	addq	%rdx, %rax	# tmp204, tmp205
	leaq	0(,%rax,4), %rdx	#, tmp206
	leaq	dm_frags(%rip), %rax	#, tmp207
	movl	(%rdx,%rax), %eax	# dm_frags[i_49][j_51], _29
# wi_stuff.c:929: 			    dm_frags[i][j]++;
	.loc 1 929 22
	leal	1(%rax), %ecx	#, _30
	movl	-8(%rbp), %eax	# j, tmp209
	cltq
	movl	-12(%rbp), %edx	# i, tmp211
	movslq	%edx, %rdx	# tmp211, tmp210
	salq	$2, %rdx	#, tmp212
	addq	%rdx, %rax	# tmp212, tmp213
	leaq	0(,%rax,4), %rdx	#, tmp214
	leaq	dm_frags(%rip), %rax	#, tmp215
	movl	%ecx, (%rdx,%rax)	# _30, dm_frags[i_49][j_51]
.L116:
# wi_stuff.c:931: 			if (dm_frags[i][j] > 99)
	.loc 1 931 19
	movl	-8(%rbp), %eax	# j, tmp217
	cltq
	movl	-12(%rbp), %edx	# i, tmp219
	movslq	%edx, %rdx	# tmp219, tmp218
	salq	$2, %rdx	#, tmp220
	addq	%rdx, %rax	# tmp220, tmp221
	leaq	0(,%rax,4), %rdx	#, tmp222
	leaq	dm_frags(%rip), %rax	#, tmp223
	movl	(%rdx,%rax), %eax	# dm_frags[i_49][j_51], _31
# wi_stuff.c:931: 			if (dm_frags[i][j] > 99)
	.loc 1 931 7
	cmpl	$99, %eax	#, _31
	jle	.L117	#,
# wi_stuff.c:932: 			    dm_frags[i][j] = 99;
	.loc 1 932 23
	movl	-8(%rbp), %eax	# j, tmp225
	cltq
	movl	-12(%rbp), %edx	# i, tmp227
	movslq	%edx, %rdx	# tmp227, tmp226
	salq	$2, %rdx	#, tmp228
	addq	%rdx, %rax	# tmp228, tmp229
	leaq	0(,%rax,4), %rdx	#, tmp230
	leaq	dm_frags(%rip), %rax	#, tmp231
	movl	$99, (%rdx,%rax)	#, dm_frags[i_49][j_51]
.L117:
# wi_stuff.c:934: 			if (dm_frags[i][j] < -99)
	.loc 1 934 19
	movl	-8(%rbp), %eax	# j, tmp233
	cltq
	movl	-12(%rbp), %edx	# i, tmp235
	movslq	%edx, %rdx	# tmp235, tmp234
	salq	$2, %rdx	#, tmp236
	addq	%rdx, %rax	# tmp236, tmp237
	leaq	0(,%rax,4), %rdx	#, tmp238
	leaq	dm_frags(%rip), %rax	#, tmp239
	movl	(%rdx,%rax), %eax	# dm_frags[i_49][j_51], _32
# wi_stuff.c:934: 			if (dm_frags[i][j] < -99)
	.loc 1 934 7
	cmpl	$-99, %eax	#, _32
	jge	.L118	#,
# wi_stuff.c:935: 			    dm_frags[i][j] = -99;
	.loc 1 935 23
	movl	-8(%rbp), %eax	# j, tmp241
	cltq
	movl	-12(%rbp), %edx	# i, tmp243
	movslq	%edx, %rdx	# tmp243, tmp242
	salq	$2, %rdx	#, tmp244
	addq	%rdx, %rax	# tmp244, tmp245
	leaq	0(,%rax,4), %rdx	#, tmp246
	leaq	dm_frags(%rip), %rax	#, tmp247
	movl	$-99, (%rdx,%rax)	#, dm_frags[i_49][j_51]
.L118:
# wi_stuff.c:937: 			stillticking = true;
	.loc 1 937 17
	movl	$1, -4(%rbp)	#, stillticking
.L114:
# wi_stuff.c:921: 		for (j=0 ; j<MAXPLAYERS ; j++)
	.loc 1 921 30 discriminator 2
	addl	$1, -8(%rbp)	#, j
.L113:
# wi_stuff.c:921: 		for (j=0 ; j<MAXPLAYERS ; j++)
	.loc 1 921 15 discriminator 1
	cmpl	$3, -8(%rbp)	#, j
	jle	.L119	#,
# wi_stuff.c:940: 		dm_totals[i] = WI_fragSum(i);
	.loc 1 940 18
	movl	-12(%rbp), %eax	# i, tmp248
	movl	%eax, %edi	# tmp248,
	call	WI_fragSum	#
# wi_stuff.c:940: 		dm_totals[i] = WI_fragSum(i);
	.loc 1 940 16 discriminator 1
	movl	-12(%rbp), %edx	# i, tmp250
	movslq	%edx, %rdx	# tmp250, tmp249
	leaq	0(,%rdx,4), %rcx	#, tmp251
	leaq	dm_totals(%rip), %rdx	#, tmp252
	movl	%eax, (%rcx,%rdx)	# _33, dm_totals[i_49]
# wi_stuff.c:942: 		if (dm_totals[i] > 99)
	.loc 1 942 16
	movl	-12(%rbp), %eax	# i, tmp254
	cltq
	leaq	0(,%rax,4), %rdx	#, tmp255
	leaq	dm_totals(%rip), %rax	#, tmp256
	movl	(%rdx,%rax), %eax	# dm_totals[i_49], _34
# wi_stuff.c:942: 		if (dm_totals[i] > 99)
	.loc 1 942 6
	cmpl	$99, %eax	#, _34
	jle	.L120	#,
# wi_stuff.c:943: 		    dm_totals[i] = 99;
	.loc 1 943 20
	movl	-12(%rbp), %eax	# i, tmp258
	cltq
	leaq	0(,%rax,4), %rdx	#, tmp259
	leaq	dm_totals(%rip), %rax	#, tmp260
	movl	$99, (%rdx,%rax)	#, dm_totals[i_49]
.L120:
# wi_stuff.c:945: 		if (dm_totals[i] < -99)
	.loc 1 945 16
	movl	-12(%rbp), %eax	# i, tmp262
	cltq
	leaq	0(,%rax,4), %rdx	#, tmp263
	leaq	dm_totals(%rip), %rax	#, tmp264
	movl	(%rdx,%rax), %eax	# dm_totals[i_49], _35
# wi_stuff.c:945: 		if (dm_totals[i] < -99)
	.loc 1 945 6
	cmpl	$-99, %eax	#, _35
	jge	.L112	#,
# wi_stuff.c:946: 		    dm_totals[i] = -99;
	.loc 1 946 20
	movl	-12(%rbp), %eax	# i, tmp266
	cltq
	leaq	0(,%rax,4), %rdx	#, tmp267
	leaq	dm_totals(%rip), %rax	#, tmp268
	movl	$-99, (%rdx,%rax)	#, dm_totals[i_49]
.L112:
# wi_stuff.c:917: 	for (i=0 ; i<MAXPLAYERS ; i++)
	.loc 1 917 29 discriminator 2
	addl	$1, -12(%rbp)	#, i
.L111:
# wi_stuff.c:917: 	for (i=0 ; i<MAXPLAYERS ; i++)
	.loc 1 917 14 discriminator 1
	cmpl	$3, -12(%rbp)	#, i
	jle	.L121	#,
# wi_stuff.c:950: 	if (!stillticking)
	.loc 1 950 5
	cmpl	$0, -4(%rbp)	#, stillticking
	jne	.L125	#,
# wi_stuff.c:952: 	    S_StartSound(0, sfx_barexp);
	.loc 1 952 6
	movl	$82, %esi	#,
	movl	$0, %edi	#,
	call	S_StartSound@PLT	#
# wi_stuff.c:953: 	    dm_state++;
	.loc 1 953 14
	movl	dm_state(%rip), %eax	# dm_state, dm_state.74_36
	addl	$1, %eax	#, _37
	movl	%eax, dm_state(%rip)	# _37, dm_state
# wi_stuff.c:977: }
	.loc 1 977 1
	jmp	.L125	#
.L109:
# wi_stuff.c:957:     else if (dm_state == 4)
	.loc 1 957 23
	movl	dm_state(%rip), %eax	# dm_state, dm_state.75_38
# wi_stuff.c:957:     else if (dm_state == 4)
	.loc 1 957 13
	cmpl	$4, %eax	#, dm_state.75_38
	jne	.L123	#,
# wi_stuff.c:959: 	if (acceleratestage)
	.loc 1 959 6
	movl	acceleratestage(%rip), %eax	# acceleratestage, acceleratestage.76_39
# wi_stuff.c:959: 	if (acceleratestage)
	.loc 1 959 5
	testl	%eax, %eax	# acceleratestage.76_39
	je	.L125	#,
# wi_stuff.c:961: 	    S_StartSound(0, sfx_slop);
	.loc 1 961 6
	movl	$31, %esi	#,
	movl	$0, %edi	#,
	call	S_StartSound@PLT	#
# wi_stuff.c:963: 	    if ( gamemode == commercial)
	.loc 1 963 20
	movl	gamemode(%rip), %eax	# gamemode, gamemode.77_40
# wi_stuff.c:963: 	    if ( gamemode == commercial)
	.loc 1 963 9
	cmpl	$2, %eax	#, gamemode.77_40
	jne	.L124	#,
# wi_stuff.c:964: 		WI_initNoState();
	.loc 1 964 3
	call	WI_initNoState	#
# wi_stuff.c:977: }
	.loc 1 977 1
	jmp	.L125	#
.L124:
# wi_stuff.c:966: 		WI_initShowNextLoc();
	.loc 1 966 3
	call	WI_initShowNextLoc	#
# wi_stuff.c:977: }
	.loc 1 977 1
	jmp	.L125	#
.L123:
# wi_stuff.c:969:     else if (dm_state & 1)
	.loc 1 969 23
	movl	dm_state(%rip), %eax	# dm_state, dm_state.78_41
	andl	$1, %eax	#, _42
# wi_stuff.c:969:     else if (dm_state & 1)
	.loc 1 969 13
	testl	%eax, %eax	# _42
	je	.L125	#,
# wi_stuff.c:971: 	if (!--cnt_pause)
	.loc 1 971 7
	movl	cnt_pause(%rip), %eax	# cnt_pause, cnt_pause.79_43
	subl	$1, %eax	#, _44
# wi_stuff.c:971: 	if (!--cnt_pause)
	.loc 1 971 5
	movl	%eax, cnt_pause(%rip)	# _44, cnt_pause
# wi_stuff.c:971: 	if (!--cnt_pause)
	.loc 1 971 7
	movl	cnt_pause(%rip), %eax	# cnt_pause, cnt_pause.80_45
# wi_stuff.c:971: 	if (!--cnt_pause)
	.loc 1 971 5
	testl	%eax, %eax	# cnt_pause.80_45
	jne	.L125	#,
# wi_stuff.c:973: 	    dm_state++;
	.loc 1 973 14
	movl	dm_state(%rip), %eax	# dm_state, dm_state.81_46
	addl	$1, %eax	#, _47
	movl	%eax, dm_state(%rip)	# _47, dm_state
# wi_stuff.c:974: 	    cnt_pause = TICRATE;
	.loc 1 974 16
	movl	$35, cnt_pause(%rip)	#, cnt_pause
.L125:
# wi_stuff.c:977: }
	.loc 1 977 1
	nop	
	leave	
	.cfi_def_cfa 7, 8
	ret	
	.cfi_endproc
.LFE20:
	.size	WI_updateDeathmatchStats, .-WI_updateDeathmatchStats
	.globl	WI_drawDeathmatchStats
	.type	WI_drawDeathmatchStats, @function
WI_drawDeathmatchStats:
.LFB21:
	.loc 1 982 1
	.cfi_startproc
	endbr64	
	pushq	%rbp	#
	.cfi_def_cfa_offset 16
	.cfi_offset 6, -16
	movq	%rsp, %rbp	#,
	.cfi_def_cfa_register 6
	subq	$32, %rsp	#,
# wi_stuff.c:992:     lh = WI_SPACINGY;
	.loc 1 992 8
	movl	$33, -8(%rbp)	#, lh
# wi_stuff.c:994:     WI_slamBackground();
	.loc 1 994 5
	call	WI_slamBackground	#
# wi_stuff.c:997:     WI_drawAnimatedBack(); 
	.loc 1 997 5
	call	WI_drawAnimatedBack	#
# wi_stuff.c:998:     WI_drawLF();
	.loc 1 998 5
	call	WI_drawLF	#
# wi_stuff.c:1001:     V_DrawPatch(DM_TOTALSX-SHORT(total->width)/2,
	.loc 1 1001 5
	movq	total(%rip), %rax	# total, total.82_1
# wi_stuff.c:1001:     V_DrawPatch(DM_TOTALSX-SHORT(total->width)/2,
	.loc 1 1001 28
	movq	total(%rip), %rdx	# total, total.83_2
	movzwl	(%rdx), %edx	# total.83_2->width, _3
# wi_stuff.c:1001:     V_DrawPatch(DM_TOTALSX-SHORT(total->width)/2,
	.loc 1 1001 47
	movl	%edx, %ecx	# _3, tmp124
	shrw	$15, %cx	#, tmp124
	addl	%ecx, %edx	# tmp124, tmp125
	sarw	%dx	# tmp126
	movswl	%dx, %edx	# _4, _5
# wi_stuff.c:1001:     V_DrawPatch(DM_TOTALSX-SHORT(total->width)/2,
	.loc 1 1001 5
	movl	$269, %ecx	#, tmp127
	movl	%ecx, %edi	# tmp127, tmp127
	subl	%edx, %edi	# _5, tmp127
	movq	%rax, %rcx	# total.82_1,
	movl	$0, %edx	#,
	movl	$45, %esi	#,
	call	V_DrawPatch@PLT	#
# wi_stuff.c:1006:     V_DrawPatch(DM_KILLERSX, DM_KILLERSY, FB, killers);
	.loc 1 1006 5
	movq	killers(%rip), %rax	# killers, killers.84_7
	movq	%rax, %rcx	# killers.84_7,
	movl	$0, %edx	#,
	movl	$100, %esi	#,
	movl	$10, %edi	#,
	call	V_DrawPatch@PLT	#
# wi_stuff.c:1007:     V_DrawPatch(DM_VICTIMSX, DM_VICTIMSY, FB, victims);
	.loc 1 1007 5
	movq	victims(%rip), %rax	# victims, victims.85_8
	movq	%rax, %rcx	# victims.85_8,
	movl	$0, %edx	#,
	movl	$50, %esi	#,
	movl	$5, %edi	#,
	call	V_DrawPatch@PLT	#
# wi_stuff.c:1010:     x = DM_MATRIXX + DM_SPACINGX;
	.loc 1 1010 7
	movl	$82, -16(%rbp)	#, x
# wi_stuff.c:1011:     y = DM_MATRIXY;
	.loc 1 1011 7
	movl	$68, -12(%rbp)	#, y
# wi_stuff.c:1013:     for (i=0 ; i<MAXPLAYERS ; i++)
	.loc 1 1013 11
	movl	$0, -24(%rbp)	#, i
# wi_stuff.c:1013:     for (i=0 ; i<MAXPLAYERS ; i++)
	.loc 1 1013 5
	jmp	.L127	#
.L129:
# wi_stuff.c:1015: 	if (playeringame[i])
	.loc 1 1015 18
	movl	-24(%rbp), %eax	# i, tmp129
	cltq
	leaq	0(,%rax,4), %rdx	#, tmp130
	leaq	playeringame(%rip), %rax	#, tmp131
	movl	(%rdx,%rax), %eax	# playeringame[i_43], _9
# wi_stuff.c:1015: 	if (playeringame[i])
	.loc 1 1015 5
	testl	%eax, %eax	# _9
	je	.L128	#,
# wi_stuff.c:1017: 	    V_DrawPatch(x-SHORT(p[i]->width)/2,
	.loc 1 1017 6
	movl	-24(%rbp), %eax	# i, tmp133
	cltq
	leaq	0(,%rax,8), %rdx	#, tmp134
	leaq	p(%rip), %rax	#, tmp135
	movq	(%rdx,%rax), %rax	# p[i_43], _10
# wi_stuff.c:1017: 	    V_DrawPatch(x-SHORT(p[i]->width)/2,
	.loc 1 1017 20
	movl	-24(%rbp), %edx	# i, tmp137
	movslq	%edx, %rdx	# tmp137, tmp136
	leaq	0(,%rdx,8), %rcx	#, tmp138
	leaq	p(%rip), %rdx	#, tmp139
	movq	(%rcx,%rdx), %rdx	# p[i_43], _11
	movzwl	(%rdx), %edx	# _11->width, _12
# wi_stuff.c:1017: 	    V_DrawPatch(x-SHORT(p[i]->width)/2,
	.loc 1 1017 38
	movl	%edx, %ecx	# _12, tmp140
	shrw	$15, %cx	#, tmp140
	addl	%ecx, %edx	# tmp140, tmp141
	sarw	%dx	# tmp142
	movswl	%dx, %edx	# _13, _14
# wi_stuff.c:1017: 	    V_DrawPatch(x-SHORT(p[i]->width)/2,
	.loc 1 1017 6
	movl	-16(%rbp), %ecx	# x, tmp143
	movl	%ecx, %edi	# tmp143, tmp143
	subl	%edx, %edi	# _14, tmp143
	movq	%rax, %rcx	# _10,
	movl	$0, %edx	#,
	movl	$35, %esi	#,
	call	V_DrawPatch@PLT	#
# wi_stuff.c:1022: 	    V_DrawPatch(DM_MATRIXX-SHORT(p[i]->width)/2,
	.loc 1 1022 6
	movl	-24(%rbp), %eax	# i, tmp145
	cltq
	leaq	0(,%rax,8), %rdx	#, tmp146
	leaq	p(%rip), %rax	#, tmp147
	movq	(%rdx,%rax), %rdx	# p[i_43], _16
# wi_stuff.c:1022: 	    V_DrawPatch(DM_MATRIXX-SHORT(p[i]->width)/2,
	.loc 1 1022 29
	movl	-24(%rbp), %eax	# i, tmp149
	cltq
	leaq	0(,%rax,8), %rcx	#, tmp150
	leaq	p(%rip), %rax	#, tmp151
	movq	(%rcx,%rax), %rax	# p[i_43], _17
	movzwl	(%rax), %eax	# _17->width, _18
# wi_stuff.c:1022: 	    V_DrawPatch(DM_MATRIXX-SHORT(p[i]->width)/2,
	.loc 1 1022 47
	movl	%eax, %ecx	# _18, tmp152
	shrw	$15, %cx	#, tmp152
	addl	%ecx, %eax	# tmp152, tmp153
	sarw	%ax	# tmp154
	cwtl
# wi_stuff.c:1022: 	    V_DrawPatch(DM_MATRIXX-SHORT(p[i]->width)/2,
	.loc 1 1022 6
	movl	$42, %ecx	#, tmp155
	movl	%ecx, %edi	# tmp155, tmp155
	subl	%eax, %edi	# _20, tmp155
	movl	-12(%rbp), %eax	# y, tmp156
	movq	%rdx, %rcx	# _16,
	movl	$0, %edx	#,
	movl	%eax, %esi	# tmp156,
	call	V_DrawPatch@PLT	#
# wi_stuff.c:1027: 	    if (i == me)
	.loc 1 1027 12
	movl	me(%rip), %eax	# me, me.86_22
# wi_stuff.c:1027: 	    if (i == me)
	.loc 1 1027 9
	cmpl	%eax, -24(%rbp)	# me.86_22, i
	jne	.L128	#,
# wi_stuff.c:1029: 		V_DrawPatch(x-SHORT(p[i]->width)/2,
	.loc 1 1029 3
	movq	bstar(%rip), %rax	# bstar, bstar.87_23
# wi_stuff.c:1029: 		V_DrawPatch(x-SHORT(p[i]->width)/2,
	.loc 1 1029 17
	movl	-24(%rbp), %edx	# i, tmp158
	movslq	%edx, %rdx	# tmp158, tmp157
	leaq	0(,%rdx,8), %rcx	#, tmp159
	leaq	p(%rip), %rdx	#, tmp160
	movq	(%rcx,%rdx), %rdx	# p[i_43], _24
	movzwl	(%rdx), %edx	# _24->width, _25
# wi_stuff.c:1029: 		V_DrawPatch(x-SHORT(p[i]->width)/2,
	.loc 1 1029 35
	movl	%edx, %ecx	# _25, tmp161
	shrw	$15, %cx	#, tmp161
	addl	%ecx, %edx	# tmp161, tmp162
	sarw	%dx	# tmp163
	movswl	%dx, %edx	# _26, _27
# wi_stuff.c:1029: 		V_DrawPatch(x-SHORT(p[i]->width)/2,
	.loc 1 1029 3
	movl	-16(%rbp), %ecx	# x, tmp164
	movl	%ecx, %edi	# tmp164, tmp164
	subl	%edx, %edi	# _27, tmp164
	movq	%rax, %rcx	# bstar.87_23,
	movl	$0, %edx	#,
	movl	$35, %esi	#,
	call	V_DrawPatch@PLT	#
# wi_stuff.c:1034: 		V_DrawPatch(DM_MATRIXX-SHORT(p[i]->width)/2,
	.loc 1 1034 3
	movq	star(%rip), %rdx	# star, star.88_29
# wi_stuff.c:1034: 		V_DrawPatch(DM_MATRIXX-SHORT(p[i]->width)/2,
	.loc 1 1034 26
	movl	-24(%rbp), %eax	# i, tmp166
	cltq
	leaq	0(,%rax,8), %rcx	#, tmp167
	leaq	p(%rip), %rax	#, tmp168
	movq	(%rcx,%rax), %rax	# p[i_43], _30
	movzwl	(%rax), %eax	# _30->width, _31
# wi_stuff.c:1034: 		V_DrawPatch(DM_MATRIXX-SHORT(p[i]->width)/2,
	.loc 1 1034 44
	movl	%eax, %ecx	# _31, tmp169
	shrw	$15, %cx	#, tmp169
	addl	%ecx, %eax	# tmp169, tmp170
	sarw	%ax	# tmp171
	cwtl
# wi_stuff.c:1034: 		V_DrawPatch(DM_MATRIXX-SHORT(p[i]->width)/2,
	.loc 1 1034 3
	movl	$42, %ecx	#, tmp172
	movl	%ecx, %edi	# tmp172, tmp172
	subl	%eax, %edi	# _33, tmp172
	movl	-12(%rbp), %eax	# y, tmp173
	movq	%rdx, %rcx	# star.88_29,
	movl	$0, %edx	#,
	movl	%eax, %esi	# tmp173,
	call	V_DrawPatch@PLT	#
.L128:
# wi_stuff.c:1047: 	x += DM_SPACINGX;
	.loc 1 1047 4
	addl	$40, -16(%rbp)	#, x
# wi_stuff.c:1048: 	y += WI_SPACINGY;
	.loc 1 1048 4
	addl	$33, -12(%rbp)	#, y
# wi_stuff.c:1013:     for (i=0 ; i<MAXPLAYERS ; i++)
	.loc 1 1013 32 discriminator 2
	addl	$1, -24(%rbp)	#, i
.L127:
# wi_stuff.c:1013:     for (i=0 ; i<MAXPLAYERS ; i++)
	.loc 1 1013 17 discriminator 1
	cmpl	$3, -24(%rbp)	#, i
	jle	.L129	#,
# wi_stuff.c:1052:     y = DM_MATRIXY+10;
	.loc 1 1052 7
	movl	$78, -12(%rbp)	#, y
# wi_stuff.c:1053:     w = SHORT(num[0]->width);
	.loc 1 1053 9
	movq	num(%rip), %rax	# num[0], _35
	movzwl	(%rax), %eax	# _35->width, _36
# wi_stuff.c:1053:     w = SHORT(num[0]->width);
	.loc 1 1053 7
	cwtl
	movl	%eax, -4(%rbp)	# tmp174, w
# wi_stuff.c:1055:     for (i=0 ; i<MAXPLAYERS ; i++)
	.loc 1 1055 11
	movl	$0, -24(%rbp)	#, i
# wi_stuff.c:1055:     for (i=0 ; i<MAXPLAYERS ; i++)
	.loc 1 1055 5
	jmp	.L130	#
.L135:
# wi_stuff.c:1057: 	x = DM_MATRIXX + DM_SPACINGX;
	.loc 1 1057 4
	movl	$82, -16(%rbp)	#, x
# wi_stuff.c:1059: 	if (playeringame[i])
	.loc 1 1059 18
	movl	-24(%rbp), %eax	# i, tmp176
	cltq
	leaq	0(,%rax,4), %rdx	#, tmp177
	leaq	playeringame(%rip), %rax	#, tmp178
	movl	(%rdx,%rax), %eax	# playeringame[i_44], _37
# wi_stuff.c:1059: 	if (playeringame[i])
	.loc 1 1059 5
	testl	%eax, %eax	# _37
	je	.L131	#,
# wi_stuff.c:1061: 	    for (j=0 ; j<MAXPLAYERS ; j++)
	.loc 1 1061 12
	movl	$0, -20(%rbp)	#, j
# wi_stuff.c:1061: 	    for (j=0 ; j<MAXPLAYERS ; j++)
	.loc 1 1061 6
	jmp	.L132	#
.L134:
# wi_stuff.c:1063: 		if (playeringame[j])
	.loc 1 1063 19
	movl	-20(%rbp), %eax	# j, tmp180
	cltq
	leaq	0(,%rax,4), %rdx	#, tmp181
	leaq	playeringame(%rip), %rax	#, tmp182
	movl	(%rdx,%rax), %eax	# playeringame[j_45], _38
# wi_stuff.c:1063: 		if (playeringame[j])
	.loc 1 1063 6
	testl	%eax, %eax	# _38
	je	.L133	#,
# wi_stuff.c:1064: 		    WI_drawNum(x+w, y, dm_frags[i][j], 2);
	.loc 1 1064 7
	movl	-20(%rbp), %eax	# j, tmp184
	cltq
	movl	-24(%rbp), %edx	# i, tmp186
	movslq	%edx, %rdx	# tmp186, tmp185
	salq	$2, %rdx	#, tmp187
	addq	%rdx, %rax	# tmp187, tmp188
	leaq	0(,%rax,4), %rdx	#, tmp189
	leaq	dm_frags(%rip), %rax	#, tmp190
	movl	(%rdx,%rax), %edx	# dm_frags[i_44][j_45], _39
	movl	-16(%rbp), %ecx	# x, tmp191
	movl	-4(%rbp), %eax	# w, tmp192
	leal	(%rcx,%rax), %edi	#, _40
	movl	-12(%rbp), %eax	# y, tmp193
	movl	$2, %ecx	#,
	movl	%eax, %esi	# tmp193,
	call	WI_drawNum	#
.L133:
# wi_stuff.c:1066: 		x += DM_SPACINGX;
	.loc 1 1066 5
	addl	$40, -16(%rbp)	#, x
# wi_stuff.c:1061: 	    for (j=0 ; j<MAXPLAYERS ; j++)
	.loc 1 1061 33 discriminator 2
	addl	$1, -20(%rbp)	#, j
.L132:
# wi_stuff.c:1061: 	    for (j=0 ; j<MAXPLAYERS ; j++)
	.loc 1 1061 18 discriminator 1
	cmpl	$3, -20(%rbp)	#, j
	jle	.L134	#,
# wi_stuff.c:1068: 	    WI_drawNum(DM_TOTALSX+w, y, dm_totals[i], 2);
	.loc 1 1068 6
	movl	-24(%rbp), %eax	# i, tmp195
	cltq
	leaq	0(,%rax,4), %rdx	#, tmp196
	leaq	dm_totals(%rip), %rax	#, tmp197
	movl	(%rdx,%rax), %edx	# dm_totals[i_44], _41
	movl	-4(%rbp), %eax	# w, tmp198
	leal	269(%rax), %edi	#, _42
	movl	-12(%rbp), %eax	# y, tmp199
	movl	$2, %ecx	#,
	movl	%eax, %esi	# tmp199,
	call	WI_drawNum	#
.L131:
# wi_stuff.c:1070: 	y += WI_SPACINGY;
	.loc 1 1070 4
	addl	$33, -12(%rbp)	#, y
# wi_stuff.c:1055:     for (i=0 ; i<MAXPLAYERS ; i++)
	.loc 1 1055 32 discriminator 2
	addl	$1, -24(%rbp)	#, i
.L130:
# wi_stuff.c:1055:     for (i=0 ; i<MAXPLAYERS ; i++)
	.loc 1 1055 17 discriminator 1
	cmpl	$3, -24(%rbp)	#, i
	jle	.L135	#,
# wi_stuff.c:1072: }
	.loc 1 1072 1
	nop	
	nop	
	leave	
	.cfi_def_cfa 7, 8
	ret	
	.cfi_endproc
.LFE21:
	.size	WI_drawDeathmatchStats, .-WI_drawDeathmatchStats
	.local	cnt_frags
	.comm	cnt_frags,16,16
	.local	dofrags
	.comm	dofrags,4,4
	.local	ng_state
	.comm	ng_state,4,4
	.globl	WI_initNetgameStats
	.type	WI_initNetgameStats, @function
WI_initNetgameStats:
.LFB22:
	.loc 1 1079 1
	.cfi_startproc
	endbr64	
	pushq	%rbp	#
	.cfi_def_cfa_offset 16
	.cfi_offset 6, -16
	movq	%rsp, %rbp	#,
	.cfi_def_cfa_register 6
	subq	$16, %rsp	#,
# wi_stuff.c:1083:     state = StatCount;
	.loc 1 1083 11
	movl	$0, state(%rip)	#, state
# wi_stuff.c:1084:     acceleratestage = 0;
	.loc 1 1084 21
	movl	$0, acceleratestage(%rip)	#, acceleratestage
# wi_stuff.c:1085:     ng_state = 1;
	.loc 1 1085 14
	movl	$1, ng_state(%rip)	#, ng_state
# wi_stuff.c:1087:     cnt_pause = TICRATE;
	.loc 1 1087 15
	movl	$35, cnt_pause(%rip)	#, cnt_pause
# wi_stuff.c:1089:     for (i=0 ; i<MAXPLAYERS ; i++)
	.loc 1 1089 11
	movl	$0, -4(%rbp)	#, i
# wi_stuff.c:1089:     for (i=0 ; i<MAXPLAYERS ; i++)
	.loc 1 1089 5
	jmp	.L137	#
.L140:
# wi_stuff.c:1091: 	if (!playeringame[i])
	.loc 1 1091 19
	movl	-4(%rbp), %eax	# i, tmp93
	cltq
	leaq	0(,%rax,4), %rdx	#, tmp94
	leaq	playeringame(%rip), %rax	#, tmp95
	movl	(%rdx,%rax), %eax	# playeringame[i_10], _1
# wi_stuff.c:1091: 	if (!playeringame[i])
	.loc 1 1091 5
	testl	%eax, %eax	# _1
	je	.L141	#,
# wi_stuff.c:1094: 	cnt_kills[i] = cnt_items[i] = cnt_secret[i] = cnt_frags[i] = 0;
	.loc 1 1094 61
	movl	-4(%rbp), %eax	# i, tmp97
	cltq
	leaq	0(,%rax,4), %rdx	#, tmp98
	leaq	cnt_frags(%rip), %rax	#, tmp99
	movl	$0, (%rdx,%rax)	#, cnt_frags[i_10]
# wi_stuff.c:1094: 	cnt_kills[i] = cnt_items[i] = cnt_secret[i] = cnt_frags[i] = 0;
	.loc 1 1094 57
	movl	-4(%rbp), %eax	# i, tmp101
	cltq
	leaq	0(,%rax,4), %rdx	#, tmp102
	leaq	cnt_frags(%rip), %rax	#, tmp103
	movl	(%rdx,%rax), %eax	# cnt_frags[i_10], _2
# wi_stuff.c:1094: 	cnt_kills[i] = cnt_items[i] = cnt_secret[i] = cnt_frags[i] = 0;
	.loc 1 1094 46
	movl	-4(%rbp), %edx	# i, tmp105
	movslq	%edx, %rdx	# tmp105, tmp104
	leaq	0(,%rdx,4), %rcx	#, tmp106
	leaq	cnt_secret(%rip), %rdx	#, tmp107
	movl	%eax, (%rcx,%rdx)	# _2, cnt_secret[i_10]
# wi_stuff.c:1094: 	cnt_kills[i] = cnt_items[i] = cnt_secret[i] = cnt_frags[i] = 0;
	.loc 1 1094 42
	movl	-4(%rbp), %eax	# i, tmp109
	cltq
	leaq	0(,%rax,4), %rdx	#, tmp110
	leaq	cnt_secret(%rip), %rax	#, tmp111
	movl	(%rdx,%rax), %eax	# cnt_secret[i_10], _3
# wi_stuff.c:1094: 	cnt_kills[i] = cnt_items[i] = cnt_secret[i] = cnt_frags[i] = 0;
	.loc 1 1094 30
	movl	-4(%rbp), %edx	# i, tmp113
	movslq	%edx, %rdx	# tmp113, tmp112
	leaq	0(,%rdx,4), %rcx	#, tmp114
	leaq	cnt_items(%rip), %rdx	#, tmp115
	movl	%eax, (%rcx,%rdx)	# _3, cnt_items[i_10]
# wi_stuff.c:1094: 	cnt_kills[i] = cnt_items[i] = cnt_secret[i] = cnt_frags[i] = 0;
	.loc 1 1094 26
	movl	-4(%rbp), %eax	# i, tmp117
	cltq
	leaq	0(,%rax,4), %rdx	#, tmp118
	leaq	cnt_items(%rip), %rax	#, tmp119
	movl	(%rdx,%rax), %eax	# cnt_items[i_10], _4
# wi_stuff.c:1094: 	cnt_kills[i] = cnt_items[i] = cnt_secret[i] = cnt_frags[i] = 0;
	.loc 1 1094 15
	movl	-4(%rbp), %edx	# i, tmp121
	movslq	%edx, %rdx	# tmp121, tmp120
	leaq	0(,%rdx,4), %rcx	#, tmp122
	leaq	cnt_kills(%rip), %rdx	#, tmp123
	movl	%eax, (%rcx,%rdx)	# _4, cnt_kills[i_10]
# wi_stuff.c:1096: 	dofrags += WI_fragSum(i);
	.loc 1 1096 13
	movl	-4(%rbp), %eax	# i, tmp124
	movl	%eax, %edi	# tmp124,
	call	WI_fragSum	#
# wi_stuff.c:1096: 	dofrags += WI_fragSum(i);
	.loc 1 1096 10 discriminator 1
	movl	dofrags(%rip), %edx	# dofrags, dofrags.89_5
	addl	%edx, %eax	# dofrags.89_5, _6
	movl	%eax, dofrags(%rip)	# _6, dofrags
	jmp	.L139	#
.L141:
# wi_stuff.c:1092: 	    continue;
	.loc 1 1092 6
	nop	
.L139:
# wi_stuff.c:1089:     for (i=0 ; i<MAXPLAYERS ; i++)
	.loc 1 1089 32 discriminator 2
	addl	$1, -4(%rbp)	#, i
.L137:
# wi_stuff.c:1089:     for (i=0 ; i<MAXPLAYERS ; i++)
	.loc 1 1089 17 discriminator 1
	cmpl	$3, -4(%rbp)	#, i
	jle	.L140	#,
# wi_stuff.c:1099:     dofrags = !!dofrags;
	.loc 1 1099 15
	movl	dofrags(%rip), %eax	# dofrags, dofrags.90_7
	testl	%eax, %eax	# dofrags.90_7
	setne	%al	#, _8
	movzbl	%al, %eax	# _8, _9
# wi_stuff.c:1099:     dofrags = !!dofrags;
	.loc 1 1099 13
	movl	%eax, dofrags(%rip)	# _9, dofrags
# wi_stuff.c:1101:     WI_initAnimatedBack();
	.loc 1 1101 5
	call	WI_initAnimatedBack	#
# wi_stuff.c:1102: }
	.loc 1 1102 1
	nop	
	leave	
	.cfi_def_cfa 7, 8
	ret	
	.cfi_endproc
.LFE22:
	.size	WI_initNetgameStats, .-WI_initNetgameStats
	.globl	WI_updateNetgameStats
	.type	WI_updateNetgameStats, @function
WI_updateNetgameStats:
.LFB23:
	.loc 1 1107 1
	.cfi_startproc
	endbr64	
	pushq	%rbp	#
	.cfi_def_cfa_offset 16
	.cfi_offset 6, -16
	movq	%rsp, %rbp	#,
	.cfi_def_cfa_register 6
	pushq	%rbx	#
	subq	$24, %rsp	#,
	.cfi_offset 3, -24
# wi_stuff.c:1114:     WI_updateAnimatedBack();
	.loc 1 1114 5
	call	WI_updateAnimatedBack	#
# wi_stuff.c:1116:     if (acceleratestage && ng_state != 10)
	.loc 1 1116 9
	movl	acceleratestage(%rip), %eax	# acceleratestage, acceleratestage.91_1
# wi_stuff.c:1116:     if (acceleratestage && ng_state != 10)
	.loc 1 1116 8
	testl	%eax, %eax	# acceleratestage.91_1
	je	.L143	#,
# wi_stuff.c:1116:     if (acceleratestage && ng_state != 10)
	.loc 1 1116 37 discriminator 1
	movl	ng_state(%rip), %eax	# ng_state, ng_state.92_2
# wi_stuff.c:1116:     if (acceleratestage && ng_state != 10)
	.loc 1 1116 25 discriminator 1
	cmpl	$10, %eax	#, ng_state.92_2
	je	.L143	#,
# wi_stuff.c:1118: 	acceleratestage = 0;
	.loc 1 1118 18
	movl	$0, acceleratestage(%rip)	#, acceleratestage
# wi_stuff.c:1120: 	for (i=0 ; i<MAXPLAYERS ; i++)
	.loc 1 1120 8
	movl	$0, -28(%rbp)	#, i
# wi_stuff.c:1120: 	for (i=0 ; i<MAXPLAYERS ; i++)
	.loc 1 1120 2
	jmp	.L144	#
.L147:
# wi_stuff.c:1122: 	    if (!playeringame[i])
	.loc 1 1122 23
	movl	-28(%rbp), %eax	# i, tmp217
	cltq
	leaq	0(,%rax,4), %rdx	#, tmp218
	leaq	playeringame(%rip), %rax	#, tmp219
	movl	(%rdx,%rax), %eax	# playeringame[i_134], _3
# wi_stuff.c:1122: 	    if (!playeringame[i])
	.loc 1 1122 9
	testl	%eax, %eax	# _3
	je	.L181	#,
# wi_stuff.c:1125: 	    cnt_kills[i] = (plrs[i].skills * 100) / wbs->maxkills;
	.loc 1 1125 26
	movq	plrs(%rip), %rcx	# plrs, plrs.93_4
	movl	-28(%rbp), %eax	# i, tmp220
	movslq	%eax, %rdx	# tmp220, _5
	movq	%rdx, %rax	# _5, tmp221
	salq	$2, %rax	#, tmp221
	addq	%rdx, %rax	# _5, tmp221
	salq	$3, %rax	#, tmp222
	addq	%rcx, %rax	# plrs.93_4, _7
# wi_stuff.c:1125: 	    cnt_kills[i] = (plrs[i].skills * 100) / wbs->maxkills;
	.loc 1 1125 29
	movl	4(%rax), %eax	# _7->skills, _8
# wi_stuff.c:1125: 	    cnt_kills[i] = (plrs[i].skills * 100) / wbs->maxkills;
	.loc 1 1125 37
	imull	$100, %eax, %eax	#, _8, _9
# wi_stuff.c:1125: 	    cnt_kills[i] = (plrs[i].skills * 100) / wbs->maxkills;
	.loc 1 1125 49
	movq	wbs(%rip), %rdx	# wbs, wbs.94_10
	movl	16(%rdx), %ebx	# wbs.94_10->maxkills, _11
# wi_stuff.c:1125: 	    cnt_kills[i] = (plrs[i].skills * 100) / wbs->maxkills;
	.loc 1 1125 44
	cltd
	idivl	%ebx	# _11
	movl	%eax, %ecx	# tmp223, _12
# wi_stuff.c:1125: 	    cnt_kills[i] = (plrs[i].skills * 100) / wbs->maxkills;
	.loc 1 1125 19
	movl	-28(%rbp), %eax	# i, tmp226
	cltq
	leaq	0(,%rax,4), %rdx	#, tmp227
	leaq	cnt_kills(%rip), %rax	#, tmp228
	movl	%ecx, (%rdx,%rax)	# _12, cnt_kills[i_134]
# wi_stuff.c:1126: 	    cnt_items[i] = (plrs[i].sitems * 100) / wbs->maxitems;
	.loc 1 1126 26
	movq	plrs(%rip), %rcx	# plrs, plrs.95_13
	movl	-28(%rbp), %eax	# i, tmp229
	movslq	%eax, %rdx	# tmp229, _14
	movq	%rdx, %rax	# _14, tmp230
	salq	$2, %rax	#, tmp230
	addq	%rdx, %rax	# _14, tmp230
	salq	$3, %rax	#, tmp231
	addq	%rcx, %rax	# plrs.95_13, _16
# wi_stuff.c:1126: 	    cnt_items[i] = (plrs[i].sitems * 100) / wbs->maxitems;
	.loc 1 1126 29
	movl	8(%rax), %eax	# _16->sitems, _17
# wi_stuff.c:1126: 	    cnt_items[i] = (plrs[i].sitems * 100) / wbs->maxitems;
	.loc 1 1126 37
	imull	$100, %eax, %eax	#, _17, _18
# wi_stuff.c:1126: 	    cnt_items[i] = (plrs[i].sitems * 100) / wbs->maxitems;
	.loc 1 1126 49
	movq	wbs(%rip), %rdx	# wbs, wbs.96_19
	movl	20(%rdx), %ebx	# wbs.96_19->maxitems, _20
# wi_stuff.c:1126: 	    cnt_items[i] = (plrs[i].sitems * 100) / wbs->maxitems;
	.loc 1 1126 44
	cltd
	idivl	%ebx	# _20
	movl	%eax, %ecx	# tmp232, _21
# wi_stuff.c:1126: 	    cnt_items[i] = (plrs[i].sitems * 100) / wbs->maxitems;
	.loc 1 1126 19
	movl	-28(%rbp), %eax	# i, tmp235
	cltq
	leaq	0(,%rax,4), %rdx	#, tmp236
	leaq	cnt_items(%rip), %rax	#, tmp237
	movl	%ecx, (%rdx,%rax)	# _21, cnt_items[i_134]
# wi_stuff.c:1127: 	    cnt_secret[i] = (plrs[i].ssecret * 100) / wbs->maxsecret;
	.loc 1 1127 27
	movq	plrs(%rip), %rcx	# plrs, plrs.97_22
	movl	-28(%rbp), %eax	# i, tmp238
	movslq	%eax, %rdx	# tmp238, _23
	movq	%rdx, %rax	# _23, tmp239
	salq	$2, %rax	#, tmp239
	addq	%rdx, %rax	# _23, tmp239
	salq	$3, %rax	#, tmp240
	addq	%rcx, %rax	# plrs.97_22, _25
# wi_stuff.c:1127: 	    cnt_secret[i] = (plrs[i].ssecret * 100) / wbs->maxsecret;
	.loc 1 1127 30
	movl	12(%rax), %eax	# _25->ssecret, _26
# wi_stuff.c:1127: 	    cnt_secret[i] = (plrs[i].ssecret * 100) / wbs->maxsecret;
	.loc 1 1127 39
	imull	$100, %eax, %eax	#, _26, _27
# wi_stuff.c:1127: 	    cnt_secret[i] = (plrs[i].ssecret * 100) / wbs->maxsecret;
	.loc 1 1127 51
	movq	wbs(%rip), %rdx	# wbs, wbs.98_28
	movl	24(%rdx), %ebx	# wbs.98_28->maxsecret, _29
# wi_stuff.c:1127: 	    cnt_secret[i] = (plrs[i].ssecret * 100) / wbs->maxsecret;
	.loc 1 1127 46
	cltd
	idivl	%ebx	# _29
	movl	%eax, %ecx	# tmp241, _30
# wi_stuff.c:1127: 	    cnt_secret[i] = (plrs[i].ssecret * 100) / wbs->maxsecret;
	.loc 1 1127 20
	movl	-28(%rbp), %eax	# i, tmp244
	cltq
	leaq	0(,%rax,4), %rdx	#, tmp245
	leaq	cnt_secret(%rip), %rax	#, tmp246
	movl	%ecx, (%rdx,%rax)	# _30, cnt_secret[i_134]
# wi_stuff.c:1129: 	    if (dofrags)
	.loc 1 1129 10
	movl	dofrags(%rip), %eax	# dofrags, dofrags.99_31
# wi_stuff.c:1129: 	    if (dofrags)
	.loc 1 1129 9
	testl	%eax, %eax	# dofrags.99_31
	je	.L146	#,
# wi_stuff.c:1130: 		cnt_frags[i] = WI_fragSum(i);
	.loc 1 1130 18
	movl	-28(%rbp), %eax	# i, tmp247
	movl	%eax, %edi	# tmp247,
	call	WI_fragSum	#
# wi_stuff.c:1130: 		cnt_frags[i] = WI_fragSum(i);
	.loc 1 1130 16 discriminator 1
	movl	-28(%rbp), %edx	# i, tmp249
	movslq	%edx, %rdx	# tmp249, tmp248
	leaq	0(,%rdx,4), %rcx	#, tmp250
	leaq	cnt_frags(%rip), %rdx	#, tmp251
	movl	%eax, (%rcx,%rdx)	# _32, cnt_frags[i_134]
	jmp	.L146	#
.L181:
# wi_stuff.c:1123: 		continue;
	.loc 1 1123 3
	nop	
.L146:
# wi_stuff.c:1120: 	for (i=0 ; i<MAXPLAYERS ; i++)
	.loc 1 1120 29 discriminator 2
	addl	$1, -28(%rbp)	#, i
.L144:
# wi_stuff.c:1120: 	for (i=0 ; i<MAXPLAYERS ; i++)
	.loc 1 1120 14 discriminator 1
	cmpl	$3, -28(%rbp)	#, i
	jle	.L147	#,
# wi_stuff.c:1132: 	S_StartSound(0, sfx_barexp);
	.loc 1 1132 2
	movl	$82, %esi	#,
	movl	$0, %edi	#,
	call	S_StartSound@PLT	#
# wi_stuff.c:1133: 	ng_state = 10;
	.loc 1 1133 11
	movl	$10, ng_state(%rip)	#, ng_state
.L143:
# wi_stuff.c:1136:     if (ng_state == 2)
	.loc 1 1136 18
	movl	ng_state(%rip), %eax	# ng_state, ng_state.100_33
# wi_stuff.c:1136:     if (ng_state == 2)
	.loc 1 1136 8
	cmpl	$2, %eax	#, ng_state.100_33
	jne	.L148	#,
# wi_stuff.c:1138: 	if (!(bcnt&3))
	.loc 1 1138 12
	movl	bcnt(%rip), %eax	# bcnt, bcnt.101_34
	andl	$3, %eax	#, _35
# wi_stuff.c:1138: 	if (!(bcnt&3))
	.loc 1 1138 5
	testl	%eax, %eax	# _35
	jne	.L149	#,
# wi_stuff.c:1139: 	    S_StartSound(0, sfx_pistol);
	.loc 1 1139 6
	movl	$1, %esi	#,
	movl	$0, %edi	#,
	call	S_StartSound@PLT	#
.L149:
# wi_stuff.c:1141: 	stillticking = false;
	.loc 1 1141 15
	movl	$0, -24(%rbp)	#, stillticking
# wi_stuff.c:1143: 	for (i=0 ; i<MAXPLAYERS ; i++)
	.loc 1 1143 8
	movl	$0, -28(%rbp)	#, i
# wi_stuff.c:1143: 	for (i=0 ; i<MAXPLAYERS ; i++)
	.loc 1 1143 2
	jmp	.L150	#
.L154:
# wi_stuff.c:1145: 	    if (!playeringame[i])
	.loc 1 1145 23
	movl	-28(%rbp), %eax	# i, tmp253
	cltq
	leaq	0(,%rax,4), %rdx	#, tmp254
	leaq	playeringame(%rip), %rax	#, tmp255
	movl	(%rdx,%rax), %eax	# playeringame[i_135], _36
# wi_stuff.c:1145: 	    if (!playeringame[i])
	.loc 1 1145 9
	testl	%eax, %eax	# _36
	je	.L182	#,
# wi_stuff.c:1148: 	    cnt_kills[i] += 2;
	.loc 1 1148 15
	movl	-28(%rbp), %eax	# i, tmp257
	cltq
	leaq	0(,%rax,4), %rdx	#, tmp258
	leaq	cnt_kills(%rip), %rax	#, tmp259
	movl	(%rdx,%rax), %eax	# cnt_kills[i_135], _37
# wi_stuff.c:1148: 	    cnt_kills[i] += 2;
	.loc 1 1148 19
	leal	2(%rax), %ecx	#, _38
	movl	-28(%rbp), %eax	# i, tmp261
	cltq
	leaq	0(,%rax,4), %rdx	#, tmp262
	leaq	cnt_kills(%rip), %rax	#, tmp263
	movl	%ecx, (%rdx,%rax)	# _38, cnt_kills[i_135]
# wi_stuff.c:1150: 	    if (cnt_kills[i] >= (plrs[i].skills * 100) / wbs->maxkills)
	.loc 1 1150 19
	movl	-28(%rbp), %eax	# i, tmp265
	cltq
	leaq	0(,%rax,4), %rdx	#, tmp266
	leaq	cnt_kills(%rip), %rax	#, tmp267
	movl	(%rdx,%rax), %ecx	# cnt_kills[i_135], _39
# wi_stuff.c:1150: 	    if (cnt_kills[i] >= (plrs[i].skills * 100) / wbs->maxkills)
	.loc 1 1150 31
	movq	plrs(%rip), %rsi	# plrs, plrs.102_40
	movl	-28(%rbp), %eax	# i, tmp268
	movslq	%eax, %rdx	# tmp268, _41
	movq	%rdx, %rax	# _41, tmp269
	salq	$2, %rax	#, tmp269
	addq	%rdx, %rax	# _41, tmp269
	salq	$3, %rax	#, tmp270
	addq	%rsi, %rax	# plrs.102_40, _43
# wi_stuff.c:1150: 	    if (cnt_kills[i] >= (plrs[i].skills * 100) / wbs->maxkills)
	.loc 1 1150 34
	movl	4(%rax), %eax	# _43->skills, _44
# wi_stuff.c:1150: 	    if (cnt_kills[i] >= (plrs[i].skills * 100) / wbs->maxkills)
	.loc 1 1150 42
	imull	$100, %eax, %eax	#, _44, _45
# wi_stuff.c:1150: 	    if (cnt_kills[i] >= (plrs[i].skills * 100) / wbs->maxkills)
	.loc 1 1150 54
	movq	wbs(%rip), %rdx	# wbs, wbs.103_46
	movl	16(%rdx), %ebx	# wbs.103_46->maxkills, _47
# wi_stuff.c:1150: 	    if (cnt_kills[i] >= (plrs[i].skills * 100) / wbs->maxkills)
	.loc 1 1150 49
	cltd
	idivl	%ebx	# _47
# wi_stuff.c:1150: 	    if (cnt_kills[i] >= (plrs[i].skills * 100) / wbs->maxkills)
	.loc 1 1150 9
	cmpl	%eax, %ecx	# _48, _39
	jl	.L153	#,
# wi_stuff.c:1151: 		cnt_kills[i] = (plrs[i].skills * 100) / wbs->maxkills;
	.loc 1 1151 23
	movq	plrs(%rip), %rcx	# plrs, plrs.104_49
	movl	-28(%rbp), %eax	# i, tmp273
	movslq	%eax, %rdx	# tmp273, _50
	movq	%rdx, %rax	# _50, tmp274
	salq	$2, %rax	#, tmp274
	addq	%rdx, %rax	# _50, tmp274
	salq	$3, %rax	#, tmp275
	addq	%rcx, %rax	# plrs.104_49, _52
# wi_stuff.c:1151: 		cnt_kills[i] = (plrs[i].skills * 100) / wbs->maxkills;
	.loc 1 1151 26
	movl	4(%rax), %eax	# _52->skills, _53
# wi_stuff.c:1151: 		cnt_kills[i] = (plrs[i].skills * 100) / wbs->maxkills;
	.loc 1 1151 34
	imull	$100, %eax, %eax	#, _53, _54
# wi_stuff.c:1151: 		cnt_kills[i] = (plrs[i].skills * 100) / wbs->maxkills;
	.loc 1 1151 46
	movq	wbs(%rip), %rdx	# wbs, wbs.105_55
	movl	16(%rdx), %ebx	# wbs.105_55->maxkills, _56
# wi_stuff.c:1151: 		cnt_kills[i] = (plrs[i].skills * 100) / wbs->maxkills;
	.loc 1 1151 41
	cltd
	idivl	%ebx	# _56
	movl	%eax, %ecx	# tmp276, _57
# wi_stuff.c:1151: 		cnt_kills[i] = (plrs[i].skills * 100) / wbs->maxkills;
	.loc 1 1151 16
	movl	-28(%rbp), %eax	# i, tmp279
	cltq
	leaq	0(,%rax,4), %rdx	#, tmp280
	leaq	cnt_kills(%rip), %rax	#, tmp281
	movl	%ecx, (%rdx,%rax)	# _57, cnt_kills[i_135]
	jmp	.L152	#
.L153:
# wi_stuff.c:1153: 		stillticking = true;
	.loc 1 1153 16
	movl	$1, -24(%rbp)	#, stillticking
	jmp	.L152	#
.L182:
# wi_stuff.c:1146: 		continue;
	.loc 1 1146 3
	nop	
.L152:
# wi_stuff.c:1143: 	for (i=0 ; i<MAXPLAYERS ; i++)
	.loc 1 1143 29 discriminator 2
	addl	$1, -28(%rbp)	#, i
.L150:
# wi_stuff.c:1143: 	for (i=0 ; i<MAXPLAYERS ; i++)
	.loc 1 1143 14 discriminator 1
	cmpl	$3, -28(%rbp)	#, i
	jle	.L154	#,
# wi_stuff.c:1156: 	if (!stillticking)
	.loc 1 1156 5
	cmpl	$0, -24(%rbp)	#, stillticking
	jne	.L183	#,
# wi_stuff.c:1158: 	    S_StartSound(0, sfx_barexp);
	.loc 1 1158 6
	movl	$82, %esi	#,
	movl	$0, %edi	#,
	call	S_StartSound@PLT	#
# wi_stuff.c:1159: 	    ng_state++;
	.loc 1 1159 14
	movl	ng_state(%rip), %eax	# ng_state, ng_state.106_58
	addl	$1, %eax	#, _59
	movl	%eax, ng_state(%rip)	# _59, ng_state
# wi_stuff.c:1257: }
	.loc 1 1257 1
	jmp	.L183	#
.L148:
# wi_stuff.c:1162:     else if (ng_state == 4)
	.loc 1 1162 23
	movl	ng_state(%rip), %eax	# ng_state, ng_state.107_60
# wi_stuff.c:1162:     else if (ng_state == 4)
	.loc 1 1162 13
	cmpl	$4, %eax	#, ng_state.107_60
	jne	.L156	#,
# wi_stuff.c:1164: 	if (!(bcnt&3))
	.loc 1 1164 12
	movl	bcnt(%rip), %eax	# bcnt, bcnt.108_61
	andl	$3, %eax	#, _62
# wi_stuff.c:1164: 	if (!(bcnt&3))
	.loc 1 1164 5
	testl	%eax, %eax	# _62
	jne	.L157	#,
# wi_stuff.c:1165: 	    S_StartSound(0, sfx_pistol);
	.loc 1 1165 6
	movl	$1, %esi	#,
	movl	$0, %edi	#,
	call	S_StartSound@PLT	#
.L157:
# wi_stuff.c:1167: 	stillticking = false;
	.loc 1 1167 15
	movl	$0, -24(%rbp)	#, stillticking
# wi_stuff.c:1169: 	for (i=0 ; i<MAXPLAYERS ; i++)
	.loc 1 1169 8
	movl	$0, -28(%rbp)	#, i
# wi_stuff.c:1169: 	for (i=0 ; i<MAXPLAYERS ; i++)
	.loc 1 1169 2
	jmp	.L158	#
.L162:
# wi_stuff.c:1171: 	    if (!playeringame[i])
	.loc 1 1171 23
	movl	-28(%rbp), %eax	# i, tmp283
	cltq
	leaq	0(,%rax,4), %rdx	#, tmp284
	leaq	playeringame(%rip), %rax	#, tmp285
	movl	(%rdx,%rax), %eax	# playeringame[i_136], _63
# wi_stuff.c:1171: 	    if (!playeringame[i])
	.loc 1 1171 9
	testl	%eax, %eax	# _63
	je	.L184	#,
# wi_stuff.c:1174: 	    cnt_items[i] += 2;
	.loc 1 1174 15
	movl	-28(%rbp), %eax	# i, tmp287
	cltq
	leaq	0(,%rax,4), %rdx	#, tmp288
	leaq	cnt_items(%rip), %rax	#, tmp289
	movl	(%rdx,%rax), %eax	# cnt_items[i_136], _64
# wi_stuff.c:1174: 	    cnt_items[i] += 2;
	.loc 1 1174 19
	leal	2(%rax), %ecx	#, _65
	movl	-28(%rbp), %eax	# i, tmp291
	cltq
	leaq	0(,%rax,4), %rdx	#, tmp292
	leaq	cnt_items(%rip), %rax	#, tmp293
	movl	%ecx, (%rdx,%rax)	# _65, cnt_items[i_136]
# wi_stuff.c:1175: 	    if (cnt_items[i] >= (plrs[i].sitems * 100) / wbs->maxitems)
	.loc 1 1175 19
	movl	-28(%rbp), %eax	# i, tmp295
	cltq
	leaq	0(,%rax,4), %rdx	#, tmp296
	leaq	cnt_items(%rip), %rax	#, tmp297
	movl	(%rdx,%rax), %ecx	# cnt_items[i_136], _66
# wi_stuff.c:1175: 	    if (cnt_items[i] >= (plrs[i].sitems * 100) / wbs->maxitems)
	.loc 1 1175 31
	movq	plrs(%rip), %rsi	# plrs, plrs.109_67
	movl	-28(%rbp), %eax	# i, tmp298
	movslq	%eax, %rdx	# tmp298, _68
	movq	%rdx, %rax	# _68, tmp299
	salq	$2, %rax	#, tmp299
	addq	%rdx, %rax	# _68, tmp299
	salq	$3, %rax	#, tmp300
	addq	%rsi, %rax	# plrs.109_67, _70
# wi_stuff.c:1175: 	    if (cnt_items[i] >= (plrs[i].sitems * 100) / wbs->maxitems)
	.loc 1 1175 34
	movl	8(%rax), %eax	# _70->sitems, _71
# wi_stuff.c:1175: 	    if (cnt_items[i] >= (plrs[i].sitems * 100) / wbs->maxitems)
	.loc 1 1175 42
	imull	$100, %eax, %eax	#, _71, _72
# wi_stuff.c:1175: 	    if (cnt_items[i] >= (plrs[i].sitems * 100) / wbs->maxitems)
	.loc 1 1175 54
	movq	wbs(%rip), %rdx	# wbs, wbs.110_73
	movl	20(%rdx), %edi	# wbs.110_73->maxitems, _74
# wi_stuff.c:1175: 	    if (cnt_items[i] >= (plrs[i].sitems * 100) / wbs->maxitems)
	.loc 1 1175 49
	cltd
	idivl	%edi	# _74
# wi_stuff.c:1175: 	    if (cnt_items[i] >= (plrs[i].sitems * 100) / wbs->maxitems)
	.loc 1 1175 9
	cmpl	%eax, %ecx	# _75, _66
	jl	.L161	#,
# wi_stuff.c:1176: 		cnt_items[i] = (plrs[i].sitems * 100) / wbs->maxitems;
	.loc 1 1176 23
	movq	plrs(%rip), %rcx	# plrs, plrs.111_76
	movl	-28(%rbp), %eax	# i, tmp303
	movslq	%eax, %rdx	# tmp303, _77
	movq	%rdx, %rax	# _77, tmp304
	salq	$2, %rax	#, tmp304
	addq	%rdx, %rax	# _77, tmp304
	salq	$3, %rax	#, tmp305
	addq	%rcx, %rax	# plrs.111_76, _79
# wi_stuff.c:1176: 		cnt_items[i] = (plrs[i].sitems * 100) / wbs->maxitems;
	.loc 1 1176 26
	movl	8(%rax), %eax	# _79->sitems, _80
# wi_stuff.c:1176: 		cnt_items[i] = (plrs[i].sitems * 100) / wbs->maxitems;
	.loc 1 1176 34
	imull	$100, %eax, %eax	#, _80, _81
# wi_stuff.c:1176: 		cnt_items[i] = (plrs[i].sitems * 100) / wbs->maxitems;
	.loc 1 1176 46
	movq	wbs(%rip), %rdx	# wbs, wbs.112_82
	movl	20(%rdx), %ebx	# wbs.112_82->maxitems, _83
# wi_stuff.c:1176: 		cnt_items[i] = (plrs[i].sitems * 100) / wbs->maxitems;
	.loc 1 1176 41
	cltd
	idivl	%ebx	# _83
	movl	%eax, %ecx	# tmp306, _84
# wi_stuff.c:1176: 		cnt_items[i] = (plrs[i].sitems * 100) / wbs->maxitems;
	.loc 1 1176 16
	movl	-28(%rbp), %eax	# i, tmp309
	cltq
	leaq	0(,%rax,4), %rdx	#, tmp310
	leaq	cnt_items(%rip), %rax	#, tmp311
	movl	%ecx, (%rdx,%rax)	# _84, cnt_items[i_136]
	jmp	.L160	#
.L161:
# wi_stuff.c:1178: 		stillticking = true;
	.loc 1 1178 16
	movl	$1, -24(%rbp)	#, stillticking
	jmp	.L160	#
.L184:
# wi_stuff.c:1172: 		continue;
	.loc 1 1172 3
	nop	
.L160:
# wi_stuff.c:1169: 	for (i=0 ; i<MAXPLAYERS ; i++)
	.loc 1 1169 29 discriminator 2
	addl	$1, -28(%rbp)	#, i
.L158:
# wi_stuff.c:1169: 	for (i=0 ; i<MAXPLAYERS ; i++)
	.loc 1 1169 14 discriminator 1
	cmpl	$3, -28(%rbp)	#, i
	jle	.L162	#,
# wi_stuff.c:1180: 	if (!stillticking)
	.loc 1 1180 5
	cmpl	$0, -24(%rbp)	#, stillticking
	jne	.L183	#,
# wi_stuff.c:1182: 	    S_StartSound(0, sfx_barexp);
	.loc 1 1182 6
	movl	$82, %esi	#,
	movl	$0, %edi	#,
	call	S_StartSound@PLT	#
# wi_stuff.c:1183: 	    ng_state++;
	.loc 1 1183 14
	movl	ng_state(%rip), %eax	# ng_state, ng_state.113_85
	addl	$1, %eax	#, _86
	movl	%eax, ng_state(%rip)	# _86, ng_state
# wi_stuff.c:1257: }
	.loc 1 1257 1
	jmp	.L183	#
.L156:
# wi_stuff.c:1186:     else if (ng_state == 6)
	.loc 1 1186 23
	movl	ng_state(%rip), %eax	# ng_state, ng_state.114_87
# wi_stuff.c:1186:     else if (ng_state == 6)
	.loc 1 1186 13
	cmpl	$6, %eax	#, ng_state.114_87
	jne	.L163	#,
# wi_stuff.c:1188: 	if (!(bcnt&3))
	.loc 1 1188 12
	movl	bcnt(%rip), %eax	# bcnt, bcnt.115_88
	andl	$3, %eax	#, _89
# wi_stuff.c:1188: 	if (!(bcnt&3))
	.loc 1 1188 5
	testl	%eax, %eax	# _89
	jne	.L164	#,
# wi_stuff.c:1189: 	    S_StartSound(0, sfx_pistol);
	.loc 1 1189 6
	movl	$1, %esi	#,
	movl	$0, %edi	#,
	call	S_StartSound@PLT	#
.L164:
# wi_stuff.c:1191: 	stillticking = false;
	.loc 1 1191 15
	movl	$0, -24(%rbp)	#, stillticking
# wi_stuff.c:1193: 	for (i=0 ; i<MAXPLAYERS ; i++)
	.loc 1 1193 8
	movl	$0, -28(%rbp)	#, i
# wi_stuff.c:1193: 	for (i=0 ; i<MAXPLAYERS ; i++)
	.loc 1 1193 2
	jmp	.L165	#
.L169:
# wi_stuff.c:1195: 	    if (!playeringame[i])
	.loc 1 1195 23
	movl	-28(%rbp), %eax	# i, tmp313
	cltq
	leaq	0(,%rax,4), %rdx	#, tmp314
	leaq	playeringame(%rip), %rax	#, tmp315
	movl	(%rdx,%rax), %eax	# playeringame[i_137], _90
# wi_stuff.c:1195: 	    if (!playeringame[i])
	.loc 1 1195 9
	testl	%eax, %eax	# _90
	je	.L185	#,
# wi_stuff.c:1198: 	    cnt_secret[i] += 2;
	.loc 1 1198 16
	movl	-28(%rbp), %eax	# i, tmp317
	cltq
	leaq	0(,%rax,4), %rdx	#, tmp318
	leaq	cnt_secret(%rip), %rax	#, tmp319
	movl	(%rdx,%rax), %eax	# cnt_secret[i_137], _91
# wi_stuff.c:1198: 	    cnt_secret[i] += 2;
	.loc 1 1198 20
	leal	2(%rax), %ecx	#, _92
	movl	-28(%rbp), %eax	# i, tmp321
	cltq
	leaq	0(,%rax,4), %rdx	#, tmp322
	leaq	cnt_secret(%rip), %rax	#, tmp323
	movl	%ecx, (%rdx,%rax)	# _92, cnt_secret[i_137]
# wi_stuff.c:1200: 	    if (cnt_secret[i] >= (plrs[i].ssecret * 100) / wbs->maxsecret)
	.loc 1 1200 20
	movl	-28(%rbp), %eax	# i, tmp325
	cltq
	leaq	0(,%rax,4), %rdx	#, tmp326
	leaq	cnt_secret(%rip), %rax	#, tmp327
	movl	(%rdx,%rax), %ecx	# cnt_secret[i_137], _93
# wi_stuff.c:1200: 	    if (cnt_secret[i] >= (plrs[i].ssecret * 100) / wbs->maxsecret)
	.loc 1 1200 32
	movq	plrs(%rip), %rsi	# plrs, plrs.116_94
	movl	-28(%rbp), %eax	# i, tmp328
	movslq	%eax, %rdx	# tmp328, _95
	movq	%rdx, %rax	# _95, tmp329
	salq	$2, %rax	#, tmp329
	addq	%rdx, %rax	# _95, tmp329
	salq	$3, %rax	#, tmp330
	addq	%rsi, %rax	# plrs.116_94, _97
# wi_stuff.c:1200: 	    if (cnt_secret[i] >= (plrs[i].ssecret * 100) / wbs->maxsecret)
	.loc 1 1200 35
	movl	12(%rax), %eax	# _97->ssecret, _98
# wi_stuff.c:1200: 	    if (cnt_secret[i] >= (plrs[i].ssecret * 100) / wbs->maxsecret)
	.loc 1 1200 44
	imull	$100, %eax, %eax	#, _98, _99
# wi_stuff.c:1200: 	    if (cnt_secret[i] >= (plrs[i].ssecret * 100) / wbs->maxsecret)
	.loc 1 1200 56
	movq	wbs(%rip), %rdx	# wbs, wbs.117_100
	movl	24(%rdx), %edi	# wbs.117_100->maxsecret, _101
# wi_stuff.c:1200: 	    if (cnt_secret[i] >= (plrs[i].ssecret * 100) / wbs->maxsecret)
	.loc 1 1200 51
	cltd
	idivl	%edi	# _101
# wi_stuff.c:1200: 	    if (cnt_secret[i] >= (plrs[i].ssecret * 100) / wbs->maxsecret)
	.loc 1 1200 9
	cmpl	%eax, %ecx	# _102, _93
	jl	.L168	#,
# wi_stuff.c:1201: 		cnt_secret[i] = (plrs[i].ssecret * 100) / wbs->maxsecret;
	.loc 1 1201 24
	movq	plrs(%rip), %rcx	# plrs, plrs.118_103
	movl	-28(%rbp), %eax	# i, tmp333
	movslq	%eax, %rdx	# tmp333, _104
	movq	%rdx, %rax	# _104, tmp334
	salq	$2, %rax	#, tmp334
	addq	%rdx, %rax	# _104, tmp334
	salq	$3, %rax	#, tmp335
	addq	%rcx, %rax	# plrs.118_103, _106
# wi_stuff.c:1201: 		cnt_secret[i] = (plrs[i].ssecret * 100) / wbs->maxsecret;
	.loc 1 1201 27
	movl	12(%rax), %eax	# _106->ssecret, _107
# wi_stuff.c:1201: 		cnt_secret[i] = (plrs[i].ssecret * 100) / wbs->maxsecret;
	.loc 1 1201 36
	imull	$100, %eax, %eax	#, _107, _108
# wi_stuff.c:1201: 		cnt_secret[i] = (plrs[i].ssecret * 100) / wbs->maxsecret;
	.loc 1 1201 48
	movq	wbs(%rip), %rdx	# wbs, wbs.119_109
	movl	24(%rdx), %ebx	# wbs.119_109->maxsecret, _110
# wi_stuff.c:1201: 		cnt_secret[i] = (plrs[i].ssecret * 100) / wbs->maxsecret;
	.loc 1 1201 43
	cltd
	idivl	%ebx	# _110
	movl	%eax, %ecx	# tmp336, _111
# wi_stuff.c:1201: 		cnt_secret[i] = (plrs[i].ssecret * 100) / wbs->maxsecret;
	.loc 1 1201 17
	movl	-28(%rbp), %eax	# i, tmp339
	cltq
	leaq	0(,%rax,4), %rdx	#, tmp340
	leaq	cnt_secret(%rip), %rax	#, tmp341
	movl	%ecx, (%rdx,%rax)	# _111, cnt_secret[i_137]
	jmp	.L167	#
.L168:
# wi_stuff.c:1203: 		stillticking = true;
	.loc 1 1203 16
	movl	$1, -24(%rbp)	#, stillticking
	jmp	.L167	#
.L185:
# wi_stuff.c:1196: 		continue;
	.loc 1 1196 3
	nop	
.L167:
# wi_stuff.c:1193: 	for (i=0 ; i<MAXPLAYERS ; i++)
	.loc 1 1193 29 discriminator 2
	addl	$1, -28(%rbp)	#, i
.L165:
# wi_stuff.c:1193: 	for (i=0 ; i<MAXPLAYERS ; i++)
	.loc 1 1193 14 discriminator 1
	cmpl	$3, -28(%rbp)	#, i
	jle	.L169	#,
# wi_stuff.c:1206: 	if (!stillticking)
	.loc 1 1206 5
	cmpl	$0, -24(%rbp)	#, stillticking
	jne	.L183	#,
# wi_stuff.c:1208: 	    S_StartSound(0, sfx_barexp);
	.loc 1 1208 6
	movl	$82, %esi	#,
	movl	$0, %edi	#,
	call	S_StartSound@PLT	#
# wi_stuff.c:1209: 	    ng_state += 1 + 2*!dofrags;
	.loc 1 1209 24
	movl	dofrags(%rip), %eax	# dofrags, dofrags.121_112
# wi_stuff.c:1209: 	    ng_state += 1 + 2*!dofrags;
	.loc 1 1209 20
	testl	%eax, %eax	# dofrags.121_112
	jne	.L170	#,
# wi_stuff.c:1209: 	    ng_state += 1 + 2*!dofrags;
	.loc 1 1209 20 is_stmt 0 discriminator 1
	movl	$3, %edx	#, iftmp.120_147
	jmp	.L171	#
.L170:
# wi_stuff.c:1209: 	    ng_state += 1 + 2*!dofrags;
	.loc 1 1209 20 discriminator 2
	movl	$1, %edx	#, iftmp.120_147
.L171:
# wi_stuff.c:1209: 	    ng_state += 1 + 2*!dofrags;
	.loc 1 1209 15 is_stmt 1 discriminator 4
	movl	ng_state(%rip), %eax	# ng_state, ng_state.122_113
	addl	%edx, %eax	# iftmp.120_147, _114
	movl	%eax, ng_state(%rip)	# _114, ng_state
# wi_stuff.c:1257: }
	.loc 1 1257 1
	jmp	.L183	#
.L163:
# wi_stuff.c:1212:     else if (ng_state == 8)
	.loc 1 1212 23
	movl	ng_state(%rip), %eax	# ng_state, ng_state.123_115
# wi_stuff.c:1212:     else if (ng_state == 8)
	.loc 1 1212 13
	cmpl	$8, %eax	#, ng_state.123_115
	jne	.L172	#,
# wi_stuff.c:1214: 	if (!(bcnt&3))
	.loc 1 1214 12
	movl	bcnt(%rip), %eax	# bcnt, bcnt.124_116
	andl	$3, %eax	#, _117
# wi_stuff.c:1214: 	if (!(bcnt&3))
	.loc 1 1214 5
	testl	%eax, %eax	# _117
	jne	.L173	#,
# wi_stuff.c:1215: 	    S_StartSound(0, sfx_pistol);
	.loc 1 1215 6
	movl	$1, %esi	#,
	movl	$0, %edi	#,
	call	S_StartSound@PLT	#
.L173:
# wi_stuff.c:1217: 	stillticking = false;
	.loc 1 1217 15
	movl	$0, -24(%rbp)	#, stillticking
# wi_stuff.c:1219: 	for (i=0 ; i<MAXPLAYERS ; i++)
	.loc 1 1219 8
	movl	$0, -28(%rbp)	#, i
# wi_stuff.c:1219: 	for (i=0 ; i<MAXPLAYERS ; i++)
	.loc 1 1219 2
	jmp	.L174	#
.L178:
# wi_stuff.c:1221: 	    if (!playeringame[i])
	.loc 1 1221 23
	movl	-28(%rbp), %eax	# i, tmp343
	cltq
	leaq	0(,%rax,4), %rdx	#, tmp344
	leaq	playeringame(%rip), %rax	#, tmp345
	movl	(%rdx,%rax), %eax	# playeringame[i_138], _118
# wi_stuff.c:1221: 	    if (!playeringame[i])
	.loc 1 1221 9
	testl	%eax, %eax	# _118
	je	.L186	#,
# wi_stuff.c:1224: 	    cnt_frags[i] += 1;
	.loc 1 1224 15
	movl	-28(%rbp), %eax	# i, tmp347
	cltq
	leaq	0(,%rax,4), %rdx	#, tmp348
	leaq	cnt_frags(%rip), %rax	#, tmp349
	movl	(%rdx,%rax), %eax	# cnt_frags[i_138], _119
# wi_stuff.c:1224: 	    cnt_frags[i] += 1;
	.loc 1 1224 19
	leal	1(%rax), %ecx	#, _120
	movl	-28(%rbp), %eax	# i, tmp351
	cltq
	leaq	0(,%rax,4), %rdx	#, tmp352
	leaq	cnt_frags(%rip), %rax	#, tmp353
	movl	%ecx, (%rdx,%rax)	# _120, cnt_frags[i_138]
# wi_stuff.c:1226: 	    if (cnt_frags[i] >= (fsum = WI_fragSum(i)))
	.loc 1 1226 19
	movl	-28(%rbp), %eax	# i, tmp355
	cltq
	leaq	0(,%rax,4), %rdx	#, tmp356
	leaq	cnt_frags(%rip), %rax	#, tmp357
	movl	(%rdx,%rax), %ebx	# cnt_frags[i_138], _121
# wi_stuff.c:1226: 	    if (cnt_frags[i] >= (fsum = WI_fragSum(i)))
	.loc 1 1226 34
	movl	-28(%rbp), %eax	# i, tmp358
	movl	%eax, %edi	# tmp358,
	call	WI_fragSum	#
	movl	%eax, -20(%rbp)	# tmp359, fsum
# wi_stuff.c:1226: 	    if (cnt_frags[i] >= (fsum = WI_fragSum(i)))
	.loc 1 1226 9 discriminator 1
	cmpl	%ebx, -20(%rbp)	# _121, fsum
	jg	.L177	#,
# wi_stuff.c:1227: 		cnt_frags[i] = fsum;
	.loc 1 1227 16
	movl	-28(%rbp), %eax	# i, tmp361
	cltq
	leaq	0(,%rax,4), %rcx	#, tmp362
	leaq	cnt_frags(%rip), %rdx	#, tmp363
	movl	-20(%rbp), %eax	# fsum, tmp364
	movl	%eax, (%rcx,%rdx)	# tmp364, cnt_frags[i_138]
	jmp	.L176	#
.L177:
# wi_stuff.c:1229: 		stillticking = true;
	.loc 1 1229 16
	movl	$1, -24(%rbp)	#, stillticking
	jmp	.L176	#
.L186:
# wi_stuff.c:1222: 		continue;
	.loc 1 1222 3
	nop	
.L176:
# wi_stuff.c:1219: 	for (i=0 ; i<MAXPLAYERS ; i++)
	.loc 1 1219 29 discriminator 2
	addl	$1, -28(%rbp)	#, i
.L174:
# wi_stuff.c:1219: 	for (i=0 ; i<MAXPLAYERS ; i++)
	.loc 1 1219 14 discriminator 1
	cmpl	$3, -28(%rbp)	#, i
	jle	.L178	#,
# wi_stuff.c:1232: 	if (!stillticking)
	.loc 1 1232 5
	cmpl	$0, -24(%rbp)	#, stillticking
	jne	.L183	#,
# wi_stuff.c:1234: 	    S_StartSound(0, sfx_pldeth);
	.loc 1 1234 6
	movl	$57, %esi	#,
	movl	$0, %edi	#,
	call	S_StartSound@PLT	#
# wi_stuff.c:1235: 	    ng_state++;
	.loc 1 1235 14
	movl	ng_state(%rip), %eax	# ng_state, ng_state.125_122
	addl	$1, %eax	#, _123
	movl	%eax, ng_state(%rip)	# _123, ng_state
# wi_stuff.c:1257: }
	.loc 1 1257 1
	jmp	.L183	#
.L172:
# wi_stuff.c:1238:     else if (ng_state == 10)
	.loc 1 1238 23
	movl	ng_state(%rip), %eax	# ng_state, ng_state.126_124
# wi_stuff.c:1238:     else if (ng_state == 10)
	.loc 1 1238 13
	cmpl	$10, %eax	#, ng_state.126_124
	jne	.L179	#,
# wi_stuff.c:1240: 	if (acceleratestage)
	.loc 1 1240 6
	movl	acceleratestage(%rip), %eax	# acceleratestage, acceleratestage.127_125
# wi_stuff.c:1240: 	if (acceleratestage)
	.loc 1 1240 5
	testl	%eax, %eax	# acceleratestage.127_125
	je	.L183	#,
# wi_stuff.c:1242: 	    S_StartSound(0, sfx_sgcock);
	.loc 1 1242 6
	movl	$3, %esi	#,
	movl	$0, %edi	#,
	call	S_StartSound@PLT	#
# wi_stuff.c:1243: 	    if ( gamemode == commercial )
	.loc 1 1243 20
	movl	gamemode(%rip), %eax	# gamemode, gamemode.128_126
# wi_stuff.c:1243: 	    if ( gamemode == commercial )
	.loc 1 1243 9
	cmpl	$2, %eax	#, gamemode.128_126
	jne	.L180	#,
# wi_stuff.c:1244: 		WI_initNoState();
	.loc 1 1244 3
	call	WI_initNoState	#
# wi_stuff.c:1257: }
	.loc 1 1257 1
	jmp	.L183	#
.L180:
# wi_stuff.c:1246: 		WI_initShowNextLoc();
	.loc 1 1246 3
	call	WI_initShowNextLoc	#
# wi_stuff.c:1257: }
	.loc 1 1257 1
	jmp	.L183	#
.L179:
# wi_stuff.c:1249:     else if (ng_state & 1)
	.loc 1 1249 23
	movl	ng_state(%rip), %eax	# ng_state, ng_state.129_127
	andl	$1, %eax	#, _128
# wi_stuff.c:1249:     else if (ng_state & 1)
	.loc 1 1249 13
	testl	%eax, %eax	# _128
	je	.L183	#,
# wi_stuff.c:1251: 	if (!--cnt_pause)
	.loc 1 1251 7
	movl	cnt_pause(%rip), %eax	# cnt_pause, cnt_pause.130_129
	subl	$1, %eax	#, _130
# wi_stuff.c:1251: 	if (!--cnt_pause)
	.loc 1 1251 5
	movl	%eax, cnt_pause(%rip)	# _130, cnt_pause
# wi_stuff.c:1251: 	if (!--cnt_pause)
	.loc 1 1251 7
	movl	cnt_pause(%rip), %eax	# cnt_pause, cnt_pause.131_131
# wi_stuff.c:1251: 	if (!--cnt_pause)
	.loc 1 1251 5
	testl	%eax, %eax	# cnt_pause.131_131
	jne	.L183	#,
# wi_stuff.c:1253: 	    ng_state++;
	.loc 1 1253 14
	movl	ng_state(%rip), %eax	# ng_state, ng_state.132_132
	addl	$1, %eax	#, _133
	movl	%eax, ng_state(%rip)	# _133, ng_state
# wi_stuff.c:1254: 	    cnt_pause = TICRATE;
	.loc 1 1254 16
	movl	$35, cnt_pause(%rip)	#, cnt_pause
.L183:
# wi_stuff.c:1257: }
	.loc 1 1257 1
	nop	
	movq	-8(%rbp), %rbx	#,
	leave	
	.cfi_def_cfa 7, 8
	ret	
	.cfi_endproc
.LFE23:
	.size	WI_updateNetgameStats, .-WI_updateNetgameStats
	.globl	WI_drawNetgameStats
	.type	WI_drawNetgameStats, @function
WI_drawNetgameStats:
.LFB24:
	.loc 1 1262 1
	.cfi_startproc
	endbr64	
	pushq	%rbp	#
	.cfi_def_cfa_offset 16
	.cfi_offset 6, -16
	movq	%rsp, %rbp	#,
	.cfi_def_cfa_register 6
	subq	$16, %rsp	#,
# wi_stuff.c:1266:     int		pwidth = SHORT(percent->width);
	.loc 1 1266 19
	movq	percent(%rip), %rax	# percent, percent.133_1
	movzwl	(%rax), %eax	# percent.133_1->width, _2
# wi_stuff.c:1266:     int		pwidth = SHORT(percent->width);
	.loc 1 1266 10
	cwtl
	movl	%eax, -8(%rbp)	# tmp175, pwidth
# wi_stuff.c:1268:     WI_slamBackground();
	.loc 1 1268 5
	call	WI_slamBackground	#
# wi_stuff.c:1271:     WI_drawAnimatedBack(); 
	.loc 1 1271 5
	call	WI_drawAnimatedBack	#
# wi_stuff.c:1273:     WI_drawLF();
	.loc 1 1273 5
	call	WI_drawLF	#
# wi_stuff.c:1276:     V_DrawPatch(NG_STATSX+NG_SPACINGX-SHORT(kills->width),
	.loc 1 1276 5
	movq	kills(%rip), %rax	# kills, kills.134_3
# wi_stuff.c:1276:     V_DrawPatch(NG_STATSX+NG_SPACINGX-SHORT(kills->width),
	.loc 1 1276 17
	movq	star(%rip), %rdx	# star, star.135_4
	movzwl	(%rdx), %edx	# star.135_4->width, _5
	movl	%edx, %ecx	# _5, tmp176
	shrw	$15, %cx	#, tmp176
	addl	%ecx, %edx	# tmp176, tmp177
	sarw	%dx	# tmp178
	movswl	%dx, %edx	# _6, _7
	leal	32(%rdx), %ecx	#, _8
	movl	dofrags(%rip), %edx	# dofrags, dofrags.137_9
	testl	%edx, %edx	# dofrags.137_9
	jne	.L188	#,
# wi_stuff.c:1276:     V_DrawPatch(NG_STATSX+NG_SPACINGX-SHORT(kills->width),
	.loc 1 1276 17 is_stmt 0 discriminator 1
	movl	$32, %edx	#, iftmp.136_92
	jmp	.L189	#
.L188:
# wi_stuff.c:1276:     V_DrawPatch(NG_STATSX+NG_SPACINGX-SHORT(kills->width),
	.loc 1 1276 17 discriminator 2
	movl	$0, %edx	#, iftmp.136_92
.L189:
# wi_stuff.c:1276:     V_DrawPatch(NG_STATSX+NG_SPACINGX-SHORT(kills->width),
	.loc 1 1276 17 discriminator 4
	addl	%ecx, %edx	# _8, _10
# wi_stuff.c:1276:     V_DrawPatch(NG_STATSX+NG_SPACINGX-SHORT(kills->width),
	.loc 1 1276 26 is_stmt 1 discriminator 4
	leal	64(%rdx), %ecx	#, _11
# wi_stuff.c:1276:     V_DrawPatch(NG_STATSX+NG_SPACINGX-SHORT(kills->width),
	.loc 1 1276 39 discriminator 4
	movq	kills(%rip), %rdx	# kills, kills.138_12
	movzwl	(%rdx), %edx	# kills.138_12->width, _13
	movswl	%dx, %edx	# _13, _14
# wi_stuff.c:1276:     V_DrawPatch(NG_STATSX+NG_SPACINGX-SHORT(kills->width),
	.loc 1 1276 5 discriminator 4
	movl	%ecx, %edi	# _11, _11
	subl	%edx, %edi	# _14, _11
	movq	%rax, %rcx	# kills.134_3,
	movl	$0, %edx	#,
	movl	$50, %esi	#,
	call	V_DrawPatch@PLT	#
# wi_stuff.c:1279:     V_DrawPatch(NG_STATSX+2*NG_SPACINGX-SHORT(items->width),
	.loc 1 1279 5
	movq	items(%rip), %rax	# items, items.139_16
# wi_stuff.c:1279:     V_DrawPatch(NG_STATSX+2*NG_SPACINGX-SHORT(items->width),
	.loc 1 1279 17
	movq	star(%rip), %rdx	# star, star.140_17
	movzwl	(%rdx), %edx	# star.140_17->width, _18
	movl	%edx, %ecx	# _18, tmp179
	shrw	$15, %cx	#, tmp179
	addl	%ecx, %edx	# tmp179, tmp180
	sarw	%dx	# tmp181
	movswl	%dx, %edx	# _19, _20
	leal	32(%rdx), %ecx	#, _21
	movl	dofrags(%rip), %edx	# dofrags, dofrags.142_22
	testl	%edx, %edx	# dofrags.142_22
	jne	.L190	#,
# wi_stuff.c:1279:     V_DrawPatch(NG_STATSX+2*NG_SPACINGX-SHORT(items->width),
	.loc 1 1279 17 is_stmt 0 discriminator 1
	movl	$32, %edx	#, iftmp.141_93
	jmp	.L191	#
.L190:
# wi_stuff.c:1279:     V_DrawPatch(NG_STATSX+2*NG_SPACINGX-SHORT(items->width),
	.loc 1 1279 17 discriminator 2
	movl	$0, %edx	#, iftmp.141_93
.L191:
# wi_stuff.c:1279:     V_DrawPatch(NG_STATSX+2*NG_SPACINGX-SHORT(items->width),
	.loc 1 1279 17 discriminator 4
	addl	%ecx, %edx	# _21, _23
# wi_stuff.c:1279:     V_DrawPatch(NG_STATSX+2*NG_SPACINGX-SHORT(items->width),
	.loc 1 1279 26 is_stmt 1 discriminator 4
	leal	128(%rdx), %ecx	#, _24
# wi_stuff.c:1279:     V_DrawPatch(NG_STATSX+2*NG_SPACINGX-SHORT(items->width),
	.loc 1 1279 41 discriminator 4
	movq	items(%rip), %rdx	# items, items.143_25
	movzwl	(%rdx), %edx	# items.143_25->width, _26
	movswl	%dx, %edx	# _26, _27
# wi_stuff.c:1279:     V_DrawPatch(NG_STATSX+2*NG_SPACINGX-SHORT(items->width),
	.loc 1 1279 5 discriminator 4
	movl	%ecx, %edi	# _24, _24
	subl	%edx, %edi	# _27, _24
	movq	%rax, %rcx	# items.139_16,
	movl	$0, %edx	#,
	movl	$50, %esi	#,
	call	V_DrawPatch@PLT	#
# wi_stuff.c:1282:     V_DrawPatch(NG_STATSX+3*NG_SPACINGX-SHORT(secret->width),
	.loc 1 1282 5
	movq	secret(%rip), %rax	# secret, secret.144_29
# wi_stuff.c:1282:     V_DrawPatch(NG_STATSX+3*NG_SPACINGX-SHORT(secret->width),
	.loc 1 1282 17
	movq	star(%rip), %rdx	# star, star.145_30
	movzwl	(%rdx), %edx	# star.145_30->width, _31
	movl	%edx, %ecx	# _31, tmp182
	shrw	$15, %cx	#, tmp182
	addl	%ecx, %edx	# tmp182, tmp183
	sarw	%dx	# tmp184
	movswl	%dx, %edx	# _32, _33
	leal	32(%rdx), %ecx	#, _34
	movl	dofrags(%rip), %edx	# dofrags, dofrags.147_35
	testl	%edx, %edx	# dofrags.147_35
	jne	.L192	#,
# wi_stuff.c:1282:     V_DrawPatch(NG_STATSX+3*NG_SPACINGX-SHORT(secret->width),
	.loc 1 1282 17 is_stmt 0 discriminator 1
	movl	$32, %edx	#, iftmp.146_94
	jmp	.L193	#
.L192:
# wi_stuff.c:1282:     V_DrawPatch(NG_STATSX+3*NG_SPACINGX-SHORT(secret->width),
	.loc 1 1282 17 discriminator 2
	movl	$0, %edx	#, iftmp.146_94
.L193:
# wi_stuff.c:1282:     V_DrawPatch(NG_STATSX+3*NG_SPACINGX-SHORT(secret->width),
	.loc 1 1282 17 discriminator 4
	addl	%ecx, %edx	# _34, _36
# wi_stuff.c:1282:     V_DrawPatch(NG_STATSX+3*NG_SPACINGX-SHORT(secret->width),
	.loc 1 1282 26 is_stmt 1 discriminator 4
	leal	192(%rdx), %ecx	#, _37
# wi_stuff.c:1282:     V_DrawPatch(NG_STATSX+3*NG_SPACINGX-SHORT(secret->width),
	.loc 1 1282 41 discriminator 4
	movq	secret(%rip), %rdx	# secret, secret.148_38
	movzwl	(%rdx), %edx	# secret.148_38->width, _39
	movswl	%dx, %edx	# _39, _40
# wi_stuff.c:1282:     V_DrawPatch(NG_STATSX+3*NG_SPACINGX-SHORT(secret->width),
	.loc 1 1282 5 discriminator 4
	movl	%ecx, %edi	# _37, _37
	subl	%edx, %edi	# _40, _37
	movq	%rax, %rcx	# secret.144_29,
	movl	$0, %edx	#,
	movl	$50, %esi	#,
	call	V_DrawPatch@PLT	#
# wi_stuff.c:1285:     if (dofrags)
	.loc 1 1285 9
	movl	dofrags(%rip), %eax	# dofrags, dofrags.149_42
# wi_stuff.c:1285:     if (dofrags)
	.loc 1 1285 8
	testl	%eax, %eax	# dofrags.149_42
	je	.L194	#,
# wi_stuff.c:1286: 	V_DrawPatch(NG_STATSX+4*NG_SPACINGX-SHORT(frags->width),
	.loc 1 1286 2
	movq	frags(%rip), %rax	# frags, frags.150_43
# wi_stuff.c:1286: 	V_DrawPatch(NG_STATSX+4*NG_SPACINGX-SHORT(frags->width),
	.loc 1 1286 14
	movq	star(%rip), %rdx	# star, star.151_44
	movzwl	(%rdx), %edx	# star.151_44->width, _45
	movl	%edx, %ecx	# _45, tmp185
	shrw	$15, %cx	#, tmp185
	addl	%ecx, %edx	# tmp185, tmp186
	sarw	%dx	# tmp187
	movswl	%dx, %edx	# _46, _47
	leal	32(%rdx), %ecx	#, _48
	movl	dofrags(%rip), %edx	# dofrags, dofrags.153_49
	testl	%edx, %edx	# dofrags.153_49
	jne	.L195	#,
# wi_stuff.c:1286: 	V_DrawPatch(NG_STATSX+4*NG_SPACINGX-SHORT(frags->width),
	.loc 1 1286 14 is_stmt 0 discriminator 1
	movl	$32, %edx	#, iftmp.152_95
	jmp	.L196	#
.L195:
# wi_stuff.c:1286: 	V_DrawPatch(NG_STATSX+4*NG_SPACINGX-SHORT(frags->width),
	.loc 1 1286 14 discriminator 2
	movl	$0, %edx	#, iftmp.152_95
.L196:
# wi_stuff.c:1286: 	V_DrawPatch(NG_STATSX+4*NG_SPACINGX-SHORT(frags->width),
	.loc 1 1286 14 discriminator 4
	addl	%ecx, %edx	# _48, _50
# wi_stuff.c:1286: 	V_DrawPatch(NG_STATSX+4*NG_SPACINGX-SHORT(frags->width),
	.loc 1 1286 23 is_stmt 1 discriminator 4
	leal	256(%rdx), %ecx	#, _51
# wi_stuff.c:1286: 	V_DrawPatch(NG_STATSX+4*NG_SPACINGX-SHORT(frags->width),
	.loc 1 1286 38 discriminator 4
	movq	frags(%rip), %rdx	# frags, frags.154_52
	movzwl	(%rdx), %edx	# frags.154_52->width, _53
	movswl	%dx, %edx	# _53, _54
# wi_stuff.c:1286: 	V_DrawPatch(NG_STATSX+4*NG_SPACINGX-SHORT(frags->width),
	.loc 1 1286 2 discriminator 4
	movl	%ecx, %edi	# _51, _51
	subl	%edx, %edi	# _54, _51
	movq	%rax, %rcx	# frags.150_43,
	movl	$0, %edx	#,
	movl	$50, %esi	#,
	call	V_DrawPatch@PLT	#
.L194:
# wi_stuff.c:1290:     y = NG_STATSY + SHORT(kills->height);
	.loc 1 1290 21
	movq	kills(%rip), %rax	# kills, kills.155_56
	movzwl	2(%rax), %eax	# kills.155_56->height, _57
	cwtl
# wi_stuff.c:1290:     y = NG_STATSY + SHORT(kills->height);
	.loc 1 1290 7
	addl	$50, %eax	#, tmp188
	movl	%eax, -12(%rbp)	# tmp188, y
# wi_stuff.c:1292:     for (i=0 ; i<MAXPLAYERS ; i++)
	.loc 1 1292 11
	movl	$0, -16(%rbp)	#, i
# wi_stuff.c:1292:     for (i=0 ; i<MAXPLAYERS ; i++)
	.loc 1 1292 5
	jmp	.L197	#
.L204:
# wi_stuff.c:1294: 	if (!playeringame[i])
	.loc 1 1294 19
	movl	-16(%rbp), %eax	# i, tmp190
	cltq
	leaq	0(,%rax,4), %rdx	#, tmp191
	leaq	playeringame(%rip), %rax	#, tmp192
	movl	(%rdx,%rax), %eax	# playeringame[i_89], _59
# wi_stuff.c:1294: 	if (!playeringame[i])
	.loc 1 1294 5
	testl	%eax, %eax	# _59
	je	.L205	#,
# wi_stuff.c:1297: 	x = NG_STATSX;
	.loc 1 1297 6
	movq	star(%rip), %rax	# star, star.156_60
	movzwl	(%rax), %eax	# star.156_60->width, _61
	movl	%eax, %edx	# _61, tmp193
	shrw	$15, %dx	#, tmp193
	addl	%edx, %eax	# tmp193, tmp194
	sarw	%ax	# tmp195
	cwtl
	leal	32(%rax), %edx	#, _64
	movl	dofrags(%rip), %eax	# dofrags, dofrags.158_65
	testl	%eax, %eax	# dofrags.158_65
	jne	.L200	#,
# wi_stuff.c:1297: 	x = NG_STATSX;
	.loc 1 1297 6 is_stmt 0 discriminator 1
	movl	$32, %eax	#, iftmp.157_96
	jmp	.L201	#
.L200:
# wi_stuff.c:1297: 	x = NG_STATSX;
	.loc 1 1297 6 discriminator 2
	movl	$0, %eax	#, iftmp.157_96
.L201:
# wi_stuff.c:1297: 	x = NG_STATSX;
	.loc 1 1297 4 is_stmt 1 discriminator 4
	addl	%edx, %eax	# _64, tmp196
	movl	%eax, -4(%rbp)	# tmp196, x
# wi_stuff.c:1298: 	V_DrawPatch(x-SHORT(p[i]->width), y, FB, p[i]);
	.loc 1 1298 2
	movl	-16(%rbp), %eax	# i, tmp198
	cltq
	leaq	0(,%rax,8), %rdx	#, tmp199
	leaq	p(%rip), %rax	#, tmp200
	movq	(%rdx,%rax), %rdx	# p[i_89], _66
# wi_stuff.c:1298: 	V_DrawPatch(x-SHORT(p[i]->width), y, FB, p[i]);
	.loc 1 1298 16
	movl	-16(%rbp), %eax	# i, tmp202
	cltq
	leaq	0(,%rax,8), %rcx	#, tmp203
	leaq	p(%rip), %rax	#, tmp204
	movq	(%rcx,%rax), %rax	# p[i_89], _67
	movzwl	(%rax), %eax	# _67->width, _68
	cwtl
# wi_stuff.c:1298: 	V_DrawPatch(x-SHORT(p[i]->width), y, FB, p[i]);
	.loc 1 1298 2
	movl	-4(%rbp), %ecx	# x, tmp205
	movl	%ecx, %edi	# tmp205, tmp205
	subl	%eax, %edi	# _69, tmp205
	movl	-12(%rbp), %eax	# y, tmp206
	movq	%rdx, %rcx	# _66,
	movl	$0, %edx	#,
	movl	%eax, %esi	# tmp206,
	call	V_DrawPatch@PLT	#
# wi_stuff.c:1300: 	if (i == me)
	.loc 1 1300 8
	movl	me(%rip), %eax	# me, me.159_71
# wi_stuff.c:1300: 	if (i == me)
	.loc 1 1300 5
	cmpl	%eax, -16(%rbp)	# me.159_71, i
	jne	.L202	#,
# wi_stuff.c:1301: 	    V_DrawPatch(x-SHORT(p[i]->width), y, FB, star);
	.loc 1 1301 6
	movq	star(%rip), %rdx	# star, star.160_72
# wi_stuff.c:1301: 	    V_DrawPatch(x-SHORT(p[i]->width), y, FB, star);
	.loc 1 1301 20
	movl	-16(%rbp), %eax	# i, tmp208
	cltq
	leaq	0(,%rax,8), %rcx	#, tmp209
	leaq	p(%rip), %rax	#, tmp210
	movq	(%rcx,%rax), %rax	# p[i_89], _73
	movzwl	(%rax), %eax	# _73->width, _74
	cwtl
# wi_stuff.c:1301: 	    V_DrawPatch(x-SHORT(p[i]->width), y, FB, star);
	.loc 1 1301 6
	movl	-4(%rbp), %ecx	# x, tmp211
	movl	%ecx, %edi	# tmp211, tmp211
	subl	%eax, %edi	# _75, tmp211
	movl	-12(%rbp), %eax	# y, tmp212
	movq	%rdx, %rcx	# star.160_72,
	movl	$0, %edx	#,
	movl	%eax, %esi	# tmp212,
	call	V_DrawPatch@PLT	#
.L202:
# wi_stuff.c:1303: 	x += NG_SPACINGX;
	.loc 1 1303 4
	addl	$64, -4(%rbp)	#, x
# wi_stuff.c:1304: 	WI_drawPercent(x-pwidth, y+10, cnt_kills[i]);	x += NG_SPACINGX;
	.loc 1 1304 2
	movl	-16(%rbp), %eax	# i, tmp214
	cltq
	leaq	0(,%rax,4), %rdx	#, tmp215
	leaq	cnt_kills(%rip), %rax	#, tmp216
	movl	(%rdx,%rax), %edx	# cnt_kills[i_89], _77
	movl	-12(%rbp), %eax	# y, tmp217
	leal	10(%rax), %ecx	#, _78
	movl	-4(%rbp), %eax	# x, tmp218
	subl	-8(%rbp), %eax	# pwidth, _79
	movl	%ecx, %esi	# _78,
	movl	%eax, %edi	# _79,
	call	WI_drawPercent	#
# wi_stuff.c:1304: 	WI_drawPercent(x-pwidth, y+10, cnt_kills[i]);	x += NG_SPACINGX;
	.loc 1 1304 50 discriminator 1
	addl	$64, -4(%rbp)	#, x
# wi_stuff.c:1305: 	WI_drawPercent(x-pwidth, y+10, cnt_items[i]);	x += NG_SPACINGX;
	.loc 1 1305 2
	movl	-16(%rbp), %eax	# i, tmp220
	cltq
	leaq	0(,%rax,4), %rdx	#, tmp221
	leaq	cnt_items(%rip), %rax	#, tmp222
	movl	(%rdx,%rax), %edx	# cnt_items[i_89], _80
	movl	-12(%rbp), %eax	# y, tmp223
	leal	10(%rax), %ecx	#, _81
	movl	-4(%rbp), %eax	# x, tmp224
	subl	-8(%rbp), %eax	# pwidth, _82
	movl	%ecx, %esi	# _81,
	movl	%eax, %edi	# _82,
	call	WI_drawPercent	#
# wi_stuff.c:1305: 	WI_drawPercent(x-pwidth, y+10, cnt_items[i]);	x += NG_SPACINGX;
	.loc 1 1305 50 discriminator 1
	addl	$64, -4(%rbp)	#, x
# wi_stuff.c:1306: 	WI_drawPercent(x-pwidth, y+10, cnt_secret[i]);	x += NG_SPACINGX;
	.loc 1 1306 2
	movl	-16(%rbp), %eax	# i, tmp226
	cltq
	leaq	0(,%rax,4), %rdx	#, tmp227
	leaq	cnt_secret(%rip), %rax	#, tmp228
	movl	(%rdx,%rax), %edx	# cnt_secret[i_89], _83
	movl	-12(%rbp), %eax	# y, tmp229
	leal	10(%rax), %ecx	#, _84
	movl	-4(%rbp), %eax	# x, tmp230
	subl	-8(%rbp), %eax	# pwidth, _85
	movl	%ecx, %esi	# _84,
	movl	%eax, %edi	# _85,
	call	WI_drawPercent	#
# wi_stuff.c:1306: 	WI_drawPercent(x-pwidth, y+10, cnt_secret[i]);	x += NG_SPACINGX;
	.loc 1 1306 51 discriminator 1
	addl	$64, -4(%rbp)	#, x
# wi_stuff.c:1308: 	if (dofrags)
	.loc 1 1308 6
	movl	dofrags(%rip), %eax	# dofrags, dofrags.161_86
# wi_stuff.c:1308: 	if (dofrags)
	.loc 1 1308 5
	testl	%eax, %eax	# dofrags.161_86
	je	.L203	#,
# wi_stuff.c:1309: 	    WI_drawNum(x, y+10, cnt_frags[i], -1);
	.loc 1 1309 6
	movl	-16(%rbp), %eax	# i, tmp232
	cltq
	leaq	0(,%rax,4), %rdx	#, tmp233
	leaq	cnt_frags(%rip), %rax	#, tmp234
	movl	(%rdx,%rax), %edx	# cnt_frags[i_89], _87
	movl	-12(%rbp), %eax	# y, tmp235
	leal	10(%rax), %esi	#, _88
	movl	-4(%rbp), %eax	# x, tmp236
	movl	$-1, %ecx	#,
	movl	%eax, %edi	# tmp236,
	call	WI_drawNum	#
.L203:
# wi_stuff.c:1311: 	y += WI_SPACINGY;
	.loc 1 1311 4
	addl	$33, -12(%rbp)	#, y
	jmp	.L199	#
.L205:
# wi_stuff.c:1295: 	    continue;
	.loc 1 1295 6
	nop	
.L199:
# wi_stuff.c:1292:     for (i=0 ; i<MAXPLAYERS ; i++)
	.loc 1 1292 32 discriminator 2
	addl	$1, -16(%rbp)	#, i
.L197:
# wi_stuff.c:1292:     for (i=0 ; i<MAXPLAYERS ; i++)
	.loc 1 1292 17 discriminator 1
	cmpl	$3, -16(%rbp)	#, i
	jle	.L204	#,
# wi_stuff.c:1314: }
	.loc 1 1314 1
	nop	
	nop	
	leave	
	.cfi_def_cfa 7, 8
	ret	
	.cfi_endproc
.LFE24:
	.size	WI_drawNetgameStats, .-WI_drawNetgameStats
	.local	sp_state
	.comm	sp_state,4,4
	.globl	WI_initStats
	.type	WI_initStats, @function
WI_initStats:
.LFB25:
	.loc 1 1319 1
	.cfi_startproc
	endbr64	
	pushq	%rbp	#
	.cfi_def_cfa_offset 16
	.cfi_offset 6, -16
	movq	%rsp, %rbp	#,
	.cfi_def_cfa_register 6
# wi_stuff.c:1320:     state = StatCount;
	.loc 1 1320 11
	movl	$0, state(%rip)	#, state
# wi_stuff.c:1321:     acceleratestage = 0;
	.loc 1 1321 21
	movl	$0, acceleratestage(%rip)	#, acceleratestage
# wi_stuff.c:1322:     sp_state = 1;
	.loc 1 1322 14
	movl	$1, sp_state(%rip)	#, sp_state
# wi_stuff.c:1323:     cnt_kills[0] = cnt_items[0] = cnt_secret[0] = -1;
	.loc 1 1323 49
	movl	$-1, cnt_secret(%rip)	#, cnt_secret[0]
# wi_stuff.c:1323:     cnt_kills[0] = cnt_items[0] = cnt_secret[0] = -1;
	.loc 1 1323 45
	movl	cnt_secret(%rip), %eax	# cnt_secret[0], _1
# wi_stuff.c:1323:     cnt_kills[0] = cnt_items[0] = cnt_secret[0] = -1;
	.loc 1 1323 33
	movl	%eax, cnt_items(%rip)	# _1, cnt_items[0]
# wi_stuff.c:1323:     cnt_kills[0] = cnt_items[0] = cnt_secret[0] = -1;
	.loc 1 1323 29
	movl	cnt_items(%rip), %eax	# cnt_items[0], _2
# wi_stuff.c:1323:     cnt_kills[0] = cnt_items[0] = cnt_secret[0] = -1;
	.loc 1 1323 18
	movl	%eax, cnt_kills(%rip)	# _2, cnt_kills[0]
# wi_stuff.c:1324:     cnt_time = cnt_par = -1;
	.loc 1 1324 24
	movl	$-1, cnt_par(%rip)	#, cnt_par
# wi_stuff.c:1324:     cnt_time = cnt_par = -1;
	.loc 1 1324 14
	movl	cnt_par(%rip), %eax	# cnt_par, cnt_par.162_3
	movl	%eax, cnt_time(%rip)	# cnt_par.162_3, cnt_time
# wi_stuff.c:1325:     cnt_pause = TICRATE;
	.loc 1 1325 15
	movl	$35, cnt_pause(%rip)	#, cnt_pause
# wi_stuff.c:1327:     WI_initAnimatedBack();
	.loc 1 1327 5
	call	WI_initAnimatedBack	#
# wi_stuff.c:1328: }
	.loc 1 1328 1
	nop	
	popq	%rbp	#
	.cfi_def_cfa 7, 8
	ret	
	.cfi_endproc
.LFE25:
	.size	WI_initStats, .-WI_initStats
	.globl	WI_updateStats
	.type	WI_updateStats, @function
WI_updateStats:
.LFB26:
	.loc 1 1331 1
	.cfi_startproc
	endbr64	
	pushq	%rbp	#
	.cfi_def_cfa_offset 16
	.cfi_offset 6, -16
	movq	%rsp, %rbp	#,
	.cfi_def_cfa_register 6
# wi_stuff.c:1333:     WI_updateAnimatedBack();
	.loc 1 1333 5
	call	WI_updateAnimatedBack	#
# wi_stuff.c:1335:     if (acceleratestage && sp_state != 10)
	.loc 1 1335 9
	movl	acceleratestage(%rip), %eax	# acceleratestage, acceleratestage.163_1
# wi_stuff.c:1335:     if (acceleratestage && sp_state != 10)
	.loc 1 1335 8
	testl	%eax, %eax	# acceleratestage.163_1
	je	.L208	#,
# wi_stuff.c:1335:     if (acceleratestage && sp_state != 10)
	.loc 1 1335 37 discriminator 1
	movl	sp_state(%rip), %eax	# sp_state, sp_state.164_2
# wi_stuff.c:1335:     if (acceleratestage && sp_state != 10)
	.loc 1 1335 25 discriminator 1
	cmpl	$10, %eax	#, sp_state.164_2
	je	.L208	#,
# wi_stuff.c:1337: 	acceleratestage = 0;
	.loc 1 1337 18
	movl	$0, acceleratestage(%rip)	#, acceleratestage
# wi_stuff.c:1338: 	cnt_kills[0] = (plrs[me].skills * 100) / wbs->maxkills;
	.loc 1 1338 22
	movq	plrs(%rip), %rcx	# plrs, plrs.165_3
	movl	me(%rip), %eax	# me, me.166_4
	movslq	%eax, %rdx	# me.166_4, _5
	movq	%rdx, %rax	# _5, tmp257
	salq	$2, %rax	#, tmp257
	addq	%rdx, %rax	# _5, tmp257
	salq	$3, %rax	#, tmp258
	addq	%rcx, %rax	# plrs.165_3, _7
# wi_stuff.c:1338: 	cnt_kills[0] = (plrs[me].skills * 100) / wbs->maxkills;
	.loc 1 1338 26
	movl	4(%rax), %eax	# _7->skills, _8
# wi_stuff.c:1338: 	cnt_kills[0] = (plrs[me].skills * 100) / wbs->maxkills;
	.loc 1 1338 34
	imull	$100, %eax, %eax	#, _8, _9
# wi_stuff.c:1338: 	cnt_kills[0] = (plrs[me].skills * 100) / wbs->maxkills;
	.loc 1 1338 46
	movq	wbs(%rip), %rdx	# wbs, wbs.167_10
	movl	16(%rdx), %edi	# wbs.167_10->maxkills, _11
# wi_stuff.c:1338: 	cnt_kills[0] = (plrs[me].skills * 100) / wbs->maxkills;
	.loc 1 1338 41
	cltd
	idivl	%edi	# _11
# wi_stuff.c:1338: 	cnt_kills[0] = (plrs[me].skills * 100) / wbs->maxkills;
	.loc 1 1338 15
	movl	%eax, cnt_kills(%rip)	# _12, cnt_kills[0]
# wi_stuff.c:1339: 	cnt_items[0] = (plrs[me].sitems * 100) / wbs->maxitems;
	.loc 1 1339 22
	movq	plrs(%rip), %rcx	# plrs, plrs.168_13
	movl	me(%rip), %eax	# me, me.169_14
	movslq	%eax, %rdx	# me.169_14, _15
	movq	%rdx, %rax	# _15, tmp261
	salq	$2, %rax	#, tmp261
	addq	%rdx, %rax	# _15, tmp261
	salq	$3, %rax	#, tmp262
	addq	%rcx, %rax	# plrs.168_13, _17
# wi_stuff.c:1339: 	cnt_items[0] = (plrs[me].sitems * 100) / wbs->maxitems;
	.loc 1 1339 26
	movl	8(%rax), %eax	# _17->sitems, _18
# wi_stuff.c:1339: 	cnt_items[0] = (plrs[me].sitems * 100) / wbs->maxitems;
	.loc 1 1339 34
	imull	$100, %eax, %eax	#, _18, _19
# wi_stuff.c:1339: 	cnt_items[0] = (plrs[me].sitems * 100) / wbs->maxitems;
	.loc 1 1339 46
	movq	wbs(%rip), %rdx	# wbs, wbs.170_20
	movl	20(%rdx), %edi	# wbs.170_20->maxitems, _21
# wi_stuff.c:1339: 	cnt_items[0] = (plrs[me].sitems * 100) / wbs->maxitems;
	.loc 1 1339 41
	cltd
	idivl	%edi	# _21
# wi_stuff.c:1339: 	cnt_items[0] = (plrs[me].sitems * 100) / wbs->maxitems;
	.loc 1 1339 15
	movl	%eax, cnt_items(%rip)	# _22, cnt_items[0]
# wi_stuff.c:1340: 	cnt_secret[0] = (plrs[me].ssecret * 100) / wbs->maxsecret;
	.loc 1 1340 23
	movq	plrs(%rip), %rcx	# plrs, plrs.171_23
	movl	me(%rip), %eax	# me, me.172_24
	movslq	%eax, %rdx	# me.172_24, _25
	movq	%rdx, %rax	# _25, tmp265
	salq	$2, %rax	#, tmp265
	addq	%rdx, %rax	# _25, tmp265
	salq	$3, %rax	#, tmp266
	addq	%rcx, %rax	# plrs.171_23, _27
# wi_stuff.c:1340: 	cnt_secret[0] = (plrs[me].ssecret * 100) / wbs->maxsecret;
	.loc 1 1340 27
	movl	12(%rax), %eax	# _27->ssecret, _28
# wi_stuff.c:1340: 	cnt_secret[0] = (plrs[me].ssecret * 100) / wbs->maxsecret;
	.loc 1 1340 36
	imull	$100, %eax, %eax	#, _28, _29
# wi_stuff.c:1340: 	cnt_secret[0] = (plrs[me].ssecret * 100) / wbs->maxsecret;
	.loc 1 1340 48
	movq	wbs(%rip), %rdx	# wbs, wbs.173_30
	movl	24(%rdx), %edi	# wbs.173_30->maxsecret, _31
# wi_stuff.c:1340: 	cnt_secret[0] = (plrs[me].ssecret * 100) / wbs->maxsecret;
	.loc 1 1340 43
	cltd
	idivl	%edi	# _31
# wi_stuff.c:1340: 	cnt_secret[0] = (plrs[me].ssecret * 100) / wbs->maxsecret;
	.loc 1 1340 16
	movl	%eax, cnt_secret(%rip)	# _32, cnt_secret[0]
# wi_stuff.c:1341: 	cnt_time = plrs[me].stime / TICRATE;
	.loc 1 1341 17
	movq	plrs(%rip), %rcx	# plrs, plrs.174_33
	movl	me(%rip), %eax	# me, me.175_34
	movslq	%eax, %rdx	# me.175_34, _35
	movq	%rdx, %rax	# _35, tmp269
	salq	$2, %rax	#, tmp269
	addq	%rdx, %rax	# _35, tmp269
	salq	$3, %rax	#, tmp270
	addq	%rcx, %rax	# plrs.174_33, _37
# wi_stuff.c:1341: 	cnt_time = plrs[me].stime / TICRATE;
	.loc 1 1341 21
	movl	16(%rax), %eax	# _37->stime, _38
# wi_stuff.c:1341: 	cnt_time = plrs[me].stime / TICRATE;
	.loc 1 1341 28
	movslq	%eax, %rdx	# _38, tmp271
	imulq	$-368140053, %rdx, %rdx	#, tmp271, tmp272
	shrq	$32, %rdx	#, tmp273
	addl	%eax, %edx	# _38, tmp274
	movl	%edx, %ecx	# tmp274, tmp274
	sarl	$5, %ecx	#, tmp274
	cltd
	movl	%ecx, %eax	# tmp275, tmp275
	subl	%edx, %eax	# tmp276, tmp275
# wi_stuff.c:1341: 	cnt_time = plrs[me].stime / TICRATE;
	.loc 1 1341 11
	movl	%eax, cnt_time(%rip)	# _39, cnt_time
# wi_stuff.c:1342: 	cnt_par = wbs->partime / TICRATE;
	.loc 1 1342 15
	movq	wbs(%rip), %rax	# wbs, wbs.176_40
	movl	32(%rax), %eax	# wbs.176_40->partime, _41
# wi_stuff.c:1342: 	cnt_par = wbs->partime / TICRATE;
	.loc 1 1342 25
	movslq	%eax, %rdx	# _41, tmp277
	imulq	$-368140053, %rdx, %rdx	#, tmp277, tmp278
	shrq	$32, %rdx	#, tmp279
	addl	%eax, %edx	# _41, tmp280
	movl	%edx, %ecx	# tmp280, tmp280
	sarl	$5, %ecx	#, tmp280
	cltd
	movl	%ecx, %eax	# tmp281, tmp281
	subl	%edx, %eax	# tmp282, tmp281
# wi_stuff.c:1342: 	cnt_par = wbs->partime / TICRATE;
	.loc 1 1342 10
	movl	%eax, cnt_par(%rip)	# _42, cnt_par
# wi_stuff.c:1343: 	S_StartSound(0, sfx_barexp);
	.loc 1 1343 2
	movl	$82, %esi	#,
	movl	$0, %edi	#,
	call	S_StartSound@PLT	#
# wi_stuff.c:1344: 	sp_state = 10;
	.loc 1 1344 11
	movl	$10, sp_state(%rip)	#, sp_state
.L208:
# wi_stuff.c:1347:     if (sp_state == 2)
	.loc 1 1347 18
	movl	sp_state(%rip), %eax	# sp_state, sp_state.177_43
# wi_stuff.c:1347:     if (sp_state == 2)
	.loc 1 1347 8
	cmpl	$2, %eax	#, sp_state.177_43
	jne	.L209	#,
# wi_stuff.c:1349: 	cnt_kills[0] += 2;
	.loc 1 1349 11
	movl	cnt_kills(%rip), %eax	# cnt_kills[0], _44
# wi_stuff.c:1349: 	cnt_kills[0] += 2;
	.loc 1 1349 15
	addl	$2, %eax	#, _45
	movl	%eax, cnt_kills(%rip)	# _45, cnt_kills[0]
# wi_stuff.c:1351: 	if (!(bcnt&3))
	.loc 1 1351 12
	movl	bcnt(%rip), %eax	# bcnt, bcnt.178_46
	andl	$3, %eax	#, _47
# wi_stuff.c:1351: 	if (!(bcnt&3))
	.loc 1 1351 5
	testl	%eax, %eax	# _47
	jne	.L210	#,
# wi_stuff.c:1352: 	    S_StartSound(0, sfx_pistol);
	.loc 1 1352 6
	movl	$1, %esi	#,
	movl	$0, %edi	#,
	call	S_StartSound@PLT	#
.L210:
# wi_stuff.c:1354: 	if (cnt_kills[0] >= (plrs[me].skills * 100) / wbs->maxkills)
	.loc 1 1354 15
	movl	cnt_kills(%rip), %ecx	# cnt_kills[0], _48
# wi_stuff.c:1354: 	if (cnt_kills[0] >= (plrs[me].skills * 100) / wbs->maxkills)
	.loc 1 1354 27
	movq	plrs(%rip), %rsi	# plrs, plrs.179_49
	movl	me(%rip), %eax	# me, me.180_50
	movslq	%eax, %rdx	# me.180_50, _51
	movq	%rdx, %rax	# _51, tmp283
	salq	$2, %rax	#, tmp283
	addq	%rdx, %rax	# _51, tmp283
	salq	$3, %rax	#, tmp284
	addq	%rsi, %rax	# plrs.179_49, _53
# wi_stuff.c:1354: 	if (cnt_kills[0] >= (plrs[me].skills * 100) / wbs->maxkills)
	.loc 1 1354 31
	movl	4(%rax), %eax	# _53->skills, _54
# wi_stuff.c:1354: 	if (cnt_kills[0] >= (plrs[me].skills * 100) / wbs->maxkills)
	.loc 1 1354 39
	imull	$100, %eax, %eax	#, _54, _55
# wi_stuff.c:1354: 	if (cnt_kills[0] >= (plrs[me].skills * 100) / wbs->maxkills)
	.loc 1 1354 51
	movq	wbs(%rip), %rdx	# wbs, wbs.181_56
	movl	16(%rdx), %esi	# wbs.181_56->maxkills, _57
# wi_stuff.c:1354: 	if (cnt_kills[0] >= (plrs[me].skills * 100) / wbs->maxkills)
	.loc 1 1354 46
	cltd
	idivl	%esi	# _57
# wi_stuff.c:1354: 	if (cnt_kills[0] >= (plrs[me].skills * 100) / wbs->maxkills)
	.loc 1 1354 5
	cmpl	%eax, %ecx	# _58, _48
	jl	.L221	#,
# wi_stuff.c:1356: 	    cnt_kills[0] = (plrs[me].skills * 100) / wbs->maxkills;
	.loc 1 1356 26
	movq	plrs(%rip), %rcx	# plrs, plrs.182_59
	movl	me(%rip), %eax	# me, me.183_60
	movslq	%eax, %rdx	# me.183_60, _61
	movq	%rdx, %rax	# _61, tmp287
	salq	$2, %rax	#, tmp287
	addq	%rdx, %rax	# _61, tmp287
	salq	$3, %rax	#, tmp288
	addq	%rcx, %rax	# plrs.182_59, _63
# wi_stuff.c:1356: 	    cnt_kills[0] = (plrs[me].skills * 100) / wbs->maxkills;
	.loc 1 1356 30
	movl	4(%rax), %eax	# _63->skills, _64
# wi_stuff.c:1356: 	    cnt_kills[0] = (plrs[me].skills * 100) / wbs->maxkills;
	.loc 1 1356 38
	imull	$100, %eax, %eax	#, _64, _65
# wi_stuff.c:1356: 	    cnt_kills[0] = (plrs[me].skills * 100) / wbs->maxkills;
	.loc 1 1356 50
	movq	wbs(%rip), %rdx	# wbs, wbs.184_66
	movl	16(%rdx), %edi	# wbs.184_66->maxkills, _67
# wi_stuff.c:1356: 	    cnt_kills[0] = (plrs[me].skills * 100) / wbs->maxkills;
	.loc 1 1356 45
	cltd
	idivl	%edi	# _67
# wi_stuff.c:1356: 	    cnt_kills[0] = (plrs[me].skills * 100) / wbs->maxkills;
	.loc 1 1356 19
	movl	%eax, cnt_kills(%rip)	# _68, cnt_kills[0]
# wi_stuff.c:1357: 	    S_StartSound(0, sfx_barexp);
	.loc 1 1357 6
	movl	$82, %esi	#,
	movl	$0, %edi	#,
	call	S_StartSound@PLT	#
# wi_stuff.c:1358: 	    sp_state++;
	.loc 1 1358 14
	movl	sp_state(%rip), %eax	# sp_state, sp_state.185_69
	addl	$1, %eax	#, _70
	movl	%eax, sp_state(%rip)	# _70, sp_state
# wi_stuff.c:1434: }
	.loc 1 1434 1
	jmp	.L221	#
.L209:
# wi_stuff.c:1361:     else if (sp_state == 4)
	.loc 1 1361 23
	movl	sp_state(%rip), %eax	# sp_state, sp_state.186_71
# wi_stuff.c:1361:     else if (sp_state == 4)
	.loc 1 1361 13
	cmpl	$4, %eax	#, sp_state.186_71
	jne	.L212	#,
# wi_stuff.c:1363: 	cnt_items[0] += 2;
	.loc 1 1363 11
	movl	cnt_items(%rip), %eax	# cnt_items[0], _72
# wi_stuff.c:1363: 	cnt_items[0] += 2;
	.loc 1 1363 15
	addl	$2, %eax	#, _73
	movl	%eax, cnt_items(%rip)	# _73, cnt_items[0]
# wi_stuff.c:1365: 	if (!(bcnt&3))
	.loc 1 1365 12
	movl	bcnt(%rip), %eax	# bcnt, bcnt.187_74
	andl	$3, %eax	#, _75
# wi_stuff.c:1365: 	if (!(bcnt&3))
	.loc 1 1365 5
	testl	%eax, %eax	# _75
	jne	.L213	#,
# wi_stuff.c:1366: 	    S_StartSound(0, sfx_pistol);
	.loc 1 1366 6
	movl	$1, %esi	#,
	movl	$0, %edi	#,
	call	S_StartSound@PLT	#
.L213:
# wi_stuff.c:1368: 	if (cnt_items[0] >= (plrs[me].sitems * 100) / wbs->maxitems)
	.loc 1 1368 15
	movl	cnt_items(%rip), %ecx	# cnt_items[0], _76
# wi_stuff.c:1368: 	if (cnt_items[0] >= (plrs[me].sitems * 100) / wbs->maxitems)
	.loc 1 1368 27
	movq	plrs(%rip), %rsi	# plrs, plrs.188_77
	movl	me(%rip), %eax	# me, me.189_78
	movslq	%eax, %rdx	# me.189_78, _79
	movq	%rdx, %rax	# _79, tmp291
	salq	$2, %rax	#, tmp291
	addq	%rdx, %rax	# _79, tmp291
	salq	$3, %rax	#, tmp292
	addq	%rsi, %rax	# plrs.188_77, _81
# wi_stuff.c:1368: 	if (cnt_items[0] >= (plrs[me].sitems * 100) / wbs->maxitems)
	.loc 1 1368 31
	movl	8(%rax), %eax	# _81->sitems, _82
# wi_stuff.c:1368: 	if (cnt_items[0] >= (plrs[me].sitems * 100) / wbs->maxitems)
	.loc 1 1368 39
	imull	$100, %eax, %eax	#, _82, _83
# wi_stuff.c:1368: 	if (cnt_items[0] >= (plrs[me].sitems * 100) / wbs->maxitems)
	.loc 1 1368 51
	movq	wbs(%rip), %rdx	# wbs, wbs.190_84
	movl	20(%rdx), %esi	# wbs.190_84->maxitems, _85
# wi_stuff.c:1368: 	if (cnt_items[0] >= (plrs[me].sitems * 100) / wbs->maxitems)
	.loc 1 1368 46
	cltd
	idivl	%esi	# _85
# wi_stuff.c:1368: 	if (cnt_items[0] >= (plrs[me].sitems * 100) / wbs->maxitems)
	.loc 1 1368 5
	cmpl	%eax, %ecx	# _86, _76
	jl	.L221	#,
# wi_stuff.c:1370: 	    cnt_items[0] = (plrs[me].sitems * 100) / wbs->maxitems;
	.loc 1 1370 26
	movq	plrs(%rip), %rcx	# plrs, plrs.191_87
	movl	me(%rip), %eax	# me, me.192_88
	movslq	%eax, %rdx	# me.192_88, _89
	movq	%rdx, %rax	# _89, tmp295
	salq	$2, %rax	#, tmp295
	addq	%rdx, %rax	# _89, tmp295
	salq	$3, %rax	#, tmp296
	addq	%rcx, %rax	# plrs.191_87, _91
# wi_stuff.c:1370: 	    cnt_items[0] = (plrs[me].sitems * 100) / wbs->maxitems;
	.loc 1 1370 30
	movl	8(%rax), %eax	# _91->sitems, _92
# wi_stuff.c:1370: 	    cnt_items[0] = (plrs[me].sitems * 100) / wbs->maxitems;
	.loc 1 1370 38
	imull	$100, %eax, %eax	#, _92, _93
# wi_stuff.c:1370: 	    cnt_items[0] = (plrs[me].sitems * 100) / wbs->maxitems;
	.loc 1 1370 50
	movq	wbs(%rip), %rdx	# wbs, wbs.193_94
	movl	20(%rdx), %edi	# wbs.193_94->maxitems, _95
# wi_stuff.c:1370: 	    cnt_items[0] = (plrs[me].sitems * 100) / wbs->maxitems;
	.loc 1 1370 45
	cltd
	idivl	%edi	# _95
# wi_stuff.c:1370: 	    cnt_items[0] = (plrs[me].sitems * 100) / wbs->maxitems;
	.loc 1 1370 19
	movl	%eax, cnt_items(%rip)	# _96, cnt_items[0]
# wi_stuff.c:1371: 	    S_StartSound(0, sfx_barexp);
	.loc 1 1371 6
	movl	$82, %esi	#,
	movl	$0, %edi	#,
	call	S_StartSound@PLT	#
# wi_stuff.c:1372: 	    sp_state++;
	.loc 1 1372 14
	movl	sp_state(%rip), %eax	# sp_state, sp_state.194_97
	addl	$1, %eax	#, _98
	movl	%eax, sp_state(%rip)	# _98, sp_state
# wi_stuff.c:1434: }
	.loc 1 1434 1
	jmp	.L221	#
.L212:
# wi_stuff.c:1375:     else if (sp_state == 6)
	.loc 1 1375 23
	movl	sp_state(%rip), %eax	# sp_state, sp_state.195_99
# wi_stuff.c:1375:     else if (sp_state == 6)
	.loc 1 1375 13
	cmpl	$6, %eax	#, sp_state.195_99
	jne	.L214	#,
# wi_stuff.c:1377: 	cnt_secret[0] += 2;
	.loc 1 1377 12
	movl	cnt_secret(%rip), %eax	# cnt_secret[0], _100
# wi_stuff.c:1377: 	cnt_secret[0] += 2;
	.loc 1 1377 16
	addl	$2, %eax	#, _101
	movl	%eax, cnt_secret(%rip)	# _101, cnt_secret[0]
# wi_stuff.c:1379: 	if (!(bcnt&3))
	.loc 1 1379 12
	movl	bcnt(%rip), %eax	# bcnt, bcnt.196_102
	andl	$3, %eax	#, _103
# wi_stuff.c:1379: 	if (!(bcnt&3))
	.loc 1 1379 5
	testl	%eax, %eax	# _103
	jne	.L215	#,
# wi_stuff.c:1380: 	    S_StartSound(0, sfx_pistol);
	.loc 1 1380 6
	movl	$1, %esi	#,
	movl	$0, %edi	#,
	call	S_StartSound@PLT	#
.L215:
# wi_stuff.c:1382: 	if (cnt_secret[0] >= (plrs[me].ssecret * 100) / wbs->maxsecret)
	.loc 1 1382 16
	movl	cnt_secret(%rip), %ecx	# cnt_secret[0], _104
# wi_stuff.c:1382: 	if (cnt_secret[0] >= (plrs[me].ssecret * 100) / wbs->maxsecret)
	.loc 1 1382 28
	movq	plrs(%rip), %rsi	# plrs, plrs.197_105
	movl	me(%rip), %eax	# me, me.198_106
	movslq	%eax, %rdx	# me.198_106, _107
	movq	%rdx, %rax	# _107, tmp299
	salq	$2, %rax	#, tmp299
	addq	%rdx, %rax	# _107, tmp299
	salq	$3, %rax	#, tmp300
	addq	%rsi, %rax	# plrs.197_105, _109
# wi_stuff.c:1382: 	if (cnt_secret[0] >= (plrs[me].ssecret * 100) / wbs->maxsecret)
	.loc 1 1382 32
	movl	12(%rax), %eax	# _109->ssecret, _110
# wi_stuff.c:1382: 	if (cnt_secret[0] >= (plrs[me].ssecret * 100) / wbs->maxsecret)
	.loc 1 1382 41
	imull	$100, %eax, %eax	#, _110, _111
# wi_stuff.c:1382: 	if (cnt_secret[0] >= (plrs[me].ssecret * 100) / wbs->maxsecret)
	.loc 1 1382 53
	movq	wbs(%rip), %rdx	# wbs, wbs.199_112
	movl	24(%rdx), %esi	# wbs.199_112->maxsecret, _113
# wi_stuff.c:1382: 	if (cnt_secret[0] >= (plrs[me].ssecret * 100) / wbs->maxsecret)
	.loc 1 1382 48
	cltd
	idivl	%esi	# _113
# wi_stuff.c:1382: 	if (cnt_secret[0] >= (plrs[me].ssecret * 100) / wbs->maxsecret)
	.loc 1 1382 5
	cmpl	%eax, %ecx	# _114, _104
	jl	.L221	#,
# wi_stuff.c:1384: 	    cnt_secret[0] = (plrs[me].ssecret * 100) / wbs->maxsecret;
	.loc 1 1384 27
	movq	plrs(%rip), %rcx	# plrs, plrs.200_115
	movl	me(%rip), %eax	# me, me.201_116
	movslq	%eax, %rdx	# me.201_116, _117
	movq	%rdx, %rax	# _117, tmp303
	salq	$2, %rax	#, tmp303
	addq	%rdx, %rax	# _117, tmp303
	salq	$3, %rax	#, tmp304
	addq	%rcx, %rax	# plrs.200_115, _119
# wi_stuff.c:1384: 	    cnt_secret[0] = (plrs[me].ssecret * 100) / wbs->maxsecret;
	.loc 1 1384 31
	movl	12(%rax), %eax	# _119->ssecret, _120
# wi_stuff.c:1384: 	    cnt_secret[0] = (plrs[me].ssecret * 100) / wbs->maxsecret;
	.loc 1 1384 40
	imull	$100, %eax, %eax	#, _120, _121
# wi_stuff.c:1384: 	    cnt_secret[0] = (plrs[me].ssecret * 100) / wbs->maxsecret;
	.loc 1 1384 52
	movq	wbs(%rip), %rdx	# wbs, wbs.202_122
	movl	24(%rdx), %edi	# wbs.202_122->maxsecret, _123
# wi_stuff.c:1384: 	    cnt_secret[0] = (plrs[me].ssecret * 100) / wbs->maxsecret;
	.loc 1 1384 47
	cltd
	idivl	%edi	# _123
# wi_stuff.c:1384: 	    cnt_secret[0] = (plrs[me].ssecret * 100) / wbs->maxsecret;
	.loc 1 1384 20
	movl	%eax, cnt_secret(%rip)	# _124, cnt_secret[0]
# wi_stuff.c:1385: 	    S_StartSound(0, sfx_barexp);
	.loc 1 1385 6
	movl	$82, %esi	#,
	movl	$0, %edi	#,
	call	S_StartSound@PLT	#
# wi_stuff.c:1386: 	    sp_state++;
	.loc 1 1386 14
	movl	sp_state(%rip), %eax	# sp_state, sp_state.203_125
	addl	$1, %eax	#, _126
	movl	%eax, sp_state(%rip)	# _126, sp_state
# wi_stuff.c:1434: }
	.loc 1 1434 1
	jmp	.L221	#
.L214:
# wi_stuff.c:1390:     else if (sp_state == 8)
	.loc 1 1390 23
	movl	sp_state(%rip), %eax	# sp_state, sp_state.204_127
# wi_stuff.c:1390:     else if (sp_state == 8)
	.loc 1 1390 13
	cmpl	$8, %eax	#, sp_state.204_127
	jne	.L216	#,
# wi_stuff.c:1392: 	if (!(bcnt&3))
	.loc 1 1392 12
	movl	bcnt(%rip), %eax	# bcnt, bcnt.205_128
	andl	$3, %eax	#, _129
# wi_stuff.c:1392: 	if (!(bcnt&3))
	.loc 1 1392 5
	testl	%eax, %eax	# _129
	jne	.L217	#,
# wi_stuff.c:1393: 	    S_StartSound(0, sfx_pistol);
	.loc 1 1393 6
	movl	$1, %esi	#,
	movl	$0, %edi	#,
	call	S_StartSound@PLT	#
.L217:
# wi_stuff.c:1395: 	cnt_time += 3;
	.loc 1 1395 11
	movl	cnt_time(%rip), %eax	# cnt_time, cnt_time.206_130
	addl	$3, %eax	#, _131
	movl	%eax, cnt_time(%rip)	# _131, cnt_time
# wi_stuff.c:1397: 	if (cnt_time >= plrs[me].stime / TICRATE)
	.loc 1 1397 22
	movq	plrs(%rip), %rcx	# plrs, plrs.207_132
	movl	me(%rip), %eax	# me, me.208_133
	movslq	%eax, %rdx	# me.208_133, _134
	movq	%rdx, %rax	# _134, tmp307
	salq	$2, %rax	#, tmp307
	addq	%rdx, %rax	# _134, tmp307
	salq	$3, %rax	#, tmp308
	addq	%rcx, %rax	# plrs.207_132, _136
# wi_stuff.c:1397: 	if (cnt_time >= plrs[me].stime / TICRATE)
	.loc 1 1397 26
	movl	16(%rax), %eax	# _136->stime, _137
# wi_stuff.c:1397: 	if (cnt_time >= plrs[me].stime / TICRATE)
	.loc 1 1397 33
	movslq	%eax, %rdx	# _137, tmp309
	imulq	$-368140053, %rdx, %rdx	#, tmp309, tmp310
	shrq	$32, %rdx	#, tmp311
	addl	%eax, %edx	# _137, tmp312
	sarl	$5, %edx	#, tmp313
	sarl	$31, %eax	#, tmp314
	subl	%eax, %edx	# tmp314, _138
# wi_stuff.c:1397: 	if (cnt_time >= plrs[me].stime / TICRATE)
	.loc 1 1397 15
	movl	cnt_time(%rip), %eax	# cnt_time, cnt_time.209_139
# wi_stuff.c:1397: 	if (cnt_time >= plrs[me].stime / TICRATE)
	.loc 1 1397 5
	cmpl	%eax, %edx	# cnt_time.209_139, _138
	jg	.L218	#,
# wi_stuff.c:1398: 	    cnt_time = plrs[me].stime / TICRATE;
	.loc 1 1398 21
	movq	plrs(%rip), %rcx	# plrs, plrs.210_140
	movl	me(%rip), %eax	# me, me.211_141
	movslq	%eax, %rdx	# me.211_141, _142
	movq	%rdx, %rax	# _142, tmp315
	salq	$2, %rax	#, tmp315
	addq	%rdx, %rax	# _142, tmp315
	salq	$3, %rax	#, tmp316
	addq	%rcx, %rax	# plrs.210_140, _144
# wi_stuff.c:1398: 	    cnt_time = plrs[me].stime / TICRATE;
	.loc 1 1398 25
	movl	16(%rax), %eax	# _144->stime, _145
# wi_stuff.c:1398: 	    cnt_time = plrs[me].stime / TICRATE;
	.loc 1 1398 32
	movslq	%eax, %rdx	# _145, tmp317
	imulq	$-368140053, %rdx, %rdx	#, tmp317, tmp318
	shrq	$32, %rdx	#, tmp319
	addl	%eax, %edx	# _145, tmp320
	movl	%edx, %ecx	# tmp320, tmp320
	sarl	$5, %ecx	#, tmp320
	cltd
	movl	%ecx, %eax	# tmp321, tmp321
	subl	%edx, %eax	# tmp322, tmp321
# wi_stuff.c:1398: 	    cnt_time = plrs[me].stime / TICRATE;
	.loc 1 1398 15
	movl	%eax, cnt_time(%rip)	# _146, cnt_time
.L218:
# wi_stuff.c:1400: 	cnt_par += 3;
	.loc 1 1400 10
	movl	cnt_par(%rip), %eax	# cnt_par, cnt_par.212_147
	addl	$3, %eax	#, _148
	movl	%eax, cnt_par(%rip)	# _148, cnt_par
# wi_stuff.c:1402: 	if (cnt_par >= wbs->partime / TICRATE)
	.loc 1 1402 20
	movq	wbs(%rip), %rax	# wbs, wbs.213_149
	movl	32(%rax), %eax	# wbs.213_149->partime, _150
# wi_stuff.c:1402: 	if (cnt_par >= wbs->partime / TICRATE)
	.loc 1 1402 30
	movslq	%eax, %rdx	# _150, tmp323
	imulq	$-368140053, %rdx, %rdx	#, tmp323, tmp324
	shrq	$32, %rdx	#, tmp325
	addl	%eax, %edx	# _150, tmp326
	sarl	$5, %edx	#, tmp327
	sarl	$31, %eax	#, tmp328
	subl	%eax, %edx	# tmp328, _151
# wi_stuff.c:1402: 	if (cnt_par >= wbs->partime / TICRATE)
	.loc 1 1402 14
	movl	cnt_par(%rip), %eax	# cnt_par, cnt_par.214_152
# wi_stuff.c:1402: 	if (cnt_par >= wbs->partime / TICRATE)
	.loc 1 1402 5
	cmpl	%eax, %edx	# cnt_par.214_152, _151
	jg	.L221	#,
# wi_stuff.c:1404: 	    cnt_par = wbs->partime / TICRATE;
	.loc 1 1404 19
	movq	wbs(%rip), %rax	# wbs, wbs.215_153
	movl	32(%rax), %eax	# wbs.215_153->partime, _154
# wi_stuff.c:1404: 	    cnt_par = wbs->partime / TICRATE;
	.loc 1 1404 29
	movslq	%eax, %rdx	# _154, tmp329
	imulq	$-368140053, %rdx, %rdx	#, tmp329, tmp330
	shrq	$32, %rdx	#, tmp331
	addl	%eax, %edx	# _154, tmp332
	movl	%edx, %ecx	# tmp332, tmp332
	sarl	$5, %ecx	#, tmp332
	cltd
	movl	%ecx, %eax	# tmp333, tmp333
	subl	%edx, %eax	# tmp334, tmp333
# wi_stuff.c:1404: 	    cnt_par = wbs->partime / TICRATE;
	.loc 1 1404 14
	movl	%eax, cnt_par(%rip)	# _155, cnt_par
# wi_stuff.c:1406: 	    if (cnt_time >= plrs[me].stime / TICRATE)
	.loc 1 1406 26
	movq	plrs(%rip), %rcx	# plrs, plrs.216_156
	movl	me(%rip), %eax	# me, me.217_157
	movslq	%eax, %rdx	# me.217_157, _158
	movq	%rdx, %rax	# _158, tmp335
	salq	$2, %rax	#, tmp335
	addq	%rdx, %rax	# _158, tmp335
	salq	$3, %rax	#, tmp336
	addq	%rcx, %rax	# plrs.216_156, _160
# wi_stuff.c:1406: 	    if (cnt_time >= plrs[me].stime / TICRATE)
	.loc 1 1406 30
	movl	16(%rax), %eax	# _160->stime, _161
# wi_stuff.c:1406: 	    if (cnt_time >= plrs[me].stime / TICRATE)
	.loc 1 1406 37
	movslq	%eax, %rdx	# _161, tmp337
	imulq	$-368140053, %rdx, %rdx	#, tmp337, tmp338
	shrq	$32, %rdx	#, tmp339
	addl	%eax, %edx	# _161, tmp340
	sarl	$5, %edx	#, tmp341
	sarl	$31, %eax	#, tmp342
	subl	%eax, %edx	# tmp342, _162
# wi_stuff.c:1406: 	    if (cnt_time >= plrs[me].stime / TICRATE)
	.loc 1 1406 19
	movl	cnt_time(%rip), %eax	# cnt_time, cnt_time.218_163
# wi_stuff.c:1406: 	    if (cnt_time >= plrs[me].stime / TICRATE)
	.loc 1 1406 9
	cmpl	%eax, %edx	# cnt_time.218_163, _162
	jg	.L221	#,
# wi_stuff.c:1408: 		S_StartSound(0, sfx_barexp);
	.loc 1 1408 3
	movl	$82, %esi	#,
	movl	$0, %edi	#,
	call	S_StartSound@PLT	#
# wi_stuff.c:1409: 		sp_state++;
	.loc 1 1409 11
	movl	sp_state(%rip), %eax	# sp_state, sp_state.219_164
	addl	$1, %eax	#, _165
	movl	%eax, sp_state(%rip)	# _165, sp_state
# wi_stuff.c:1434: }
	.loc 1 1434 1
	jmp	.L221	#
.L216:
# wi_stuff.c:1413:     else if (sp_state == 10)
	.loc 1 1413 23
	movl	sp_state(%rip), %eax	# sp_state, sp_state.220_166
# wi_stuff.c:1413:     else if (sp_state == 10)
	.loc 1 1413 13
	cmpl	$10, %eax	#, sp_state.220_166
	jne	.L219	#,
# wi_stuff.c:1415: 	if (acceleratestage)
	.loc 1 1415 6
	movl	acceleratestage(%rip), %eax	# acceleratestage, acceleratestage.221_167
# wi_stuff.c:1415: 	if (acceleratestage)
	.loc 1 1415 5
	testl	%eax, %eax	# acceleratestage.221_167
	je	.L221	#,
# wi_stuff.c:1417: 	    S_StartSound(0, sfx_sgcock);
	.loc 1 1417 6
	movl	$3, %esi	#,
	movl	$0, %edi	#,
	call	S_StartSound@PLT	#
# wi_stuff.c:1419: 	    if (gamemode == commercial)
	.loc 1 1419 19
	movl	gamemode(%rip), %eax	# gamemode, gamemode.222_168
# wi_stuff.c:1419: 	    if (gamemode == commercial)
	.loc 1 1419 9
	cmpl	$2, %eax	#, gamemode.222_168
	jne	.L220	#,
# wi_stuff.c:1420: 		WI_initNoState();
	.loc 1 1420 3
	call	WI_initNoState	#
# wi_stuff.c:1434: }
	.loc 1 1434 1
	jmp	.L221	#
.L220:
# wi_stuff.c:1422: 		WI_initShowNextLoc();
	.loc 1 1422 3
	call	WI_initShowNextLoc	#
# wi_stuff.c:1434: }
	.loc 1 1434 1
	jmp	.L221	#
.L219:
# wi_stuff.c:1425:     else if (sp_state & 1)
	.loc 1 1425 23
	movl	sp_state(%rip), %eax	# sp_state, sp_state.223_169
	andl	$1, %eax	#, _170
# wi_stuff.c:1425:     else if (sp_state & 1)
	.loc 1 1425 13
	testl	%eax, %eax	# _170
	je	.L221	#,
# wi_stuff.c:1427: 	if (!--cnt_pause)
	.loc 1 1427 7
	movl	cnt_pause(%rip), %eax	# cnt_pause, cnt_pause.224_171
	subl	$1, %eax	#, _172
# wi_stuff.c:1427: 	if (!--cnt_pause)
	.loc 1 1427 5
	movl	%eax, cnt_pause(%rip)	# _172, cnt_pause
# wi_stuff.c:1427: 	if (!--cnt_pause)
	.loc 1 1427 7
	movl	cnt_pause(%rip), %eax	# cnt_pause, cnt_pause.225_173
# wi_stuff.c:1427: 	if (!--cnt_pause)
	.loc 1 1427 5
	testl	%eax, %eax	# cnt_pause.225_173
	jne	.L221	#,
# wi_stuff.c:1429: 	    sp_state++;
	.loc 1 1429 14
	movl	sp_state(%rip), %eax	# sp_state, sp_state.226_174
	addl	$1, %eax	#, _175
	movl	%eax, sp_state(%rip)	# _175, sp_state
# wi_stuff.c:1430: 	    cnt_pause = TICRATE;
	.loc 1 1430 16
	movl	$35, cnt_pause(%rip)	#, cnt_pause
.L221:
# wi_stuff.c:1434: }
	.loc 1 1434 1
	nop	
	popq	%rbp	#
	.cfi_def_cfa 7, 8
	ret	
	.cfi_endproc
.LFE26:
	.size	WI_updateStats, .-WI_updateStats
	.globl	WI_drawStats
	.type	WI_drawStats, @function
WI_drawStats:
.LFB27:
	.loc 1 1437 1
	.cfi_startproc
	endbr64	
	pushq	%rbp	#
	.cfi_def_cfa_offset 16
	.cfi_offset 6, -16
	movq	%rsp, %rbp	#,
	.cfi_def_cfa_register 6
	subq	$16, %rsp	#,
# wi_stuff.c:1441:     lh = (3*SHORT(num[0]->height))/2;
	.loc 1 1441 13
	movq	num(%rip), %rax	# num[0], _1
	movzwl	2(%rax), %eax	# _1->height, _2
	movswl	%ax, %edx	# _2, _3
# wi_stuff.c:1441:     lh = (3*SHORT(num[0]->height))/2;
	.loc 1 1441 12
	movl	%edx, %eax	# _3, tmp104
	addl	%eax, %eax	# tmp104
	addl	%edx, %eax	# _3, _4
# wi_stuff.c:1441:     lh = (3*SHORT(num[0]->height))/2;
	.loc 1 1441 8
	movl	%eax, %edx	# _4, tmp105
	shrl	$31, %edx	#, tmp105
	addl	%edx, %eax	# tmp105, tmp106
	sarl	%eax	# tmp107
	movl	%eax, -4(%rbp)	# tmp107, lh
# wi_stuff.c:1443:     WI_slamBackground();
	.loc 1 1443 5
	call	WI_slamBackground	#
# wi_stuff.c:1446:     WI_drawAnimatedBack();
	.loc 1 1446 5
	call	WI_drawAnimatedBack	#
# wi_stuff.c:1448:     WI_drawLF();
	.loc 1 1448 5
	call	WI_drawLF	#
# wi_stuff.c:1450:     V_DrawPatch(SP_STATSX, SP_STATSY, FB, kills);
	.loc 1 1450 5
	movq	kills(%rip), %rax	# kills, kills.227_5
	movq	%rax, %rcx	# kills.227_5,
	movl	$0, %edx	#,
	movl	$50, %esi	#,
	movl	$50, %edi	#,
	call	V_DrawPatch@PLT	#
# wi_stuff.c:1451:     WI_drawPercent(SCREENWIDTH - SP_STATSX, SP_STATSY, cnt_kills[0]);
	.loc 1 1451 5
	movl	cnt_kills(%rip), %eax	# cnt_kills[0], _6
	movl	%eax, %edx	# _6,
	movl	$50, %esi	#,
	movl	$270, %edi	#,
	call	WI_drawPercent	#
# wi_stuff.c:1453:     V_DrawPatch(SP_STATSX, SP_STATSY+lh, FB, items);
	.loc 1 1453 5
	movq	items(%rip), %rax	# items, items.228_7
	movl	-4(%rbp), %edx	# lh, tmp108
	leal	50(%rdx), %esi	#, _8
	movq	%rax, %rcx	# items.228_7,
	movl	$0, %edx	#,
	movl	$50, %edi	#,
	call	V_DrawPatch@PLT	#
# wi_stuff.c:1454:     WI_drawPercent(SCREENWIDTH - SP_STATSX, SP_STATSY+lh, cnt_items[0]);
	.loc 1 1454 5
	movl	cnt_items(%rip), %eax	# cnt_items[0], _9
	movl	-4(%rbp), %edx	# lh, tmp109
	leal	50(%rdx), %ecx	#, _10
	movl	%eax, %edx	# _9,
	movl	%ecx, %esi	# _10,
	movl	$270, %edi	#,
	call	WI_drawPercent	#
# wi_stuff.c:1456:     V_DrawPatch(SP_STATSX, SP_STATSY+2*lh, FB, sp_secret);
	.loc 1 1456 5
	movq	sp_secret(%rip), %rax	# sp_secret, sp_secret.229_11
# wi_stuff.c:1456:     V_DrawPatch(SP_STATSX, SP_STATSY+2*lh, FB, sp_secret);
	.loc 1 1456 37
	movl	-4(%rbp), %edx	# lh, tmp110
	addl	$25, %edx	#, _12
# wi_stuff.c:1456:     V_DrawPatch(SP_STATSX, SP_STATSY+2*lh, FB, sp_secret);
	.loc 1 1456 5
	leal	(%rdx,%rdx), %esi	#, _13
	movq	%rax, %rcx	# sp_secret.229_11,
	movl	$0, %edx	#,
	movl	$50, %edi	#,
	call	V_DrawPatch@PLT	#
# wi_stuff.c:1457:     WI_drawPercent(SCREENWIDTH - SP_STATSX, SP_STATSY+2*lh, cnt_secret[0]);
	.loc 1 1457 5
	movl	cnt_secret(%rip), %eax	# cnt_secret[0], _14
# wi_stuff.c:1457:     WI_drawPercent(SCREENWIDTH - SP_STATSX, SP_STATSY+2*lh, cnt_secret[0]);
	.loc 1 1457 54
	movl	-4(%rbp), %edx	# lh, tmp111
	addl	$25, %edx	#, _15
# wi_stuff.c:1457:     WI_drawPercent(SCREENWIDTH - SP_STATSX, SP_STATSY+2*lh, cnt_secret[0]);
	.loc 1 1457 5
	leal	(%rdx,%rdx), %ecx	#, _16
	movl	%eax, %edx	# _14,
	movl	%ecx, %esi	# _16,
	movl	$270, %edi	#,
	call	WI_drawPercent	#
# wi_stuff.c:1459:     V_DrawPatch(SP_TIMEX, SP_TIMEY, FB, time);
	.loc 1 1459 5
	movq	time(%rip), %rax	# time, time.230_17
	movq	%rax, %rcx	# time.230_17,
	movl	$0, %edx	#,
	movl	$168, %esi	#,
	movl	$16, %edi	#,
	call	V_DrawPatch@PLT	#
# wi_stuff.c:1460:     WI_drawTime(SCREENWIDTH/2 - SP_TIMEX, SP_TIMEY, cnt_time);
	.loc 1 1460 5
	movl	cnt_time(%rip), %eax	# cnt_time, cnt_time.231_18
	movl	%eax, %edx	# cnt_time.231_18,
	movl	$168, %esi	#,
	movl	$144, %edi	#,
	call	WI_drawTime	#
# wi_stuff.c:1462:     if (wbs->epsd < 3)
	.loc 1 1462 12
	movq	wbs(%rip), %rax	# wbs, wbs.232_19
	movl	(%rax), %eax	# wbs.232_19->epsd, _20
# wi_stuff.c:1462:     if (wbs->epsd < 3)
	.loc 1 1462 8
	cmpl	$2, %eax	#, _20
	jg	.L224	#,
# wi_stuff.c:1464: 	V_DrawPatch(SCREENWIDTH/2 + SP_TIMEX, SP_TIMEY, FB, par);
	.loc 1 1464 2
	movq	par(%rip), %rax	# par, par.233_21
	movq	%rax, %rcx	# par.233_21,
	movl	$0, %edx	#,
	movl	$168, %esi	#,
	movl	$176, %edi	#,
	call	V_DrawPatch@PLT	#
# wi_stuff.c:1465: 	WI_drawTime(SCREENWIDTH - SP_TIMEX, SP_TIMEY, cnt_par);
	.loc 1 1465 2
	movl	cnt_par(%rip), %eax	# cnt_par, cnt_par.234_22
	movl	%eax, %edx	# cnt_par.234_22,
	movl	$168, %esi	#,
	movl	$304, %edi	#,
	call	WI_drawTime	#
.L224:
# wi_stuff.c:1468: }
	.loc 1 1468 1
	nop	
	leave	
	.cfi_def_cfa 7, 8
	ret	
	.cfi_endproc
.LFE27:
	.size	WI_drawStats, .-WI_drawStats
	.globl	WI_checkForAccelerate
	.type	WI_checkForAccelerate, @function
WI_checkForAccelerate:
.LFB28:
	.loc 1 1471 1
	.cfi_startproc
	endbr64	
	pushq	%rbp	#
	.cfi_def_cfa_offset 16
	.cfi_offset 6, -16
	movq	%rsp, %rbp	#,
	.cfi_def_cfa_register 6
# wi_stuff.c:1476:     for (i=0, player = players ; i<MAXPLAYERS ; i++, player++)
	.loc 1 1476 11
	movl	$0, -12(%rbp)	#, i
# wi_stuff.c:1476:     for (i=0, player = players ; i<MAXPLAYERS ; i++, player++)
	.loc 1 1476 22
	leaq	players(%rip), %rax	#, tmp91
	movq	%rax, -8(%rbp)	# tmp91, player
# wi_stuff.c:1476:     for (i=0, player = players ; i<MAXPLAYERS ; i++, player++)
	.loc 1 1476 5
	jmp	.L226	#
.L233:
# wi_stuff.c:1478: 	if (playeringame[i])
	.loc 1 1478 18
	movl	-12(%rbp), %eax	# i, tmp93
	cltq
	leaq	0(,%rax,4), %rdx	#, tmp94
	leaq	playeringame(%rip), %rax	#, tmp95
	movl	(%rdx,%rax), %eax	# playeringame[i_10], _1
# wi_stuff.c:1478: 	if (playeringame[i])
	.loc 1 1478 5
	testl	%eax, %eax	# _1
	je	.L227	#,
# wi_stuff.c:1480: 	    if (player->cmd.buttons & BT_ATTACK)
	.loc 1 1480 21
	movq	-8(%rbp), %rax	# player, tmp96
	movzbl	19(%rax), %eax	# player_11->cmd.buttons, _2
# wi_stuff.c:1480: 	    if (player->cmd.buttons & BT_ATTACK)
	.loc 1 1480 30
	movzbl	%al, %eax	# _2, _3
	andl	$1, %eax	#, _4
# wi_stuff.c:1480: 	    if (player->cmd.buttons & BT_ATTACK)
	.loc 1 1480 9
	testl	%eax, %eax	# _4
	je	.L228	#,
# wi_stuff.c:1482: 		if (!player->attackdown)
	.loc 1 1482 14
	movq	-8(%rbp), %rax	# player, tmp97
	movl	192(%rax), %eax	# player_11->attackdown, _5
# wi_stuff.c:1482: 		if (!player->attackdown)
	.loc 1 1482 6
	testl	%eax, %eax	# _5
	jne	.L229	#,
# wi_stuff.c:1483: 		    acceleratestage = 1;
	.loc 1 1483 23
	movl	$1, acceleratestage(%rip)	#, acceleratestage
.L229:
# wi_stuff.c:1484: 		player->attackdown = true;
	.loc 1 1484 22
	movq	-8(%rbp), %rax	# player, tmp98
	movl	$1, 192(%rax)	#, player_11->attackdown
	jmp	.L230	#
.L228:
# wi_stuff.c:1487: 		player->attackdown = false;
	.loc 1 1487 22
	movq	-8(%rbp), %rax	# player, tmp99
	movl	$0, 192(%rax)	#, player_11->attackdown
.L230:
# wi_stuff.c:1488: 	    if (player->cmd.buttons & BT_USE)
	.loc 1 1488 21
	movq	-8(%rbp), %rax	# player, tmp100
	movzbl	19(%rax), %eax	# player_11->cmd.buttons, _6
# wi_stuff.c:1488: 	    if (player->cmd.buttons & BT_USE)
	.loc 1 1488 30
	movzbl	%al, %eax	# _6, _7
	andl	$2, %eax	#, _8
# wi_stuff.c:1488: 	    if (player->cmd.buttons & BT_USE)
	.loc 1 1488 9
	testl	%eax, %eax	# _8
	je	.L231	#,
# wi_stuff.c:1490: 		if (!player->usedown)
	.loc 1 1490 14
	movq	-8(%rbp), %rax	# player, tmp101
	movl	196(%rax), %eax	# player_11->usedown, _9
# wi_stuff.c:1490: 		if (!player->usedown)
	.loc 1 1490 6
	testl	%eax, %eax	# _9
	jne	.L232	#,
# wi_stuff.c:1491: 		    acceleratestage = 1;
	.loc 1 1491 23
	movl	$1, acceleratestage(%rip)	#, acceleratestage
.L232:
# wi_stuff.c:1492: 		player->usedown = true;
	.loc 1 1492 19
	movq	-8(%rbp), %rax	# player, tmp102
	movl	$1, 196(%rax)	#, player_11->usedown
	jmp	.L227	#
.L231:
# wi_stuff.c:1495: 		player->usedown = false;
	.loc 1 1495 19
	movq	-8(%rbp), %rax	# player, tmp103
	movl	$0, 196(%rax)	#, player_11->usedown
.L227:
# wi_stuff.c:1476:     for (i=0, player = players ; i<MAXPLAYERS ; i++, player++)
	.loc 1 1476 50 discriminator 2
	addl	$1, -12(%rbp)	#, i
# wi_stuff.c:1476:     for (i=0, player = players ; i<MAXPLAYERS ; i++, player++)
	.loc 1 1476 60 discriminator 2
	addq	$320, -8(%rbp)	#, player
.L226:
# wi_stuff.c:1476:     for (i=0, player = players ; i<MAXPLAYERS ; i++, player++)
	.loc 1 1476 35 discriminator 1
	cmpl	$3, -12(%rbp)	#, i
	jle	.L233	#,
# wi_stuff.c:1498: }
	.loc 1 1498 1
	nop	
	nop	
	popq	%rbp	#
	.cfi_def_cfa 7, 8
	ret	
	.cfi_endproc
.LFE28:
	.size	WI_checkForAccelerate, .-WI_checkForAccelerate
	.globl	WI_Ticker
	.type	WI_Ticker, @function
WI_Ticker:
.LFB29:
	.loc 1 1504 1
	.cfi_startproc
	endbr64	
	pushq	%rbp	#
	.cfi_def_cfa_offset 16
	.cfi_offset 6, -16
	movq	%rsp, %rbp	#,
	.cfi_def_cfa_register 6
# wi_stuff.c:1506:     bcnt++;  
	.loc 1 1506 9
	movl	bcnt(%rip), %eax	# bcnt, bcnt.235_1
	addl	$1, %eax	#, _2
	movl	%eax, bcnt(%rip)	# _2, bcnt
# wi_stuff.c:1508:     if (bcnt == 1)
	.loc 1 1508 14
	movl	bcnt(%rip), %eax	# bcnt, bcnt.236_3
# wi_stuff.c:1508:     if (bcnt == 1)
	.loc 1 1508 8
	cmpl	$1, %eax	#, bcnt.236_3
	jne	.L235	#,
# wi_stuff.c:1511:   	if ( gamemode == commercial )
	.loc 1 1511 18
	movl	gamemode(%rip), %eax	# gamemode, gamemode.237_4
# wi_stuff.c:1511:   	if ( gamemode == commercial )
	.loc 1 1511 7
	cmpl	$2, %eax	#, gamemode.237_4
	jne	.L236	#,
# wi_stuff.c:1512: 	  S_ChangeMusic(mus_dm2int, true);
	.loc 1 1512 4
	movl	$1, %esi	#,
	movl	$67, %edi	#,
	call	S_ChangeMusic@PLT	#
	jmp	.L235	#
.L236:
# wi_stuff.c:1514: 	  S_ChangeMusic(mus_inter, true); 
	.loc 1 1514 4
	movl	$1, %esi	#,
	movl	$28, %edi	#,
	call	S_ChangeMusic@PLT	#
.L235:
# wi_stuff.c:1517:     WI_checkForAccelerate();
	.loc 1 1517 5
	call	WI_checkForAccelerate	#
# wi_stuff.c:1519:     switch (state)
	.loc 1 1519 5
	movl	state(%rip), %eax	# state, state.238_5
	cmpl	$1, %eax	#, state.238_5
	je	.L237	#,
	cmpl	$1, %eax	#, state.238_5
	jg	.L243	#,
	cmpl	$-1, %eax	#, state.238_5
	je	.L239	#,
	testl	%eax, %eax	# state.238_5
	jne	.L243	#,
# wi_stuff.c:1522: 	if (deathmatch) WI_updateDeathmatchStats();
	.loc 1 1522 6
	movl	deathmatch(%rip), %eax	# deathmatch, deathmatch.239_6
# wi_stuff.c:1522: 	if (deathmatch) WI_updateDeathmatchStats();
	.loc 1 1522 5
	testl	%eax, %eax	# deathmatch.239_6
	je	.L240	#,
# wi_stuff.c:1522: 	if (deathmatch) WI_updateDeathmatchStats();
	.loc 1 1522 18 discriminator 1
	call	WI_updateDeathmatchStats	#
# wi_stuff.c:1525: 	break;
	.loc 1 1525 2
	jmp	.L238	#
.L240:
# wi_stuff.c:1523: 	else if (netgame) WI_updateNetgameStats();
	.loc 1 1523 11
	movl	netgame(%rip), %eax	# netgame, netgame.240_7
# wi_stuff.c:1523: 	else if (netgame) WI_updateNetgameStats();
	.loc 1 1523 10
	testl	%eax, %eax	# netgame.240_7
	je	.L242	#,
# wi_stuff.c:1523: 	else if (netgame) WI_updateNetgameStats();
	.loc 1 1523 20 discriminator 1
	call	WI_updateNetgameStats	#
# wi_stuff.c:1525: 	break;
	.loc 1 1525 2
	jmp	.L238	#
.L242:
# wi_stuff.c:1524: 	else WI_updateStats();
	.loc 1 1524 7
	call	WI_updateStats	#
# wi_stuff.c:1525: 	break;
	.loc 1 1525 2
	jmp	.L238	#
.L237:
# wi_stuff.c:1528: 	WI_updateShowNextLoc();
	.loc 1 1528 2
	call	WI_updateShowNextLoc	#
# wi_stuff.c:1529: 	break;
	.loc 1 1529 2
	jmp	.L238	#
.L239:
# wi_stuff.c:1532: 	WI_updateNoState();
	.loc 1 1532 2
	call	WI_updateNoState	#
# wi_stuff.c:1533: 	break;
	.loc 1 1533 2
	nop	
.L238:
.L243:
# wi_stuff.c:1536: }
	.loc 1 1536 1
	nop	
	popq	%rbp	#
	.cfi_def_cfa 7, 8
	ret	
	.cfi_endproc
.LFE29:
	.size	WI_Ticker, .-WI_Ticker
	.section	.rodata
.LC1:
	.string	"WIMAP%d"
.LC2:
	.string	"CWILV%2.2d"
.LC3:
	.string	"WILV%d%d"
.LC4:
	.string	"WIURH0"
.LC5:
	.string	"WIURH1"
.LC6:
	.string	"WISPLAT"
.LC7:
	.string	"WIA%d%.2d%.2d"
.LC8:
	.string	"WIMINUS"
.LC9:
	.string	"WINUM%d"
.LC10:
	.string	"WIPCNT"
.LC11:
	.string	"WIF"
.LC12:
	.string	"WIENTER"
.LC13:
	.string	"WIOSTK"
.LC14:
	.string	"WIOSTS"
.LC15:
	.string	"WISCRT2"
.LC16:
	.string	"WIOBJ"
.LC17:
	.string	"WIOSTI"
.LC18:
	.string	"WIFRGS"
.LC19:
	.string	"WICOLON"
.LC20:
	.string	"WITIME"
.LC21:
	.string	"WISUCKS"
.LC22:
	.string	"WIPAR"
.LC23:
	.string	"WIKILRS"
.LC24:
	.string	"WIVCTMS"
.LC25:
	.string	"WIMSTT"
.LC26:
	.string	"STFST01"
.LC27:
	.string	"STFDEAD0"
.LC28:
	.string	"STPB%d"
.LC29:
	.string	"WIBP%d"
	.text
	.globl	WI_loadData
	.type	WI_loadData, @function
WI_loadData:
.LFB30:
	.loc 1 1539 1
	.cfi_startproc
	endbr64	
	pushq	%rbp	#
	.cfi_def_cfa_offset 16
	.cfi_offset 6, -16
	movq	%rsp, %rbp	#,
	.cfi_def_cfa_register 6
	pushq	%rbx	#
	subq	$56, %rsp	#,
	.cfi_offset 3, -24
# wi_stuff.c:1539: {
	.loc 1 1539 1
	movq	%fs:40, %rax	# MEM[(<address-space-1> long unsigned int *)40B], tmp244
	movq	%rax, -24(%rbp)	# tmp244, D.7986
	xorl	%eax, %eax	# tmp244
# wi_stuff.c:1545:     if (gamemode == commercial)
	.loc 1 1545 18
	movl	gamemode(%rip), %eax	# gamemode, gamemode.241_1
# wi_stuff.c:1545:     if (gamemode == commercial)
	.loc 1 1545 8
	cmpl	$2, %eax	#, gamemode.241_1
	jne	.L245	#,
# wi_stuff.c:1546: 	strcpy(name, "INTERPIC");
	.loc 1 1546 2
	movabsq	$4848494788121742921, %rax	#, tmp247
	movq	%rax, -33(%rbp)	# tmp247, MEM <unsigned char[9]> [(char * {ref-all})&name]
	movb	$0, -25(%rbp)	#, MEM <unsigned char[9]> [(char * {ref-all})&name]
	jmp	.L246	#
.L245:
# wi_stuff.c:1548: 	sprintf(name, "WIMAP%d", wbs->epsd);
	.loc 1 1548 30
	movq	wbs(%rip), %rax	# wbs, wbs.242_2
# wi_stuff.c:1548: 	sprintf(name, "WIMAP%d", wbs->epsd);
	.loc 1 1548 2
	movl	(%rax), %edx	# wbs.242_2->epsd, _3
	leaq	-33(%rbp), %rax	#, tmp158
	leaq	.LC1(%rip), %rcx	#, tmp159
	movq	%rcx, %rsi	# tmp159,
	movq	%rax, %rdi	# tmp158,
	movl	$0, %eax	#,
	call	sprintf@PLT	#
.L246:
# wi_stuff.c:1550:     if ( gamemode == retail )
	.loc 1 1550 19
	movl	gamemode(%rip), %eax	# gamemode, gamemode.243_4
# wi_stuff.c:1550:     if ( gamemode == retail )
	.loc 1 1550 8
	cmpl	$3, %eax	#, gamemode.243_4
	jne	.L247	#,
# wi_stuff.c:1552:       if (wbs->epsd == 3)
	.loc 1 1552 14
	movq	wbs(%rip), %rax	# wbs, wbs.244_5
	movl	(%rax), %eax	# wbs.244_5->epsd, _6
# wi_stuff.c:1552:       if (wbs->epsd == 3)
	.loc 1 1552 10
	cmpl	$3, %eax	#, _6
	jne	.L247	#,
# wi_stuff.c:1553: 	strcpy(name,"INTERPIC");
	.loc 1 1553 2
	movabsq	$4848494788121742921, %rax	#, tmp248
	movq	%rax, -33(%rbp)	# tmp248, MEM <unsigned char[9]> [(char * {ref-all})&name]
	movb	$0, -25(%rbp)	#, MEM <unsigned char[9]> [(char * {ref-all})&name]
.L247:
# wi_stuff.c:1557:     bg = W_CacheLumpName(name, PU_CACHE);    
	.loc 1 1557 10
	leaq	-33(%rbp), %rax	#, tmp160
	movl	$101, %esi	#,
	movq	%rax, %rdi	# tmp160,
	call	W_CacheLumpName@PLT	#
# wi_stuff.c:1557:     bg = W_CacheLumpName(name, PU_CACHE);    
	.loc 1 1557 8 discriminator 1
	movq	%rax, bg(%rip)	# _7, bg
# wi_stuff.c:1558:     V_DrawPatch(0, 0, 1, bg);
	.loc 1 1558 5
	movq	bg(%rip), %rax	# bg, bg.245_8
	movq	%rax, %rcx	# bg.245_8,
	movl	$1, %edx	#,
	movl	$0, %esi	#,
	movl	$0, %edi	#,
	call	V_DrawPatch@PLT	#
# wi_stuff.c:1572:     if (gamemode == commercial)
	.loc 1 1572 18
	movl	gamemode(%rip), %eax	# gamemode, gamemode.246_9
# wi_stuff.c:1572:     if (gamemode == commercial)
	.loc 1 1572 8
	cmpl	$2, %eax	#, gamemode.246_9
	jne	.L248	#,
# wi_stuff.c:1574: 	NUMCMAPS = 32;								
	.loc 1 1574 11
	movl	$32, NUMCMAPS(%rip)	#, NUMCMAPS
# wi_stuff.c:1575: 	lnames = (patch_t **) Z_Malloc(sizeof(patch_t*) * NUMCMAPS,
	.loc 1 1575 24
	movl	NUMCMAPS(%rip), %eax	# NUMCMAPS, NUMCMAPS.247_10
	cltq
	sall	$3, %eax	#, _13
	movl	$0, %edx	#,
	movl	$1, %esi	#,
	movl	%eax, %edi	# _14,
	call	Z_Malloc@PLT	#
# wi_stuff.c:1575: 	lnames = (patch_t **) Z_Malloc(sizeof(patch_t*) * NUMCMAPS,
	.loc 1 1575 9 discriminator 1
	movq	%rax, lnames(%rip)	# _15, lnames
# wi_stuff.c:1577: 	for (i=0 ; i<NUMCMAPS ; i++)
	.loc 1 1577 8
	movl	$0, -56(%rbp)	#, i
# wi_stuff.c:1577: 	for (i=0 ; i<NUMCMAPS ; i++)
	.loc 1 1577 2
	jmp	.L249	#
.L250:
# wi_stuff.c:1579: 	    sprintf(name, "CWILV%2.2d", i);
	.loc 1 1579 6
	movl	-56(%rbp), %edx	# i, tmp161
	leaq	-33(%rbp), %rax	#, tmp162
	leaq	.LC2(%rip), %rcx	#, tmp163
	movq	%rcx, %rsi	# tmp163,
	movq	%rax, %rdi	# tmp162,
	movl	$0, %eax	#,
	call	sprintf@PLT	#
# wi_stuff.c:1580: 	    lnames[i] = W_CacheLumpName(name, PU_STATIC);
	.loc 1 1580 12
	movq	lnames(%rip), %rax	# lnames, lnames.248_16
	movl	-56(%rbp), %edx	# i, tmp164
	movslq	%edx, %rdx	# tmp164, _17
	salq	$3, %rdx	#, _18
	leaq	(%rax,%rdx), %rbx	#, _19
# wi_stuff.c:1580: 	    lnames[i] = W_CacheLumpName(name, PU_STATIC);
	.loc 1 1580 18
	leaq	-33(%rbp), %rax	#, tmp165
	movl	$1, %esi	#,
	movq	%rax, %rdi	# tmp165,
	call	W_CacheLumpName@PLT	#
# wi_stuff.c:1580: 	    lnames[i] = W_CacheLumpName(name, PU_STATIC);
	.loc 1 1580 16 discriminator 1
	movq	%rax, (%rbx)	# _20, *_19
# wi_stuff.c:1577: 	for (i=0 ; i<NUMCMAPS ; i++)
	.loc 1 1577 27 discriminator 3
	addl	$1, -56(%rbp)	#, i
.L249:
# wi_stuff.c:1577: 	for (i=0 ; i<NUMCMAPS ; i++)
	.loc 1 1577 14 discriminator 1
	movl	NUMCMAPS(%rip), %eax	# NUMCMAPS, NUMCMAPS.249_21
	cmpl	%eax, -56(%rbp)	# NUMCMAPS.249_21, i
	jl	.L250	#,
	jmp	.L251	#
.L248:
# wi_stuff.c:1585: 	lnames = (patch_t **) Z_Malloc(sizeof(patch_t*) * NUMMAPS,
	.loc 1 1585 24
	movl	$0, %edx	#,
	movl	$1, %esi	#,
	movl	$72, %edi	#,
	call	Z_Malloc@PLT	#
# wi_stuff.c:1585: 	lnames = (patch_t **) Z_Malloc(sizeof(patch_t*) * NUMMAPS,
	.loc 1 1585 9 discriminator 1
	movq	%rax, lnames(%rip)	# _22, lnames
# wi_stuff.c:1587: 	for (i=0 ; i<NUMMAPS ; i++)
	.loc 1 1587 8
	movl	$0, -56(%rbp)	#, i
# wi_stuff.c:1587: 	for (i=0 ; i<NUMMAPS ; i++)
	.loc 1 1587 2
	jmp	.L252	#
.L253:
# wi_stuff.c:1589: 	    sprintf(name, "WILV%d%d", wbs->epsd, i);
	.loc 1 1589 35
	movq	wbs(%rip), %rax	# wbs, wbs.250_23
# wi_stuff.c:1589: 	    sprintf(name, "WILV%d%d", wbs->epsd, i);
	.loc 1 1589 6
	movl	(%rax), %edx	# wbs.250_23->epsd, _24
	movl	-56(%rbp), %ecx	# i, tmp166
	leaq	-33(%rbp), %rax	#, tmp167
	leaq	.LC3(%rip), %rsi	#, tmp168
	movq	%rax, %rdi	# tmp167,
	movl	$0, %eax	#,
	call	sprintf@PLT	#
# wi_stuff.c:1590: 	    lnames[i] = W_CacheLumpName(name, PU_STATIC);
	.loc 1 1590 12
	movq	lnames(%rip), %rax	# lnames, lnames.251_25
	movl	-56(%rbp), %edx	# i, tmp169
	movslq	%edx, %rdx	# tmp169, _26
	salq	$3, %rdx	#, _27
	leaq	(%rax,%rdx), %rbx	#, _28
# wi_stuff.c:1590: 	    lnames[i] = W_CacheLumpName(name, PU_STATIC);
	.loc 1 1590 18
	leaq	-33(%rbp), %rax	#, tmp170
	movl	$1, %esi	#,
	movq	%rax, %rdi	# tmp170,
	call	W_CacheLumpName@PLT	#
# wi_stuff.c:1590: 	    lnames[i] = W_CacheLumpName(name, PU_STATIC);
	.loc 1 1590 16 discriminator 1
	movq	%rax, (%rbx)	# _29, *_28
# wi_stuff.c:1587: 	for (i=0 ; i<NUMMAPS ; i++)
	.loc 1 1587 26 discriminator 3
	addl	$1, -56(%rbp)	#, i
.L252:
# wi_stuff.c:1587: 	for (i=0 ; i<NUMMAPS ; i++)
	.loc 1 1587 14 discriminator 1
	cmpl	$8, -56(%rbp)	#, i
	jle	.L253	#,
# wi_stuff.c:1594: 	yah[0] = W_CacheLumpName("WIURH0", PU_STATIC);
	.loc 1 1594 11
	movl	$1, %esi	#,
	leaq	.LC4(%rip), %rax	#, tmp171
	movq	%rax, %rdi	# tmp171,
	call	W_CacheLumpName@PLT	#
# wi_stuff.c:1594: 	yah[0] = W_CacheLumpName("WIURH0", PU_STATIC);
	.loc 1 1594 9 discriminator 1
	movq	%rax, yah(%rip)	# _30, yah[0]
# wi_stuff.c:1597: 	yah[1] = W_CacheLumpName("WIURH1", PU_STATIC);
	.loc 1 1597 11
	movl	$1, %esi	#,
	leaq	.LC5(%rip), %rax	#, tmp172
	movq	%rax, %rdi	# tmp172,
	call	W_CacheLumpName@PLT	#
# wi_stuff.c:1597: 	yah[1] = W_CacheLumpName("WIURH1", PU_STATIC);
	.loc 1 1597 9 discriminator 1
	movq	%rax, 8+yah(%rip)	# _31, yah[1]
# wi_stuff.c:1600: 	splat = W_CacheLumpName("WISPLAT", PU_STATIC); 
	.loc 1 1600 10
	movl	$1, %esi	#,
	leaq	.LC6(%rip), %rax	#, tmp173
	movq	%rax, %rdi	# tmp173,
	call	W_CacheLumpName@PLT	#
# wi_stuff.c:1600: 	splat = W_CacheLumpName("WISPLAT", PU_STATIC); 
	.loc 1 1600 8 discriminator 1
	movq	%rax, splat(%rip)	# _32, splat
# wi_stuff.c:1602: 	if (wbs->epsd < 3)
	.loc 1 1602 9
	movq	wbs(%rip), %rax	# wbs, wbs.252_33
	movl	(%rax), %eax	# wbs.252_33->epsd, _34
# wi_stuff.c:1602: 	if (wbs->epsd < 3)
	.loc 1 1602 5
	cmpl	$2, %eax	#, _34
	jg	.L251	#,
# wi_stuff.c:1604: 	    for (j=0;j<NUMANIMS[wbs->epsd];j++)
	.loc 1 1604 12
	movl	$0, -52(%rbp)	#, j
# wi_stuff.c:1604: 	    for (j=0;j<NUMANIMS[wbs->epsd];j++)
	.loc 1 1604 6
	jmp	.L254	#
.L260:
# wi_stuff.c:1606: 		a = &anims[wbs->epsd][j];
	.loc 1 1606 17
	movq	wbs(%rip), %rax	# wbs, wbs.253_35
	movl	(%rax), %eax	# wbs.253_35->epsd, _36
# wi_stuff.c:1606: 		a = &anims[wbs->epsd][j];
	.loc 1 1606 13
	cltq
	leaq	0(,%rax,8), %rdx	#, tmp175
	leaq	anims(%rip), %rax	#, tmp176
	movq	(%rdx,%rax), %rcx	# anims[_36], _37
# wi_stuff.c:1606: 		a = &anims[wbs->epsd][j];
	.loc 1 1606 24
	movl	-52(%rbp), %eax	# j, tmp177
	movslq	%eax, %rdx	# tmp177, _38
	movq	%rdx, %rax	# _38, tmp178
	salq	$3, %rax	#, tmp178
	addq	%rdx, %rax	# _38, tmp178
	salq	$3, %rax	#, tmp179
# wi_stuff.c:1606: 		a = &anims[wbs->epsd][j];
	.loc 1 1606 5
	addq	%rcx, %rax	# _37, tmp180
	movq	%rax, -48(%rbp)	# tmp180, a
# wi_stuff.c:1607: 		for (i=0;i<a->nanims;i++)
	.loc 1 1607 9
	movl	$0, -56(%rbp)	#, i
# wi_stuff.c:1607: 		for (i=0;i<a->nanims;i++)
	.loc 1 1607 3
	jmp	.L255	#
.L259:
# wi_stuff.c:1610: 		    if (wbs->epsd != 1 || j != 8) 
	.loc 1 1610 14
	movq	wbs(%rip), %rax	# wbs, wbs.254_40
	movl	(%rax), %eax	# wbs.254_40->epsd, _41
# wi_stuff.c:1610: 		    if (wbs->epsd != 1 || j != 8) 
	.loc 1 1610 10
	cmpl	$1, %eax	#, _41
	jne	.L256	#,
# wi_stuff.c:1610: 		    if (wbs->epsd != 1 || j != 8) 
	.loc 1 1610 26 discriminator 1
	cmpl	$8, -52(%rbp)	#, j
	je	.L257	#,
.L256:
# wi_stuff.c:1613: 			sprintf(name, "WIA%d%.2d%.2d", wbs->epsd, j, i);  
	.loc 1 1613 38
	movq	wbs(%rip), %rax	# wbs, wbs.255_42
# wi_stuff.c:1613: 			sprintf(name, "WIA%d%.2d%.2d", wbs->epsd, j, i);  
	.loc 1 1613 4
	movl	(%rax), %edx	# wbs.255_42->epsd, _43
	movl	-56(%rbp), %esi	# i, tmp181
	movl	-52(%rbp), %ecx	# j, tmp182
	leaq	-33(%rbp), %rax	#, tmp183
	movl	%esi, %r8d	# tmp181,
	leaq	.LC7(%rip), %rsi	#, tmp184
	movq	%rax, %rdi	# tmp183,
	movl	$0, %eax	#,
	call	sprintf@PLT	#
# wi_stuff.c:1614: 			a->p[i] = W_CacheLumpName(name, PU_STATIC);
	.loc 1 1614 14
	leaq	-33(%rbp), %rax	#, tmp185
	movl	$1, %esi	#,
	movq	%rax, %rdi	# tmp185,
	call	W_CacheLumpName@PLT	#
# wi_stuff.c:1614: 			a->p[i] = W_CacheLumpName(name, PU_STATIC);
	.loc 1 1614 12 discriminator 1
	movq	-48(%rbp), %rdx	# a, tmp186
	movl	-56(%rbp), %ecx	# i, tmp188
	movslq	%ecx, %rcx	# tmp188, tmp187
	addq	$4, %rcx	#, tmp189
	movq	%rax, (%rdx,%rcx,8)	# _44, a_111->p[i_79]
# wi_stuff.c:1614: 			a->p[i] = W_CacheLumpName(name, PU_STATIC);
	.loc 1 1614 12 is_stmt 0
	jmp	.L258	#
.L257:
# wi_stuff.c:1619: 			a->p[i] = anims[1][4].p[i]; 
	.loc 1 1619 19 is_stmt 1
	movq	8+anims(%rip), %rax	# anims[1], _45
# wi_stuff.c:1619: 			a->p[i] = anims[1][4].p[i]; 
	.loc 1 1619 22
	addq	$288, %rax	#, _46
# wi_stuff.c:1619: 			a->p[i] = anims[1][4].p[i]; 
	.loc 1 1619 27
	movl	-56(%rbp), %edx	# i, tmp191
	movslq	%edx, %rdx	# tmp191, tmp190
	addq	$4, %rdx	#, tmp192
	movq	(%rax,%rdx,8), %rdx	# _46->p[i_79], _47
# wi_stuff.c:1619: 			a->p[i] = anims[1][4].p[i]; 
	.loc 1 1619 12
	movq	-48(%rbp), %rax	# a, tmp193
	movl	-56(%rbp), %ecx	# i, tmp195
	movslq	%ecx, %rcx	# tmp195, tmp194
	addq	$4, %rcx	#, tmp196
	movq	%rdx, (%rax,%rcx,8)	# _47, a_111->p[i_79]
.L258:
# wi_stuff.c:1607: 		for (i=0;i<a->nanims;i++)
	.loc 1 1607 25 discriminator 2
	addl	$1, -56(%rbp)	#, i
.L255:
# wi_stuff.c:1607: 		for (i=0;i<a->nanims;i++)
	.loc 1 1607 15 discriminator 1
	movq	-48(%rbp), %rax	# a, tmp197
	movl	8(%rax), %eax	# a_111->nanims, _48
# wi_stuff.c:1607: 		for (i=0;i<a->nanims;i++)
	.loc 1 1607 13 discriminator 1
	cmpl	%eax, -56(%rbp)	# _48, i
	jl	.L259	#,
# wi_stuff.c:1604: 	    for (j=0;j<NUMANIMS[wbs->epsd];j++)
	.loc 1 1604 38 discriminator 2
	addl	$1, -52(%rbp)	#, j
.L254:
# wi_stuff.c:1604: 	    for (j=0;j<NUMANIMS[wbs->epsd];j++)
	.loc 1 1604 29 discriminator 1
	movq	wbs(%rip), %rax	# wbs, wbs.256_49
	movl	(%rax), %eax	# wbs.256_49->epsd, _50
# wi_stuff.c:1604: 	    for (j=0;j<NUMANIMS[wbs->epsd];j++)
	.loc 1 1604 25 discriminator 1
	cltq
	leaq	0(,%rax,4), %rdx	#, tmp199
	leaq	NUMANIMS(%rip), %rax	#, tmp200
	movl	(%rdx,%rax), %eax	# NUMANIMS[_50], _51
# wi_stuff.c:1604: 	    for (j=0;j<NUMANIMS[wbs->epsd];j++)
	.loc 1 1604 16 discriminator 1
	cmpl	%eax, -52(%rbp)	# _51, j
	jl	.L260	#,
.L251:
# wi_stuff.c:1627:     wiminus = W_CacheLumpName("WIMINUS", PU_STATIC); 
	.loc 1 1627 15
	movl	$1, %esi	#,
	leaq	.LC8(%rip), %rax	#, tmp201
	movq	%rax, %rdi	# tmp201,
	call	W_CacheLumpName@PLT	#
# wi_stuff.c:1627:     wiminus = W_CacheLumpName("WIMINUS", PU_STATIC); 
	.loc 1 1627 13 discriminator 1
	movq	%rax, wiminus(%rip)	# _52, wiminus
# wi_stuff.c:1629:     for (i=0;i<10;i++)
	.loc 1 1629 11
	movl	$0, -56(%rbp)	#, i
# wi_stuff.c:1629:     for (i=0;i<10;i++)
	.loc 1 1629 5
	jmp	.L261	#
.L262:
# wi_stuff.c:1632: 	sprintf(name, "WINUM%d", i);     
	.loc 1 1632 2
	movl	-56(%rbp), %edx	# i, tmp202
	leaq	-33(%rbp), %rax	#, tmp203
	leaq	.LC9(%rip), %rcx	#, tmp204
	movq	%rcx, %rsi	# tmp204,
	movq	%rax, %rdi	# tmp203,
	movl	$0, %eax	#,
	call	sprintf@PLT	#
# wi_stuff.c:1633: 	num[i] = W_CacheLumpName(name, PU_STATIC);
	.loc 1 1633 11
	leaq	-33(%rbp), %rax	#, tmp205
	movl	$1, %esi	#,
	movq	%rax, %rdi	# tmp205,
	call	W_CacheLumpName@PLT	#
# wi_stuff.c:1633: 	num[i] = W_CacheLumpName(name, PU_STATIC);
	.loc 1 1633 9 discriminator 1
	movl	-56(%rbp), %edx	# i, tmp207
	movslq	%edx, %rdx	# tmp207, tmp206
	leaq	0(,%rdx,8), %rcx	#, tmp208
	leaq	num(%rip), %rdx	#, tmp209
	movq	%rax, (%rcx,%rdx)	# _53, num[i_80]
# wi_stuff.c:1629:     for (i=0;i<10;i++)
	.loc 1 1629 20 discriminator 3
	addl	$1, -56(%rbp)	#, i
.L261:
# wi_stuff.c:1629:     for (i=0;i<10;i++)
	.loc 1 1629 15 discriminator 1
	cmpl	$9, -56(%rbp)	#, i
	jle	.L262	#,
# wi_stuff.c:1637:     percent = W_CacheLumpName("WIPCNT", PU_STATIC);
	.loc 1 1637 15
	movl	$1, %esi	#,
	leaq	.LC10(%rip), %rax	#, tmp210
	movq	%rax, %rdi	# tmp210,
	call	W_CacheLumpName@PLT	#
# wi_stuff.c:1637:     percent = W_CacheLumpName("WIPCNT", PU_STATIC);
	.loc 1 1637 13 discriminator 1
	movq	%rax, percent(%rip)	# _54, percent
# wi_stuff.c:1640:     finished = W_CacheLumpName("WIF", PU_STATIC);
	.loc 1 1640 16
	movl	$1, %esi	#,
	leaq	.LC11(%rip), %rax	#, tmp211
	movq	%rax, %rdi	# tmp211,
	call	W_CacheLumpName@PLT	#
# wi_stuff.c:1640:     finished = W_CacheLumpName("WIF", PU_STATIC);
	.loc 1 1640 14 discriminator 1
	movq	%rax, finished(%rip)	# _55, finished
# wi_stuff.c:1643:     entering = W_CacheLumpName("WIENTER", PU_STATIC);
	.loc 1 1643 16
	movl	$1, %esi	#,
	leaq	.LC12(%rip), %rax	#, tmp212
	movq	%rax, %rdi	# tmp212,
	call	W_CacheLumpName@PLT	#
# wi_stuff.c:1643:     entering = W_CacheLumpName("WIENTER", PU_STATIC);
	.loc 1 1643 14 discriminator 1
	movq	%rax, entering(%rip)	# _56, entering
# wi_stuff.c:1646:     kills = W_CacheLumpName("WIOSTK", PU_STATIC);   
	.loc 1 1646 13
	movl	$1, %esi	#,
	leaq	.LC13(%rip), %rax	#, tmp213
	movq	%rax, %rdi	# tmp213,
	call	W_CacheLumpName@PLT	#
# wi_stuff.c:1646:     kills = W_CacheLumpName("WIOSTK", PU_STATIC);   
	.loc 1 1646 11 discriminator 1
	movq	%rax, kills(%rip)	# _57, kills
# wi_stuff.c:1649:     secret = W_CacheLumpName("WIOSTS", PU_STATIC);
	.loc 1 1649 14
	movl	$1, %esi	#,
	leaq	.LC14(%rip), %rax	#, tmp214
	movq	%rax, %rdi	# tmp214,
	call	W_CacheLumpName@PLT	#
# wi_stuff.c:1649:     secret = W_CacheLumpName("WIOSTS", PU_STATIC);
	.loc 1 1649 12 discriminator 1
	movq	%rax, secret(%rip)	# _58, secret
# wi_stuff.c:1652:     sp_secret = W_CacheLumpName("WISCRT2", PU_STATIC);
	.loc 1 1652 17
	movl	$1, %esi	#,
	leaq	.LC15(%rip), %rax	#, tmp215
	movq	%rax, %rdi	# tmp215,
	call	W_CacheLumpName@PLT	#
# wi_stuff.c:1652:     sp_secret = W_CacheLumpName("WISCRT2", PU_STATIC);
	.loc 1 1652 15 discriminator 1
	movq	%rax, sp_secret(%rip)	# _59, sp_secret
# wi_stuff.c:1658: 	if (netgame && !deathmatch)
	.loc 1 1658 6
	movl	netgame(%rip), %eax	# netgame, netgame.257_60
# wi_stuff.c:1658: 	if (netgame && !deathmatch)
	.loc 1 1658 5
	testl	%eax, %eax	# netgame.257_60
	je	.L263	#,
# wi_stuff.c:1658: 	if (netgame && !deathmatch)
	.loc 1 1658 17 discriminator 1
	movl	deathmatch(%rip), %eax	# deathmatch, deathmatch.258_61
# wi_stuff.c:1658: 	if (netgame && !deathmatch)
	.loc 1 1658 14 discriminator 1
	testl	%eax, %eax	# deathmatch.258_61
	jne	.L263	#,
# wi_stuff.c:1659: 	    items = W_CacheLumpName("WIOBJ", PU_STATIC);    
	.loc 1 1659 14
	movl	$1, %esi	#,
	leaq	.LC16(%rip), %rax	#, tmp216
	movq	%rax, %rdi	# tmp216,
	call	W_CacheLumpName@PLT	#
# wi_stuff.c:1659: 	    items = W_CacheLumpName("WIOBJ", PU_STATIC);    
	.loc 1 1659 12 discriminator 1
	movq	%rax, items(%rip)	# _62, items
# wi_stuff.c:1659: 	    items = W_CacheLumpName("WIOBJ", PU_STATIC);    
	.loc 1 1659 12 is_stmt 0
	jmp	.L268	#
.L263:
# wi_stuff.c:1661: 	    items = W_CacheLumpName("WIOSTI", PU_STATIC);
	.loc 1 1661 14 is_stmt 1
	movl	$1, %esi	#,
	leaq	.LC17(%rip), %rax	#, tmp217
	movq	%rax, %rdi	# tmp217,
	call	W_CacheLumpName@PLT	#
# wi_stuff.c:1661: 	    items = W_CacheLumpName("WIOSTI", PU_STATIC);
	.loc 1 1661 12 discriminator 1
	movq	%rax, items(%rip)	# _63, items
.L268:
# wi_stuff.c:1666:     frags = W_CacheLumpName("WIFRGS", PU_STATIC);    
	.loc 1 1666 13
	movl	$1, %esi	#,
	leaq	.LC18(%rip), %rax	#, tmp218
	movq	%rax, %rdi	# tmp218,
	call	W_CacheLumpName@PLT	#
# wi_stuff.c:1666:     frags = W_CacheLumpName("WIFRGS", PU_STATIC);    
	.loc 1 1666 11 discriminator 1
	movq	%rax, frags(%rip)	# _65, frags
# wi_stuff.c:1669:     colon = W_CacheLumpName("WICOLON", PU_STATIC); 
	.loc 1 1669 13
	movl	$1, %esi	#,
	leaq	.LC19(%rip), %rax	#, tmp219
	movq	%rax, %rdi	# tmp219,
	call	W_CacheLumpName@PLT	#
# wi_stuff.c:1669:     colon = W_CacheLumpName("WICOLON", PU_STATIC); 
	.loc 1 1669 11 discriminator 1
	movq	%rax, colon(%rip)	# _66, colon
# wi_stuff.c:1672:     time = W_CacheLumpName("WITIME", PU_STATIC);   
	.loc 1 1672 12
	movl	$1, %esi	#,
	leaq	.LC20(%rip), %rax	#, tmp220
	movq	%rax, %rdi	# tmp220,
	call	W_CacheLumpName@PLT	#
# wi_stuff.c:1672:     time = W_CacheLumpName("WITIME", PU_STATIC);   
	.loc 1 1672 10 discriminator 1
	movq	%rax, time(%rip)	# _67, time
# wi_stuff.c:1675:     sucks = W_CacheLumpName("WISUCKS", PU_STATIC);  
	.loc 1 1675 13
	movl	$1, %esi	#,
	leaq	.LC21(%rip), %rax	#, tmp221
	movq	%rax, %rdi	# tmp221,
	call	W_CacheLumpName@PLT	#
# wi_stuff.c:1675:     sucks = W_CacheLumpName("WISUCKS", PU_STATIC);  
	.loc 1 1675 11 discriminator 1
	movq	%rax, sucks(%rip)	# _68, sucks
# wi_stuff.c:1678:     par = W_CacheLumpName("WIPAR", PU_STATIC);   
	.loc 1 1678 11
	movl	$1, %esi	#,
	leaq	.LC22(%rip), %rax	#, tmp222
	movq	%rax, %rdi	# tmp222,
	call	W_CacheLumpName@PLT	#
# wi_stuff.c:1678:     par = W_CacheLumpName("WIPAR", PU_STATIC);   
	.loc 1 1678 9 discriminator 1
	movq	%rax, par(%rip)	# _69, par
# wi_stuff.c:1681:     killers = W_CacheLumpName("WIKILRS", PU_STATIC);
	.loc 1 1681 15
	movl	$1, %esi	#,
	leaq	.LC23(%rip), %rax	#, tmp223
	movq	%rax, %rdi	# tmp223,
	call	W_CacheLumpName@PLT	#
# wi_stuff.c:1681:     killers = W_CacheLumpName("WIKILRS", PU_STATIC);
	.loc 1 1681 13 discriminator 1
	movq	%rax, killers(%rip)	# _70, killers
# wi_stuff.c:1684:     victims = W_CacheLumpName("WIVCTMS", PU_STATIC);
	.loc 1 1684 15
	movl	$1, %esi	#,
	leaq	.LC24(%rip), %rax	#, tmp224
	movq	%rax, %rdi	# tmp224,
	call	W_CacheLumpName@PLT	#
# wi_stuff.c:1684:     victims = W_CacheLumpName("WIVCTMS", PU_STATIC);
	.loc 1 1684 13 discriminator 1
	movq	%rax, victims(%rip)	# _71, victims
# wi_stuff.c:1687:     total = W_CacheLumpName("WIMSTT", PU_STATIC);   
	.loc 1 1687 13
	movl	$1, %esi	#,
	leaq	.LC25(%rip), %rax	#, tmp225
	movq	%rax, %rdi	# tmp225,
	call	W_CacheLumpName@PLT	#
# wi_stuff.c:1687:     total = W_CacheLumpName("WIMSTT", PU_STATIC);   
	.loc 1 1687 11 discriminator 1
	movq	%rax, total(%rip)	# _72, total
# wi_stuff.c:1690:     star = W_CacheLumpName("STFST01", PU_STATIC);
	.loc 1 1690 12
	movl	$1, %esi	#,
	leaq	.LC26(%rip), %rax	#, tmp226
	movq	%rax, %rdi	# tmp226,
	call	W_CacheLumpName@PLT	#
# wi_stuff.c:1690:     star = W_CacheLumpName("STFST01", PU_STATIC);
	.loc 1 1690 10 discriminator 1
	movq	%rax, star(%rip)	# _73, star
# wi_stuff.c:1693:     bstar = W_CacheLumpName("STFDEAD0", PU_STATIC);    
	.loc 1 1693 13
	movl	$1, %esi	#,
	leaq	.LC27(%rip), %rax	#, tmp227
	movq	%rax, %rdi	# tmp227,
	call	W_CacheLumpName@PLT	#
# wi_stuff.c:1693:     bstar = W_CacheLumpName("STFDEAD0", PU_STATIC);    
	.loc 1 1693 11 discriminator 1
	movq	%rax, bstar(%rip)	# _74, bstar
# wi_stuff.c:1695:     for (i=0 ; i<MAXPLAYERS ; i++)
	.loc 1 1695 11
	movl	$0, -56(%rbp)	#, i
# wi_stuff.c:1695:     for (i=0 ; i<MAXPLAYERS ; i++)
	.loc 1 1695 5
	jmp	.L265	#
.L266:
# wi_stuff.c:1698: 	sprintf(name, "STPB%d", i);      
	.loc 1 1698 2
	movl	-56(%rbp), %edx	# i, tmp228
	leaq	-33(%rbp), %rax	#, tmp229
	leaq	.LC28(%rip), %rcx	#, tmp230
	movq	%rcx, %rsi	# tmp230,
	movq	%rax, %rdi	# tmp229,
	movl	$0, %eax	#,
	call	sprintf@PLT	#
# wi_stuff.c:1699: 	p[i] = W_CacheLumpName(name, PU_STATIC);
	.loc 1 1699 9
	leaq	-33(%rbp), %rax	#, tmp231
	movl	$1, %esi	#,
	movq	%rax, %rdi	# tmp231,
	call	W_CacheLumpName@PLT	#
# wi_stuff.c:1699: 	p[i] = W_CacheLumpName(name, PU_STATIC);
	.loc 1 1699 7 discriminator 1
	movl	-56(%rbp), %edx	# i, tmp233
	movslq	%edx, %rdx	# tmp233, tmp232
	leaq	0(,%rdx,8), %rcx	#, tmp234
	leaq	p(%rip), %rdx	#, tmp235
	movq	%rax, (%rcx,%rdx)	# _75, p[i_81]
# wi_stuff.c:1702: 	sprintf(name, "WIBP%d", i+1);     
	.loc 1 1702 2
	movl	-56(%rbp), %eax	# i, tmp236
	leal	1(%rax), %edx	#, _76
	leaq	-33(%rbp), %rax	#, tmp237
	leaq	.LC29(%rip), %rcx	#, tmp238
	movq	%rcx, %rsi	# tmp238,
	movq	%rax, %rdi	# tmp237,
	movl	$0, %eax	#,
	call	sprintf@PLT	#
# wi_stuff.c:1703: 	bp[i] = W_CacheLumpName(name, PU_STATIC);
	.loc 1 1703 10
	leaq	-33(%rbp), %rax	#, tmp239
	movl	$1, %esi	#,
	movq	%rax, %rdi	# tmp239,
	call	W_CacheLumpName@PLT	#
# wi_stuff.c:1703: 	bp[i] = W_CacheLumpName(name, PU_STATIC);
	.loc 1 1703 8 discriminator 1
	movl	-56(%rbp), %edx	# i, tmp241
	movslq	%edx, %rdx	# tmp241, tmp240
	leaq	0(,%rdx,8), %rcx	#, tmp242
	leaq	bp(%rip), %rdx	#, tmp243
	movq	%rax, (%rcx,%rdx)	# _77, bp[i_81]
# wi_stuff.c:1695:     for (i=0 ; i<MAXPLAYERS ; i++)
	.loc 1 1695 32 discriminator 3
	addl	$1, -56(%rbp)	#, i
.L265:
# wi_stuff.c:1695:     for (i=0 ; i<MAXPLAYERS ; i++)
	.loc 1 1695 17 discriminator 1
	cmpl	$3, -56(%rbp)	#, i
	jle	.L266	#,
# wi_stuff.c:1706: }
	.loc 1 1706 1
	nop	
	movq	-24(%rbp), %rax	# D.7986, tmp245
	subq	%fs:40, %rax	# MEM[(<address-space-1> long unsigned int *)40B], tmp245
	je	.L267	#,
	call	__stack_chk_fail@PLT	#
.L267:
	movq	-8(%rbp), %rbx	#,
	leave	
	.cfi_def_cfa 7, 8
	ret	
	.cfi_endproc
.LFE30:
	.size	WI_loadData, .-WI_loadData
	.section	.rodata
.LC30:
	.string	"Z_CT at wi_stuff.c:%i"
	.text
	.globl	WI_unloadData
	.type	WI_unloadData, @function
WI_unloadData:
.LFB31:
	.loc 1 1709 1
	.cfi_startproc
	endbr64	
	pushq	%rbp	#
	.cfi_def_cfa_offset 16
	.cfi_offset 6, -16
	movq	%rsp, %rbp	#,
	.cfi_def_cfa_register 6
	subq	$16, %rsp	#,
# wi_stuff.c:1713:     Z_ChangeTag(wiminus, PU_CACHE);
	.loc 1 1713 5
	movq	wiminus(%rip), %rax	# wiminus, wiminus.259_1
	subq	$40, %rax	#, _2
	movl	20(%rax), %eax	# _2->id, _3
	cmpl	$1919505, %eax	#, _3
	je	.L270	#,
# wi_stuff.c:1713:     Z_ChangeTag(wiminus, PU_CACHE);
	.loc 1 1713 5 is_stmt 0 discriminator 1
	movl	$1713, %esi	#,
	leaq	.LC30(%rip), %rax	#, tmp227
	movq	%rax, %rdi	# tmp227,
	movl	$0, %eax	#,
	call	I_Error@PLT	#
.L270:
# wi_stuff.c:1713:     Z_ChangeTag(wiminus, PU_CACHE);
	.loc 1 1713 5 discriminator 3
	movq	wiminus(%rip), %rax	# wiminus, wiminus.260_4
	movl	$101, %esi	#,
	movq	%rax, %rdi	# wiminus.260_4,
	call	Z_ChangeTag2@PLT	#
# wi_stuff.c:1715:     for (i=0 ; i<10 ; i++)
	.loc 1 1715 11 is_stmt 1
	movl	$0, -8(%rbp)	#, i
# wi_stuff.c:1715:     for (i=0 ; i<10 ; i++)
	.loc 1 1715 5
	jmp	.L271	#
.L273:
# wi_stuff.c:1716: 	Z_ChangeTag(num[i], PU_CACHE);
	.loc 1 1716 2
	movl	-8(%rbp), %eax	# i, tmp229
	cltq
	leaq	0(,%rax,8), %rdx	#, tmp230
	leaq	num(%rip), %rax	#, tmp231
	movq	(%rdx,%rax), %rax	# num[i_146], _5
	subq	$40, %rax	#, _6
	movl	20(%rax), %eax	# _6->id, _7
	cmpl	$1919505, %eax	#, _7
	je	.L272	#,
# wi_stuff.c:1716: 	Z_ChangeTag(num[i], PU_CACHE);
	.loc 1 1716 2 is_stmt 0 discriminator 1
	movl	$1716, %esi	#,
	leaq	.LC30(%rip), %rax	#, tmp232
	movq	%rax, %rdi	# tmp232,
	movl	$0, %eax	#,
	call	I_Error@PLT	#
.L272:
# wi_stuff.c:1716: 	Z_ChangeTag(num[i], PU_CACHE);
	.loc 1 1716 2 discriminator 3
	movl	-8(%rbp), %eax	# i, tmp234
	cltq
	leaq	0(,%rax,8), %rdx	#, tmp235
	leaq	num(%rip), %rax	#, tmp236
	movq	(%rdx,%rax), %rax	# num[i_146], _8
	movl	$101, %esi	#,
	movq	%rax, %rdi	# _8,
	call	Z_ChangeTag2@PLT	#
# wi_stuff.c:1715:     for (i=0 ; i<10 ; i++)
	.loc 1 1715 24 is_stmt 1 discriminator 2
	addl	$1, -8(%rbp)	#, i
.L271:
# wi_stuff.c:1715:     for (i=0 ; i<10 ; i++)
	.loc 1 1715 17 discriminator 1
	cmpl	$9, -8(%rbp)	#, i
	jle	.L273	#,
# wi_stuff.c:1718:     if (gamemode == commercial)
	.loc 1 1718 18
	movl	gamemode(%rip), %eax	# gamemode, gamemode.261_9
# wi_stuff.c:1718:     if (gamemode == commercial)
	.loc 1 1718 8
	cmpl	$2, %eax	#, gamemode.261_9
	jne	.L274	#,
# wi_stuff.c:1720:   	for (i=0 ; i<NUMCMAPS ; i++)
	.loc 1 1720 10
	movl	$0, -8(%rbp)	#, i
# wi_stuff.c:1720:   	for (i=0 ; i<NUMCMAPS ; i++)
	.loc 1 1720 4
	jmp	.L275	#
.L277:
# wi_stuff.c:1721: 	    Z_ChangeTag(lnames[i], PU_CACHE);
	.loc 1 1721 6
	movq	lnames(%rip), %rax	# lnames, lnames.262_10
	movl	-8(%rbp), %edx	# i, tmp237
	movslq	%edx, %rdx	# tmp237, _11
	salq	$3, %rdx	#, _12
	addq	%rdx, %rax	# _12, _13
	movq	(%rax), %rax	# *_13, _14
	subq	$40, %rax	#, _15
	movl	20(%rax), %eax	# _15->id, _16
	cmpl	$1919505, %eax	#, _16
	je	.L276	#,
# wi_stuff.c:1721: 	    Z_ChangeTag(lnames[i], PU_CACHE);
	.loc 1 1721 6 is_stmt 0 discriminator 1
	movl	$1721, %esi	#,
	leaq	.LC30(%rip), %rax	#, tmp238
	movq	%rax, %rdi	# tmp238,
	movl	$0, %eax	#,
	call	I_Error@PLT	#
.L276:
# wi_stuff.c:1721: 	    Z_ChangeTag(lnames[i], PU_CACHE);
	.loc 1 1721 6 discriminator 3
	movq	lnames(%rip), %rax	# lnames, lnames.263_17
	movl	-8(%rbp), %edx	# i, tmp239
	movslq	%edx, %rdx	# tmp239, _18
	salq	$3, %rdx	#, _19
	addq	%rdx, %rax	# _19, _20
	movq	(%rax), %rax	# *_20, _21
	movl	$101, %esi	#,
	movq	%rax, %rdi	# _21,
	call	Z_ChangeTag2@PLT	#
# wi_stuff.c:1720:   	for (i=0 ; i<NUMCMAPS ; i++)
	.loc 1 1720 29 is_stmt 1 discriminator 2
	addl	$1, -8(%rbp)	#, i
.L275:
# wi_stuff.c:1720:   	for (i=0 ; i<NUMCMAPS ; i++)
	.loc 1 1720 16 discriminator 1
	movl	NUMCMAPS(%rip), %eax	# NUMCMAPS, NUMCMAPS.264_22
	cmpl	%eax, -8(%rbp)	# NUMCMAPS.264_22, i
	jl	.L277	#,
	jmp	.L278	#
.L274:
# wi_stuff.c:1725: 	Z_ChangeTag(yah[0], PU_CACHE);
	.loc 1 1725 2
	movq	yah(%rip), %rax	# yah[0], _23
	subq	$40, %rax	#, _24
	movl	20(%rax), %eax	# _24->id, _25
	cmpl	$1919505, %eax	#, _25
	je	.L279	#,
# wi_stuff.c:1725: 	Z_ChangeTag(yah[0], PU_CACHE);
	.loc 1 1725 2 is_stmt 0 discriminator 1
	movl	$1725, %esi	#,
	leaq	.LC30(%rip), %rax	#, tmp240
	movq	%rax, %rdi	# tmp240,
	movl	$0, %eax	#,
	call	I_Error@PLT	#
.L279:
# wi_stuff.c:1725: 	Z_ChangeTag(yah[0], PU_CACHE);
	.loc 1 1725 2 discriminator 3
	movq	yah(%rip), %rax	# yah[0], _26
	movl	$101, %esi	#,
	movq	%rax, %rdi	# _26,
	call	Z_ChangeTag2@PLT	#
# wi_stuff.c:1726: 	Z_ChangeTag(yah[1], PU_CACHE);
	.loc 1 1726 2 is_stmt 1
	movq	8+yah(%rip), %rax	# yah[1], _27
	subq	$40, %rax	#, _28
	movl	20(%rax), %eax	# _28->id, _29
	cmpl	$1919505, %eax	#, _29
	je	.L280	#,
# wi_stuff.c:1726: 	Z_ChangeTag(yah[1], PU_CACHE);
	.loc 1 1726 2 is_stmt 0 discriminator 1
	movl	$1726, %esi	#,
	leaq	.LC30(%rip), %rax	#, tmp241
	movq	%rax, %rdi	# tmp241,
	movl	$0, %eax	#,
	call	I_Error@PLT	#
.L280:
# wi_stuff.c:1726: 	Z_ChangeTag(yah[1], PU_CACHE);
	.loc 1 1726 2 discriminator 3
	movq	8+yah(%rip), %rax	# yah[1], _30
	movl	$101, %esi	#,
	movq	%rax, %rdi	# _30,
	call	Z_ChangeTag2@PLT	#
# wi_stuff.c:1728: 	Z_ChangeTag(splat, PU_CACHE);
	.loc 1 1728 2 is_stmt 1
	movq	splat(%rip), %rax	# splat, splat.265_31
	subq	$40, %rax	#, _32
	movl	20(%rax), %eax	# _32->id, _33
	cmpl	$1919505, %eax	#, _33
	je	.L281	#,
# wi_stuff.c:1728: 	Z_ChangeTag(splat, PU_CACHE);
	.loc 1 1728 2 is_stmt 0 discriminator 1
	movl	$1728, %esi	#,
	leaq	.LC30(%rip), %rax	#, tmp242
	movq	%rax, %rdi	# tmp242,
	movl	$0, %eax	#,
	call	I_Error@PLT	#
.L281:
# wi_stuff.c:1728: 	Z_ChangeTag(splat, PU_CACHE);
	.loc 1 1728 2 discriminator 3
	movq	splat(%rip), %rax	# splat, splat.266_34
	movl	$101, %esi	#,
	movq	%rax, %rdi	# splat.266_34,
	call	Z_ChangeTag2@PLT	#
# wi_stuff.c:1730: 	for (i=0 ; i<NUMMAPS ; i++)
	.loc 1 1730 8 is_stmt 1
	movl	$0, -8(%rbp)	#, i
# wi_stuff.c:1730: 	for (i=0 ; i<NUMMAPS ; i++)
	.loc 1 1730 2
	jmp	.L282	#
.L284:
# wi_stuff.c:1731: 	    Z_ChangeTag(lnames[i], PU_CACHE);
	.loc 1 1731 6
	movq	lnames(%rip), %rax	# lnames, lnames.267_35
	movl	-8(%rbp), %edx	# i, tmp243
	movslq	%edx, %rdx	# tmp243, _36
	salq	$3, %rdx	#, _37
	addq	%rdx, %rax	# _37, _38
	movq	(%rax), %rax	# *_38, _39
	subq	$40, %rax	#, _40
	movl	20(%rax), %eax	# _40->id, _41
	cmpl	$1919505, %eax	#, _41
	je	.L283	#,
# wi_stuff.c:1731: 	    Z_ChangeTag(lnames[i], PU_CACHE);
	.loc 1 1731 6 is_stmt 0 discriminator 1
	movl	$1731, %esi	#,
	leaq	.LC30(%rip), %rax	#, tmp244
	movq	%rax, %rdi	# tmp244,
	movl	$0, %eax	#,
	call	I_Error@PLT	#
.L283:
# wi_stuff.c:1731: 	    Z_ChangeTag(lnames[i], PU_CACHE);
	.loc 1 1731 6 discriminator 3
	movq	lnames(%rip), %rax	# lnames, lnames.268_42
	movl	-8(%rbp), %edx	# i, tmp245
	movslq	%edx, %rdx	# tmp245, _43
	salq	$3, %rdx	#, _44
	addq	%rdx, %rax	# _44, _45
	movq	(%rax), %rax	# *_45, _46
	movl	$101, %esi	#,
	movq	%rax, %rdi	# _46,
	call	Z_ChangeTag2@PLT	#
# wi_stuff.c:1730: 	for (i=0 ; i<NUMMAPS ; i++)
	.loc 1 1730 26 is_stmt 1 discriminator 2
	addl	$1, -8(%rbp)	#, i
.L282:
# wi_stuff.c:1730: 	for (i=0 ; i<NUMMAPS ; i++)
	.loc 1 1730 14 discriminator 1
	cmpl	$8, -8(%rbp)	#, i
	jle	.L284	#,
# wi_stuff.c:1733: 	if (wbs->epsd < 3)
	.loc 1 1733 9
	movq	wbs(%rip), %rax	# wbs, wbs.269_47
	movl	(%rax), %eax	# wbs.269_47->epsd, _48
# wi_stuff.c:1733: 	if (wbs->epsd < 3)
	.loc 1 1733 5
	cmpl	$2, %eax	#, _48
	jg	.L278	#,
# wi_stuff.c:1735: 	    for (j=0;j<NUMANIMS[wbs->epsd];j++)
	.loc 1 1735 12
	movl	$0, -4(%rbp)	#, j
# wi_stuff.c:1735: 	    for (j=0;j<NUMANIMS[wbs->epsd];j++)
	.loc 1 1735 6
	jmp	.L285	#
.L291:
# wi_stuff.c:1737: 		if (wbs->epsd != 1 || j != 8)
	.loc 1 1737 10
	movq	wbs(%rip), %rax	# wbs, wbs.270_49
	movl	(%rax), %eax	# wbs.270_49->epsd, _50
# wi_stuff.c:1737: 		if (wbs->epsd != 1 || j != 8)
	.loc 1 1737 6
	cmpl	$1, %eax	#, _50
	jne	.L286	#,
# wi_stuff.c:1737: 		if (wbs->epsd != 1 || j != 8)
	.loc 1 1737 22 discriminator 1
	cmpl	$8, -4(%rbp)	#, j
	je	.L287	#,
.L286:
# wi_stuff.c:1738: 		    for (i=0;i<anims[wbs->epsd][j].nanims;i++)
	.loc 1 1738 13
	movl	$0, -8(%rbp)	#, i
# wi_stuff.c:1738: 		    for (i=0;i<anims[wbs->epsd][j].nanims;i++)
	.loc 1 1738 7
	jmp	.L288	#
.L290:
# wi_stuff.c:1739: 			Z_ChangeTag(anims[wbs->epsd][j].p[i], PU_CACHE);
	.loc 1 1739 4
	movq	wbs(%rip), %rax	# wbs, wbs.271_51
	movl	(%rax), %eax	# wbs.271_51->epsd, _52
	cltq
	leaq	0(,%rax,8), %rdx	#, tmp247
	leaq	anims(%rip), %rax	#, tmp248
	movq	(%rdx,%rax), %rcx	# anims[_52], _53
	movl	-4(%rbp), %eax	# j, tmp249
	movslq	%eax, %rdx	# tmp249, _54
	movq	%rdx, %rax	# _54, tmp250
	salq	$3, %rax	#, tmp250
	addq	%rdx, %rax	# _54, tmp250
	salq	$3, %rax	#, tmp251
	addq	%rcx, %rax	# _53, _56
	movl	-8(%rbp), %edx	# i, tmp253
	movslq	%edx, %rdx	# tmp253, tmp252
	addq	$4, %rdx	#, tmp254
	movq	(%rax,%rdx,8), %rax	# _56->p[i_149], _57
	subq	$40, %rax	#, _58
	movl	20(%rax), %eax	# _58->id, _59
	cmpl	$1919505, %eax	#, _59
	je	.L289	#,
# wi_stuff.c:1739: 			Z_ChangeTag(anims[wbs->epsd][j].p[i], PU_CACHE);
	.loc 1 1739 4 is_stmt 0 discriminator 1
	movl	$1739, %esi	#,
	leaq	.LC30(%rip), %rax	#, tmp255
	movq	%rax, %rdi	# tmp255,
	movl	$0, %eax	#,
	call	I_Error@PLT	#
.L289:
# wi_stuff.c:1739: 			Z_ChangeTag(anims[wbs->epsd][j].p[i], PU_CACHE);
	.loc 1 1739 4 discriminator 3
	movq	wbs(%rip), %rax	# wbs, wbs.272_60
	movl	(%rax), %eax	# wbs.272_60->epsd, _61
	cltq
	leaq	0(,%rax,8), %rdx	#, tmp257
	leaq	anims(%rip), %rax	#, tmp258
	movq	(%rdx,%rax), %rcx	# anims[_61], _62
	movl	-4(%rbp), %eax	# j, tmp259
	movslq	%eax, %rdx	# tmp259, _63
	movq	%rdx, %rax	# _63, tmp260
	salq	$3, %rax	#, tmp260
	addq	%rdx, %rax	# _63, tmp260
	salq	$3, %rax	#, tmp261
	addq	%rcx, %rax	# _62, _65
	movl	-8(%rbp), %edx	# i, tmp263
	movslq	%edx, %rdx	# tmp263, tmp262
	addq	$4, %rdx	#, tmp264
	movq	(%rax,%rdx,8), %rax	# _65->p[i_149], _66
	movl	$101, %esi	#,
	movq	%rax, %rdi	# _66,
	call	Z_ChangeTag2@PLT	#
# wi_stuff.c:1738: 		    for (i=0;i<anims[wbs->epsd][j].nanims;i++)
	.loc 1 1738 46 is_stmt 1 discriminator 2
	addl	$1, -8(%rbp)	#, i
.L288:
# wi_stuff.c:1738: 		    for (i=0;i<anims[wbs->epsd][j].nanims;i++)
	.loc 1 1738 27 discriminator 1
	movq	wbs(%rip), %rax	# wbs, wbs.273_67
	movl	(%rax), %eax	# wbs.273_67->epsd, _68
# wi_stuff.c:1738: 		    for (i=0;i<anims[wbs->epsd][j].nanims;i++)
	.loc 1 1738 23 discriminator 1
	cltq
	leaq	0(,%rax,8), %rdx	#, tmp266
	leaq	anims(%rip), %rax	#, tmp267
	movq	(%rdx,%rax), %rcx	# anims[_68], _69
# wi_stuff.c:1738: 		    for (i=0;i<anims[wbs->epsd][j].nanims;i++)
	.loc 1 1738 34 discriminator 1
	movl	-4(%rbp), %eax	# j, tmp268
	movslq	%eax, %rdx	# tmp268, _70
	movq	%rdx, %rax	# _70, tmp269
	salq	$3, %rax	#, tmp269
	addq	%rdx, %rax	# _70, tmp269
	salq	$3, %rax	#, tmp270
	addq	%rcx, %rax	# _69, _72
# wi_stuff.c:1738: 		    for (i=0;i<anims[wbs->epsd][j].nanims;i++)
	.loc 1 1738 37 discriminator 1
	movl	8(%rax), %eax	# _72->nanims, _73
# wi_stuff.c:1738: 		    for (i=0;i<anims[wbs->epsd][j].nanims;i++)
	.loc 1 1738 17 discriminator 1
	cmpl	%eax, -8(%rbp)	# _73, i
	jl	.L290	#,
.L287:
# wi_stuff.c:1735: 	    for (j=0;j<NUMANIMS[wbs->epsd];j++)
	.loc 1 1735 38 discriminator 2
	addl	$1, -4(%rbp)	#, j
.L285:
# wi_stuff.c:1735: 	    for (j=0;j<NUMANIMS[wbs->epsd];j++)
	.loc 1 1735 29 discriminator 1
	movq	wbs(%rip), %rax	# wbs, wbs.274_74
	movl	(%rax), %eax	# wbs.274_74->epsd, _75
# wi_stuff.c:1735: 	    for (j=0;j<NUMANIMS[wbs->epsd];j++)
	.loc 1 1735 25 discriminator 1
	cltq
	leaq	0(,%rax,4), %rdx	#, tmp272
	leaq	NUMANIMS(%rip), %rax	#, tmp273
	movl	(%rdx,%rax), %eax	# NUMANIMS[_75], _76
# wi_stuff.c:1735: 	    for (j=0;j<NUMANIMS[wbs->epsd];j++)
	.loc 1 1735 16 discriminator 1
	cmpl	%eax, -4(%rbp)	# _76, j
	jl	.L291	#,
.L278:
# wi_stuff.c:1744:     Z_Free(lnames);
	.loc 1 1744 5
	movq	lnames(%rip), %rax	# lnames, lnames.275_77
	movq	%rax, %rdi	# lnames.275_77,
	call	Z_Free@PLT	#
# wi_stuff.c:1746:     Z_ChangeTag(percent, PU_CACHE);
	.loc 1 1746 5
	movq	percent(%rip), %rax	# percent, percent.276_78
	subq	$40, %rax	#, _79
	movl	20(%rax), %eax	# _79->id, _80
	cmpl	$1919505, %eax	#, _80
	je	.L292	#,
# wi_stuff.c:1746:     Z_ChangeTag(percent, PU_CACHE);
	.loc 1 1746 5 is_stmt 0 discriminator 1
	movl	$1746, %esi	#,
	leaq	.LC30(%rip), %rax	#, tmp274
	movq	%rax, %rdi	# tmp274,
	movl	$0, %eax	#,
	call	I_Error@PLT	#
.L292:
# wi_stuff.c:1746:     Z_ChangeTag(percent, PU_CACHE);
	.loc 1 1746 5 discriminator 3
	movq	percent(%rip), %rax	# percent, percent.277_81
	movl	$101, %esi	#,
	movq	%rax, %rdi	# percent.277_81,
	call	Z_ChangeTag2@PLT	#
# wi_stuff.c:1747:     Z_ChangeTag(colon, PU_CACHE);
	.loc 1 1747 5 is_stmt 1
	movq	colon(%rip), %rax	# colon, colon.278_82
	subq	$40, %rax	#, _83
	movl	20(%rax), %eax	# _83->id, _84
	cmpl	$1919505, %eax	#, _84
	je	.L293	#,
# wi_stuff.c:1747:     Z_ChangeTag(colon, PU_CACHE);
	.loc 1 1747 5 is_stmt 0 discriminator 1
	movl	$1747, %esi	#,
	leaq	.LC30(%rip), %rax	#, tmp275
	movq	%rax, %rdi	# tmp275,
	movl	$0, %eax	#,
	call	I_Error@PLT	#
.L293:
# wi_stuff.c:1747:     Z_ChangeTag(colon, PU_CACHE);
	.loc 1 1747 5 discriminator 3
	movq	colon(%rip), %rax	# colon, colon.279_85
	movl	$101, %esi	#,
	movq	%rax, %rdi	# colon.279_85,
	call	Z_ChangeTag2@PLT	#
# wi_stuff.c:1748:     Z_ChangeTag(finished, PU_CACHE);
	.loc 1 1748 5 is_stmt 1
	movq	finished(%rip), %rax	# finished, finished.280_86
	subq	$40, %rax	#, _87
	movl	20(%rax), %eax	# _87->id, _88
	cmpl	$1919505, %eax	#, _88
	je	.L294	#,
# wi_stuff.c:1748:     Z_ChangeTag(finished, PU_CACHE);
	.loc 1 1748 5 is_stmt 0 discriminator 1
	movl	$1748, %esi	#,
	leaq	.LC30(%rip), %rax	#, tmp276
	movq	%rax, %rdi	# tmp276,
	movl	$0, %eax	#,
	call	I_Error@PLT	#
.L294:
# wi_stuff.c:1748:     Z_ChangeTag(finished, PU_CACHE);
	.loc 1 1748 5 discriminator 3
	movq	finished(%rip), %rax	# finished, finished.281_89
	movl	$101, %esi	#,
	movq	%rax, %rdi	# finished.281_89,
	call	Z_ChangeTag2@PLT	#
# wi_stuff.c:1749:     Z_ChangeTag(entering, PU_CACHE);
	.loc 1 1749 5 is_stmt 1
	movq	entering(%rip), %rax	# entering, entering.282_90
	subq	$40, %rax	#, _91
	movl	20(%rax), %eax	# _91->id, _92
	cmpl	$1919505, %eax	#, _92
	je	.L295	#,
# wi_stuff.c:1749:     Z_ChangeTag(entering, PU_CACHE);
	.loc 1 1749 5 is_stmt 0 discriminator 1
	movl	$1749, %esi	#,
	leaq	.LC30(%rip), %rax	#, tmp277
	movq	%rax, %rdi	# tmp277,
	movl	$0, %eax	#,
	call	I_Error@PLT	#
.L295:
# wi_stuff.c:1749:     Z_ChangeTag(entering, PU_CACHE);
	.loc 1 1749 5 discriminator 3
	movq	entering(%rip), %rax	# entering, entering.283_93
	movl	$101, %esi	#,
	movq	%rax, %rdi	# entering.283_93,
	call	Z_ChangeTag2@PLT	#
# wi_stuff.c:1750:     Z_ChangeTag(kills, PU_CACHE);
	.loc 1 1750 5 is_stmt 1
	movq	kills(%rip), %rax	# kills, kills.284_94
	subq	$40, %rax	#, _95
	movl	20(%rax), %eax	# _95->id, _96
	cmpl	$1919505, %eax	#, _96
	je	.L296	#,
# wi_stuff.c:1750:     Z_ChangeTag(kills, PU_CACHE);
	.loc 1 1750 5 is_stmt 0 discriminator 1
	movl	$1750, %esi	#,
	leaq	.LC30(%rip), %rax	#, tmp278
	movq	%rax, %rdi	# tmp278,
	movl	$0, %eax	#,
	call	I_Error@PLT	#
.L296:
# wi_stuff.c:1750:     Z_ChangeTag(kills, PU_CACHE);
	.loc 1 1750 5 discriminator 3
	movq	kills(%rip), %rax	# kills, kills.285_97
	movl	$101, %esi	#,
	movq	%rax, %rdi	# kills.285_97,
	call	Z_ChangeTag2@PLT	#
# wi_stuff.c:1751:     Z_ChangeTag(secret, PU_CACHE);
	.loc 1 1751 5 is_stmt 1
	movq	secret(%rip), %rax	# secret, secret.286_98
	subq	$40, %rax	#, _99
	movl	20(%rax), %eax	# _99->id, _100
	cmpl	$1919505, %eax	#, _100
	je	.L297	#,
# wi_stuff.c:1751:     Z_ChangeTag(secret, PU_CACHE);
	.loc 1 1751 5 is_stmt 0 discriminator 1
	movl	$1751, %esi	#,
	leaq	.LC30(%rip), %rax	#, tmp279
	movq	%rax, %rdi	# tmp279,
	movl	$0, %eax	#,
	call	I_Error@PLT	#
.L297:
# wi_stuff.c:1751:     Z_ChangeTag(secret, PU_CACHE);
	.loc 1 1751 5 discriminator 3
	movq	secret(%rip), %rax	# secret, secret.287_101
	movl	$101, %esi	#,
	movq	%rax, %rdi	# secret.287_101,
	call	Z_ChangeTag2@PLT	#
# wi_stuff.c:1752:     Z_ChangeTag(sp_secret, PU_CACHE);
	.loc 1 1752 5 is_stmt 1
	movq	sp_secret(%rip), %rax	# sp_secret, sp_secret.288_102
	subq	$40, %rax	#, _103
	movl	20(%rax), %eax	# _103->id, _104
	cmpl	$1919505, %eax	#, _104
	je	.L298	#,
# wi_stuff.c:1752:     Z_ChangeTag(sp_secret, PU_CACHE);
	.loc 1 1752 5 is_stmt 0 discriminator 1
	movl	$1752, %esi	#,
	leaq	.LC30(%rip), %rax	#, tmp280
	movq	%rax, %rdi	# tmp280,
	movl	$0, %eax	#,
	call	I_Error@PLT	#
.L298:
# wi_stuff.c:1752:     Z_ChangeTag(sp_secret, PU_CACHE);
	.loc 1 1752 5 discriminator 3
	movq	sp_secret(%rip), %rax	# sp_secret, sp_secret.289_105
	movl	$101, %esi	#,
	movq	%rax, %rdi	# sp_secret.289_105,
	call	Z_ChangeTag2@PLT	#
# wi_stuff.c:1753:     Z_ChangeTag(items, PU_CACHE);
	.loc 1 1753 5 is_stmt 1
	movq	items(%rip), %rax	# items, items.290_106
	subq	$40, %rax	#, _107
	movl	20(%rax), %eax	# _107->id, _108
	cmpl	$1919505, %eax	#, _108
	je	.L299	#,
# wi_stuff.c:1753:     Z_ChangeTag(items, PU_CACHE);
	.loc 1 1753 5 is_stmt 0 discriminator 1
	movl	$1753, %esi	#,
	leaq	.LC30(%rip), %rax	#, tmp281
	movq	%rax, %rdi	# tmp281,
	movl	$0, %eax	#,
	call	I_Error@PLT	#
.L299:
# wi_stuff.c:1753:     Z_ChangeTag(items, PU_CACHE);
	.loc 1 1753 5 discriminator 3
	movq	items(%rip), %rax	# items, items.291_109
	movl	$101, %esi	#,
	movq	%rax, %rdi	# items.291_109,
	call	Z_ChangeTag2@PLT	#
# wi_stuff.c:1754:     Z_ChangeTag(frags, PU_CACHE);
	.loc 1 1754 5 is_stmt 1
	movq	frags(%rip), %rax	# frags, frags.292_110
	subq	$40, %rax	#, _111
	movl	20(%rax), %eax	# _111->id, _112
	cmpl	$1919505, %eax	#, _112
	je	.L300	#,
# wi_stuff.c:1754:     Z_ChangeTag(frags, PU_CACHE);
	.loc 1 1754 5 is_stmt 0 discriminator 1
	movl	$1754, %esi	#,
	leaq	.LC30(%rip), %rax	#, tmp282
	movq	%rax, %rdi	# tmp282,
	movl	$0, %eax	#,
	call	I_Error@PLT	#
.L300:
# wi_stuff.c:1754:     Z_ChangeTag(frags, PU_CACHE);
	.loc 1 1754 5 discriminator 3
	movq	frags(%rip), %rax	# frags, frags.293_113
	movl	$101, %esi	#,
	movq	%rax, %rdi	# frags.293_113,
	call	Z_ChangeTag2@PLT	#
# wi_stuff.c:1755:     Z_ChangeTag(time, PU_CACHE);
	.loc 1 1755 5 is_stmt 1
	movq	time(%rip), %rax	# time, time.294_114
	subq	$40, %rax	#, _115
	movl	20(%rax), %eax	# _115->id, _116
	cmpl	$1919505, %eax	#, _116
	je	.L301	#,
# wi_stuff.c:1755:     Z_ChangeTag(time, PU_CACHE);
	.loc 1 1755 5 is_stmt 0 discriminator 1
	movl	$1755, %esi	#,
	leaq	.LC30(%rip), %rax	#, tmp283
	movq	%rax, %rdi	# tmp283,
	movl	$0, %eax	#,
	call	I_Error@PLT	#
.L301:
# wi_stuff.c:1755:     Z_ChangeTag(time, PU_CACHE);
	.loc 1 1755 5 discriminator 3
	movq	time(%rip), %rax	# time, time.295_117
	movl	$101, %esi	#,
	movq	%rax, %rdi	# time.295_117,
	call	Z_ChangeTag2@PLT	#
# wi_stuff.c:1756:     Z_ChangeTag(sucks, PU_CACHE);
	.loc 1 1756 5 is_stmt 1
	movq	sucks(%rip), %rax	# sucks, sucks.296_118
	subq	$40, %rax	#, _119
	movl	20(%rax), %eax	# _119->id, _120
	cmpl	$1919505, %eax	#, _120
	je	.L302	#,
# wi_stuff.c:1756:     Z_ChangeTag(sucks, PU_CACHE);
	.loc 1 1756 5 is_stmt 0 discriminator 1
	movl	$1756, %esi	#,
	leaq	.LC30(%rip), %rax	#, tmp284
	movq	%rax, %rdi	# tmp284,
	movl	$0, %eax	#,
	call	I_Error@PLT	#
.L302:
# wi_stuff.c:1756:     Z_ChangeTag(sucks, PU_CACHE);
	.loc 1 1756 5 discriminator 3
	movq	sucks(%rip), %rax	# sucks, sucks.297_121
	movl	$101, %esi	#,
	movq	%rax, %rdi	# sucks.297_121,
	call	Z_ChangeTag2@PLT	#
# wi_stuff.c:1757:     Z_ChangeTag(par, PU_CACHE);
	.loc 1 1757 5 is_stmt 1
	movq	par(%rip), %rax	# par, par.298_122
	subq	$40, %rax	#, _123
	movl	20(%rax), %eax	# _123->id, _124
	cmpl	$1919505, %eax	#, _124
	je	.L303	#,
# wi_stuff.c:1757:     Z_ChangeTag(par, PU_CACHE);
	.loc 1 1757 5 is_stmt 0 discriminator 1
	movl	$1757, %esi	#,
	leaq	.LC30(%rip), %rax	#, tmp285
	movq	%rax, %rdi	# tmp285,
	movl	$0, %eax	#,
	call	I_Error@PLT	#
.L303:
# wi_stuff.c:1757:     Z_ChangeTag(par, PU_CACHE);
	.loc 1 1757 5 discriminator 3
	movq	par(%rip), %rax	# par, par.299_125
	movl	$101, %esi	#,
	movq	%rax, %rdi	# par.299_125,
	call	Z_ChangeTag2@PLT	#
# wi_stuff.c:1759:     Z_ChangeTag(victims, PU_CACHE);
	.loc 1 1759 5 is_stmt 1
	movq	victims(%rip), %rax	# victims, victims.300_126
	subq	$40, %rax	#, _127
	movl	20(%rax), %eax	# _127->id, _128
	cmpl	$1919505, %eax	#, _128
	je	.L304	#,
# wi_stuff.c:1759:     Z_ChangeTag(victims, PU_CACHE);
	.loc 1 1759 5 is_stmt 0 discriminator 1
	movl	$1759, %esi	#,
	leaq	.LC30(%rip), %rax	#, tmp286
	movq	%rax, %rdi	# tmp286,
	movl	$0, %eax	#,
	call	I_Error@PLT	#
.L304:
# wi_stuff.c:1759:     Z_ChangeTag(victims, PU_CACHE);
	.loc 1 1759 5 discriminator 3
	movq	victims(%rip), %rax	# victims, victims.301_129
	movl	$101, %esi	#,
	movq	%rax, %rdi	# victims.301_129,
	call	Z_ChangeTag2@PLT	#
# wi_stuff.c:1760:     Z_ChangeTag(killers, PU_CACHE);
	.loc 1 1760 5 is_stmt 1
	movq	killers(%rip), %rax	# killers, killers.302_130
	subq	$40, %rax	#, _131
	movl	20(%rax), %eax	# _131->id, _132
	cmpl	$1919505, %eax	#, _132
	je	.L305	#,
# wi_stuff.c:1760:     Z_ChangeTag(killers, PU_CACHE);
	.loc 1 1760 5 is_stmt 0 discriminator 1
	movl	$1760, %esi	#,
	leaq	.LC30(%rip), %rax	#, tmp287
	movq	%rax, %rdi	# tmp287,
	movl	$0, %eax	#,
	call	I_Error@PLT	#
.L305:
# wi_stuff.c:1760:     Z_ChangeTag(killers, PU_CACHE);
	.loc 1 1760 5 discriminator 3
	movq	killers(%rip), %rax	# killers, killers.303_133
	movl	$101, %esi	#,
	movq	%rax, %rdi	# killers.303_133,
	call	Z_ChangeTag2@PLT	#
# wi_stuff.c:1761:     Z_ChangeTag(total, PU_CACHE);
	.loc 1 1761 5 is_stmt 1
	movq	total(%rip), %rax	# total, total.304_134
	subq	$40, %rax	#, _135
	movl	20(%rax), %eax	# _135->id, _136
	cmpl	$1919505, %eax	#, _136
	je	.L306	#,
# wi_stuff.c:1761:     Z_ChangeTag(total, PU_CACHE);
	.loc 1 1761 5 is_stmt 0 discriminator 1
	movl	$1761, %esi	#,
	leaq	.LC30(%rip), %rax	#, tmp288
	movq	%rax, %rdi	# tmp288,
	movl	$0, %eax	#,
	call	I_Error@PLT	#
.L306:
# wi_stuff.c:1761:     Z_ChangeTag(total, PU_CACHE);
	.loc 1 1761 5 discriminator 3
	movq	total(%rip), %rax	# total, total.305_137
	movl	$101, %esi	#,
	movq	%rax, %rdi	# total.305_137,
	call	Z_ChangeTag2@PLT	#
# wi_stuff.c:1765:     for (i=0 ; i<MAXPLAYERS ; i++)
	.loc 1 1765 11 is_stmt 1
	movl	$0, -8(%rbp)	#, i
# wi_stuff.c:1765:     for (i=0 ; i<MAXPLAYERS ; i++)
	.loc 1 1765 5
	jmp	.L307	#
.L309:
# wi_stuff.c:1766: 	Z_ChangeTag(p[i], PU_CACHE);
	.loc 1 1766 2
	movl	-8(%rbp), %eax	# i, tmp290
	cltq
	leaq	0(,%rax,8), %rdx	#, tmp291
	leaq	p(%rip), %rax	#, tmp292
	movq	(%rdx,%rax), %rax	# p[i_150], _138
	subq	$40, %rax	#, _139
	movl	20(%rax), %eax	# _139->id, _140
	cmpl	$1919505, %eax	#, _140
	je	.L308	#,
# wi_stuff.c:1766: 	Z_ChangeTag(p[i], PU_CACHE);
	.loc 1 1766 2 is_stmt 0 discriminator 1
	movl	$1766, %esi	#,
	leaq	.LC30(%rip), %rax	#, tmp293
	movq	%rax, %rdi	# tmp293,
	movl	$0, %eax	#,
	call	I_Error@PLT	#
.L308:
# wi_stuff.c:1766: 	Z_ChangeTag(p[i], PU_CACHE);
	.loc 1 1766 2 discriminator 3
	movl	-8(%rbp), %eax	# i, tmp295
	cltq
	leaq	0(,%rax,8), %rdx	#, tmp296
	leaq	p(%rip), %rax	#, tmp297
	movq	(%rdx,%rax), %rax	# p[i_150], _141
	movl	$101, %esi	#,
	movq	%rax, %rdi	# _141,
	call	Z_ChangeTag2@PLT	#
# wi_stuff.c:1765:     for (i=0 ; i<MAXPLAYERS ; i++)
	.loc 1 1765 32 is_stmt 1 discriminator 2
	addl	$1, -8(%rbp)	#, i
.L307:
# wi_stuff.c:1765:     for (i=0 ; i<MAXPLAYERS ; i++)
	.loc 1 1765 17 discriminator 1
	cmpl	$3, -8(%rbp)	#, i
	jle	.L309	#,
# wi_stuff.c:1768:     for (i=0 ; i<MAXPLAYERS ; i++)
	.loc 1 1768 11
	movl	$0, -8(%rbp)	#, i
# wi_stuff.c:1768:     for (i=0 ; i<MAXPLAYERS ; i++)
	.loc 1 1768 5
	jmp	.L310	#
.L312:
# wi_stuff.c:1769: 	Z_ChangeTag(bp[i], PU_CACHE);
	.loc 1 1769 2
	movl	-8(%rbp), %eax	# i, tmp299
	cltq
	leaq	0(,%rax,8), %rdx	#, tmp300
	leaq	bp(%rip), %rax	#, tmp301
	movq	(%rdx,%rax), %rax	# bp[i_151], _142
	subq	$40, %rax	#, _143
	movl	20(%rax), %eax	# _143->id, _144
	cmpl	$1919505, %eax	#, _144
	je	.L311	#,
# wi_stuff.c:1769: 	Z_ChangeTag(bp[i], PU_CACHE);
	.loc 1 1769 2 is_stmt 0 discriminator 1
	movl	$1769, %esi	#,
	leaq	.LC30(%rip), %rax	#, tmp302
	movq	%rax, %rdi	# tmp302,
	movl	$0, %eax	#,
	call	I_Error@PLT	#
.L311:
# wi_stuff.c:1769: 	Z_ChangeTag(bp[i], PU_CACHE);
	.loc 1 1769 2 discriminator 3
	movl	-8(%rbp), %eax	# i, tmp304
	cltq
	leaq	0(,%rax,8), %rdx	#, tmp305
	leaq	bp(%rip), %rax	#, tmp306
	movq	(%rdx,%rax), %rax	# bp[i_151], _145
	movl	$101, %esi	#,
	movq	%rax, %rdi	# _145,
	call	Z_ChangeTag2@PLT	#
# wi_stuff.c:1768:     for (i=0 ; i<MAXPLAYERS ; i++)
	.loc 1 1768 32 is_stmt 1 discriminator 2
	addl	$1, -8(%rbp)	#, i
.L310:
# wi_stuff.c:1768:     for (i=0 ; i<MAXPLAYERS ; i++)
	.loc 1 1768 17 discriminator 1
	cmpl	$3, -8(%rbp)	#, i
	jle	.L312	#,
# wi_stuff.c:1770: }
	.loc 1 1770 1
	nop	
	nop	
	leave	
	.cfi_def_cfa 7, 8
	ret	
	.cfi_endproc
.LFE31:
	.size	WI_unloadData, .-WI_unloadData
	.globl	WI_Drawer
	.type	WI_Drawer, @function
WI_Drawer:
.LFB32:
	.loc 1 1773 1
	.cfi_startproc
	endbr64	
	pushq	%rbp	#
	.cfi_def_cfa_offset 16
	.cfi_offset 6, -16
	movq	%rsp, %rbp	#,
	.cfi_def_cfa_register 6
# wi_stuff.c:1774:     switch (state)
	.loc 1 1774 5
	movl	state(%rip), %eax	# state, state.306_1
	cmpl	$1, %eax	#, state.306_1
	je	.L314	#,
	cmpl	$1, %eax	#, state.306_1
	jg	.L320	#,
	cmpl	$-1, %eax	#, state.306_1
	je	.L316	#,
	testl	%eax, %eax	# state.306_1
	jne	.L320	#,
# wi_stuff.c:1777: 	if (deathmatch)
	.loc 1 1777 6
	movl	deathmatch(%rip), %eax	# deathmatch, deathmatch.307_2
# wi_stuff.c:1777: 	if (deathmatch)
	.loc 1 1777 5
	testl	%eax, %eax	# deathmatch.307_2
	je	.L317	#,
# wi_stuff.c:1778: 	    WI_drawDeathmatchStats();
	.loc 1 1778 6
	call	WI_drawDeathmatchStats	#
# wi_stuff.c:1783: 	break;
	.loc 1 1783 2
	jmp	.L315	#
.L317:
# wi_stuff.c:1779: 	else if (netgame)
	.loc 1 1779 11
	movl	netgame(%rip), %eax	# netgame, netgame.308_3
# wi_stuff.c:1779: 	else if (netgame)
	.loc 1 1779 10
	testl	%eax, %eax	# netgame.308_3
	je	.L319	#,
# wi_stuff.c:1780: 	    WI_drawNetgameStats();
	.loc 1 1780 6
	call	WI_drawNetgameStats	#
# wi_stuff.c:1783: 	break;
	.loc 1 1783 2
	jmp	.L315	#
.L319:
# wi_stuff.c:1782: 	    WI_drawStats();
	.loc 1 1782 6
	call	WI_drawStats	#
# wi_stuff.c:1783: 	break;
	.loc 1 1783 2
	jmp	.L315	#
.L314:
# wi_stuff.c:1786: 	WI_drawShowNextLoc();
	.loc 1 1786 2
	call	WI_drawShowNextLoc	#
# wi_stuff.c:1787: 	break;
	.loc 1 1787 2
	jmp	.L315	#
.L316:
# wi_stuff.c:1790: 	WI_drawNoState();
	.loc 1 1790 2
	call	WI_drawNoState	#
# wi_stuff.c:1791: 	break;
	.loc 1 1791 2
	nop	
.L315:
.L320:
# wi_stuff.c:1793: }
	.loc 1 1793 1
	nop	
	popq	%rbp	#
	.cfi_def_cfa 7, 8
	ret	
	.cfi_endproc
.LFE32:
	.size	WI_Drawer, .-WI_Drawer
	.globl	WI_initVariables
	.type	WI_initVariables, @function
WI_initVariables:
.LFB33:
	.loc 1 1797 1
	.cfi_startproc
	endbr64	
	pushq	%rbp	#
	.cfi_def_cfa_offset 16
	.cfi_offset 6, -16
	movq	%rsp, %rbp	#,
	.cfi_def_cfa_register 6
	movq	%rdi, -8(%rbp)	# wbstartstruct, wbstartstruct
# wi_stuff.c:1799:     wbs = wbstartstruct;
	.loc 1 1799 9
	movq	-8(%rbp), %rax	# wbstartstruct, tmp103
	movq	%rax, wbs(%rip)	# tmp103, wbs
# wi_stuff.c:1818:     acceleratestage = 0;
	.loc 1 1818 21
	movl	$0, acceleratestage(%rip)	#, acceleratestage
# wi_stuff.c:1819:     cnt = bcnt = 0;
	.loc 1 1819 16
	movl	$0, bcnt(%rip)	#, bcnt
# wi_stuff.c:1819:     cnt = bcnt = 0;
	.loc 1 1819 9
	movl	bcnt(%rip), %eax	# bcnt, bcnt.309_1
	movl	%eax, cnt(%rip)	# bcnt.309_1, cnt
# wi_stuff.c:1820:     firstrefresh = 1;
	.loc 1 1820 18
	movl	$1, firstrefresh(%rip)	#, firstrefresh
# wi_stuff.c:1821:     me = wbs->pnum;
	.loc 1 1821 13
	movq	wbs(%rip), %rax	# wbs, wbs.310_2
	movl	36(%rax), %eax	# wbs.310_2->pnum, _3
# wi_stuff.c:1821:     me = wbs->pnum;
	.loc 1 1821 8
	movl	%eax, me(%rip)	# _3, me
# wi_stuff.c:1822:     plrs = wbs->plyr;
	.loc 1 1822 15
	movq	wbs(%rip), %rax	# wbs, wbs.311_4
# wi_stuff.c:1822:     plrs = wbs->plyr;
	.loc 1 1822 12
	addq	$40, %rax	#, _5
# wi_stuff.c:1822:     plrs = wbs->plyr;
	.loc 1 1822 10
	movq	%rax, plrs(%rip)	# _5, plrs
# wi_stuff.c:1824:     if (!wbs->maxkills)
	.loc 1 1824 13
	movq	wbs(%rip), %rax	# wbs, wbs.312_6
	movl	16(%rax), %eax	# wbs.312_6->maxkills, _7
# wi_stuff.c:1824:     if (!wbs->maxkills)
	.loc 1 1824 8
	testl	%eax, %eax	# _7
	jne	.L322	#,
# wi_stuff.c:1825: 	wbs->maxkills = 1;
	.loc 1 1825 5
	movq	wbs(%rip), %rax	# wbs, wbs.313_8
# wi_stuff.c:1825: 	wbs->maxkills = 1;
	.loc 1 1825 16
	movl	$1, 16(%rax)	#, wbs.313_8->maxkills
.L322:
# wi_stuff.c:1827:     if (!wbs->maxitems)
	.loc 1 1827 13
	movq	wbs(%rip), %rax	# wbs, wbs.314_9
	movl	20(%rax), %eax	# wbs.314_9->maxitems, _10
# wi_stuff.c:1827:     if (!wbs->maxitems)
	.loc 1 1827 8
	testl	%eax, %eax	# _10
	jne	.L323	#,
# wi_stuff.c:1828: 	wbs->maxitems = 1;
	.loc 1 1828 5
	movq	wbs(%rip), %rax	# wbs, wbs.315_11
# wi_stuff.c:1828: 	wbs->maxitems = 1;
	.loc 1 1828 16
	movl	$1, 20(%rax)	#, wbs.315_11->maxitems
.L323:
# wi_stuff.c:1830:     if (!wbs->maxsecret)
	.loc 1 1830 13
	movq	wbs(%rip), %rax	# wbs, wbs.316_12
	movl	24(%rax), %eax	# wbs.316_12->maxsecret, _13
# wi_stuff.c:1830:     if (!wbs->maxsecret)
	.loc 1 1830 8
	testl	%eax, %eax	# _13
	jne	.L324	#,
# wi_stuff.c:1831: 	wbs->maxsecret = 1;
	.loc 1 1831 5
	movq	wbs(%rip), %rax	# wbs, wbs.317_14
# wi_stuff.c:1831: 	wbs->maxsecret = 1;
	.loc 1 1831 17
	movl	$1, 24(%rax)	#, wbs.317_14->maxsecret
.L324:
# wi_stuff.c:1833:     if ( gamemode != retail )
	.loc 1 1833 19
	movl	gamemode(%rip), %eax	# gamemode, gamemode.318_15
# wi_stuff.c:1833:     if ( gamemode != retail )
	.loc 1 1833 8
	cmpl	$3, %eax	#, gamemode.318_15
	je	.L326	#,
# wi_stuff.c:1834:       if (wbs->epsd > 2)
	.loc 1 1834 14
	movq	wbs(%rip), %rax	# wbs, wbs.319_16
	movl	(%rax), %eax	# wbs.319_16->epsd, _17
# wi_stuff.c:1834:       if (wbs->epsd > 2)
	.loc 1 1834 10
	cmpl	$2, %eax	#, _17
	jle	.L326	#,
# wi_stuff.c:1835: 	wbs->epsd -= 3;
	.loc 1 1835 5
	movq	wbs(%rip), %rax	# wbs, wbs.320_18
	movl	(%rax), %edx	# wbs.320_18->epsd, _19
	movq	wbs(%rip), %rax	# wbs, wbs.321_20
# wi_stuff.c:1835: 	wbs->epsd -= 3;
	.loc 1 1835 12
	subl	$3, %edx	#, _21
	movl	%edx, (%rax)	# _21, wbs.321_20->epsd
.L326:
# wi_stuff.c:1836: }
	.loc 1 1836 1
	nop	
	popq	%rbp	#
	.cfi_def_cfa 7, 8
	ret	
	.cfi_endproc
.LFE33:
	.size	WI_initVariables, .-WI_initVariables
	.globl	WI_Start
	.type	WI_Start, @function
WI_Start:
.LFB34:
	.loc 1 1839 1
	.cfi_startproc
	endbr64	
	pushq	%rbp	#
	.cfi_def_cfa_offset 16
	.cfi_offset 6, -16
	movq	%rsp, %rbp	#,
	.cfi_def_cfa_register 6
	subq	$16, %rsp	#,
	movq	%rdi, -8(%rbp)	# wbstartstruct, wbstartstruct
# wi_stuff.c:1841:     WI_initVariables(wbstartstruct);
	.loc 1 1841 5
	movq	-8(%rbp), %rax	# wbstartstruct, tmp84
	movq	%rax, %rdi	# tmp84,
	call	WI_initVariables	#
# wi_stuff.c:1842:     WI_loadData();
	.loc 1 1842 5
	call	WI_loadData	#
# wi_stuff.c:1844:     if (deathmatch)
	.loc 1 1844 9
	movl	deathmatch(%rip), %eax	# deathmatch, deathmatch.322_1
# wi_stuff.c:1844:     if (deathmatch)
	.loc 1 1844 8
	testl	%eax, %eax	# deathmatch.322_1
	je	.L328	#,
# wi_stuff.c:1845: 	WI_initDeathmatchStats();
	.loc 1 1845 2
	call	WI_initDeathmatchStats	#
# wi_stuff.c:1850: }
	.loc 1 1850 1
	jmp	.L331	#
.L328:
# wi_stuff.c:1846:     else if (netgame)
	.loc 1 1846 14
	movl	netgame(%rip), %eax	# netgame, netgame.323_2
# wi_stuff.c:1846:     else if (netgame)
	.loc 1 1846 13
	testl	%eax, %eax	# netgame.323_2
	je	.L330	#,
# wi_stuff.c:1847: 	WI_initNetgameStats();
	.loc 1 1847 2
	call	WI_initNetgameStats	#
# wi_stuff.c:1850: }
	.loc 1 1850 1
	jmp	.L331	#
.L330:
# wi_stuff.c:1849: 	WI_initStats();
	.loc 1 1849 2
	call	WI_initStats	#
.L331:
# wi_stuff.c:1850: }
	.loc 1 1850 1
	nop	
	leave	
	.cfi_def_cfa 7, 8
	ret	
	.cfi_endproc
.LFE34:
	.size	WI_Start, .-WI_Start
.Letext0:
	.file 2 "z_zone.h"
	.file 3 "/usr/lib/gcc/x86_64-linux-gnu/13/include/stddef.h"
	.file 4 "doomtype.h"
	.file 5 "d_ticcmd.h"
	.file 6 "d_event.h"
	.file 7 "doomdef.h"
	.file 8 "m_fixed.h"
	.file 9 "tables.h"
	.file 10 "d_think.h"
	.file 11 "doomdata.h"
	.file 12 "info.h"
	.file 13 "p_mobj.h"
	.file 14 "r_defs.h"
	.file 15 "d_player.h"
	.file 16 "p_pspr.h"
	.file 17 "doomstat.h"
	.file 18 "sounds.h"
	.file 19 "v_video.h"
	.file 20 "wi_stuff.h"
	.file 21 "i_system.h"
	.file 22 "w_wad.h"
	.file 23 "/usr/include/stdio.h"
	.file 24 "s_sound.h"
	.file 25 "/usr/include/string.h"
	.file 26 "g_game.h"
	.file 27 "m_random.h"
	.section	.debug_info,"",@progbits
.Ldebug_info0:
	.long	0x44a9
	.value	0x5
	.byte	0x1
	.byte	0x8
	.long	.Ldebug_abbrev0
	.uleb128 0x24
	.long	.LASF1811
	.byte	0x1d
	.long	.LASF0
	.long	.LASF1
	.quad	.Ltext0
	.quad	.Letext0-.Ltext0
	.long	.Ldebug_line0
	.uleb128 0xc
	.long	0x51
	.long	0x3e
	.uleb128 0xb
	.long	0x43
	.byte	0x32
	.byte	0
	.uleb128 0x1e
	.long	0x2e
	.uleb128 0x11
	.byte	0x8
	.byte	0x7
	.long	.LASF2
	.uleb128 0x11
	.byte	0x1
	.byte	0x6
	.long	.LASF3
	.uleb128 0x1e
	.long	0x4a
	.uleb128 0x16
	.long	.LASF1706
	.byte	0x19
	.byte	0x1
	.long	0x3e
	.uleb128 0x9
	.byte	0x3
	.quad	rcsid
	.uleb128 0x7
	.long	.LASF14
	.byte	0x3
	.byte	0xd6
	.byte	0x17
	.long	0x43
	.uleb128 0x11
	.byte	0x4
	.byte	0x7
	.long	.LASF4
	.uleb128 0x25
	.byte	0x8
	.uleb128 0x11
	.byte	0x1
	.byte	0x8
	.long	.LASF5
	.uleb128 0x11
	.byte	0x2
	.byte	0x7
	.long	.LASF6
	.uleb128 0x11
	.byte	0x1
	.byte	0x6
	.long	.LASF7
	.uleb128 0x11
	.byte	0x2
	.byte	0x5
	.long	.LASF8
	.uleb128 0x26
	.byte	0x4
	.byte	0x5
	.string	"int"
	.uleb128 0x11
	.byte	0x8
	.byte	0x5
	.long	.LASF9
	.uleb128 0xa
	.long	0x4a
	.uleb128 0xa
	.long	0x51
	.uleb128 0x17
	.long	.LASF101
	.byte	0x28
	.byte	0x2
	.byte	0x3a
	.long	0x10e
	.uleb128 0x3
	.long	.LASF10
	.byte	0x2
	.byte	0x3c
	.byte	0xb
	.long	0x9c
	.byte	0
	.uleb128 0x3
	.long	.LASF11
	.byte	0x2
	.byte	0x3d
	.byte	0xd
	.long	0x10e
	.byte	0x8
	.uleb128 0x9
	.string	"tag"
	.byte	0x2
	.byte	0x3e
	.byte	0xb
	.long	0x9c
	.byte	0x10
	.uleb128 0x9
	.string	"id"
	.byte	0x2
	.byte	0x3f
	.byte	0xb
	.long	0x9c
	.byte	0x14
	.uleb128 0x3
	.long	.LASF12
	.byte	0x2
	.byte	0x40
	.byte	0x18
	.long	0x113
	.byte	0x18
	.uleb128 0x3
	.long	.LASF13
	.byte	0x2
	.byte	0x41
	.byte	0x18
	.long	0x113
	.byte	0x20
	.byte	0
	.uleb128 0xa
	.long	0x7e
	.uleb128 0xa
	.long	0xb4
	.uleb128 0x7
	.long	.LASF15
	.byte	0x2
	.byte	0x42
	.byte	0x3
	.long	0xb4
	.uleb128 0xe
	.byte	0x7
	.long	0x77
	.byte	0x4
	.byte	0x22
	.byte	0xe
	.long	0x13e
	.uleb128 0x1
	.long	.LASF16
	.byte	0
	.uleb128 0x1
	.long	.LASF17
	.byte	0x1
	.byte	0
	.uleb128 0x7
	.long	.LASF18
	.byte	0x4
	.byte	0x22
	.byte	0x1c
	.long	0x124
	.uleb128 0x7
	.long	.LASF19
	.byte	0x4
	.byte	0x24
	.byte	0x17
	.long	0x80
	.uleb128 0x10
	.byte	0x8
	.byte	0x5
	.byte	0x24
	.long	0x1ad
	.uleb128 0x3
	.long	.LASF20
	.byte	0x5
	.byte	0x26
	.byte	0xa
	.long	0x4a
	.byte	0
	.uleb128 0x3
	.long	.LASF21
	.byte	0x5
	.byte	0x27
	.byte	0xa
	.long	0x4a
	.byte	0x1
	.uleb128 0x3
	.long	.LASF22
	.byte	0x5
	.byte	0x28
	.byte	0xb
	.long	0x95
	.byte	0x2
	.uleb128 0x3
	.long	.LASF23
	.byte	0x5
	.byte	0x29
	.byte	0xb
	.long	0x95
	.byte	0x4
	.uleb128 0x3
	.long	.LASF24
	.byte	0x5
	.byte	0x2a
	.byte	0xa
	.long	0x14a
	.byte	0x6
	.uleb128 0x3
	.long	.LASF25
	.byte	0x5
	.byte	0x2b
	.byte	0xa
	.long	0x14a
	.byte	0x7
	.byte	0
	.uleb128 0x7
	.long	.LASF26
	.byte	0x5
	.byte	0x2c
	.byte	0x3
	.long	0x156
	.uleb128 0xe
	.byte	0x7
	.long	0x77
	.byte	0x6
	.byte	0x24
	.byte	0x1
	.long	0x1df
	.uleb128 0x1
	.long	.LASF27
	.byte	0
	.uleb128 0x1
	.long	.LASF28
	.byte	0x1
	.uleb128 0x1
	.long	.LASF29
	.byte	0x2
	.uleb128 0x1
	.long	.LASF30
	.byte	0x3
	.byte	0
	.uleb128 0x7
	.long	.LASF31
	.byte	0x6
	.byte	0x29
	.byte	0x3
	.long	0x1b9
	.uleb128 0x10
	.byte	0x10
	.byte	0x6
	.byte	0x2c
	.long	0x228
	.uleb128 0x3
	.long	.LASF32
	.byte	0x6
	.byte	0x2e
	.byte	0xe
	.long	0x1df
	.byte	0
	.uleb128 0x3
	.long	.LASF33
	.byte	0x6
	.byte	0x2f
	.byte	0xa
	.long	0x9c
	.byte	0x4
	.uleb128 0x3
	.long	.LASF34
	.byte	0x6
	.byte	0x30
	.byte	0xa
	.long	0x9c
	.byte	0x8
	.uleb128 0x3
	.long	.LASF35
	.byte	0x6
	.byte	0x31
	.byte	0xa
	.long	0x9c
	.byte	0xc
	.byte	0
	.uleb128 0x7
	.long	.LASF36
	.byte	0x6
	.byte	0x32
	.byte	0x3
	.long	0x1eb
	.uleb128 0xe
	.byte	0x7
	.long	0x77
	.byte	0x6
	.byte	0x49
	.byte	0x1
	.long	0x284
	.uleb128 0x1
	.long	.LASF37
	.byte	0x1
	.uleb128 0x1
	.long	.LASF38
	.byte	0x2
	.uleb128 0x1
	.long	.LASF39
	.byte	0x80
	.uleb128 0x1
	.long	.LASF40
	.byte	0x3
	.uleb128 0x1
	.long	.LASF41
	.byte	0x4
	.uleb128 0x1
	.long	.LASF42
	.byte	0x38
	.uleb128 0x1
	.long	.LASF43
	.byte	0x3
	.uleb128 0x1
	.long	.LASF44
	.byte	0x1
	.uleb128 0x1
	.long	.LASF45
	.byte	0x2
	.uleb128 0x1
	.long	.LASF46
	.byte	0x1c
	.uleb128 0x1
	.long	.LASF47
	.byte	0x2
	.byte	0
	.uleb128 0xe
	.byte	0x7
	.long	0x77
	.byte	0x7
	.byte	0x27
	.byte	0x1
	.long	0x2b0
	.uleb128 0x1
	.long	.LASF48
	.byte	0
	.uleb128 0x1
	.long	.LASF49
	.byte	0x1
	.uleb128 0x1
	.long	.LASF50
	.byte	0x2
	.uleb128 0x1
	.long	.LASF51
	.byte	0x3
	.uleb128 0x1
	.long	.LASF52
	.byte	0x4
	.byte	0
	.uleb128 0x7
	.long	.LASF53
	.byte	0x7
	.byte	0x2f
	.byte	0x3
	.long	0x284
	.uleb128 0xe
	.byte	0x7
	.long	0x77
	.byte	0x7
	.byte	0x40
	.byte	0x1
	.long	0x2e2
	.uleb128 0x1
	.long	.LASF54
	.byte	0
	.uleb128 0x1
	.long	.LASF55
	.byte	0x1
	.uleb128 0x1
	.long	.LASF56
	.byte	0x2
	.uleb128 0x1
	.long	.LASF57
	.byte	0x3
	.byte	0
	.uleb128 0xe
	.byte	0x7
	.long	0x77
	.byte	0x7
	.byte	0xa3
	.byte	0x1
	.long	0x31a
	.uleb128 0x1
	.long	.LASF58
	.byte	0
	.uleb128 0x1
	.long	.LASF59
	.byte	0x1
	.uleb128 0x1
	.long	.LASF60
	.byte	0x2
	.uleb128 0x1
	.long	.LASF61
	.byte	0x3
	.uleb128 0x1
	.long	.LASF62
	.byte	0x4
	.uleb128 0x1
	.long	.LASF63
	.byte	0x5
	.uleb128 0x1
	.long	.LASF64
	.byte	0x6
	.byte	0
	.uleb128 0xe
	.byte	0x7
	.long	0x77
	.byte	0x7
	.byte	0xb5
	.byte	0x1
	.long	0x36a
	.uleb128 0x1
	.long	.LASF65
	.byte	0
	.uleb128 0x1
	.long	.LASF66
	.byte	0x1
	.uleb128 0x1
	.long	.LASF67
	.byte	0x2
	.uleb128 0x1
	.long	.LASF68
	.byte	0x3
	.uleb128 0x1
	.long	.LASF69
	.byte	0x4
	.uleb128 0x1
	.long	.LASF70
	.byte	0x5
	.uleb128 0x1
	.long	.LASF71
	.byte	0x6
	.uleb128 0x1
	.long	.LASF72
	.byte	0x7
	.uleb128 0x1
	.long	.LASF73
	.byte	0x8
	.uleb128 0x1
	.long	.LASF74
	.byte	0x9
	.uleb128 0x1
	.long	.LASF75
	.byte	0xa
	.byte	0
	.uleb128 0x7
	.long	.LASF76
	.byte	0x7
	.byte	0xc5
	.byte	0x3
	.long	0x31a
	.uleb128 0xe
	.byte	0x7
	.long	0x77
	.byte	0x7
	.byte	0xca
	.byte	0x1
	.long	0x3a8
	.uleb128 0x1
	.long	.LASF77
	.byte	0
	.uleb128 0x1
	.long	.LASF78
	.byte	0x1
	.uleb128 0x1
	.long	.LASF79
	.byte	0x2
	.uleb128 0x1
	.long	.LASF80
	.byte	0x3
	.uleb128 0x1
	.long	.LASF81
	.byte	0x4
	.uleb128 0x1
	.long	.LASF82
	.byte	0x5
	.byte	0
	.uleb128 0xe
	.byte	0x7
	.long	0x77
	.byte	0x7
	.byte	0xd7
	.byte	0x1
	.long	0x3e0
	.uleb128 0x1
	.long	.LASF83
	.byte	0
	.uleb128 0x1
	.long	.LASF84
	.byte	0x1
	.uleb128 0x1
	.long	.LASF85
	.byte	0x2
	.uleb128 0x1
	.long	.LASF86
	.byte	0x3
	.uleb128 0x1
	.long	.LASF87
	.byte	0x4
	.uleb128 0x1
	.long	.LASF88
	.byte	0x5
	.uleb128 0x1
	.long	.LASF89
	.byte	0x6
	.byte	0
	.uleb128 0x11
	.byte	0x4
	.byte	0x4
	.long	.LASF90
	.uleb128 0x11
	.byte	0x8
	.byte	0x4
	.long	.LASF91
	.uleb128 0x7
	.long	.LASF92
	.byte	0x8
	.byte	0x26
	.byte	0xd
	.long	0x9c
	.uleb128 0x7
	.long	.LASF93
	.byte	0x9
	.byte	0x4e
	.byte	0x12
	.long	0x77
	.uleb128 0x7
	.long	.LASF94
	.byte	0xa
	.byte	0x29
	.byte	0x11
	.long	0x412
	.uleb128 0xa
	.long	0x417
	.uleb128 0x27
	.long	0x41e
	.uleb128 0x18
	.byte	0
	.uleb128 0x7
	.long	.LASF95
	.byte	0xa
	.byte	0x2a
	.byte	0x11
	.long	0x42a
	.uleb128 0xa
	.long	0x42f
	.uleb128 0x1f
	.long	0x43a
	.uleb128 0x8
	.long	0x7e
	.byte	0
	.uleb128 0x7
	.long	.LASF96
	.byte	0xa
	.byte	0x2b
	.byte	0x11
	.long	0x446
	.uleb128 0xa
	.long	0x44b
	.uleb128 0x1f
	.long	0x45b
	.uleb128 0x8
	.long	0x7e
	.uleb128 0x8
	.long	0x7e
	.byte	0
	.uleb128 0x28
	.byte	0x8
	.byte	0xa
	.byte	0x2d
	.byte	0x9
	.long	0x485
	.uleb128 0x20
	.long	.LASF97
	.byte	0x2f
	.long	0x41e
	.uleb128 0x29
	.string	"acv"
	.byte	0xa
	.byte	0x30
	.byte	0xd
	.long	0x406
	.uleb128 0x20
	.long	.LASF98
	.byte	0x31
	.long	0x43a
	.byte	0
	.uleb128 0x7
	.long	.LASF99
	.byte	0xa
	.byte	0x33
	.byte	0x3
	.long	0x45b
	.uleb128 0x7
	.long	.LASF100
	.byte	0xa
	.byte	0x3c
	.byte	0x14
	.long	0x485
	.uleb128 0x17
	.long	.LASF102
	.byte	0x18
	.byte	0xa
	.byte	0x40
	.long	0x4d1
	.uleb128 0x3
	.long	.LASF13
	.byte	0xa
	.byte	0x42
	.byte	0x17
	.long	0x4d1
	.byte	0
	.uleb128 0x3
	.long	.LASF12
	.byte	0xa
	.byte	0x43
	.byte	0x17
	.long	0x4d1
	.byte	0x8
	.uleb128 0x3
	.long	.LASF103
	.byte	0xa
	.byte	0x44
	.byte	0xe
	.long	0x491
	.byte	0x10
	.byte	0
	.uleb128 0xa
	.long	0x49d
	.uleb128 0x7
	.long	.LASF104
	.byte	0xa
	.byte	0x46
	.byte	0x3
	.long	0x49d
	.uleb128 0xc
	.long	0x95
	.long	0x4f2
	.uleb128 0xb
	.long	0x43
	.byte	0x1
	.byte	0
	.uleb128 0x10
	.byte	0xa
	.byte	0xb
	.byte	0xcb
	.long	0x538
	.uleb128 0x9
	.string	"x"
	.byte	0xb
	.byte	0xcd
	.byte	0xc
	.long	0x95
	.byte	0
	.uleb128 0x9
	.string	"y"
	.byte	0xb
	.byte	0xce
	.byte	0xc
	.long	0x95
	.byte	0x2
	.uleb128 0x3
	.long	.LASF105
	.byte	0xb
	.byte	0xcf
	.byte	0xc
	.long	0x95
	.byte	0x4
	.uleb128 0x3
	.long	.LASF32
	.byte	0xb
	.byte	0xd0
	.byte	0xc
	.long	0x95
	.byte	0x6
	.uleb128 0x3
	.long	.LASF106
	.byte	0xb
	.byte	0xd1
	.byte	0xc
	.long	0x95
	.byte	0x8
	.byte	0
	.uleb128 0x7
	.long	.LASF107
	.byte	0xb
	.byte	0xd2
	.byte	0x3
	.long	0x4f2
	.uleb128 0xe
	.byte	0x7
	.long	0x77
	.byte	0xc
	.byte	0x1f
	.byte	0x1
	.long	0x894
	.uleb128 0x1
	.long	.LASF108
	.byte	0
	.uleb128 0x1
	.long	.LASF109
	.byte	0x1
	.uleb128 0x1
	.long	.LASF110
	.byte	0x2
	.uleb128 0x1
	.long	.LASF111
	.byte	0x3
	.uleb128 0x1
	.long	.LASF112
	.byte	0x4
	.uleb128 0x1
	.long	.LASF113
	.byte	0x5
	.uleb128 0x1
	.long	.LASF114
	.byte	0x6
	.uleb128 0x1
	.long	.LASF115
	.byte	0x7
	.uleb128 0x1
	.long	.LASF116
	.byte	0x8
	.uleb128 0x1
	.long	.LASF117
	.byte	0x9
	.uleb128 0x1
	.long	.LASF118
	.byte	0xa
	.uleb128 0x1
	.long	.LASF119
	.byte	0xb
	.uleb128 0x1
	.long	.LASF120
	.byte	0xc
	.uleb128 0x1
	.long	.LASF121
	.byte	0xd
	.uleb128 0x1
	.long	.LASF122
	.byte	0xe
	.uleb128 0x1
	.long	.LASF123
	.byte	0xf
	.uleb128 0x1
	.long	.LASF124
	.byte	0x10
	.uleb128 0x1
	.long	.LASF125
	.byte	0x11
	.uleb128 0x1
	.long	.LASF126
	.byte	0x12
	.uleb128 0x1
	.long	.LASF127
	.byte	0x13
	.uleb128 0x1
	.long	.LASF128
	.byte	0x14
	.uleb128 0x1
	.long	.LASF129
	.byte	0x15
	.uleb128 0x1
	.long	.LASF130
	.byte	0x16
	.uleb128 0x1
	.long	.LASF131
	.byte	0x17
	.uleb128 0x1
	.long	.LASF132
	.byte	0x18
	.uleb128 0x1
	.long	.LASF133
	.byte	0x19
	.uleb128 0x1
	.long	.LASF134
	.byte	0x1a
	.uleb128 0x1
	.long	.LASF135
	.byte	0x1b
	.uleb128 0x1
	.long	.LASF136
	.byte	0x1c
	.uleb128 0x1
	.long	.LASF137
	.byte	0x1d
	.uleb128 0x1
	.long	.LASF138
	.byte	0x1e
	.uleb128 0x1
	.long	.LASF139
	.byte	0x1f
	.uleb128 0x1
	.long	.LASF140
	.byte	0x20
	.uleb128 0x1
	.long	.LASF141
	.byte	0x21
	.uleb128 0x1
	.long	.LASF142
	.byte	0x22
	.uleb128 0x1
	.long	.LASF143
	.byte	0x23
	.uleb128 0x1
	.long	.LASF144
	.byte	0x24
	.uleb128 0x1
	.long	.LASF145
	.byte	0x25
	.uleb128 0x1
	.long	.LASF146
	.byte	0x26
	.uleb128 0x1
	.long	.LASF147
	.byte	0x27
	.uleb128 0x1
	.long	.LASF148
	.byte	0x28
	.uleb128 0x1
	.long	.LASF149
	.byte	0x29
	.uleb128 0x1
	.long	.LASF150
	.byte	0x2a
	.uleb128 0x1
	.long	.LASF151
	.byte	0x2b
	.uleb128 0x1
	.long	.LASF152
	.byte	0x2c
	.uleb128 0x1
	.long	.LASF153
	.byte	0x2d
	.uleb128 0x1
	.long	.LASF154
	.byte	0x2e
	.uleb128 0x1
	.long	.LASF155
	.byte	0x2f
	.uleb128 0x1
	.long	.LASF156
	.byte	0x30
	.uleb128 0x1
	.long	.LASF157
	.byte	0x31
	.uleb128 0x1
	.long	.LASF158
	.byte	0x32
	.uleb128 0x1
	.long	.LASF159
	.byte	0x33
	.uleb128 0x1
	.long	.LASF160
	.byte	0x34
	.uleb128 0x1
	.long	.LASF161
	.byte	0x35
	.uleb128 0x1
	.long	.LASF162
	.byte	0x36
	.uleb128 0x1
	.long	.LASF163
	.byte	0x37
	.uleb128 0x1
	.long	.LASF164
	.byte	0x38
	.uleb128 0x1
	.long	.LASF165
	.byte	0x39
	.uleb128 0x1
	.long	.LASF166
	.byte	0x3a
	.uleb128 0x1
	.long	.LASF167
	.byte	0x3b
	.uleb128 0x1
	.long	.LASF168
	.byte	0x3c
	.uleb128 0x1
	.long	.LASF169
	.byte	0x3d
	.uleb128 0x1
	.long	.LASF170
	.byte	0x3e
	.uleb128 0x1
	.long	.LASF171
	.byte	0x3f
	.uleb128 0x1
	.long	.LASF172
	.byte	0x40
	.uleb128 0x1
	.long	.LASF173
	.byte	0x41
	.uleb128 0x1
	.long	.LASF174
	.byte	0x42
	.uleb128 0x1
	.long	.LASF175
	.byte	0x43
	.uleb128 0x1
	.long	.LASF176
	.byte	0x44
	.uleb128 0x1
	.long	.LASF177
	.byte	0x45
	.uleb128 0x1
	.long	.LASF178
	.byte	0x46
	.uleb128 0x1
	.long	.LASF179
	.byte	0x47
	.uleb128 0x1
	.long	.LASF180
	.byte	0x48
	.uleb128 0x1
	.long	.LASF181
	.byte	0x49
	.uleb128 0x1
	.long	.LASF182
	.byte	0x4a
	.uleb128 0x1
	.long	.LASF183
	.byte	0x4b
	.uleb128 0x1
	.long	.LASF184
	.byte	0x4c
	.uleb128 0x1
	.long	.LASF185
	.byte	0x4d
	.uleb128 0x1
	.long	.LASF186
	.byte	0x4e
	.uleb128 0x1
	.long	.LASF187
	.byte	0x4f
	.uleb128 0x1
	.long	.LASF188
	.byte	0x50
	.uleb128 0x1
	.long	.LASF189
	.byte	0x51
	.uleb128 0x1
	.long	.LASF190
	.byte	0x52
	.uleb128 0x1
	.long	.LASF191
	.byte	0x53
	.uleb128 0x1
	.long	.LASF192
	.byte	0x54
	.uleb128 0x1
	.long	.LASF193
	.byte	0x55
	.uleb128 0x1
	.long	.LASF194
	.byte	0x56
	.uleb128 0x1
	.long	.LASF195
	.byte	0x57
	.uleb128 0x1
	.long	.LASF196
	.byte	0x58
	.uleb128 0x1
	.long	.LASF197
	.byte	0x59
	.uleb128 0x1
	.long	.LASF198
	.byte	0x5a
	.uleb128 0x1
	.long	.LASF199
	.byte	0x5b
	.uleb128 0x1
	.long	.LASF200
	.byte	0x5c
	.uleb128 0x1
	.long	.LASF201
	.byte	0x5d
	.uleb128 0x1
	.long	.LASF202
	.byte	0x5e
	.uleb128 0x1
	.long	.LASF203
	.byte	0x5f
	.uleb128 0x1
	.long	.LASF204
	.byte	0x60
	.uleb128 0x1
	.long	.LASF205
	.byte	0x61
	.uleb128 0x1
	.long	.LASF206
	.byte	0x62
	.uleb128 0x1
	.long	.LASF207
	.byte	0x63
	.uleb128 0x1
	.long	.LASF208
	.byte	0x64
	.uleb128 0x1
	.long	.LASF209
	.byte	0x65
	.uleb128 0x1
	.long	.LASF210
	.byte	0x66
	.uleb128 0x1
	.long	.LASF211
	.byte	0x67
	.uleb128 0x1
	.long	.LASF212
	.byte	0x68
	.uleb128 0x1
	.long	.LASF213
	.byte	0x69
	.uleb128 0x1
	.long	.LASF214
	.byte	0x6a
	.uleb128 0x1
	.long	.LASF215
	.byte	0x6b
	.uleb128 0x1
	.long	.LASF216
	.byte	0x6c
	.uleb128 0x1
	.long	.LASF217
	.byte	0x6d
	.uleb128 0x1
	.long	.LASF218
	.byte	0x6e
	.uleb128 0x1
	.long	.LASF219
	.byte	0x6f
	.uleb128 0x1
	.long	.LASF220
	.byte	0x70
	.uleb128 0x1
	.long	.LASF221
	.byte	0x71
	.uleb128 0x1
	.long	.LASF222
	.byte	0x72
	.uleb128 0x1
	.long	.LASF223
	.byte	0x73
	.uleb128 0x1
	.long	.LASF224
	.byte	0x74
	.uleb128 0x1
	.long	.LASF225
	.byte	0x75
	.uleb128 0x1
	.long	.LASF226
	.byte	0x76
	.uleb128 0x1
	.long	.LASF227
	.byte	0x77
	.uleb128 0x1
	.long	.LASF228
	.byte	0x78
	.uleb128 0x1
	.long	.LASF229
	.byte	0x79
	.uleb128 0x1
	.long	.LASF230
	.byte	0x7a
	.uleb128 0x1
	.long	.LASF231
	.byte	0x7b
	.uleb128 0x1
	.long	.LASF232
	.byte	0x7c
	.uleb128 0x1
	.long	.LASF233
	.byte	0x7d
	.uleb128 0x1
	.long	.LASF234
	.byte	0x7e
	.uleb128 0x1
	.long	.LASF235
	.byte	0x7f
	.uleb128 0x1
	.long	.LASF236
	.byte	0x80
	.uleb128 0x1
	.long	.LASF237
	.byte	0x81
	.uleb128 0x1
	.long	.LASF238
	.byte	0x82
	.uleb128 0x1
	.long	.LASF239
	.byte	0x83
	.uleb128 0x1
	.long	.LASF240
	.byte	0x84
	.uleb128 0x1
	.long	.LASF241
	.byte	0x85
	.uleb128 0x1
	.long	.LASF242
	.byte	0x86
	.uleb128 0x1
	.long	.LASF243
	.byte	0x87
	.uleb128 0x1
	.long	.LASF244
	.byte	0x88
	.uleb128 0x1
	.long	.LASF245
	.byte	0x89
	.uleb128 0x1
	.long	.LASF246
	.byte	0x8a
	.byte	0
	.uleb128 0x7
	.long	.LASF247
	.byte	0xc
	.byte	0xac
	.byte	0x3
	.long	0x544
	.uleb128 0xe
	.byte	0x7
	.long	0x77
	.byte	0xc
	.byte	0xaf
	.byte	0x1
	.long	0x2226
	.uleb128 0x1
	.long	.LASF248
	.byte	0
	.uleb128 0x1
	.long	.LASF249
	.byte	0x1
	.uleb128 0x1
	.long	.LASF250
	.byte	0x2
	.uleb128 0x1
	.long	.LASF251
	.byte	0x3
	.uleb128 0x1
	.long	.LASF252
	.byte	0x4
	.uleb128 0x1
	.long	.LASF253
	.byte	0x5
	.uleb128 0x1
	.long	.LASF254
	.byte	0x6
	.uleb128 0x1
	.long	.LASF255
	.byte	0x7
	.uleb128 0x1
	.long	.LASF256
	.byte	0x8
	.uleb128 0x1
	.long	.LASF257
	.byte	0x9
	.uleb128 0x1
	.long	.LASF258
	.byte	0xa
	.uleb128 0x1
	.long	.LASF259
	.byte	0xb
	.uleb128 0x1
	.long	.LASF260
	.byte	0xc
	.uleb128 0x1
	.long	.LASF261
	.byte	0xd
	.uleb128 0x1
	.long	.LASF262
	.byte	0xe
	.uleb128 0x1
	.long	.LASF263
	.byte	0xf
	.uleb128 0x1
	.long	.LASF264
	.byte	0x10
	.uleb128 0x1
	.long	.LASF265
	.byte	0x11
	.uleb128 0x1
	.long	.LASF266
	.byte	0x12
	.uleb128 0x1
	.long	.LASF267
	.byte	0x13
	.uleb128 0x1
	.long	.LASF268
	.byte	0x14
	.uleb128 0x1
	.long	.LASF269
	.byte	0x15
	.uleb128 0x1
	.long	.LASF270
	.byte	0x16
	.uleb128 0x1
	.long	.LASF271
	.byte	0x17
	.uleb128 0x1
	.long	.LASF272
	.byte	0x18
	.uleb128 0x1
	.long	.LASF273
	.byte	0x19
	.uleb128 0x1
	.long	.LASF274
	.byte	0x1a
	.uleb128 0x1
	.long	.LASF275
	.byte	0x1b
	.uleb128 0x1
	.long	.LASF276
	.byte	0x1c
	.uleb128 0x1
	.long	.LASF277
	.byte	0x1d
	.uleb128 0x1
	.long	.LASF278
	.byte	0x1e
	.uleb128 0x1
	.long	.LASF279
	.byte	0x1f
	.uleb128 0x1
	.long	.LASF280
	.byte	0x20
	.uleb128 0x1
	.long	.LASF281
	.byte	0x21
	.uleb128 0x1
	.long	.LASF282
	.byte	0x22
	.uleb128 0x1
	.long	.LASF283
	.byte	0x23
	.uleb128 0x1
	.long	.LASF284
	.byte	0x24
	.uleb128 0x1
	.long	.LASF285
	.byte	0x25
	.uleb128 0x1
	.long	.LASF286
	.byte	0x26
	.uleb128 0x1
	.long	.LASF287
	.byte	0x27
	.uleb128 0x1
	.long	.LASF288
	.byte	0x28
	.uleb128 0x1
	.long	.LASF289
	.byte	0x29
	.uleb128 0x1
	.long	.LASF290
	.byte	0x2a
	.uleb128 0x1
	.long	.LASF291
	.byte	0x2b
	.uleb128 0x1
	.long	.LASF292
	.byte	0x2c
	.uleb128 0x1
	.long	.LASF293
	.byte	0x2d
	.uleb128 0x1
	.long	.LASF294
	.byte	0x2e
	.uleb128 0x1
	.long	.LASF295
	.byte	0x2f
	.uleb128 0x1
	.long	.LASF296
	.byte	0x30
	.uleb128 0x1
	.long	.LASF297
	.byte	0x31
	.uleb128 0x1
	.long	.LASF298
	.byte	0x32
	.uleb128 0x1
	.long	.LASF299
	.byte	0x33
	.uleb128 0x1
	.long	.LASF300
	.byte	0x34
	.uleb128 0x1
	.long	.LASF301
	.byte	0x35
	.uleb128 0x1
	.long	.LASF302
	.byte	0x36
	.uleb128 0x1
	.long	.LASF303
	.byte	0x37
	.uleb128 0x1
	.long	.LASF304
	.byte	0x38
	.uleb128 0x1
	.long	.LASF305
	.byte	0x39
	.uleb128 0x1
	.long	.LASF306
	.byte	0x3a
	.uleb128 0x1
	.long	.LASF307
	.byte	0x3b
	.uleb128 0x1
	.long	.LASF308
	.byte	0x3c
	.uleb128 0x1
	.long	.LASF309
	.byte	0x3d
	.uleb128 0x1
	.long	.LASF310
	.byte	0x3e
	.uleb128 0x1
	.long	.LASF311
	.byte	0x3f
	.uleb128 0x1
	.long	.LASF312
	.byte	0x40
	.uleb128 0x1
	.long	.LASF313
	.byte	0x41
	.uleb128 0x1
	.long	.LASF314
	.byte	0x42
	.uleb128 0x1
	.long	.LASF315
	.byte	0x43
	.uleb128 0x1
	.long	.LASF316
	.byte	0x44
	.uleb128 0x1
	.long	.LASF317
	.byte	0x45
	.uleb128 0x1
	.long	.LASF318
	.byte	0x46
	.uleb128 0x1
	.long	.LASF319
	.byte	0x47
	.uleb128 0x1
	.long	.LASF320
	.byte	0x48
	.uleb128 0x1
	.long	.LASF321
	.byte	0x49
	.uleb128 0x1
	.long	.LASF322
	.byte	0x4a
	.uleb128 0x1
	.long	.LASF323
	.byte	0x4b
	.uleb128 0x1
	.long	.LASF324
	.byte	0x4c
	.uleb128 0x1
	.long	.LASF325
	.byte	0x4d
	.uleb128 0x1
	.long	.LASF326
	.byte	0x4e
	.uleb128 0x1
	.long	.LASF327
	.byte	0x4f
	.uleb128 0x1
	.long	.LASF328
	.byte	0x50
	.uleb128 0x1
	.long	.LASF329
	.byte	0x51
	.uleb128 0x1
	.long	.LASF330
	.byte	0x52
	.uleb128 0x1
	.long	.LASF331
	.byte	0x53
	.uleb128 0x1
	.long	.LASF332
	.byte	0x54
	.uleb128 0x1
	.long	.LASF333
	.byte	0x55
	.uleb128 0x1
	.long	.LASF334
	.byte	0x56
	.uleb128 0x1
	.long	.LASF335
	.byte	0x57
	.uleb128 0x1
	.long	.LASF336
	.byte	0x58
	.uleb128 0x1
	.long	.LASF337
	.byte	0x59
	.uleb128 0x1
	.long	.LASF338
	.byte	0x5a
	.uleb128 0x1
	.long	.LASF339
	.byte	0x5b
	.uleb128 0x1
	.long	.LASF340
	.byte	0x5c
	.uleb128 0x1
	.long	.LASF341
	.byte	0x5d
	.uleb128 0x1
	.long	.LASF342
	.byte	0x5e
	.uleb128 0x1
	.long	.LASF343
	.byte	0x5f
	.uleb128 0x1
	.long	.LASF344
	.byte	0x60
	.uleb128 0x1
	.long	.LASF345
	.byte	0x61
	.uleb128 0x1
	.long	.LASF346
	.byte	0x62
	.uleb128 0x1
	.long	.LASF347
	.byte	0x63
	.uleb128 0x1
	.long	.LASF348
	.byte	0x64
	.uleb128 0x1
	.long	.LASF349
	.byte	0x65
	.uleb128 0x1
	.long	.LASF350
	.byte	0x66
	.uleb128 0x1
	.long	.LASF351
	.byte	0x67
	.uleb128 0x1
	.long	.LASF352
	.byte	0x68
	.uleb128 0x1
	.long	.LASF353
	.byte	0x69
	.uleb128 0x1
	.long	.LASF354
	.byte	0x6a
	.uleb128 0x1
	.long	.LASF355
	.byte	0x6b
	.uleb128 0x1
	.long	.LASF356
	.byte	0x6c
	.uleb128 0x1
	.long	.LASF357
	.byte	0x6d
	.uleb128 0x1
	.long	.LASF358
	.byte	0x6e
	.uleb128 0x1
	.long	.LASF359
	.byte	0x6f
	.uleb128 0x1
	.long	.LASF360
	.byte	0x70
	.uleb128 0x1
	.long	.LASF361
	.byte	0x71
	.uleb128 0x1
	.long	.LASF362
	.byte	0x72
	.uleb128 0x1
	.long	.LASF363
	.byte	0x73
	.uleb128 0x1
	.long	.LASF364
	.byte	0x74
	.uleb128 0x1
	.long	.LASF365
	.byte	0x75
	.uleb128 0x1
	.long	.LASF366
	.byte	0x76
	.uleb128 0x1
	.long	.LASF367
	.byte	0x77
	.uleb128 0x1
	.long	.LASF368
	.byte	0x78
	.uleb128 0x1
	.long	.LASF369
	.byte	0x79
	.uleb128 0x1
	.long	.LASF370
	.byte	0x7a
	.uleb128 0x1
	.long	.LASF371
	.byte	0x7b
	.uleb128 0x1
	.long	.LASF372
	.byte	0x7c
	.uleb128 0x1
	.long	.LASF373
	.byte	0x7d
	.uleb128 0x1
	.long	.LASF374
	.byte	0x7e
	.uleb128 0x1
	.long	.LASF375
	.byte	0x7f
	.uleb128 0x1
	.long	.LASF376
	.byte	0x80
	.uleb128 0x1
	.long	.LASF377
	.byte	0x81
	.uleb128 0x1
	.long	.LASF378
	.byte	0x82
	.uleb128 0x1
	.long	.LASF379
	.byte	0x83
	.uleb128 0x1
	.long	.LASF380
	.byte	0x84
	.uleb128 0x1
	.long	.LASF381
	.byte	0x85
	.uleb128 0x1
	.long	.LASF382
	.byte	0x86
	.uleb128 0x1
	.long	.LASF383
	.byte	0x87
	.uleb128 0x1
	.long	.LASF384
	.byte	0x88
	.uleb128 0x1
	.long	.LASF385
	.byte	0x89
	.uleb128 0x1
	.long	.LASF386
	.byte	0x8a
	.uleb128 0x1
	.long	.LASF387
	.byte	0x8b
	.uleb128 0x1
	.long	.LASF388
	.byte	0x8c
	.uleb128 0x1
	.long	.LASF389
	.byte	0x8d
	.uleb128 0x1
	.long	.LASF390
	.byte	0x8e
	.uleb128 0x1
	.long	.LASF391
	.byte	0x8f
	.uleb128 0x1
	.long	.LASF392
	.byte	0x90
	.uleb128 0x1
	.long	.LASF393
	.byte	0x91
	.uleb128 0x1
	.long	.LASF394
	.byte	0x92
	.uleb128 0x1
	.long	.LASF395
	.byte	0x93
	.uleb128 0x1
	.long	.LASF396
	.byte	0x94
	.uleb128 0x1
	.long	.LASF397
	.byte	0x95
	.uleb128 0x1
	.long	.LASF398
	.byte	0x96
	.uleb128 0x1
	.long	.LASF399
	.byte	0x97
	.uleb128 0x1
	.long	.LASF400
	.byte	0x98
	.uleb128 0x1
	.long	.LASF401
	.byte	0x99
	.uleb128 0x1
	.long	.LASF402
	.byte	0x9a
	.uleb128 0x1
	.long	.LASF403
	.byte	0x9b
	.uleb128 0x1
	.long	.LASF404
	.byte	0x9c
	.uleb128 0x1
	.long	.LASF405
	.byte	0x9d
	.uleb128 0x1
	.long	.LASF406
	.byte	0x9e
	.uleb128 0x1
	.long	.LASF407
	.byte	0x9f
	.uleb128 0x1
	.long	.LASF408
	.byte	0xa0
	.uleb128 0x1
	.long	.LASF409
	.byte	0xa1
	.uleb128 0x1
	.long	.LASF410
	.byte	0xa2
	.uleb128 0x1
	.long	.LASF411
	.byte	0xa3
	.uleb128 0x1
	.long	.LASF412
	.byte	0xa4
	.uleb128 0x1
	.long	.LASF413
	.byte	0xa5
	.uleb128 0x1
	.long	.LASF414
	.byte	0xa6
	.uleb128 0x1
	.long	.LASF415
	.byte	0xa7
	.uleb128 0x1
	.long	.LASF416
	.byte	0xa8
	.uleb128 0x1
	.long	.LASF417
	.byte	0xa9
	.uleb128 0x1
	.long	.LASF418
	.byte	0xaa
	.uleb128 0x1
	.long	.LASF419
	.byte	0xab
	.uleb128 0x1
	.long	.LASF420
	.byte	0xac
	.uleb128 0x1
	.long	.LASF421
	.byte	0xad
	.uleb128 0x1
	.long	.LASF422
	.byte	0xae
	.uleb128 0x1
	.long	.LASF423
	.byte	0xaf
	.uleb128 0x1
	.long	.LASF424
	.byte	0xb0
	.uleb128 0x1
	.long	.LASF425
	.byte	0xb1
	.uleb128 0x1
	.long	.LASF426
	.byte	0xb2
	.uleb128 0x1
	.long	.LASF427
	.byte	0xb3
	.uleb128 0x1
	.long	.LASF428
	.byte	0xb4
	.uleb128 0x1
	.long	.LASF429
	.byte	0xb5
	.uleb128 0x1
	.long	.LASF430
	.byte	0xb6
	.uleb128 0x1
	.long	.LASF431
	.byte	0xb7
	.uleb128 0x1
	.long	.LASF432
	.byte	0xb8
	.uleb128 0x1
	.long	.LASF433
	.byte	0xb9
	.uleb128 0x1
	.long	.LASF434
	.byte	0xba
	.uleb128 0x1
	.long	.LASF435
	.byte	0xbb
	.uleb128 0x1
	.long	.LASF436
	.byte	0xbc
	.uleb128 0x1
	.long	.LASF437
	.byte	0xbd
	.uleb128 0x1
	.long	.LASF438
	.byte	0xbe
	.uleb128 0x1
	.long	.LASF439
	.byte	0xbf
	.uleb128 0x1
	.long	.LASF440
	.byte	0xc0
	.uleb128 0x1
	.long	.LASF441
	.byte	0xc1
	.uleb128 0x1
	.long	.LASF442
	.byte	0xc2
	.uleb128 0x1
	.long	.LASF443
	.byte	0xc3
	.uleb128 0x1
	.long	.LASF444
	.byte	0xc4
	.uleb128 0x1
	.long	.LASF445
	.byte	0xc5
	.uleb128 0x1
	.long	.LASF446
	.byte	0xc6
	.uleb128 0x1
	.long	.LASF447
	.byte	0xc7
	.uleb128 0x1
	.long	.LASF448
	.byte	0xc8
	.uleb128 0x1
	.long	.LASF449
	.byte	0xc9
	.uleb128 0x1
	.long	.LASF450
	.byte	0xca
	.uleb128 0x1
	.long	.LASF451
	.byte	0xcb
	.uleb128 0x1
	.long	.LASF452
	.byte	0xcc
	.uleb128 0x1
	.long	.LASF453
	.byte	0xcd
	.uleb128 0x1
	.long	.LASF454
	.byte	0xce
	.uleb128 0x1
	.long	.LASF455
	.byte	0xcf
	.uleb128 0x1
	.long	.LASF456
	.byte	0xd0
	.uleb128 0x1
	.long	.LASF457
	.byte	0xd1
	.uleb128 0x1
	.long	.LASF458
	.byte	0xd2
	.uleb128 0x1
	.long	.LASF459
	.byte	0xd3
	.uleb128 0x1
	.long	.LASF460
	.byte	0xd4
	.uleb128 0x1
	.long	.LASF461
	.byte	0xd5
	.uleb128 0x1
	.long	.LASF462
	.byte	0xd6
	.uleb128 0x1
	.long	.LASF463
	.byte	0xd7
	.uleb128 0x1
	.long	.LASF464
	.byte	0xd8
	.uleb128 0x1
	.long	.LASF465
	.byte	0xd9
	.uleb128 0x1
	.long	.LASF466
	.byte	0xda
	.uleb128 0x1
	.long	.LASF467
	.byte	0xdb
	.uleb128 0x1
	.long	.LASF468
	.byte	0xdc
	.uleb128 0x1
	.long	.LASF469
	.byte	0xdd
	.uleb128 0x1
	.long	.LASF470
	.byte	0xde
	.uleb128 0x1
	.long	.LASF471
	.byte	0xdf
	.uleb128 0x1
	.long	.LASF472
	.byte	0xe0
	.uleb128 0x1
	.long	.LASF473
	.byte	0xe1
	.uleb128 0x1
	.long	.LASF474
	.byte	0xe2
	.uleb128 0x1
	.long	.LASF475
	.byte	0xe3
	.uleb128 0x1
	.long	.LASF476
	.byte	0xe4
	.uleb128 0x1
	.long	.LASF477
	.byte	0xe5
	.uleb128 0x1
	.long	.LASF478
	.byte	0xe6
	.uleb128 0x1
	.long	.LASF479
	.byte	0xe7
	.uleb128 0x1
	.long	.LASF480
	.byte	0xe8
	.uleb128 0x1
	.long	.LASF481
	.byte	0xe9
	.uleb128 0x1
	.long	.LASF482
	.byte	0xea
	.uleb128 0x1
	.long	.LASF483
	.byte	0xeb
	.uleb128 0x1
	.long	.LASF484
	.byte	0xec
	.uleb128 0x1
	.long	.LASF485
	.byte	0xed
	.uleb128 0x1
	.long	.LASF486
	.byte	0xee
	.uleb128 0x1
	.long	.LASF487
	.byte	0xef
	.uleb128 0x1
	.long	.LASF488
	.byte	0xf0
	.uleb128 0x1
	.long	.LASF489
	.byte	0xf1
	.uleb128 0x1
	.long	.LASF490
	.byte	0xf2
	.uleb128 0x1
	.long	.LASF491
	.byte	0xf3
	.uleb128 0x1
	.long	.LASF492
	.byte	0xf4
	.uleb128 0x1
	.long	.LASF493
	.byte	0xf5
	.uleb128 0x1
	.long	.LASF494
	.byte	0xf6
	.uleb128 0x1
	.long	.LASF495
	.byte	0xf7
	.uleb128 0x1
	.long	.LASF496
	.byte	0xf8
	.uleb128 0x1
	.long	.LASF497
	.byte	0xf9
	.uleb128 0x1
	.long	.LASF498
	.byte	0xfa
	.uleb128 0x1
	.long	.LASF499
	.byte	0xfb
	.uleb128 0x1
	.long	.LASF500
	.byte	0xfc
	.uleb128 0x1
	.long	.LASF501
	.byte	0xfd
	.uleb128 0x1
	.long	.LASF502
	.byte	0xfe
	.uleb128 0x1
	.long	.LASF503
	.byte	0xff
	.uleb128 0x2
	.long	.LASF504
	.value	0x100
	.uleb128 0x2
	.long	.LASF505
	.value	0x101
	.uleb128 0x2
	.long	.LASF506
	.value	0x102
	.uleb128 0x2
	.long	.LASF507
	.value	0x103
	.uleb128 0x2
	.long	.LASF508
	.value	0x104
	.uleb128 0x2
	.long	.LASF509
	.value	0x105
	.uleb128 0x2
	.long	.LASF510
	.value	0x106
	.uleb128 0x2
	.long	.LASF511
	.value	0x107
	.uleb128 0x2
	.long	.LASF512
	.value	0x108
	.uleb128 0x2
	.long	.LASF513
	.value	0x109
	.uleb128 0x2
	.long	.LASF514
	.value	0x10a
	.uleb128 0x2
	.long	.LASF515
	.value	0x10b
	.uleb128 0x2
	.long	.LASF516
	.value	0x10c
	.uleb128 0x2
	.long	.LASF517
	.value	0x10d
	.uleb128 0x2
	.long	.LASF518
	.value	0x10e
	.uleb128 0x2
	.long	.LASF519
	.value	0x10f
	.uleb128 0x2
	.long	.LASF520
	.value	0x110
	.uleb128 0x2
	.long	.LASF521
	.value	0x111
	.uleb128 0x2
	.long	.LASF522
	.value	0x112
	.uleb128 0x2
	.long	.LASF523
	.value	0x113
	.uleb128 0x2
	.long	.LASF524
	.value	0x114
	.uleb128 0x2
	.long	.LASF525
	.value	0x115
	.uleb128 0x2
	.long	.LASF526
	.value	0x116
	.uleb128 0x2
	.long	.LASF527
	.value	0x117
	.uleb128 0x2
	.long	.LASF528
	.value	0x118
	.uleb128 0x2
	.long	.LASF529
	.value	0x119
	.uleb128 0x2
	.long	.LASF530
	.value	0x11a
	.uleb128 0x2
	.long	.LASF531
	.value	0x11b
	.uleb128 0x2
	.long	.LASF532
	.value	0x11c
	.uleb128 0x2
	.long	.LASF533
	.value	0x11d
	.uleb128 0x2
	.long	.LASF534
	.value	0x11e
	.uleb128 0x2
	.long	.LASF535
	.value	0x11f
	.uleb128 0x2
	.long	.LASF536
	.value	0x120
	.uleb128 0x2
	.long	.LASF537
	.value	0x121
	.uleb128 0x2
	.long	.LASF538
	.value	0x122
	.uleb128 0x2
	.long	.LASF539
	.value	0x123
	.uleb128 0x2
	.long	.LASF540
	.value	0x124
	.uleb128 0x2
	.long	.LASF541
	.value	0x125
	.uleb128 0x2
	.long	.LASF542
	.value	0x126
	.uleb128 0x2
	.long	.LASF543
	.value	0x127
	.uleb128 0x2
	.long	.LASF544
	.value	0x128
	.uleb128 0x2
	.long	.LASF545
	.value	0x129
	.uleb128 0x2
	.long	.LASF546
	.value	0x12a
	.uleb128 0x2
	.long	.LASF547
	.value	0x12b
	.uleb128 0x2
	.long	.LASF548
	.value	0x12c
	.uleb128 0x2
	.long	.LASF549
	.value	0x12d
	.uleb128 0x2
	.long	.LASF550
	.value	0x12e
	.uleb128 0x2
	.long	.LASF551
	.value	0x12f
	.uleb128 0x2
	.long	.LASF552
	.value	0x130
	.uleb128 0x2
	.long	.LASF553
	.value	0x131
	.uleb128 0x2
	.long	.LASF554
	.value	0x132
	.uleb128 0x2
	.long	.LASF555
	.value	0x133
	.uleb128 0x2
	.long	.LASF556
	.value	0x134
	.uleb128 0x2
	.long	.LASF557
	.value	0x135
	.uleb128 0x2
	.long	.LASF558
	.value	0x136
	.uleb128 0x2
	.long	.LASF559
	.value	0x137
	.uleb128 0x2
	.long	.LASF560
	.value	0x138
	.uleb128 0x2
	.long	.LASF561
	.value	0x139
	.uleb128 0x2
	.long	.LASF562
	.value	0x13a
	.uleb128 0x2
	.long	.LASF563
	.value	0x13b
	.uleb128 0x2
	.long	.LASF564
	.value	0x13c
	.uleb128 0x2
	.long	.LASF565
	.value	0x13d
	.uleb128 0x2
	.long	.LASF566
	.value	0x13e
	.uleb128 0x2
	.long	.LASF567
	.value	0x13f
	.uleb128 0x2
	.long	.LASF568
	.value	0x140
	.uleb128 0x2
	.long	.LASF569
	.value	0x141
	.uleb128 0x2
	.long	.LASF570
	.value	0x142
	.uleb128 0x2
	.long	.LASF571
	.value	0x143
	.uleb128 0x2
	.long	.LASF572
	.value	0x144
	.uleb128 0x2
	.long	.LASF573
	.value	0x145
	.uleb128 0x2
	.long	.LASF574
	.value	0x146
	.uleb128 0x2
	.long	.LASF575
	.value	0x147
	.uleb128 0x2
	.long	.LASF576
	.value	0x148
	.uleb128 0x2
	.long	.LASF577
	.value	0x149
	.uleb128 0x2
	.long	.LASF578
	.value	0x14a
	.uleb128 0x2
	.long	.LASF579
	.value	0x14b
	.uleb128 0x2
	.long	.LASF580
	.value	0x14c
	.uleb128 0x2
	.long	.LASF581
	.value	0x14d
	.uleb128 0x2
	.long	.LASF582
	.value	0x14e
	.uleb128 0x2
	.long	.LASF583
	.value	0x14f
	.uleb128 0x2
	.long	.LASF584
	.value	0x150
	.uleb128 0x2
	.long	.LASF585
	.value	0x151
	.uleb128 0x2
	.long	.LASF586
	.value	0x152
	.uleb128 0x2
	.long	.LASF587
	.value	0x153
	.uleb128 0x2
	.long	.LASF588
	.value	0x154
	.uleb128 0x2
	.long	.LASF589
	.value	0x155
	.uleb128 0x2
	.long	.LASF590
	.value	0x156
	.uleb128 0x2
	.long	.LASF591
	.value	0x157
	.uleb128 0x2
	.long	.LASF592
	.value	0x158
	.uleb128 0x2
	.long	.LASF593
	.value	0x159
	.uleb128 0x2
	.long	.LASF594
	.value	0x15a
	.uleb128 0x2
	.long	.LASF595
	.value	0x15b
	.uleb128 0x2
	.long	.LASF596
	.value	0x15c
	.uleb128 0x2
	.long	.LASF597
	.value	0x15d
	.uleb128 0x2
	.long	.LASF598
	.value	0x15e
	.uleb128 0x2
	.long	.LASF599
	.value	0x15f
	.uleb128 0x2
	.long	.LASF600
	.value	0x160
	.uleb128 0x2
	.long	.LASF601
	.value	0x161
	.uleb128 0x2
	.long	.LASF602
	.value	0x162
	.uleb128 0x2
	.long	.LASF603
	.value	0x163
	.uleb128 0x2
	.long	.LASF604
	.value	0x164
	.uleb128 0x2
	.long	.LASF605
	.value	0x165
	.uleb128 0x2
	.long	.LASF606
	.value	0x166
	.uleb128 0x2
	.long	.LASF607
	.value	0x167
	.uleb128 0x2
	.long	.LASF608
	.value	0x168
	.uleb128 0x2
	.long	.LASF609
	.value	0x169
	.uleb128 0x2
	.long	.LASF610
	.value	0x16a
	.uleb128 0x2
	.long	.LASF611
	.value	0x16b
	.uleb128 0x2
	.long	.LASF612
	.value	0x16c
	.uleb128 0x2
	.long	.LASF613
	.value	0x16d
	.uleb128 0x2
	.long	.LASF614
	.value	0x16e
	.uleb128 0x2
	.long	.LASF615
	.value	0x16f
	.uleb128 0x2
	.long	.LASF616
	.value	0x170
	.uleb128 0x2
	.long	.LASF617
	.value	0x171
	.uleb128 0x2
	.long	.LASF618
	.value	0x172
	.uleb128 0x2
	.long	.LASF619
	.value	0x173
	.uleb128 0x2
	.long	.LASF620
	.value	0x174
	.uleb128 0x2
	.long	.LASF621
	.value	0x175
	.uleb128 0x2
	.long	.LASF622
	.value	0x176
	.uleb128 0x2
	.long	.LASF623
	.value	0x177
	.uleb128 0x2
	.long	.LASF624
	.value	0x178
	.uleb128 0x2
	.long	.LASF625
	.value	0x179
	.uleb128 0x2
	.long	.LASF626
	.value	0x17a
	.uleb128 0x2
	.long	.LASF627
	.value	0x17b
	.uleb128 0x2
	.long	.LASF628
	.value	0x17c
	.uleb128 0x2
	.long	.LASF629
	.value	0x17d
	.uleb128 0x2
	.long	.LASF630
	.value	0x17e
	.uleb128 0x2
	.long	.LASF631
	.value	0x17f
	.uleb128 0x2
	.long	.LASF632
	.value	0x180
	.uleb128 0x2
	.long	.LASF633
	.value	0x181
	.uleb128 0x2
	.long	.LASF634
	.value	0x182
	.uleb128 0x2
	.long	.LASF635
	.value	0x183
	.uleb128 0x2
	.long	.LASF636
	.value	0x184
	.uleb128 0x2
	.long	.LASF637
	.value	0x185
	.uleb128 0x2
	.long	.LASF638
	.value	0x186
	.uleb128 0x2
	.long	.LASF639
	.value	0x187
	.uleb128 0x2
	.long	.LASF640
	.value	0x188
	.uleb128 0x2
	.long	.LASF641
	.value	0x189
	.uleb128 0x2
	.long	.LASF642
	.value	0x18a
	.uleb128 0x2
	.long	.LASF643
	.value	0x18b
	.uleb128 0x2
	.long	.LASF644
	.value	0x18c
	.uleb128 0x2
	.long	.LASF645
	.value	0x18d
	.uleb128 0x2
	.long	.LASF646
	.value	0x18e
	.uleb128 0x2
	.long	.LASF647
	.value	0x18f
	.uleb128 0x2
	.long	.LASF648
	.value	0x190
	.uleb128 0x2
	.long	.LASF649
	.value	0x191
	.uleb128 0x2
	.long	.LASF650
	.value	0x192
	.uleb128 0x2
	.long	.LASF651
	.value	0x193
	.uleb128 0x2
	.long	.LASF652
	.value	0x194
	.uleb128 0x2
	.long	.LASF653
	.value	0x195
	.uleb128 0x2
	.long	.LASF654
	.value	0x196
	.uleb128 0x2
	.long	.LASF655
	.value	0x197
	.uleb128 0x2
	.long	.LASF656
	.value	0x198
	.uleb128 0x2
	.long	.LASF657
	.value	0x199
	.uleb128 0x2
	.long	.LASF658
	.value	0x19a
	.uleb128 0x2
	.long	.LASF659
	.value	0x19b
	.uleb128 0x2
	.long	.LASF660
	.value	0x19c
	.uleb128 0x2
	.long	.LASF661
	.value	0x19d
	.uleb128 0x2
	.long	.LASF662
	.value	0x19e
	.uleb128 0x2
	.long	.LASF663
	.value	0x19f
	.uleb128 0x2
	.long	.LASF664
	.value	0x1a0
	.uleb128 0x2
	.long	.LASF665
	.value	0x1a1
	.uleb128 0x2
	.long	.LASF666
	.value	0x1a2
	.uleb128 0x2
	.long	.LASF667
	.value	0x1a3
	.uleb128 0x2
	.long	.LASF668
	.value	0x1a4
	.uleb128 0x2
	.long	.LASF669
	.value	0x1a5
	.uleb128 0x2
	.long	.LASF670
	.value	0x1a6
	.uleb128 0x2
	.long	.LASF671
	.value	0x1a7
	.uleb128 0x2
	.long	.LASF672
	.value	0x1a8
	.uleb128 0x2
	.long	.LASF673
	.value	0x1a9
	.uleb128 0x2
	.long	.LASF674
	.value	0x1aa
	.uleb128 0x2
	.long	.LASF675
	.value	0x1ab
	.uleb128 0x2
	.long	.LASF676
	.value	0x1ac
	.uleb128 0x2
	.long	.LASF677
	.value	0x1ad
	.uleb128 0x2
	.long	.LASF678
	.value	0x1ae
	.uleb128 0x2
	.long	.LASF679
	.value	0x1af
	.uleb128 0x2
	.long	.LASF680
	.value	0x1b0
	.uleb128 0x2
	.long	.LASF681
	.value	0x1b1
	.uleb128 0x2
	.long	.LASF682
	.value	0x1b2
	.uleb128 0x2
	.long	.LASF683
	.value	0x1b3
	.uleb128 0x2
	.long	.LASF684
	.value	0x1b4
	.uleb128 0x2
	.long	.LASF685
	.value	0x1b5
	.uleb128 0x2
	.long	.LASF686
	.value	0x1b6
	.uleb128 0x2
	.long	.LASF687
	.value	0x1b7
	.uleb128 0x2
	.long	.LASF688
	.value	0x1b8
	.uleb128 0x2
	.long	.LASF689
	.value	0x1b9
	.uleb128 0x2
	.long	.LASF690
	.value	0x1ba
	.uleb128 0x2
	.long	.LASF691
	.value	0x1bb
	.uleb128 0x2
	.long	.LASF692
	.value	0x1bc
	.uleb128 0x2
	.long	.LASF693
	.value	0x1bd
	.uleb128 0x2
	.long	.LASF694
	.value	0x1be
	.uleb128 0x2
	.long	.LASF695
	.value	0x1bf
	.uleb128 0x2
	.long	.LASF696
	.value	0x1c0
	.uleb128 0x2
	.long	.LASF697
	.value	0x1c1
	.uleb128 0x2
	.long	.LASF698
	.value	0x1c2
	.uleb128 0x2
	.long	.LASF699
	.value	0x1c3
	.uleb128 0x2
	.long	.LASF700
	.value	0x1c4
	.uleb128 0x2
	.long	.LASF701
	.value	0x1c5
	.uleb128 0x2
	.long	.LASF702
	.value	0x1c6
	.uleb128 0x2
	.long	.LASF703
	.value	0x1c7
	.uleb128 0x2
	.long	.LASF704
	.value	0x1c8
	.uleb128 0x2
	.long	.LASF705
	.value	0x1c9
	.uleb128 0x2
	.long	.LASF706
	.value	0x1ca
	.uleb128 0x2
	.long	.LASF707
	.value	0x1cb
	.uleb128 0x2
	.long	.LASF708
	.value	0x1cc
	.uleb128 0x2
	.long	.LASF709
	.value	0x1cd
	.uleb128 0x2
	.long	.LASF710
	.value	0x1ce
	.uleb128 0x2
	.long	.LASF711
	.value	0x1cf
	.uleb128 0x2
	.long	.LASF712
	.value	0x1d0
	.uleb128 0x2
	.long	.LASF713
	.value	0x1d1
	.uleb128 0x2
	.long	.LASF714
	.value	0x1d2
	.uleb128 0x2
	.long	.LASF715
	.value	0x1d3
	.uleb128 0x2
	.long	.LASF716
	.value	0x1d4
	.uleb128 0x2
	.long	.LASF717
	.value	0x1d5
	.uleb128 0x2
	.long	.LASF718
	.value	0x1d6
	.uleb128 0x2
	.long	.LASF719
	.value	0x1d7
	.uleb128 0x2
	.long	.LASF720
	.value	0x1d8
	.uleb128 0x2
	.long	.LASF721
	.value	0x1d9
	.uleb128 0x2
	.long	.LASF722
	.value	0x1da
	.uleb128 0x2
	.long	.LASF723
	.value	0x1db
	.uleb128 0x2
	.long	.LASF724
	.value	0x1dc
	.uleb128 0x2
	.long	.LASF725
	.value	0x1dd
	.uleb128 0x2
	.long	.LASF726
	.value	0x1de
	.uleb128 0x2
	.long	.LASF727
	.value	0x1df
	.uleb128 0x2
	.long	.LASF728
	.value	0x1e0
	.uleb128 0x2
	.long	.LASF729
	.value	0x1e1
	.uleb128 0x2
	.long	.LASF730
	.value	0x1e2
	.uleb128 0x2
	.long	.LASF731
	.value	0x1e3
	.uleb128 0x2
	.long	.LASF732
	.value	0x1e4
	.uleb128 0x2
	.long	.LASF733
	.value	0x1e5
	.uleb128 0x2
	.long	.LASF734
	.value	0x1e6
	.uleb128 0x2
	.long	.LASF735
	.value	0x1e7
	.uleb128 0x2
	.long	.LASF736
	.value	0x1e8
	.uleb128 0x2
	.long	.LASF737
	.value	0x1e9
	.uleb128 0x2
	.long	.LASF738
	.value	0x1ea
	.uleb128 0x2
	.long	.LASF739
	.value	0x1eb
	.uleb128 0x2
	.long	.LASF740
	.value	0x1ec
	.uleb128 0x2
	.long	.LASF741
	.value	0x1ed
	.uleb128 0x2
	.long	.LASF742
	.value	0x1ee
	.uleb128 0x2
	.long	.LASF743
	.value	0x1ef
	.uleb128 0x2
	.long	.LASF744
	.value	0x1f0
	.uleb128 0x2
	.long	.LASF745
	.value	0x1f1
	.uleb128 0x2
	.long	.LASF746
	.value	0x1f2
	.uleb128 0x2
	.long	.LASF747
	.value	0x1f3
	.uleb128 0x2
	.long	.LASF748
	.value	0x1f4
	.uleb128 0x2
	.long	.LASF749
	.value	0x1f5
	.uleb128 0x2
	.long	.LASF750
	.value	0x1f6
	.uleb128 0x2
	.long	.LASF751
	.value	0x1f7
	.uleb128 0x2
	.long	.LASF752
	.value	0x1f8
	.uleb128 0x2
	.long	.LASF753
	.value	0x1f9
	.uleb128 0x2
	.long	.LASF754
	.value	0x1fa
	.uleb128 0x2
	.long	.LASF755
	.value	0x1fb
	.uleb128 0x2
	.long	.LASF756
	.value	0x1fc
	.uleb128 0x2
	.long	.LASF757
	.value	0x1fd
	.uleb128 0x2
	.long	.LASF758
	.value	0x1fe
	.uleb128 0x2
	.long	.LASF759
	.value	0x1ff
	.uleb128 0x2
	.long	.LASF760
	.value	0x200
	.uleb128 0x2
	.long	.LASF761
	.value	0x201
	.uleb128 0x2
	.long	.LASF762
	.value	0x202
	.uleb128 0x2
	.long	.LASF763
	.value	0x203
	.uleb128 0x2
	.long	.LASF764
	.value	0x204
	.uleb128 0x2
	.long	.LASF765
	.value	0x205
	.uleb128 0x2
	.long	.LASF766
	.value	0x206
	.uleb128 0x2
	.long	.LASF767
	.value	0x207
	.uleb128 0x2
	.long	.LASF768
	.value	0x208
	.uleb128 0x2
	.long	.LASF769
	.value	0x209
	.uleb128 0x2
	.long	.LASF770
	.value	0x20a
	.uleb128 0x2
	.long	.LASF771
	.value	0x20b
	.uleb128 0x2
	.long	.LASF772
	.value	0x20c
	.uleb128 0x2
	.long	.LASF773
	.value	0x20d
	.uleb128 0x2
	.long	.LASF774
	.value	0x20e
	.uleb128 0x2
	.long	.LASF775
	.value	0x20f
	.uleb128 0x2
	.long	.LASF776
	.value	0x210
	.uleb128 0x2
	.long	.LASF777
	.value	0x211
	.uleb128 0x2
	.long	.LASF778
	.value	0x212
	.uleb128 0x2
	.long	.LASF779
	.value	0x213
	.uleb128 0x2
	.long	.LASF780
	.value	0x214
	.uleb128 0x2
	.long	.LASF781
	.value	0x215
	.uleb128 0x2
	.long	.LASF782
	.value	0x216
	.uleb128 0x2
	.long	.LASF783
	.value	0x217
	.uleb128 0x2
	.long	.LASF784
	.value	0x218
	.uleb128 0x2
	.long	.LASF785
	.value	0x219
	.uleb128 0x2
	.long	.LASF786
	.value	0x21a
	.uleb128 0x2
	.long	.LASF787
	.value	0x21b
	.uleb128 0x2
	.long	.LASF788
	.value	0x21c
	.uleb128 0x2
	.long	.LASF789
	.value	0x21d
	.uleb128 0x2
	.long	.LASF790
	.value	0x21e
	.uleb128 0x2
	.long	.LASF791
	.value	0x21f
	.uleb128 0x2
	.long	.LASF792
	.value	0x220
	.uleb128 0x2
	.long	.LASF793
	.value	0x221
	.uleb128 0x2
	.long	.LASF794
	.value	0x222
	.uleb128 0x2
	.long	.LASF795
	.value	0x223
	.uleb128 0x2
	.long	.LASF796
	.value	0x224
	.uleb128 0x2
	.long	.LASF797
	.value	0x225
	.uleb128 0x2
	.long	.LASF798
	.value	0x226
	.uleb128 0x2
	.long	.LASF799
	.value	0x227
	.uleb128 0x2
	.long	.LASF800
	.value	0x228
	.uleb128 0x2
	.long	.LASF801
	.value	0x229
	.uleb128 0x2
	.long	.LASF802
	.value	0x22a
	.uleb128 0x2
	.long	.LASF803
	.value	0x22b
	.uleb128 0x2
	.long	.LASF804
	.value	0x22c
	.uleb128 0x2
	.long	.LASF805
	.value	0x22d
	.uleb128 0x2
	.long	.LASF806
	.value	0x22e
	.uleb128 0x2
	.long	.LASF807
	.value	0x22f
	.uleb128 0x2
	.long	.LASF808
	.value	0x230
	.uleb128 0x2
	.long	.LASF809
	.value	0x231
	.uleb128 0x2
	.long	.LASF810
	.value	0x232
	.uleb128 0x2
	.long	.LASF811
	.value	0x233
	.uleb128 0x2
	.long	.LASF812
	.value	0x234
	.uleb128 0x2
	.long	.LASF813
	.value	0x235
	.uleb128 0x2
	.long	.LASF814
	.value	0x236
	.uleb128 0x2
	.long	.LASF815
	.value	0x237
	.uleb128 0x2
	.long	.LASF816
	.value	0x238
	.uleb128 0x2
	.long	.LASF817
	.value	0x239
	.uleb128 0x2
	.long	.LASF818
	.value	0x23a
	.uleb128 0x2
	.long	.LASF819
	.value	0x23b
	.uleb128 0x2
	.long	.LASF820
	.value	0x23c
	.uleb128 0x2
	.long	.LASF821
	.value	0x23d
	.uleb128 0x2
	.long	.LASF822
	.value	0x23e
	.uleb128 0x2
	.long	.LASF823
	.value	0x23f
	.uleb128 0x2
	.long	.LASF824
	.value	0x240
	.uleb128 0x2
	.long	.LASF825
	.value	0x241
	.uleb128 0x2
	.long	.LASF826
	.value	0x242
	.uleb128 0x2
	.long	.LASF827
	.value	0x243
	.uleb128 0x2
	.long	.LASF828
	.value	0x244
	.uleb128 0x2
	.long	.LASF829
	.value	0x245
	.uleb128 0x2
	.long	.LASF830
	.value	0x246
	.uleb128 0x2
	.long	.LASF831
	.value	0x247
	.uleb128 0x2
	.long	.LASF832
	.value	0x248
	.uleb128 0x2
	.long	.LASF833
	.value	0x249
	.uleb128 0x2
	.long	.LASF834
	.value	0x24a
	.uleb128 0x2
	.long	.LASF835
	.value	0x24b
	.uleb128 0x2
	.long	.LASF836
	.value	0x24c
	.uleb128 0x2
	.long	.LASF837
	.value	0x24d
	.uleb128 0x2
	.long	.LASF838
	.value	0x24e
	.uleb128 0x2
	.long	.LASF839
	.value	0x24f
	.uleb128 0x2
	.long	.LASF840
	.value	0x250
	.uleb128 0x2
	.long	.LASF841
	.value	0x251
	.uleb128 0x2
	.long	.LASF842
	.value	0x252
	.uleb128 0x2
	.long	.LASF843
	.value	0x253
	.uleb128 0x2
	.long	.LASF844
	.value	0x254
	.uleb128 0x2
	.long	.LASF845
	.value	0x255
	.uleb128 0x2
	.long	.LASF846
	.value	0x256
	.uleb128 0x2
	.long	.LASF847
	.value	0x257
	.uleb128 0x2
	.long	.LASF848
	.value	0x258
	.uleb128 0x2
	.long	.LASF849
	.value	0x259
	.uleb128 0x2
	.long	.LASF850
	.value	0x25a
	.uleb128 0x2
	.long	.LASF851
	.value	0x25b
	.uleb128 0x2
	.long	.LASF852
	.value	0x25c
	.uleb128 0x2
	.long	.LASF853
	.value	0x25d
	.uleb128 0x2
	.long	.LASF854
	.value	0x25e
	.uleb128 0x2
	.long	.LASF855
	.value	0x25f
	.uleb128 0x2
	.long	.LASF856
	.value	0x260
	.uleb128 0x2
	.long	.LASF857
	.value	0x261
	.uleb128 0x2
	.long	.LASF858
	.value	0x262
	.uleb128 0x2
	.long	.LASF859
	.value	0x263
	.uleb128 0x2
	.long	.LASF860
	.value	0x264
	.uleb128 0x2
	.long	.LASF861
	.value	0x265
	.uleb128 0x2
	.long	.LASF862
	.value	0x266
	.uleb128 0x2
	.long	.LASF863
	.value	0x267
	.uleb128 0x2
	.long	.LASF864
	.value	0x268
	.uleb128 0x2
	.long	.LASF865
	.value	0x269
	.uleb128 0x2
	.long	.LASF866
	.value	0x26a
	.uleb128 0x2
	.long	.LASF867
	.value	0x26b
	.uleb128 0x2
	.long	.LASF868
	.value	0x26c
	.uleb128 0x2
	.long	.LASF869
	.value	0x26d
	.uleb128 0x2
	.long	.LASF870
	.value	0x26e
	.uleb128 0x2
	.long	.LASF871
	.value	0x26f
	.uleb128 0x2
	.long	.LASF872
	.value	0x270
	.uleb128 0x2
	.long	.LASF873
	.value	0x271
	.uleb128 0x2
	.long	.LASF874
	.value	0x272
	.uleb128 0x2
	.long	.LASF875
	.value	0x273
	.uleb128 0x2
	.long	.LASF876
	.value	0x274
	.uleb128 0x2
	.long	.LASF877
	.value	0x275
	.uleb128 0x2
	.long	.LASF878
	.value	0x276
	.uleb128 0x2
	.long	.LASF879
	.value	0x277
	.uleb128 0x2
	.long	.LASF880
	.value	0x278
	.uleb128 0x2
	.long	.LASF881
	.value	0x279
	.uleb128 0x2
	.long	.LASF882
	.value	0x27a
	.uleb128 0x2
	.long	.LASF883
	.value	0x27b
	.uleb128 0x2
	.long	.LASF884
	.value	0x27c
	.uleb128 0x2
	.long	.LASF885
	.value	0x27d
	.uleb128 0x2
	.long	.LASF886
	.value	0x27e
	.uleb128 0x2
	.long	.LASF887
	.value	0x27f
	.uleb128 0x2
	.long	.LASF888
	.value	0x280
	.uleb128 0x2
	.long	.LASF889
	.value	0x281
	.uleb128 0x2
	.long	.LASF890
	.value	0x282
	.uleb128 0x2
	.long	.LASF891
	.value	0x283
	.uleb128 0x2
	.long	.LASF892
	.value	0x284
	.uleb128 0x2
	.long	.LASF893
	.value	0x285
	.uleb128 0x2
	.long	.LASF894
	.value	0x286
	.uleb128 0x2
	.long	.LASF895
	.value	0x287
	.uleb128 0x2
	.long	.LASF896
	.value	0x288
	.uleb128 0x2
	.long	.LASF897
	.value	0x289
	.uleb128 0x2
	.long	.LASF898
	.value	0x28a
	.uleb128 0x2
	.long	.LASF899
	.value	0x28b
	.uleb128 0x2
	.long	.LASF900
	.value	0x28c
	.uleb128 0x2
	.long	.LASF901
	.value	0x28d
	.uleb128 0x2
	.long	.LASF902
	.value	0x28e
	.uleb128 0x2
	.long	.LASF903
	.value	0x28f
	.uleb128 0x2
	.long	.LASF904
	.value	0x290
	.uleb128 0x2
	.long	.LASF905
	.value	0x291
	.uleb128 0x2
	.long	.LASF906
	.value	0x292
	.uleb128 0x2
	.long	.LASF907
	.value	0x293
	.uleb128 0x2
	.long	.LASF908
	.value	0x294
	.uleb128 0x2
	.long	.LASF909
	.value	0x295
	.uleb128 0x2
	.long	.LASF910
	.value	0x296
	.uleb128 0x2
	.long	.LASF911
	.value	0x297
	.uleb128 0x2
	.long	.LASF912
	.value	0x298
	.uleb128 0x2
	.long	.LASF913
	.value	0x299
	.uleb128 0x2
	.long	.LASF914
	.value	0x29a
	.uleb128 0x2
	.long	.LASF915
	.value	0x29b
	.uleb128 0x2
	.long	.LASF916
	.value	0x29c
	.uleb128 0x2
	.long	.LASF917
	.value	0x29d
	.uleb128 0x2
	.long	.LASF918
	.value	0x29e
	.uleb128 0x2
	.long	.LASF919
	.value	0x29f
	.uleb128 0x2
	.long	.LASF920
	.value	0x2a0
	.uleb128 0x2
	.long	.LASF921
	.value	0x2a1
	.uleb128 0x2
	.long	.LASF922
	.value	0x2a2
	.uleb128 0x2
	.long	.LASF923
	.value	0x2a3
	.uleb128 0x2
	.long	.LASF924
	.value	0x2a4
	.uleb128 0x2
	.long	.LASF925
	.value	0x2a5
	.uleb128 0x2
	.long	.LASF926
	.value	0x2a6
	.uleb128 0x2
	.long	.LASF927
	.value	0x2a7
	.uleb128 0x2
	.long	.LASF928
	.value	0x2a8
	.uleb128 0x2
	.long	.LASF929
	.value	0x2a9
	.uleb128 0x2
	.long	.LASF930
	.value	0x2aa
	.uleb128 0x2
	.long	.LASF931
	.value	0x2ab
	.uleb128 0x2
	.long	.LASF932
	.value	0x2ac
	.uleb128 0x2
	.long	.LASF933
	.value	0x2ad
	.uleb128 0x2
	.long	.LASF934
	.value	0x2ae
	.uleb128 0x2
	.long	.LASF935
	.value	0x2af
	.uleb128 0x2
	.long	.LASF936
	.value	0x2b0
	.uleb128 0x2
	.long	.LASF937
	.value	0x2b1
	.uleb128 0x2
	.long	.LASF938
	.value	0x2b2
	.uleb128 0x2
	.long	.LASF939
	.value	0x2b3
	.uleb128 0x2
	.long	.LASF940
	.value	0x2b4
	.uleb128 0x2
	.long	.LASF941
	.value	0x2b5
	.uleb128 0x2
	.long	.LASF942
	.value	0x2b6
	.uleb128 0x2
	.long	.LASF943
	.value	0x2b7
	.uleb128 0x2
	.long	.LASF944
	.value	0x2b8
	.uleb128 0x2
	.long	.LASF945
	.value	0x2b9
	.uleb128 0x2
	.long	.LASF946
	.value	0x2ba
	.uleb128 0x2
	.long	.LASF947
	.value	0x2bb
	.uleb128 0x2
	.long	.LASF948
	.value	0x2bc
	.uleb128 0x2
	.long	.LASF949
	.value	0x2bd
	.uleb128 0x2
	.long	.LASF950
	.value	0x2be
	.uleb128 0x2
	.long	.LASF951
	.value	0x2bf
	.uleb128 0x2
	.long	.LASF952
	.value	0x2c0
	.uleb128 0x2
	.long	.LASF953
	.value	0x2c1
	.uleb128 0x2
	.long	.LASF954
	.value	0x2c2
	.uleb128 0x2
	.long	.LASF955
	.value	0x2c3
	.uleb128 0x2
	.long	.LASF956
	.value	0x2c4
	.uleb128 0x2
	.long	.LASF957
	.value	0x2c5
	.uleb128 0x2
	.long	.LASF958
	.value	0x2c6
	.uleb128 0x2
	.long	.LASF959
	.value	0x2c7
	.uleb128 0x2
	.long	.LASF960
	.value	0x2c8
	.uleb128 0x2
	.long	.LASF961
	.value	0x2c9
	.uleb128 0x2
	.long	.LASF962
	.value	0x2ca
	.uleb128 0x2
	.long	.LASF963
	.value	0x2cb
	.uleb128 0x2
	.long	.LASF964
	.value	0x2cc
	.uleb128 0x2
	.long	.LASF965
	.value	0x2cd
	.uleb128 0x2
	.long	.LASF966
	.value	0x2ce
	.uleb128 0x2
	.long	.LASF967
	.value	0x2cf
	.uleb128 0x2
	.long	.LASF968
	.value	0x2d0
	.uleb128 0x2
	.long	.LASF969
	.value	0x2d1
	.uleb128 0x2
	.long	.LASF970
	.value	0x2d2
	.uleb128 0x2
	.long	.LASF971
	.value	0x2d3
	.uleb128 0x2
	.long	.LASF972
	.value	0x2d4
	.uleb128 0x2
	.long	.LASF973
	.value	0x2d5
	.uleb128 0x2
	.long	.LASF974
	.value	0x2d6
	.uleb128 0x2
	.long	.LASF975
	.value	0x2d7
	.uleb128 0x2
	.long	.LASF976
	.value	0x2d8
	.uleb128 0x2
	.long	.LASF977
	.value	0x2d9
	.uleb128 0x2
	.long	.LASF978
	.value	0x2da
	.uleb128 0x2
	.long	.LASF979
	.value	0x2db
	.uleb128 0x2
	.long	.LASF980
	.value	0x2dc
	.uleb128 0x2
	.long	.LASF981
	.value	0x2dd
	.uleb128 0x2
	.long	.LASF982
	.value	0x2de
	.uleb128 0x2
	.long	.LASF983
	.value	0x2df
	.uleb128 0x2
	.long	.LASF984
	.value	0x2e0
	.uleb128 0x2
	.long	.LASF985
	.value	0x2e1
	.uleb128 0x2
	.long	.LASF986
	.value	0x2e2
	.uleb128 0x2
	.long	.LASF987
	.value	0x2e3
	.uleb128 0x2
	.long	.LASF988
	.value	0x2e4
	.uleb128 0x2
	.long	.LASF989
	.value	0x2e5
	.uleb128 0x2
	.long	.LASF990
	.value	0x2e6
	.uleb128 0x2
	.long	.LASF991
	.value	0x2e7
	.uleb128 0x2
	.long	.LASF992
	.value	0x2e8
	.uleb128 0x2
	.long	.LASF993
	.value	0x2e9
	.uleb128 0x2
	.long	.LASF994
	.value	0x2ea
	.uleb128 0x2
	.long	.LASF995
	.value	0x2eb
	.uleb128 0x2
	.long	.LASF996
	.value	0x2ec
	.uleb128 0x2
	.long	.LASF997
	.value	0x2ed
	.uleb128 0x2
	.long	.LASF998
	.value	0x2ee
	.uleb128 0x2
	.long	.LASF999
	.value	0x2ef
	.uleb128 0x2
	.long	.LASF1000
	.value	0x2f0
	.uleb128 0x2
	.long	.LASF1001
	.value	0x2f1
	.uleb128 0x2
	.long	.LASF1002
	.value	0x2f2
	.uleb128 0x2
	.long	.LASF1003
	.value	0x2f3
	.uleb128 0x2
	.long	.LASF1004
	.value	0x2f4
	.uleb128 0x2
	.long	.LASF1005
	.value	0x2f5
	.uleb128 0x2
	.long	.LASF1006
	.value	0x2f6
	.uleb128 0x2
	.long	.LASF1007
	.value	0x2f7
	.uleb128 0x2
	.long	.LASF1008
	.value	0x2f8
	.uleb128 0x2
	.long	.LASF1009
	.value	0x2f9
	.uleb128 0x2
	.long	.LASF1010
	.value	0x2fa
	.uleb128 0x2
	.long	.LASF1011
	.value	0x2fb
	.uleb128 0x2
	.long	.LASF1012
	.value	0x2fc
	.uleb128 0x2
	.long	.LASF1013
	.value	0x2fd
	.uleb128 0x2
	.long	.LASF1014
	.value	0x2fe
	.uleb128 0x2
	.long	.LASF1015
	.value	0x2ff
	.uleb128 0x2
	.long	.LASF1016
	.value	0x300
	.uleb128 0x2
	.long	.LASF1017
	.value	0x301
	.uleb128 0x2
	.long	.LASF1018
	.value	0x302
	.uleb128 0x2
	.long	.LASF1019
	.value	0x303
	.uleb128 0x2
	.long	.LASF1020
	.value	0x304
	.uleb128 0x2
	.long	.LASF1021
	.value	0x305
	.uleb128 0x2
	.long	.LASF1022
	.value	0x306
	.uleb128 0x2
	.long	.LASF1023
	.value	0x307
	.uleb128 0x2
	.long	.LASF1024
	.value	0x308
	.uleb128 0x2
	.long	.LASF1025
	.value	0x309
	.uleb128 0x2
	.long	.LASF1026
	.value	0x30a
	.uleb128 0x2
	.long	.LASF1027
	.value	0x30b
	.uleb128 0x2
	.long	.LASF1028
	.value	0x30c
	.uleb128 0x2
	.long	.LASF1029
	.value	0x30d
	.uleb128 0x2
	.long	.LASF1030
	.value	0x30e
	.uleb128 0x2
	.long	.LASF1031
	.value	0x30f
	.uleb128 0x2
	.long	.LASF1032
	.value	0x310
	.uleb128 0x2
	.long	.LASF1033
	.value	0x311
	.uleb128 0x2
	.long	.LASF1034
	.value	0x312
	.uleb128 0x2
	.long	.LASF1035
	.value	0x313
	.uleb128 0x2
	.long	.LASF1036
	.value	0x314
	.uleb128 0x2
	.long	.LASF1037
	.value	0x315
	.uleb128 0x2
	.long	.LASF1038
	.value	0x316
	.uleb128 0x2
	.long	.LASF1039
	.value	0x317
	.uleb128 0x2
	.long	.LASF1040
	.value	0x318
	.uleb128 0x2
	.long	.LASF1041
	.value	0x319
	.uleb128 0x2
	.long	.LASF1042
	.value	0x31a
	.uleb128 0x2
	.long	.LASF1043
	.value	0x31b
	.uleb128 0x2
	.long	.LASF1044
	.value	0x31c
	.uleb128 0x2
	.long	.LASF1045
	.value	0x31d
	.uleb128 0x2
	.long	.LASF1046
	.value	0x31e
	.uleb128 0x2
	.long	.LASF1047
	.value	0x31f
	.uleb128 0x2
	.long	.LASF1048
	.value	0x320
	.uleb128 0x2
	.long	.LASF1049
	.value	0x321
	.uleb128 0x2
	.long	.LASF1050
	.value	0x322
	.uleb128 0x2
	.long	.LASF1051
	.value	0x323
	.uleb128 0x2
	.long	.LASF1052
	.value	0x324
	.uleb128 0x2
	.long	.LASF1053
	.value	0x325
	.uleb128 0x2
	.long	.LASF1054
	.value	0x326
	.uleb128 0x2
	.long	.LASF1055
	.value	0x327
	.uleb128 0x2
	.long	.LASF1056
	.value	0x328
	.uleb128 0x2
	.long	.LASF1057
	.value	0x329
	.uleb128 0x2
	.long	.LASF1058
	.value	0x32a
	.uleb128 0x2
	.long	.LASF1059
	.value	0x32b
	.uleb128 0x2
	.long	.LASF1060
	.value	0x32c
	.uleb128 0x2
	.long	.LASF1061
	.value	0x32d
	.uleb128 0x2
	.long	.LASF1062
	.value	0x32e
	.uleb128 0x2
	.long	.LASF1063
	.value	0x32f
	.uleb128 0x2
	.long	.LASF1064
	.value	0x330
	.uleb128 0x2
	.long	.LASF1065
	.value	0x331
	.uleb128 0x2
	.long	.LASF1066
	.value	0x332
	.uleb128 0x2
	.long	.LASF1067
	.value	0x333
	.uleb128 0x2
	.long	.LASF1068
	.value	0x334
	.uleb128 0x2
	.long	.LASF1069
	.value	0x335
	.uleb128 0x2
	.long	.LASF1070
	.value	0x336
	.uleb128 0x2
	.long	.LASF1071
	.value	0x337
	.uleb128 0x2
	.long	.LASF1072
	.value	0x338
	.uleb128 0x2
	.long	.LASF1073
	.value	0x339
	.uleb128 0x2
	.long	.LASF1074
	.value	0x33a
	.uleb128 0x2
	.long	.LASF1075
	.value	0x33b
	.uleb128 0x2
	.long	.LASF1076
	.value	0x33c
	.uleb128 0x2
	.long	.LASF1077
	.value	0x33d
	.uleb128 0x2
	.long	.LASF1078
	.value	0x33e
	.uleb128 0x2
	.long	.LASF1079
	.value	0x33f
	.uleb128 0x2
	.long	.LASF1080
	.value	0x340
	.uleb128 0x2
	.long	.LASF1081
	.value	0x341
	.uleb128 0x2
	.long	.LASF1082
	.value	0x342
	.uleb128 0x2
	.long	.LASF1083
	.value	0x343
	.uleb128 0x2
	.long	.LASF1084
	.value	0x344
	.uleb128 0x2
	.long	.LASF1085
	.value	0x345
	.uleb128 0x2
	.long	.LASF1086
	.value	0x346
	.uleb128 0x2
	.long	.LASF1087
	.value	0x347
	.uleb128 0x2
	.long	.LASF1088
	.value	0x348
	.uleb128 0x2
	.long	.LASF1089
	.value	0x349
	.uleb128 0x2
	.long	.LASF1090
	.value	0x34a
	.uleb128 0x2
	.long	.LASF1091
	.value	0x34b
	.uleb128 0x2
	.long	.LASF1092
	.value	0x34c
	.uleb128 0x2
	.long	.LASF1093
	.value	0x34d
	.uleb128 0x2
	.long	.LASF1094
	.value	0x34e
	.uleb128 0x2
	.long	.LASF1095
	.value	0x34f
	.uleb128 0x2
	.long	.LASF1096
	.value	0x350
	.uleb128 0x2
	.long	.LASF1097
	.value	0x351
	.uleb128 0x2
	.long	.LASF1098
	.value	0x352
	.uleb128 0x2
	.long	.LASF1099
	.value	0x353
	.uleb128 0x2
	.long	.LASF1100
	.value	0x354
	.uleb128 0x2
	.long	.LASF1101
	.value	0x355
	.uleb128 0x2
	.long	.LASF1102
	.value	0x356
	.uleb128 0x2
	.long	.LASF1103
	.value	0x357
	.uleb128 0x2
	.long	.LASF1104
	.value	0x358
	.uleb128 0x2
	.long	.LASF1105
	.value	0x359
	.uleb128 0x2
	.long	.LASF1106
	.value	0x35a
	.uleb128 0x2
	.long	.LASF1107
	.value	0x35b
	.uleb128 0x2
	.long	.LASF1108
	.value	0x35c
	.uleb128 0x2
	.long	.LASF1109
	.value	0x35d
	.uleb128 0x2
	.long	.LASF1110
	.value	0x35e
	.uleb128 0x2
	.long	.LASF1111
	.value	0x35f
	.uleb128 0x2
	.long	.LASF1112
	.value	0x360
	.uleb128 0x2
	.long	.LASF1113
	.value	0x361
	.uleb128 0x2
	.long	.LASF1114
	.value	0x362
	.uleb128 0x2
	.long	.LASF1115
	.value	0x363
	.uleb128 0x2
	.long	.LASF1116
	.value	0x364
	.uleb128 0x2
	.long	.LASF1117
	.value	0x365
	.uleb128 0x2
	.long	.LASF1118
	.value	0x366
	.uleb128 0x2
	.long	.LASF1119
	.value	0x367
	.uleb128 0x2
	.long	.LASF1120
	.value	0x368
	.uleb128 0x2
	.long	.LASF1121
	.value	0x369
	.uleb128 0x2
	.long	.LASF1122
	.value	0x36a
	.uleb128 0x2
	.long	.LASF1123
	.value	0x36b
	.uleb128 0x2
	.long	.LASF1124
	.value	0x36c
	.uleb128 0x2
	.long	.LASF1125
	.value	0x36d
	.uleb128 0x2
	.long	.LASF1126
	.value	0x36e
	.uleb128 0x2
	.long	.LASF1127
	.value	0x36f
	.uleb128 0x2
	.long	.LASF1128
	.value	0x370
	.uleb128 0x2
	.long	.LASF1129
	.value	0x371
	.uleb128 0x2
	.long	.LASF1130
	.value	0x372
	.uleb128 0x2
	.long	.LASF1131
	.value	0x373
	.uleb128 0x2
	.long	.LASF1132
	.value	0x374
	.uleb128 0x2
	.long	.LASF1133
	.value	0x375
	.uleb128 0x2
	.long	.LASF1134
	.value	0x376
	.uleb128 0x2
	.long	.LASF1135
	.value	0x377
	.uleb128 0x2
	.long	.LASF1136
	.value	0x378
	.uleb128 0x2
	.long	.LASF1137
	.value	0x379
	.uleb128 0x2
	.long	.LASF1138
	.value	0x37a
	.uleb128 0x2
	.long	.LASF1139
	.value	0x37b
	.uleb128 0x2
	.long	.LASF1140
	.value	0x37c
	.uleb128 0x2
	.long	.LASF1141
	.value	0x37d
	.uleb128 0x2
	.long	.LASF1142
	.value	0x37e
	.uleb128 0x2
	.long	.LASF1143
	.value	0x37f
	.uleb128 0x2
	.long	.LASF1144
	.value	0x380
	.uleb128 0x2
	.long	.LASF1145
	.value	0x381
	.uleb128 0x2
	.long	.LASF1146
	.value	0x382
	.uleb128 0x2
	.long	.LASF1147
	.value	0x383
	.uleb128 0x2
	.long	.LASF1148
	.value	0x384
	.uleb128 0x2
	.long	.LASF1149
	.value	0x385
	.uleb128 0x2
	.long	.LASF1150
	.value	0x386
	.uleb128 0x2
	.long	.LASF1151
	.value	0x387
	.uleb128 0x2
	.long	.LASF1152
	.value	0x388
	.uleb128 0x2
	.long	.LASF1153
	.value	0x389
	.uleb128 0x2
	.long	.LASF1154
	.value	0x38a
	.uleb128 0x2
	.long	.LASF1155
	.value	0x38b
	.uleb128 0x2
	.long	.LASF1156
	.value	0x38c
	.uleb128 0x2
	.long	.LASF1157
	.value	0x38d
	.uleb128 0x2
	.long	.LASF1158
	.value	0x38e
	.uleb128 0x2
	.long	.LASF1159
	.value	0x38f
	.uleb128 0x2
	.long	.LASF1160
	.value	0x390
	.uleb128 0x2
	.long	.LASF1161
	.value	0x391
	.uleb128 0x2
	.long	.LASF1162
	.value	0x392
	.uleb128 0x2
	.long	.LASF1163
	.value	0x393
	.uleb128 0x2
	.long	.LASF1164
	.value	0x394
	.uleb128 0x2
	.long	.LASF1165
	.value	0x395
	.uleb128 0x2
	.long	.LASF1166
	.value	0x396
	.uleb128 0x2
	.long	.LASF1167
	.value	0x397
	.uleb128 0x2
	.long	.LASF1168
	.value	0x398
	.uleb128 0x2
	.long	.LASF1169
	.value	0x399
	.uleb128 0x2
	.long	.LASF1170
	.value	0x39a
	.uleb128 0x2
	.long	.LASF1171
	.value	0x39b
	.uleb128 0x2
	.long	.LASF1172
	.value	0x39c
	.uleb128 0x2
	.long	.LASF1173
	.value	0x39d
	.uleb128 0x2
	.long	.LASF1174
	.value	0x39e
	.uleb128 0x2
	.long	.LASF1175
	.value	0x39f
	.uleb128 0x2
	.long	.LASF1176
	.value	0x3a0
	.uleb128 0x2
	.long	.LASF1177
	.value	0x3a1
	.uleb128 0x2
	.long	.LASF1178
	.value	0x3a2
	.uleb128 0x2
	.long	.LASF1179
	.value	0x3a3
	.uleb128 0x2
	.long	.LASF1180
	.value	0x3a4
	.uleb128 0x2
	.long	.LASF1181
	.value	0x3a5
	.uleb128 0x2
	.long	.LASF1182
	.value	0x3a6
	.uleb128 0x2
	.long	.LASF1183
	.value	0x3a7
	.uleb128 0x2
	.long	.LASF1184
	.value	0x3a8
	.uleb128 0x2
	.long	.LASF1185
	.value	0x3a9
	.uleb128 0x2
	.long	.LASF1186
	.value	0x3aa
	.uleb128 0x2
	.long	.LASF1187
	.value	0x3ab
	.uleb128 0x2
	.long	.LASF1188
	.value	0x3ac
	.uleb128 0x2
	.long	.LASF1189
	.value	0x3ad
	.uleb128 0x2
	.long	.LASF1190
	.value	0x3ae
	.uleb128 0x2
	.long	.LASF1191
	.value	0x3af
	.uleb128 0x2
	.long	.LASF1192
	.value	0x3b0
	.uleb128 0x2
	.long	.LASF1193
	.value	0x3b1
	.uleb128 0x2
	.long	.LASF1194
	.value	0x3b2
	.uleb128 0x2
	.long	.LASF1195
	.value	0x3b3
	.uleb128 0x2
	.long	.LASF1196
	.value	0x3b4
	.uleb128 0x2
	.long	.LASF1197
	.value	0x3b5
	.uleb128 0x2
	.long	.LASF1198
	.value	0x3b6
	.uleb128 0x2
	.long	.LASF1199
	.value	0x3b7
	.uleb128 0x2
	.long	.LASF1200
	.value	0x3b8
	.uleb128 0x2
	.long	.LASF1201
	.value	0x3b9
	.uleb128 0x2
	.long	.LASF1202
	.value	0x3ba
	.uleb128 0x2
	.long	.LASF1203
	.value	0x3bb
	.uleb128 0x2
	.long	.LASF1204
	.value	0x3bc
	.uleb128 0x2
	.long	.LASF1205
	.value	0x3bd
	.uleb128 0x2
	.long	.LASF1206
	.value	0x3be
	.uleb128 0x2
	.long	.LASF1207
	.value	0x3bf
	.uleb128 0x2
	.long	.LASF1208
	.value	0x3c0
	.uleb128 0x2
	.long	.LASF1209
	.value	0x3c1
	.uleb128 0x2
	.long	.LASF1210
	.value	0x3c2
	.uleb128 0x2
	.long	.LASF1211
	.value	0x3c3
	.uleb128 0x2
	.long	.LASF1212
	.value	0x3c4
	.uleb128 0x2
	.long	.LASF1213
	.value	0x3c5
	.uleb128 0x2
	.long	.LASF1214
	.value	0x3c6
	.uleb128 0x2
	.long	.LASF1215
	.value	0x3c7
	.byte	0
	.uleb128 0x14
	.long	.LASF1216
	.byte	0xc
	.value	0x478
	.long	0x8a0
	.uleb128 0x1a
	.byte	0x38
	.byte	0xc
	.value	0x47b
	.long	0x229e
	.uleb128 0x5
	.long	.LASF1217
	.byte	0xc
	.value	0x47d
	.byte	0xf
	.long	0x894
	.byte	0
	.uleb128 0x5
	.long	.LASF1218
	.byte	0xc
	.value	0x47e
	.byte	0xa
	.long	0xa3
	.byte	0x8
	.uleb128 0x5
	.long	.LASF1219
	.byte	0xc
	.value	0x47f
	.byte	0xa
	.long	0xa3
	.byte	0x10
	.uleb128 0x5
	.long	.LASF1220
	.byte	0xc
	.value	0x481
	.byte	0xf
	.long	0x485
	.byte	0x18
	.uleb128 0x5
	.long	.LASF1221
	.byte	0xc
	.value	0x482
	.byte	0x10
	.long	0x2226
	.byte	0x20
	.uleb128 0x5
	.long	.LASF1222
	.byte	0xc
	.value	0x483
	.byte	0xa
	.long	0xa3
	.byte	0x28
	.uleb128 0x5
	.long	.LASF1223
	.byte	0xc
	.value	0x483
	.byte	0x11
	.long	0xa3
	.byte	0x30
	.byte	0
	.uleb128 0x14
	.long	.LASF1224
	.byte	0xc
	.value	0x484
	.long	0x2232
	.uleb128 0x2a
	.byte	0x7
	.byte	0x4
	.long	0x77
	.byte	0xc
	.value	0x48b
	.byte	0xe
	.long	0x25f6
	.uleb128 0x1
	.long	.LASF1225
	.byte	0
	.uleb128 0x1
	.long	.LASF1226
	.byte	0x1
	.uleb128 0x1
	.long	.LASF1227
	.byte	0x2
	.uleb128 0x1
	.long	.LASF1228
	.byte	0x3
	.uleb128 0x1
	.long	.LASF1229
	.byte	0x4
	.uleb128 0x1
	.long	.LASF1230
	.byte	0x5
	.uleb128 0x1
	.long	.LASF1231
	.byte	0x6
	.uleb128 0x1
	.long	.LASF1232
	.byte	0x7
	.uleb128 0x1
	.long	.LASF1233
	.byte	0x8
	.uleb128 0x1
	.long	.LASF1234
	.byte	0x9
	.uleb128 0x1
	.long	.LASF1235
	.byte	0xa
	.uleb128 0x1
	.long	.LASF1236
	.byte	0xb
	.uleb128 0x1
	.long	.LASF1237
	.byte	0xc
	.uleb128 0x1
	.long	.LASF1238
	.byte	0xd
	.uleb128 0x1
	.long	.LASF1239
	.byte	0xe
	.uleb128 0x1
	.long	.LASF1240
	.byte	0xf
	.uleb128 0x1
	.long	.LASF1241
	.byte	0x10
	.uleb128 0x1
	.long	.LASF1242
	.byte	0x11
	.uleb128 0x1
	.long	.LASF1243
	.byte	0x12
	.uleb128 0x1
	.long	.LASF1244
	.byte	0x13
	.uleb128 0x1
	.long	.LASF1245
	.byte	0x14
	.uleb128 0x1
	.long	.LASF1246
	.byte	0x15
	.uleb128 0x1
	.long	.LASF1247
	.byte	0x16
	.uleb128 0x1
	.long	.LASF1248
	.byte	0x17
	.uleb128 0x1
	.long	.LASF1249
	.byte	0x18
	.uleb128 0x1
	.long	.LASF1250
	.byte	0x19
	.uleb128 0x1
	.long	.LASF1251
	.byte	0x1a
	.uleb128 0x1
	.long	.LASF1252
	.byte	0x1b
	.uleb128 0x1
	.long	.LASF1253
	.byte	0x1c
	.uleb128 0x1
	.long	.LASF1254
	.byte	0x1d
	.uleb128 0x1
	.long	.LASF1255
	.byte	0x1e
	.uleb128 0x1
	.long	.LASF1256
	.byte	0x1f
	.uleb128 0x1
	.long	.LASF1257
	.byte	0x20
	.uleb128 0x1
	.long	.LASF1258
	.byte	0x21
	.uleb128 0x1
	.long	.LASF1259
	.byte	0x22
	.uleb128 0x1
	.long	.LASF1260
	.byte	0x23
	.uleb128 0x1
	.long	.LASF1261
	.byte	0x24
	.uleb128 0x1
	.long	.LASF1262
	.byte	0x25
	.uleb128 0x1
	.long	.LASF1263
	.byte	0x26
	.uleb128 0x1
	.long	.LASF1264
	.byte	0x27
	.uleb128 0x1
	.long	.LASF1265
	.byte	0x28
	.uleb128 0x1
	.long	.LASF1266
	.byte	0x29
	.uleb128 0x1
	.long	.LASF1267
	.byte	0x2a
	.uleb128 0x1
	.long	.LASF1268
	.byte	0x2b
	.uleb128 0x1
	.long	.LASF1269
	.byte	0x2c
	.uleb128 0x1
	.long	.LASF1270
	.byte	0x2d
	.uleb128 0x1
	.long	.LASF1271
	.byte	0x2e
	.uleb128 0x1
	.long	.LASF1272
	.byte	0x2f
	.uleb128 0x1
	.long	.LASF1273
	.byte	0x30
	.uleb128 0x1
	.long	.LASF1274
	.byte	0x31
	.uleb128 0x1
	.long	.LASF1275
	.byte	0x32
	.uleb128 0x1
	.long	.LASF1276
	.byte	0x33
	.uleb128 0x1
	.long	.LASF1277
	.byte	0x34
	.uleb128 0x1
	.long	.LASF1278
	.byte	0x35
	.uleb128 0x1
	.long	.LASF1279
	.byte	0x36
	.uleb128 0x1
	.long	.LASF1280
	.byte	0x37
	.uleb128 0x1
	.long	.LASF1281
	.byte	0x38
	.uleb128 0x1
	.long	.LASF1282
	.byte	0x39
	.uleb128 0x1
	.long	.LASF1283
	.byte	0x3a
	.uleb128 0x1
	.long	.LASF1284
	.byte	0x3b
	.uleb128 0x1
	.long	.LASF1285
	.byte	0x3c
	.uleb128 0x1
	.long	.LASF1286
	.byte	0x3d
	.uleb128 0x1
	.long	.LASF1287
	.byte	0x3e
	.uleb128 0x1
	.long	.LASF1288
	.byte	0x3f
	.uleb128 0x1
	.long	.LASF1289
	.byte	0x40
	.uleb128 0x1
	.long	.LASF1290
	.byte	0x41
	.uleb128 0x1
	.long	.LASF1291
	.byte	0x42
	.uleb128 0x1
	.long	.LASF1292
	.byte	0x43
	.uleb128 0x1
	.long	.LASF1293
	.byte	0x44
	.uleb128 0x1
	.long	.LASF1294
	.byte	0x45
	.uleb128 0x1
	.long	.LASF1295
	.byte	0x46
	.uleb128 0x1
	.long	.LASF1296
	.byte	0x47
	.uleb128 0x1
	.long	.LASF1297
	.byte	0x48
	.uleb128 0x1
	.long	.LASF1298
	.byte	0x49
	.uleb128 0x1
	.long	.LASF1299
	.byte	0x4a
	.uleb128 0x1
	.long	.LASF1300
	.byte	0x4b
	.uleb128 0x1
	.long	.LASF1301
	.byte	0x4c
	.uleb128 0x1
	.long	.LASF1302
	.byte	0x4d
	.uleb128 0x1
	.long	.LASF1303
	.byte	0x4e
	.uleb128 0x1
	.long	.LASF1304
	.byte	0x4f
	.uleb128 0x1
	.long	.LASF1305
	.byte	0x50
	.uleb128 0x1
	.long	.LASF1306
	.byte	0x51
	.uleb128 0x1
	.long	.LASF1307
	.byte	0x52
	.uleb128 0x1
	.long	.LASF1308
	.byte	0x53
	.uleb128 0x1
	.long	.LASF1309
	.byte	0x54
	.uleb128 0x1
	.long	.LASF1310
	.byte	0x55
	.uleb128 0x1
	.long	.LASF1311
	.byte	0x56
	.uleb128 0x1
	.long	.LASF1312
	.byte	0x57
	.uleb128 0x1
	.long	.LASF1313
	.byte	0x58
	.uleb128 0x1
	.long	.LASF1314
	.byte	0x59
	.uleb128 0x1
	.long	.LASF1315
	.byte	0x5a
	.uleb128 0x1
	.long	.LASF1316
	.byte	0x5b
	.uleb128 0x1
	.long	.LASF1317
	.byte	0x5c
	.uleb128 0x1
	.long	.LASF1318
	.byte	0x5d
	.uleb128 0x1
	.long	.LASF1319
	.byte	0x5e
	.uleb128 0x1
	.long	.LASF1320
	.byte	0x5f
	.uleb128 0x1
	.long	.LASF1321
	.byte	0x60
	.uleb128 0x1
	.long	.LASF1322
	.byte	0x61
	.uleb128 0x1
	.long	.LASF1323
	.byte	0x62
	.uleb128 0x1
	.long	.LASF1324
	.byte	0x63
	.uleb128 0x1
	.long	.LASF1325
	.byte	0x64
	.uleb128 0x1
	.long	.LASF1326
	.byte	0x65
	.uleb128 0x1
	.long	.LASF1327
	.byte	0x66
	.uleb128 0x1
	.long	.LASF1328
	.byte	0x67
	.uleb128 0x1
	.long	.LASF1329
	.byte	0x68
	.uleb128 0x1
	.long	.LASF1330
	.byte	0x69
	.uleb128 0x1
	.long	.LASF1331
	.byte	0x6a
	.uleb128 0x1
	.long	.LASF1332
	.byte	0x6b
	.uleb128 0x1
	.long	.LASF1333
	.byte	0x6c
	.uleb128 0x1
	.long	.LASF1334
	.byte	0x6d
	.uleb128 0x1
	.long	.LASF1335
	.byte	0x6e
	.uleb128 0x1
	.long	.LASF1336
	.byte	0x6f
	.uleb128 0x1
	.long	.LASF1337
	.byte	0x70
	.uleb128 0x1
	.long	.LASF1338
	.byte	0x71
	.uleb128 0x1
	.long	.LASF1339
	.byte	0x72
	.uleb128 0x1
	.long	.LASF1340
	.byte	0x73
	.uleb128 0x1
	.long	.LASF1341
	.byte	0x74
	.uleb128 0x1
	.long	.LASF1342
	.byte	0x75
	.uleb128 0x1
	.long	.LASF1343
	.byte	0x76
	.uleb128 0x1
	.long	.LASF1344
	.byte	0x77
	.uleb128 0x1
	.long	.LASF1345
	.byte	0x78
	.uleb128 0x1
	.long	.LASF1346
	.byte	0x79
	.uleb128 0x1
	.long	.LASF1347
	.byte	0x7a
	.uleb128 0x1
	.long	.LASF1348
	.byte	0x7b
	.uleb128 0x1
	.long	.LASF1349
	.byte	0x7c
	.uleb128 0x1
	.long	.LASF1350
	.byte	0x7d
	.uleb128 0x1
	.long	.LASF1351
	.byte	0x7e
	.uleb128 0x1
	.long	.LASF1352
	.byte	0x7f
	.uleb128 0x1
	.long	.LASF1353
	.byte	0x80
	.uleb128 0x1
	.long	.LASF1354
	.byte	0x81
	.uleb128 0x1
	.long	.LASF1355
	.byte	0x82
	.uleb128 0x1
	.long	.LASF1356
	.byte	0x83
	.uleb128 0x1
	.long	.LASF1357
	.byte	0x84
	.uleb128 0x1
	.long	.LASF1358
	.byte	0x85
	.uleb128 0x1
	.long	.LASF1359
	.byte	0x86
	.uleb128 0x1
	.long	.LASF1360
	.byte	0x87
	.uleb128 0x1
	.long	.LASF1361
	.byte	0x88
	.uleb128 0x1
	.long	.LASF1362
	.byte	0x89
	.byte	0
	.uleb128 0x14
	.long	.LASF1363
	.byte	0xc
	.value	0x517
	.long	0x22aa
	.uleb128 0x1a
	.byte	0x5c
	.byte	0xc
	.value	0x519
	.long	0x274e
	.uleb128 0x5
	.long	.LASF1364
	.byte	0xc
	.value	0x51b
	.byte	0x9
	.long	0x9c
	.byte	0
	.uleb128 0x5
	.long	.LASF1365
	.byte	0xc
	.value	0x51c
	.byte	0x9
	.long	0x9c
	.byte	0x4
	.uleb128 0x5
	.long	.LASF1366
	.byte	0xc
	.value	0x51d
	.byte	0x9
	.long	0x9c
	.byte	0x8
	.uleb128 0x5
	.long	.LASF1367
	.byte	0xc
	.value	0x51e
	.byte	0x9
	.long	0x9c
	.byte	0xc
	.uleb128 0x5
	.long	.LASF1368
	.byte	0xc
	.value	0x51f
	.byte	0x9
	.long	0x9c
	.byte	0x10
	.uleb128 0x5
	.long	.LASF1369
	.byte	0xc
	.value	0x520
	.byte	0x9
	.long	0x9c
	.byte	0x14
	.uleb128 0x5
	.long	.LASF1370
	.byte	0xc
	.value	0x521
	.byte	0x9
	.long	0x9c
	.byte	0x18
	.uleb128 0x5
	.long	.LASF1371
	.byte	0xc
	.value	0x522
	.byte	0x9
	.long	0x9c
	.byte	0x1c
	.uleb128 0x5
	.long	.LASF1372
	.byte	0xc
	.value	0x523
	.byte	0x9
	.long	0x9c
	.byte	0x20
	.uleb128 0x5
	.long	.LASF1373
	.byte	0xc
	.value	0x524
	.byte	0x9
	.long	0x9c
	.byte	0x24
	.uleb128 0x5
	.long	.LASF1374
	.byte	0xc
	.value	0x525
	.byte	0x9
	.long	0x9c
	.byte	0x28
	.uleb128 0x5
	.long	.LASF1375
	.byte	0xc
	.value	0x526
	.byte	0x9
	.long	0x9c
	.byte	0x2c
	.uleb128 0x5
	.long	.LASF1376
	.byte	0xc
	.value	0x527
	.byte	0x9
	.long	0x9c
	.byte	0x30
	.uleb128 0x5
	.long	.LASF1377
	.byte	0xc
	.value	0x528
	.byte	0x9
	.long	0x9c
	.byte	0x34
	.uleb128 0x5
	.long	.LASF1378
	.byte	0xc
	.value	0x529
	.byte	0x9
	.long	0x9c
	.byte	0x38
	.uleb128 0x5
	.long	.LASF1379
	.byte	0xc
	.value	0x52a
	.byte	0x9
	.long	0x9c
	.byte	0x3c
	.uleb128 0x5
	.long	.LASF1380
	.byte	0xc
	.value	0x52b
	.byte	0x9
	.long	0x9c
	.byte	0x40
	.uleb128 0x5
	.long	.LASF1381
	.byte	0xc
	.value	0x52c
	.byte	0x9
	.long	0x9c
	.byte	0x44
	.uleb128 0x5
	.long	.LASF1382
	.byte	0xc
	.value	0x52d
	.byte	0x9
	.long	0x9c
	.byte	0x48
	.uleb128 0x5
	.long	.LASF1383
	.byte	0xc
	.value	0x52e
	.byte	0x9
	.long	0x9c
	.byte	0x4c
	.uleb128 0x5
	.long	.LASF1384
	.byte	0xc
	.value	0x52f
	.byte	0x9
	.long	0x9c
	.byte	0x50
	.uleb128 0x5
	.long	.LASF1385
	.byte	0xc
	.value	0x530
	.byte	0x9
	.long	0x9c
	.byte	0x54
	.uleb128 0x5
	.long	.LASF1386
	.byte	0xc
	.value	0x531
	.byte	0x9
	.long	0x9c
	.byte	0x58
	.byte	0
	.uleb128 0x14
	.long	.LASF1387
	.byte	0xc
	.value	0x533
	.long	0x2602
	.uleb128 0x17
	.long	.LASF1388
	.byte	0xe0
	.byte	0xd
	.byte	0xcf
	.long	0x2931
	.uleb128 0x3
	.long	.LASF1389
	.byte	0xd
	.byte	0xd2
	.byte	0x10
	.long	0x4d6
	.byte	0
	.uleb128 0x9
	.string	"x"
	.byte	0xd
	.byte	0xd5
	.byte	0xe
	.long	0x3ee
	.byte	0x18
	.uleb128 0x9
	.string	"y"
	.byte	0xd
	.byte	0xd6
	.byte	0xe
	.long	0x3ee
	.byte	0x1c
	.uleb128 0x9
	.string	"z"
	.byte	0xd
	.byte	0xd7
	.byte	0xe
	.long	0x3ee
	.byte	0x20
	.uleb128 0x3
	.long	.LASF1390
	.byte	0xd
	.byte	0xda
	.byte	0x14
	.long	0x2931
	.byte	0x28
	.uleb128 0x3
	.long	.LASF1391
	.byte	0xd
	.byte	0xdb
	.byte	0x14
	.long	0x2931
	.byte	0x30
	.uleb128 0x3
	.long	.LASF105
	.byte	0xd
	.byte	0xde
	.byte	0xe
	.long	0x3fa
	.byte	0x38
	.uleb128 0x3
	.long	.LASF1217
	.byte	0xd
	.byte	0xdf
	.byte	0x12
	.long	0x894
	.byte	0x3c
	.uleb128 0x3
	.long	.LASF1218
	.byte	0xd
	.byte	0xe0
	.byte	0xb
	.long	0x9c
	.byte	0x40
	.uleb128 0x3
	.long	.LASF1392
	.byte	0xd
	.byte	0xe4
	.byte	0x14
	.long	0x2931
	.byte	0x48
	.uleb128 0x3
	.long	.LASF1393
	.byte	0xd
	.byte	0xe5
	.byte	0x14
	.long	0x2931
	.byte	0x50
	.uleb128 0x3
	.long	.LASF1394
	.byte	0xd
	.byte	0xe7
	.byte	0x19
	.long	0x296a
	.byte	0x58
	.uleb128 0x3
	.long	.LASF1395
	.byte	0xd
	.byte	0xea
	.byte	0xe
	.long	0x3ee
	.byte	0x60
	.uleb128 0x3
	.long	.LASF1396
	.byte	0xd
	.byte	0xeb
	.byte	0xe
	.long	0x3ee
	.byte	0x64
	.uleb128 0x3
	.long	.LASF1380
	.byte	0xd
	.byte	0xee
	.byte	0xe
	.long	0x3ee
	.byte	0x68
	.uleb128 0x3
	.long	.LASF1381
	.byte	0xd
	.byte	0xef
	.byte	0xe
	.long	0x3ee
	.byte	0x6c
	.uleb128 0x3
	.long	.LASF1397
	.byte	0xd
	.byte	0xf2
	.byte	0xe
	.long	0x3ee
	.byte	0x70
	.uleb128 0x3
	.long	.LASF1398
	.byte	0xd
	.byte	0xf3
	.byte	0xe
	.long	0x3ee
	.byte	0x74
	.uleb128 0x3
	.long	.LASF1399
	.byte	0xd
	.byte	0xf4
	.byte	0xe
	.long	0x3ee
	.byte	0x78
	.uleb128 0x3
	.long	.LASF1400
	.byte	0xd
	.byte	0xf7
	.byte	0xb
	.long	0x9c
	.byte	0x7c
	.uleb128 0x3
	.long	.LASF32
	.byte	0xd
	.byte	0xf9
	.byte	0x11
	.long	0x25f6
	.byte	0x80
	.uleb128 0x3
	.long	.LASF1401
	.byte	0xd
	.byte	0xfa
	.byte	0x12
	.long	0x296f
	.byte	0x88
	.uleb128 0x3
	.long	.LASF1219
	.byte	0xd
	.byte	0xfc
	.byte	0xb
	.long	0x9c
	.byte	0x90
	.uleb128 0x3
	.long	.LASF1402
	.byte	0xd
	.byte	0xfd
	.byte	0xf
	.long	0x2974
	.byte	0x98
	.uleb128 0x3
	.long	.LASF1385
	.byte	0xd
	.byte	0xfe
	.byte	0xb
	.long	0x9c
	.byte	0xa0
	.uleb128 0x3
	.long	.LASF1403
	.byte	0xd
	.byte	0xff
	.byte	0xb
	.long	0x9c
	.byte	0xa4
	.uleb128 0x5
	.long	.LASF1404
	.byte	0xd
	.value	0x102
	.byte	0xb
	.long	0x9c
	.byte	0xa8
	.uleb128 0x5
	.long	.LASF1405
	.byte	0xd
	.value	0x103
	.byte	0xb
	.long	0x9c
	.byte	0xac
	.uleb128 0x5
	.long	.LASF1406
	.byte	0xd
	.value	0x107
	.byte	0x14
	.long	0x2931
	.byte	0xb0
	.uleb128 0x5
	.long	.LASF1369
	.byte	0xd
	.value	0x10b
	.byte	0xb
	.long	0x9c
	.byte	0xb8
	.uleb128 0x5
	.long	.LASF1407
	.byte	0xd
	.value	0x10f
	.byte	0xb
	.long	0x9c
	.byte	0xbc
	.uleb128 0x5
	.long	.LASF1408
	.byte	0xd
	.value	0x113
	.byte	0x16
	.long	0x2b4e
	.byte	0xc0
	.uleb128 0x5
	.long	.LASF1409
	.byte	0xd
	.value	0x116
	.byte	0xb
	.long	0x9c
	.byte	0xc8
	.uleb128 0x5
	.long	.LASF1410
	.byte	0xd
	.value	0x119
	.byte	0x11
	.long	0x538
	.byte	0xcc
	.uleb128 0x5
	.long	.LASF1411
	.byte	0xd
	.value	0x11c
	.byte	0x14
	.long	0x2931
	.byte	0xd8
	.byte	0
	.uleb128 0xa
	.long	0x275a
	.uleb128 0x17
	.long	.LASF1412
	.byte	0x10
	.byte	0xe
	.byte	0xe3
	.long	0x296a
	.uleb128 0x3
	.long	.LASF1413
	.byte	0xe
	.byte	0xe5
	.byte	0xf
	.long	0x2d90
	.byte	0
	.uleb128 0x3
	.long	.LASF1414
	.byte	0xe
	.byte	0xe6
	.byte	0xb
	.long	0x95
	.byte	0x8
	.uleb128 0x3
	.long	.LASF1415
	.byte	0xe
	.byte	0xe7
	.byte	0xb
	.long	0x95
	.byte	0xa
	.byte	0
	.uleb128 0xa
	.long	0x2936
	.uleb128 0xa
	.long	0x274e
	.uleb128 0xa
	.long	0x229e
	.uleb128 0x2b
	.long	.LASF1416
	.value	0x140
	.byte	0xf
	.byte	0x53
	.byte	0x10
	.long	0x2b4e
	.uleb128 0x9
	.string	"mo"
	.byte	0xf
	.byte	0x55
	.byte	0xe
	.long	0x2ca6
	.byte	0
	.uleb128 0x3
	.long	.LASF1417
	.byte	0xf
	.byte	0x56
	.byte	0x13
	.long	0x2ecf
	.byte	0x8
	.uleb128 0x9
	.string	"cmd"
	.byte	0xf
	.byte	0x57
	.byte	0xf
	.long	0x1ad
	.byte	0xc
	.uleb128 0x3
	.long	.LASF1418
	.byte	0xf
	.byte	0x5c
	.byte	0xe
	.long	0x3ee
	.byte	0x14
	.uleb128 0x3
	.long	.LASF1419
	.byte	0xf
	.byte	0x5e
	.byte	0xe
	.long	0x3ee
	.byte	0x18
	.uleb128 0x3
	.long	.LASF1420
	.byte	0xf
	.byte	0x60
	.byte	0x16
	.long	0x3ee
	.byte	0x1c
	.uleb128 0x9
	.string	"bob"
	.byte	0xf
	.byte	0x62
	.byte	0x16
	.long	0x3ee
	.byte	0x20
	.uleb128 0x3
	.long	.LASF1403
	.byte	0xf
	.byte	0x66
	.byte	0xb
	.long	0x9c
	.byte	0x24
	.uleb128 0x3
	.long	.LASF1421
	.byte	0xf
	.byte	0x67
	.byte	0xb
	.long	0x9c
	.byte	0x28
	.uleb128 0x3
	.long	.LASF1422
	.byte	0xf
	.byte	0x69
	.byte	0xb
	.long	0x9c
	.byte	0x2c
	.uleb128 0x3
	.long	.LASF1423
	.byte	0xf
	.byte	0x6c
	.byte	0xb
	.long	0x2edb
	.byte	0x30
	.uleb128 0x3
	.long	.LASF1424
	.byte	0xf
	.byte	0x6d
	.byte	0xe
	.long	0x2eeb
	.byte	0x48
	.uleb128 0x3
	.long	.LASF1425
	.byte	0xf
	.byte	0x6e
	.byte	0xe
	.long	0x13e
	.byte	0x60
	.uleb128 0x3
	.long	.LASF1426
	.byte	0xf
	.byte	0x71
	.byte	0xb
	.long	0x2cab
	.byte	0x64
	.uleb128 0x3
	.long	.LASF1427
	.byte	0xf
	.byte	0x72
	.byte	0x12
	.long	0x36a
	.byte	0x74
	.uleb128 0x3
	.long	.LASF1428
	.byte	0xf
	.byte	0x75
	.byte	0x12
	.long	0x36a
	.byte	0x78
	.uleb128 0x3
	.long	.LASF1429
	.byte	0xf
	.byte	0x77
	.byte	0xe
	.long	0x2efb
	.byte	0x7c
	.uleb128 0x3
	.long	.LASF1430
	.byte	0xf
	.byte	0x78
	.byte	0xb
	.long	0x2cab
	.byte	0xa0
	.uleb128 0x3
	.long	.LASF1431
	.byte	0xf
	.byte	0x79
	.byte	0xb
	.long	0x2cab
	.byte	0xb0
	.uleb128 0x3
	.long	.LASF1432
	.byte	0xf
	.byte	0x7c
	.byte	0xb
	.long	0x9c
	.byte	0xc0
	.uleb128 0x3
	.long	.LASF1433
	.byte	0xf
	.byte	0x7d
	.byte	0xb
	.long	0x9c
	.byte	0xc4
	.uleb128 0x3
	.long	.LASF1434
	.byte	0xf
	.byte	0x81
	.byte	0xb
	.long	0x9c
	.byte	0xc8
	.uleb128 0x3
	.long	.LASF1435
	.byte	0xf
	.byte	0x84
	.byte	0xb
	.long	0x9c
	.byte	0xcc
	.uleb128 0x3
	.long	.LASF1436
	.byte	0xf
	.byte	0x87
	.byte	0xb
	.long	0x9c
	.byte	0xd0
	.uleb128 0x3
	.long	.LASF1437
	.byte	0xf
	.byte	0x88
	.byte	0xb
	.long	0x9c
	.byte	0xd4
	.uleb128 0x3
	.long	.LASF1438
	.byte	0xf
	.byte	0x89
	.byte	0xb
	.long	0x9c
	.byte	0xd8
	.uleb128 0x3
	.long	.LASF1439
	.byte	0xf
	.byte	0x8c
	.byte	0xc
	.long	0xaa
	.byte	0xe0
	.uleb128 0x3
	.long	.LASF1440
	.byte	0xf
	.byte	0x8f
	.byte	0xb
	.long	0x9c
	.byte	0xe8
	.uleb128 0x3
	.long	.LASF1441
	.byte	0xf
	.byte	0x90
	.byte	0xb
	.long	0x9c
	.byte	0xec
	.uleb128 0x3
	.long	.LASF1442
	.byte	0xf
	.byte	0x93
	.byte	0xe
	.long	0x2ca6
	.byte	0xf0
	.uleb128 0x3
	.long	.LASF1443
	.byte	0xf
	.byte	0x96
	.byte	0xb
	.long	0x9c
	.byte	0xf8
	.uleb128 0x3
	.long	.LASF1444
	.byte	0xf
	.byte	0x9a
	.byte	0xb
	.long	0x9c
	.byte	0xfc
	.uleb128 0x1b
	.long	.LASF1445
	.byte	0x9e
	.byte	0xb
	.long	0x9c
	.value	0x100
	.uleb128 0x1b
	.long	.LASF1446
	.byte	0xa1
	.byte	0xf
	.long	0x2f0b
	.value	0x108
	.uleb128 0x1b
	.long	.LASF1447
	.byte	0xa4
	.byte	0xe
	.long	0x13e
	.value	0x138
	.byte	0
	.uleb128 0xa
	.long	0x2979
	.uleb128 0x14
	.long	.LASF1448
	.byte	0xd
	.value	0x11e
	.long	0x275a
	.uleb128 0x10
	.byte	0x8
	.byte	0xe
	.byte	0x47
	.long	0x2b7e
	.uleb128 0x9
	.string	"x"
	.byte	0xe
	.byte	0x49
	.byte	0xd
	.long	0x3ee
	.byte	0
	.uleb128 0x9
	.string	"y"
	.byte	0xe
	.byte	0x4a
	.byte	0xd
	.long	0x3ee
	.byte	0x4
	.byte	0
	.uleb128 0x7
	.long	.LASF1449
	.byte	0xe
	.byte	0x4c
	.byte	0x3
	.long	0x2b5f
	.uleb128 0x10
	.byte	0x28
	.byte	0xe
	.byte	0x58
	.long	0x2bc1
	.uleb128 0x3
	.long	.LASF1389
	.byte	0xe
	.byte	0x5a
	.byte	0x10
	.long	0x4d6
	.byte	0
	.uleb128 0x9
	.string	"x"
	.byte	0xe
	.byte	0x5b
	.byte	0xe
	.long	0x3ee
	.byte	0x18
	.uleb128 0x9
	.string	"y"
	.byte	0xe
	.byte	0x5c
	.byte	0xe
	.long	0x3ee
	.byte	0x1c
	.uleb128 0x9
	.string	"z"
	.byte	0xe
	.byte	0x5d
	.byte	0xe
	.long	0x3ee
	.byte	0x20
	.byte	0
	.uleb128 0x7
	.long	.LASF1450
	.byte	0xe
	.byte	0x5f
	.byte	0x3
	.long	0x2b8a
	.uleb128 0x10
	.byte	0x80
	.byte	0xe
	.byte	0x65
	.long	0x2ca6
	.uleb128 0x3
	.long	.LASF1451
	.byte	0xe
	.byte	0x67
	.byte	0xd
	.long	0x3ee
	.byte	0
	.uleb128 0x3
	.long	.LASF1452
	.byte	0xe
	.byte	0x68
	.byte	0xd
	.long	0x3ee
	.byte	0x4
	.uleb128 0x3
	.long	.LASF1453
	.byte	0xe
	.byte	0x69
	.byte	0xb
	.long	0x95
	.byte	0x8
	.uleb128 0x3
	.long	.LASF1454
	.byte	0xe
	.byte	0x6a
	.byte	0xb
	.long	0x95
	.byte	0xa
	.uleb128 0x3
	.long	.LASF1455
	.byte	0xe
	.byte	0x6b
	.byte	0xb
	.long	0x95
	.byte	0xc
	.uleb128 0x3
	.long	.LASF1456
	.byte	0xe
	.byte	0x6c
	.byte	0xb
	.long	0x95
	.byte	0xe
	.uleb128 0x9
	.string	"tag"
	.byte	0xe
	.byte	0x6d
	.byte	0xb
	.long	0x95
	.byte	0x10
	.uleb128 0x3
	.long	.LASF1457
	.byte	0xe
	.byte	0x70
	.byte	0xa
	.long	0x9c
	.byte	0x14
	.uleb128 0x3
	.long	.LASF1458
	.byte	0xe
	.byte	0x73
	.byte	0xd
	.long	0x2ca6
	.byte	0x18
	.uleb128 0x3
	.long	.LASF1459
	.byte	0xe
	.byte	0x76
	.byte	0xa
	.long	0x2cab
	.byte	0x20
	.uleb128 0x3
	.long	.LASF1460
	.byte	0xe
	.byte	0x79
	.byte	0x11
	.long	0x2bc1
	.byte	0x30
	.uleb128 0x3
	.long	.LASF1400
	.byte	0xe
	.byte	0x7c
	.byte	0xa
	.long	0x9c
	.byte	0x58
	.uleb128 0x3
	.long	.LASF1461
	.byte	0xe
	.byte	0x7f
	.byte	0xd
	.long	0x2ca6
	.byte	0x60
	.uleb128 0x3
	.long	.LASF1462
	.byte	0xe
	.byte	0x82
	.byte	0xb
	.long	0x7e
	.byte	0x68
	.uleb128 0x3
	.long	.LASF1463
	.byte	0xe
	.byte	0x84
	.byte	0xb
	.long	0x9c
	.byte	0x70
	.uleb128 0x3
	.long	.LASF1464
	.byte	0xe
	.byte	0x85
	.byte	0x15
	.long	0x2d7a
	.byte	0x78
	.byte	0
	.uleb128 0xa
	.long	0x2b53
	.uleb128 0xc
	.long	0x9c
	.long	0x2cbb
	.uleb128 0xb
	.long	0x43
	.byte	0x3
	.byte	0
	.uleb128 0x17
	.long	.LASF1465
	.byte	0x58
	.byte	0xe
	.byte	0xb3
	.long	0x2d7a
	.uleb128 0x9
	.string	"v1"
	.byte	0xe
	.byte	0xb6
	.byte	0xf
	.long	0x2dc7
	.byte	0
	.uleb128 0x9
	.string	"v2"
	.byte	0xe
	.byte	0xb7
	.byte	0xf
	.long	0x2dc7
	.byte	0x8
	.uleb128 0x9
	.string	"dx"
	.byte	0xe
	.byte	0xba
	.byte	0xd
	.long	0x3ee
	.byte	0x10
	.uleb128 0x9
	.string	"dy"
	.byte	0xe
	.byte	0xbb
	.byte	0xd
	.long	0x3ee
	.byte	0x14
	.uleb128 0x3
	.long	.LASF1385
	.byte	0xe
	.byte	0xbe
	.byte	0xb
	.long	0x95
	.byte	0x18
	.uleb128 0x3
	.long	.LASF1456
	.byte	0xe
	.byte	0xbf
	.byte	0xb
	.long	0x95
	.byte	0x1a
	.uleb128 0x9
	.string	"tag"
	.byte	0xe
	.byte	0xc0
	.byte	0xb
	.long	0x95
	.byte	0x1c
	.uleb128 0x3
	.long	.LASF1466
	.byte	0xe
	.byte	0xc4
	.byte	0xb
	.long	0x4e2
	.byte	0x1e
	.uleb128 0x3
	.long	.LASF1467
	.byte	0xe
	.byte	0xc8
	.byte	0xd
	.long	0x2dcc
	.byte	0x24
	.uleb128 0x3
	.long	.LASF1468
	.byte	0xe
	.byte	0xcb
	.byte	0x11
	.long	0x2dbb
	.byte	0x34
	.uleb128 0x3
	.long	.LASF1469
	.byte	0xe
	.byte	0xcf
	.byte	0xf
	.long	0x2d90
	.byte	0x38
	.uleb128 0x3
	.long	.LASF1470
	.byte	0xe
	.byte	0xd0
	.byte	0xf
	.long	0x2d90
	.byte	0x40
	.uleb128 0x3
	.long	.LASF1400
	.byte	0xe
	.byte	0xd3
	.byte	0xa
	.long	0x9c
	.byte	0x48
	.uleb128 0x3
	.long	.LASF1462
	.byte	0xe
	.byte	0xd6
	.byte	0xb
	.long	0x7e
	.byte	0x50
	.byte	0
	.uleb128 0xa
	.long	0x2d7f
	.uleb128 0xa
	.long	0x2cbb
	.uleb128 0x7
	.long	.LASF1471
	.byte	0xe
	.byte	0x87
	.byte	0x3
	.long	0x2bcd
	.uleb128 0xa
	.long	0x2d84
	.uleb128 0xe
	.byte	0x7
	.long	0x77
	.byte	0xe
	.byte	0xa9
	.byte	0x1
	.long	0x2dbb
	.uleb128 0x1
	.long	.LASF1472
	.byte	0
	.uleb128 0x1
	.long	.LASF1473
	.byte	0x1
	.uleb128 0x1
	.long	.LASF1474
	.byte	0x2
	.uleb128 0x1
	.long	.LASF1475
	.byte	0x3
	.byte	0
	.uleb128 0x7
	.long	.LASF1476
	.byte	0xe
	.byte	0xaf
	.byte	0x3
	.long	0x2d95
	.uleb128 0xa
	.long	0x2b7e
	.uleb128 0xc
	.long	0x3ee
	.long	0x2ddc
	.uleb128 0xb
	.long	0x43
	.byte	0x3
	.byte	0
	.uleb128 0x1a
	.byte	0x28
	.byte	0xe
	.value	0x164
	.long	0x2e2c
	.uleb128 0x5
	.long	.LASF1477
	.byte	0xe
	.value	0x166
	.byte	0xc
	.long	0x95
	.byte	0
	.uleb128 0x5
	.long	.LASF1381
	.byte	0xe
	.value	0x167
	.byte	0xc
	.long	0x95
	.byte	0x2
	.uleb128 0x5
	.long	.LASF1478
	.byte	0xe
	.value	0x168
	.byte	0xc
	.long	0x95
	.byte	0x4
	.uleb128 0x5
	.long	.LASF1479
	.byte	0xe
	.value	0x169
	.byte	0xc
	.long	0x95
	.byte	0x6
	.uleb128 0x5
	.long	.LASF1480
	.byte	0xe
	.value	0x16a
	.byte	0xb
	.long	0x2e2c
	.byte	0x8
	.byte	0
	.uleb128 0xc
	.long	0x9c
	.long	0x2e3c
	.uleb128 0xb
	.long	0x43
	.byte	0x7
	.byte	0
	.uleb128 0x14
	.long	.LASF1481
	.byte	0xe
	.value	0x16c
	.long	0x2ddc
	.uleb128 0xe
	.byte	0x7
	.long	0x77
	.byte	0x10
	.byte	0x3d
	.byte	0x1
	.long	0x2e68
	.uleb128 0x1
	.long	.LASF1482
	.byte	0
	.uleb128 0x1
	.long	.LASF1483
	.byte	0x1
	.uleb128 0x1
	.long	.LASF1484
	.byte	0x2
	.byte	0
	.uleb128 0x10
	.byte	0x18
	.byte	0x10
	.byte	0x44
	.long	0x2ea3
	.uleb128 0x3
	.long	.LASF1402
	.byte	0x10
	.byte	0x46
	.byte	0xe
	.long	0x2974
	.byte	0
	.uleb128 0x3
	.long	.LASF1219
	.byte	0x10
	.byte	0x47
	.byte	0xa
	.long	0x9c
	.byte	0x8
	.uleb128 0x9
	.string	"sx"
	.byte	0x10
	.byte	0x48
	.byte	0xd
	.long	0x3ee
	.byte	0xc
	.uleb128 0x9
	.string	"sy"
	.byte	0x10
	.byte	0x49
	.byte	0xd
	.long	0x3ee
	.byte	0x10
	.byte	0
	.uleb128 0x7
	.long	.LASF1485
	.byte	0x10
	.byte	0x4b
	.byte	0x3
	.long	0x2e68
	.uleb128 0xe
	.byte	0x7
	.long	0x77
	.byte	0xf
	.byte	0x36
	.byte	0x1
	.long	0x2ecf
	.uleb128 0x1
	.long	.LASF1486
	.byte	0
	.uleb128 0x1
	.long	.LASF1487
	.byte	0x1
	.uleb128 0x1
	.long	.LASF1488
	.byte	0x2
	.byte	0
	.uleb128 0x7
	.long	.LASF1489
	.byte	0xf
	.byte	0x3e
	.byte	0x3
	.long	0x2eaf
	.uleb128 0xc
	.long	0x9c
	.long	0x2eeb
	.uleb128 0xb
	.long	0x43
	.byte	0x5
	.byte	0
	.uleb128 0xc
	.long	0x13e
	.long	0x2efb
	.uleb128 0xb
	.long	0x43
	.byte	0x5
	.byte	0
	.uleb128 0xc
	.long	0x13e
	.long	0x2f0b
	.uleb128 0xb
	.long	0x43
	.byte	0x8
	.byte	0
	.uleb128 0xc
	.long	0x2ea3
	.long	0x2f1b
	.uleb128 0xb
	.long	0x43
	.byte	0x1
	.byte	0
	.uleb128 0x7
	.long	.LASF1490
	.byte	0xf
	.byte	0xa6
	.byte	0x3
	.long	0x2979
	.uleb128 0x10
	.byte	0x28
	.byte	0xf
	.byte	0xad
	.long	0x2f8a
	.uleb128 0x9
	.string	"in"
	.byte	0xf
	.byte	0xaf
	.byte	0xd
	.long	0x13e
	.byte	0
	.uleb128 0x3
	.long	.LASF1491
	.byte	0xf
	.byte	0xb2
	.byte	0xa
	.long	0x9c
	.byte	0x4
	.uleb128 0x3
	.long	.LASF1492
	.byte	0xf
	.byte	0xb3
	.byte	0xa
	.long	0x9c
	.byte	0x8
	.uleb128 0x3
	.long	.LASF1493
	.byte	0xf
	.byte	0xb4
	.byte	0xa
	.long	0x9c
	.byte	0xc
	.uleb128 0x3
	.long	.LASF1494
	.byte	0xf
	.byte	0xb5
	.byte	0xa
	.long	0x9c
	.byte	0x10
	.uleb128 0x3
	.long	.LASF1426
	.byte	0xf
	.byte	0xb6
	.byte	0xa
	.long	0x2cab
	.byte	0x14
	.uleb128 0x3
	.long	.LASF1495
	.byte	0xf
	.byte	0xb7
	.byte	0xa
	.long	0x9c
	.byte	0x24
	.byte	0
	.uleb128 0x7
	.long	.LASF1496
	.byte	0xf
	.byte	0xb9
	.byte	0x3
	.long	0x2f27
	.uleb128 0x10
	.byte	0xc8
	.byte	0xf
	.byte	0xbb
	.long	0x302e
	.uleb128 0x3
	.long	.LASF1497
	.byte	0xf
	.byte	0xbd
	.byte	0xa
	.long	0x9c
	.byte	0
	.uleb128 0x3
	.long	.LASF1447
	.byte	0xf
	.byte	0xc0
	.byte	0xd
	.long	0x13e
	.byte	0x4
	.uleb128 0x3
	.long	.LASF1498
	.byte	0xf
	.byte	0xc3
	.byte	0xa
	.long	0x9c
	.byte	0x8
	.uleb128 0x3
	.long	.LASF12
	.byte	0xf
	.byte	0xc4
	.byte	0xa
	.long	0x9c
	.byte	0xc
	.uleb128 0x3
	.long	.LASF1499
	.byte	0xf
	.byte	0xc6
	.byte	0xa
	.long	0x9c
	.byte	0x10
	.uleb128 0x3
	.long	.LASF1500
	.byte	0xf
	.byte	0xc7
	.byte	0xa
	.long	0x9c
	.byte	0x14
	.uleb128 0x3
	.long	.LASF1501
	.byte	0xf
	.byte	0xc8
	.byte	0xa
	.long	0x9c
	.byte	0x18
	.uleb128 0x3
	.long	.LASF1502
	.byte	0xf
	.byte	0xc9
	.byte	0xa
	.long	0x9c
	.byte	0x1c
	.uleb128 0x3
	.long	.LASF1503
	.byte	0xf
	.byte	0xcc
	.byte	0xa
	.long	0x9c
	.byte	0x20
	.uleb128 0x3
	.long	.LASF1504
	.byte	0xf
	.byte	0xcf
	.byte	0xa
	.long	0x9c
	.byte	0x24
	.uleb128 0x3
	.long	.LASF1505
	.byte	0xf
	.byte	0xd1
	.byte	0x16
	.long	0x302e
	.byte	0x28
	.byte	0
	.uleb128 0xc
	.long	0x2f8a
	.long	0x303e
	.uleb128 0xb
	.long	0x43
	.byte	0x3
	.byte	0
	.uleb128 0x7
	.long	.LASF1506
	.byte	0xf
	.byte	0xd3
	.byte	0x3
	.long	0x2f96
	.uleb128 0xa
	.long	0x2f1b
	.uleb128 0xa
	.long	0x14a
	.uleb128 0x15
	.long	.LASF1507
	.byte	0x11
	.byte	0x3c
	.byte	0x13
	.long	0x2b0
	.uleb128 0x15
	.long	.LASF1508
	.byte	0x11
	.byte	0x5c
	.byte	0x11
	.long	0x13e
	.uleb128 0x15
	.long	.LASF1509
	.byte	0x11
	.byte	0x60
	.byte	0x11
	.long	0x13e
	.uleb128 0xc
	.long	0x2f1b
	.long	0x3088
	.uleb128 0xb
	.long	0x43
	.byte	0x3
	.byte	0
	.uleb128 0x15
	.long	.LASF1510
	.byte	0x11
	.byte	0xd4
	.byte	0x11
	.long	0x3078
	.uleb128 0xc
	.long	0x13e
	.long	0x30a4
	.uleb128 0xb
	.long	0x43
	.byte	0x3
	.byte	0
	.uleb128 0x15
	.long	.LASF1511
	.byte	0x11
	.byte	0xd7
	.byte	0x12
	.long	0x3094
	.uleb128 0xe
	.byte	0x7
	.long	0x77
	.byte	0x12
	.byte	0x64
	.byte	0x1
	.long	0x325c
	.uleb128 0x1
	.long	.LASF1512
	.byte	0
	.uleb128 0x1
	.long	.LASF1513
	.byte	0x1
	.uleb128 0x1
	.long	.LASF1514
	.byte	0x2
	.uleb128 0x1
	.long	.LASF1515
	.byte	0x3
	.uleb128 0x1
	.long	.LASF1516
	.byte	0x4
	.uleb128 0x1
	.long	.LASF1517
	.byte	0x5
	.uleb128 0x1
	.long	.LASF1518
	.byte	0x6
	.uleb128 0x1
	.long	.LASF1519
	.byte	0x7
	.uleb128 0x1
	.long	.LASF1520
	.byte	0x8
	.uleb128 0x1
	.long	.LASF1521
	.byte	0x9
	.uleb128 0x1
	.long	.LASF1522
	.byte	0xa
	.uleb128 0x1
	.long	.LASF1523
	.byte	0xb
	.uleb128 0x1
	.long	.LASF1524
	.byte	0xc
	.uleb128 0x1
	.long	.LASF1525
	.byte	0xd
	.uleb128 0x1
	.long	.LASF1526
	.byte	0xe
	.uleb128 0x1
	.long	.LASF1527
	.byte	0xf
	.uleb128 0x1
	.long	.LASF1528
	.byte	0x10
	.uleb128 0x1
	.long	.LASF1529
	.byte	0x11
	.uleb128 0x1
	.long	.LASF1530
	.byte	0x12
	.uleb128 0x1
	.long	.LASF1531
	.byte	0x13
	.uleb128 0x1
	.long	.LASF1532
	.byte	0x14
	.uleb128 0x1
	.long	.LASF1533
	.byte	0x15
	.uleb128 0x1
	.long	.LASF1534
	.byte	0x16
	.uleb128 0x1
	.long	.LASF1535
	.byte	0x17
	.uleb128 0x1
	.long	.LASF1536
	.byte	0x18
	.uleb128 0x1
	.long	.LASF1537
	.byte	0x19
	.uleb128 0x1
	.long	.LASF1538
	.byte	0x1a
	.uleb128 0x1
	.long	.LASF1539
	.byte	0x1b
	.uleb128 0x1
	.long	.LASF1540
	.byte	0x1c
	.uleb128 0x1
	.long	.LASF1541
	.byte	0x1d
	.uleb128 0x1
	.long	.LASF1542
	.byte	0x1e
	.uleb128 0x1
	.long	.LASF1543
	.byte	0x1f
	.uleb128 0x1
	.long	.LASF1544
	.byte	0x20
	.uleb128 0x1
	.long	.LASF1545
	.byte	0x21
	.uleb128 0x1
	.long	.LASF1546
	.byte	0x22
	.uleb128 0x1
	.long	.LASF1547
	.byte	0x23
	.uleb128 0x1
	.long	.LASF1548
	.byte	0x24
	.uleb128 0x1
	.long	.LASF1549
	.byte	0x25
	.uleb128 0x1
	.long	.LASF1550
	.byte	0x26
	.uleb128 0x1
	.long	.LASF1551
	.byte	0x27
	.uleb128 0x1
	.long	.LASF1552
	.byte	0x28
	.uleb128 0x1
	.long	.LASF1553
	.byte	0x29
	.uleb128 0x1
	.long	.LASF1554
	.byte	0x2a
	.uleb128 0x1
	.long	.LASF1555
	.byte	0x2b
	.uleb128 0x1
	.long	.LASF1556
	.byte	0x2c
	.uleb128 0x1
	.long	.LASF1557
	.byte	0x2d
	.uleb128 0x1
	.long	.LASF1558
	.byte	0x2e
	.uleb128 0x1
	.long	.LASF1559
	.byte	0x2f
	.uleb128 0x1
	.long	.LASF1560
	.byte	0x30
	.uleb128 0x1
	.long	.LASF1561
	.byte	0x31
	.uleb128 0x1
	.long	.LASF1562
	.byte	0x32
	.uleb128 0x1
	.long	.LASF1563
	.byte	0x33
	.uleb128 0x1
	.long	.LASF1564
	.byte	0x34
	.uleb128 0x1
	.long	.LASF1565
	.byte	0x35
	.uleb128 0x1
	.long	.LASF1566
	.byte	0x36
	.uleb128 0x1
	.long	.LASF1567
	.byte	0x37
	.uleb128 0x1
	.long	.LASF1568
	.byte	0x38
	.uleb128 0x1
	.long	.LASF1569
	.byte	0x39
	.uleb128 0x1
	.long	.LASF1570
	.byte	0x3a
	.uleb128 0x1
	.long	.LASF1571
	.byte	0x3b
	.uleb128 0x1
	.long	.LASF1572
	.byte	0x3c
	.uleb128 0x1
	.long	.LASF1573
	.byte	0x3d
	.uleb128 0x1
	.long	.LASF1574
	.byte	0x3e
	.uleb128 0x1
	.long	.LASF1575
	.byte	0x3f
	.uleb128 0x1
	.long	.LASF1576
	.byte	0x40
	.uleb128 0x1
	.long	.LASF1577
	.byte	0x41
	.uleb128 0x1
	.long	.LASF1578
	.byte	0x42
	.uleb128 0x1
	.long	.LASF1579
	.byte	0x43
	.uleb128 0x1
	.long	.LASF1580
	.byte	0x44
	.byte	0
	.uleb128 0xe
	.byte	0x7
	.long	0x77
	.byte	0x12
	.byte	0xb2
	.byte	0x1
	.long	0x34fe
	.uleb128 0x1
	.long	.LASF1581
	.byte	0
	.uleb128 0x1
	.long	.LASF1582
	.byte	0x1
	.uleb128 0x1
	.long	.LASF1583
	.byte	0x2
	.uleb128 0x1
	.long	.LASF1584
	.byte	0x3
	.uleb128 0x1
	.long	.LASF1585
	.byte	0x4
	.uleb128 0x1
	.long	.LASF1586
	.byte	0x5
	.uleb128 0x1
	.long	.LASF1587
	.byte	0x6
	.uleb128 0x1
	.long	.LASF1588
	.byte	0x7
	.uleb128 0x1
	.long	.LASF1589
	.byte	0x8
	.uleb128 0x1
	.long	.LASF1590
	.byte	0x9
	.uleb128 0x1
	.long	.LASF1591
	.byte	0xa
	.uleb128 0x1
	.long	.LASF1592
	.byte	0xb
	.uleb128 0x1
	.long	.LASF1593
	.byte	0xc
	.uleb128 0x1
	.long	.LASF1594
	.byte	0xd
	.uleb128 0x1
	.long	.LASF1595
	.byte	0xe
	.uleb128 0x1
	.long	.LASF1596
	.byte	0xf
	.uleb128 0x1
	.long	.LASF1597
	.byte	0x10
	.uleb128 0x1
	.long	.LASF1598
	.byte	0x11
	.uleb128 0x1
	.long	.LASF1599
	.byte	0x12
	.uleb128 0x1
	.long	.LASF1600
	.byte	0x13
	.uleb128 0x1
	.long	.LASF1601
	.byte	0x14
	.uleb128 0x1
	.long	.LASF1602
	.byte	0x15
	.uleb128 0x1
	.long	.LASF1603
	.byte	0x16
	.uleb128 0x1
	.long	.LASF1604
	.byte	0x17
	.uleb128 0x1
	.long	.LASF1605
	.byte	0x18
	.uleb128 0x1
	.long	.LASF1606
	.byte	0x19
	.uleb128 0x1
	.long	.LASF1607
	.byte	0x1a
	.uleb128 0x1
	.long	.LASF1608
	.byte	0x1b
	.uleb128 0x1
	.long	.LASF1609
	.byte	0x1c
	.uleb128 0x1
	.long	.LASF1610
	.byte	0x1d
	.uleb128 0x1
	.long	.LASF1611
	.byte	0x1e
	.uleb128 0x1
	.long	.LASF1612
	.byte	0x1f
	.uleb128 0x1
	.long	.LASF1613
	.byte	0x20
	.uleb128 0x1
	.long	.LASF1614
	.byte	0x21
	.uleb128 0x1
	.long	.LASF1615
	.byte	0x22
	.uleb128 0x1
	.long	.LASF1616
	.byte	0x23
	.uleb128 0x1
	.long	.LASF1617
	.byte	0x24
	.uleb128 0x1
	.long	.LASF1618
	.byte	0x25
	.uleb128 0x1
	.long	.LASF1619
	.byte	0x26
	.uleb128 0x1
	.long	.LASF1620
	.byte	0x27
	.uleb128 0x1
	.long	.LASF1621
	.byte	0x28
	.uleb128 0x1
	.long	.LASF1622
	.byte	0x29
	.uleb128 0x1
	.long	.LASF1623
	.byte	0x2a
	.uleb128 0x1
	.long	.LASF1624
	.byte	0x2b
	.uleb128 0x1
	.long	.LASF1625
	.byte	0x2c
	.uleb128 0x1
	.long	.LASF1626
	.byte	0x2d
	.uleb128 0x1
	.long	.LASF1627
	.byte	0x2e
	.uleb128 0x1
	.long	.LASF1628
	.byte	0x2f
	.uleb128 0x1
	.long	.LASF1629
	.byte	0x30
	.uleb128 0x1
	.long	.LASF1630
	.byte	0x31
	.uleb128 0x1
	.long	.LASF1631
	.byte	0x32
	.uleb128 0x1
	.long	.LASF1632
	.byte	0x33
	.uleb128 0x1
	.long	.LASF1633
	.byte	0x34
	.uleb128 0x1
	.long	.LASF1634
	.byte	0x35
	.uleb128 0x1
	.long	.LASF1635
	.byte	0x36
	.uleb128 0x1
	.long	.LASF1636
	.byte	0x37
	.uleb128 0x1
	.long	.LASF1637
	.byte	0x38
	.uleb128 0x1
	.long	.LASF1638
	.byte	0x39
	.uleb128 0x1
	.long	.LASF1639
	.byte	0x3a
	.uleb128 0x1
	.long	.LASF1640
	.byte	0x3b
	.uleb128 0x1
	.long	.LASF1641
	.byte	0x3c
	.uleb128 0x1
	.long	.LASF1642
	.byte	0x3d
	.uleb128 0x1
	.long	.LASF1643
	.byte	0x3e
	.uleb128 0x1
	.long	.LASF1644
	.byte	0x3f
	.uleb128 0x1
	.long	.LASF1645
	.byte	0x40
	.uleb128 0x1
	.long	.LASF1646
	.byte	0x41
	.uleb128 0x1
	.long	.LASF1647
	.byte	0x42
	.uleb128 0x1
	.long	.LASF1648
	.byte	0x43
	.uleb128 0x1
	.long	.LASF1649
	.byte	0x44
	.uleb128 0x1
	.long	.LASF1650
	.byte	0x45
	.uleb128 0x1
	.long	.LASF1651
	.byte	0x46
	.uleb128 0x1
	.long	.LASF1652
	.byte	0x47
	.uleb128 0x1
	.long	.LASF1653
	.byte	0x48
	.uleb128 0x1
	.long	.LASF1654
	.byte	0x49
	.uleb128 0x1
	.long	.LASF1655
	.byte	0x4a
	.uleb128 0x1
	.long	.LASF1656
	.byte	0x4b
	.uleb128 0x1
	.long	.LASF1657
	.byte	0x4c
	.uleb128 0x1
	.long	.LASF1658
	.byte	0x4d
	.uleb128 0x1
	.long	.LASF1659
	.byte	0x4e
	.uleb128 0x1
	.long	.LASF1660
	.byte	0x4f
	.uleb128 0x1
	.long	.LASF1661
	.byte	0x50
	.uleb128 0x1
	.long	.LASF1662
	.byte	0x51
	.uleb128 0x1
	.long	.LASF1663
	.byte	0x52
	.uleb128 0x1
	.long	.LASF1664
	.byte	0x53
	.uleb128 0x1
	.long	.LASF1665
	.byte	0x54
	.uleb128 0x1
	.long	.LASF1666
	.byte	0x55
	.uleb128 0x1
	.long	.LASF1667
	.byte	0x56
	.uleb128 0x1
	.long	.LASF1668
	.byte	0x57
	.uleb128 0x1
	.long	.LASF1669
	.byte	0x58
	.uleb128 0x1
	.long	.LASF1670
	.byte	0x59
	.uleb128 0x1
	.long	.LASF1671
	.byte	0x5a
	.uleb128 0x1
	.long	.LASF1672
	.byte	0x5b
	.uleb128 0x1
	.long	.LASF1673
	.byte	0x5c
	.uleb128 0x1
	.long	.LASF1674
	.byte	0x5d
	.uleb128 0x1
	.long	.LASF1675
	.byte	0x5e
	.uleb128 0x1
	.long	.LASF1676
	.byte	0x5f
	.uleb128 0x1
	.long	.LASF1677
	.byte	0x60
	.uleb128 0x1
	.long	.LASF1678
	.byte	0x61
	.uleb128 0x1
	.long	.LASF1679
	.byte	0x62
	.uleb128 0x1
	.long	.LASF1680
	.byte	0x63
	.uleb128 0x1
	.long	.LASF1681
	.byte	0x64
	.uleb128 0x1
	.long	.LASF1682
	.byte	0x65
	.uleb128 0x1
	.long	.LASF1683
	.byte	0x66
	.uleb128 0x1
	.long	.LASF1684
	.byte	0x67
	.uleb128 0x1
	.long	.LASF1685
	.byte	0x68
	.uleb128 0x1
	.long	.LASF1686
	.byte	0x69
	.uleb128 0x1
	.long	.LASF1687
	.byte	0x6a
	.uleb128 0x1
	.long	.LASF1688
	.byte	0x6b
	.uleb128 0x1
	.long	.LASF1689
	.byte	0x6c
	.uleb128 0x1
	.long	.LASF1690
	.byte	0x6d
	.byte	0
	.uleb128 0xc
	.long	0x304f
	.long	0x350e
	.uleb128 0xb
	.long	0x43
	.byte	0x4
	.byte	0
	.uleb128 0x15
	.long	.LASF1691
	.byte	0x13
	.byte	0x2f
	.byte	0xf
	.long	0x34fe
	.uleb128 0xe
	.byte	0x5
	.long	0x9c
	.byte	0x14
	.byte	0x20
	.byte	0x1
	.long	0x353a
	.uleb128 0x2c
	.long	.LASF1692
	.sleb128 -1
	.uleb128 0x1
	.long	.LASF1693
	.byte	0
	.uleb128 0x1
	.long	.LASF1694
	.byte	0x1
	.byte	0
	.uleb128 0x7
	.long	.LASF1695
	.byte	0x14
	.byte	0x25
	.byte	0x3
	.long	0x351a
	.uleb128 0xe
	.byte	0x7
	.long	0x77
	.byte	0x1
	.byte	0x73
	.byte	0x1
	.long	0x3566
	.uleb128 0x1
	.long	.LASF1696
	.byte	0
	.uleb128 0x1
	.long	.LASF1697
	.byte	0x1
	.uleb128 0x1
	.long	.LASF1698
	.byte	0x2
	.byte	0
	.uleb128 0x7
	.long	.LASF1699
	.byte	0x1
	.byte	0x78
	.byte	0x3
	.long	0x3546
	.uleb128 0x10
	.byte	0x8
	.byte	0x1
	.byte	0x7a
	.long	0x3591
	.uleb128 0x9
	.string	"x"
	.byte	0x1
	.byte	0x7c
	.byte	0xa
	.long	0x9c
	.byte	0
	.uleb128 0x9
	.string	"y"
	.byte	0x1
	.byte	0x7d
	.byte	0xa
	.long	0x9c
	.byte	0x4
	.byte	0
	.uleb128 0x7
	.long	.LASF1700
	.byte	0x1
	.byte	0x7f
	.byte	0x3
	.long	0x3572
	.uleb128 0x10
	.byte	0x48
	.byte	0x1
	.byte	0x86
	.long	0x3633
	.uleb128 0x3
	.long	.LASF32
	.byte	0x1
	.byte	0x88
	.byte	0x10
	.long	0x3566
	.byte	0
	.uleb128 0x3
	.long	.LASF1701
	.byte	0x1
	.byte	0x8b
	.byte	0xa
	.long	0x9c
	.byte	0x4
	.uleb128 0x3
	.long	.LASF1702
	.byte	0x1
	.byte	0x8e
	.byte	0xa
	.long	0x9c
	.byte	0x8
	.uleb128 0x9
	.string	"loc"
	.byte	0x1
	.byte	0x91
	.byte	0xd
	.long	0x3591
	.byte	0xc
	.uleb128 0x3
	.long	.LASF33
	.byte	0x1
	.byte	0x96
	.byte	0xa
	.long	0x9c
	.byte	0x14
	.uleb128 0x3
	.long	.LASF34
	.byte	0x1
	.byte	0x9b
	.byte	0xa
	.long	0x9c
	.byte	0x18
	.uleb128 0x9
	.string	"p"
	.byte	0x1
	.byte	0x9e
	.byte	0xe
	.long	0x3633
	.byte	0x20
	.uleb128 0x3
	.long	.LASF1703
	.byte	0x1
	.byte	0xa3
	.byte	0xa
	.long	0x9c
	.byte	0x38
	.uleb128 0x3
	.long	.LASF1704
	.byte	0x1
	.byte	0xa6
	.byte	0xa
	.long	0x9c
	.byte	0x3c
	.uleb128 0x9
	.string	"ctr"
	.byte	0x1
	.byte	0xa9
	.byte	0xa
	.long	0x9c
	.byte	0x40
	.uleb128 0x3
	.long	.LASF1402
	.byte	0x1
	.byte	0xac
	.byte	0xa
	.long	0x9c
	.byte	0x44
	.byte	0
	.uleb128 0xc
	.long	0x3643
	.long	0x3643
	.uleb128 0xb
	.long	0x43
	.byte	0x2
	.byte	0
	.uleb128 0xa
	.long	0x2e3c
	.uleb128 0x7
	.long	.LASF1705
	.byte	0x1
	.byte	0xae
	.byte	0x3
	.long	0x359d
	.uleb128 0xc
	.long	0x3591
	.long	0x366a
	.uleb128 0xb
	.long	0x43
	.byte	0x3
	.uleb128 0xb
	.long	0x43
	.byte	0x8
	.byte	0
	.uleb128 0x16
	.long	.LASF1707
	.byte	0xb1
	.byte	0x10
	.long	0x3654
	.uleb128 0x9
	.byte	0x3
	.quad	lnodes
	.uleb128 0xc
	.long	0x3648
	.long	0x368f
	.uleb128 0xb
	.long	0x43
	.byte	0x9
	.byte	0
	.uleb128 0x16
	.long	.LASF1708
	.byte	0xe2
	.byte	0xf
	.long	0x367f
	.uleb128 0x9
	.byte	0x3
	.quad	epsd0animinfo
	.uleb128 0xc
	.long	0x3648
	.long	0x36b4
	.uleb128 0xb
	.long	0x43
	.byte	0x8
	.byte	0
	.uleb128 0x16
	.long	.LASF1709
	.byte	0xf0
	.byte	0xf
	.long	0x36a4
	.uleb128 0x9
	.byte	0x3
	.quad	epsd1animinfo
	.uleb128 0xc
	.long	0x3648
	.long	0x36d9
	.uleb128 0xb
	.long	0x43
	.byte	0x5
	.byte	0
	.uleb128 0x16
	.long	.LASF1710
	.byte	0xfd
	.byte	0xf
	.long	0x36c9
	.uleb128 0x9
	.byte	0x3
	.quad	epsd2animinfo
	.uleb128 0x4
	.long	.LASF1711
	.value	0x107
	.byte	0xc
	.long	0x2cab
	.uleb128 0x9
	.byte	0x3
	.quad	NUMANIMS
	.uleb128 0xc
	.long	0x3714
	.long	0x3714
	.uleb128 0xb
	.long	0x43
	.byte	0x3
	.byte	0
	.uleb128 0xa
	.long	0x3648
	.uleb128 0x4
	.long	.LASF1712
	.value	0x10e
	.byte	0x10
	.long	0x3704
	.uleb128 0x9
	.byte	0x3
	.quad	anims
	.uleb128 0x4
	.long	.LASF1713
	.value	0x130
	.byte	0xd
	.long	0x9c
	.uleb128 0x9
	.byte	0x3
	.quad	acceleratestage
	.uleb128 0x6
	.string	"me"
	.value	0x133
	.byte	0xd
	.long	0x9c
	.uleb128 0x9
	.byte	0x3
	.quad	me
	.uleb128 0x4
	.long	.LASF1402
	.value	0x136
	.byte	0x14
	.long	0x353a
	.uleb128 0x9
	.byte	0x3
	.quad	state
	.uleb128 0x6
	.string	"wbs"
	.value	0x139
	.byte	0x19
	.long	0x3786
	.uleb128 0x9
	.byte	0x3
	.quad	wbs
	.uleb128 0xa
	.long	0x303e
	.uleb128 0x4
	.long	.LASF1714
	.value	0x13b
	.byte	0x1a
	.long	0x37a1
	.uleb128 0x9
	.byte	0x3
	.quad	plrs
	.uleb128 0xa
	.long	0x2f8a
	.uleb128 0x6
	.string	"cnt"
	.value	0x13e
	.byte	0xe
	.long	0x9c
	.uleb128 0x9
	.byte	0x3
	.quad	cnt
	.uleb128 0x4
	.long	.LASF1715
	.value	0x141
	.byte	0xe
	.long	0x9c
	.uleb128 0x9
	.byte	0x3
	.quad	bcnt
	.uleb128 0x4
	.long	.LASF1716
	.value	0x144
	.byte	0xe
	.long	0x9c
	.uleb128 0x9
	.byte	0x3
	.quad	firstrefresh
	.uleb128 0x4
	.long	.LASF1717
	.value	0x146
	.byte	0xd
	.long	0x2cab
	.uleb128 0x9
	.byte	0x3
	.quad	cnt_kills
	.uleb128 0x4
	.long	.LASF1718
	.value	0x147
	.byte	0xd
	.long	0x2cab
	.uleb128 0x9
	.byte	0x3
	.quad	cnt_items
	.uleb128 0x4
	.long	.LASF1719
	.value	0x148
	.byte	0xd
	.long	0x2cab
	.uleb128 0x9
	.byte	0x3
	.quad	cnt_secret
	.uleb128 0x4
	.long	.LASF1720
	.value	0x149
	.byte	0xd
	.long	0x9c
	.uleb128 0x9
	.byte	0x3
	.quad	cnt_time
	.uleb128 0x4
	.long	.LASF1721
	.value	0x14a
	.byte	0xd
	.long	0x9c
	.uleb128 0x9
	.byte	0x3
	.quad	cnt_par
	.uleb128 0x4
	.long	.LASF1722
	.value	0x14b
	.byte	0xd
	.long	0x9c
	.uleb128 0x9
	.byte	0x3
	.quad	cnt_pause
	.uleb128 0x4
	.long	.LASF1723
	.value	0x14e
	.byte	0xd
	.long	0x9c
	.uleb128 0x9
	.byte	0x3
	.quad	NUMCMAPS
	.uleb128 0x6
	.string	"bg"
	.value	0x156
	.byte	0x12
	.long	0x3643
	.uleb128 0x9
	.byte	0x3
	.quad	bg
	.uleb128 0xc
	.long	0x3643
	.long	0x38a7
	.uleb128 0xb
	.long	0x43
	.byte	0x1
	.byte	0
	.uleb128 0x6
	.string	"yah"
	.value	0x159
	.byte	0x12
	.long	0x3897
	.uleb128 0x9
	.byte	0x3
	.quad	yah
	.uleb128 0x4
	.long	.LASF1724
	.value	0x15c
	.byte	0x12
	.long	0x3643
	.uleb128 0x9
	.byte	0x3
	.quad	splat
	.uleb128 0x4
	.long	.LASF1725
	.value	0x15f
	.byte	0x12
	.long	0x3643
	.uleb128 0x9
	.byte	0x3
	.quad	percent
	.uleb128 0x4
	.long	.LASF1726
	.value	0x160
	.byte	0x12
	.long	0x3643
	.uleb128 0x9
	.byte	0x3
	.quad	colon
	.uleb128 0xc
	.long	0x3643
	.long	0x390f
	.uleb128 0xb
	.long	0x43
	.byte	0x9
	.byte	0
	.uleb128 0x6
	.string	"num"
	.value	0x163
	.byte	0x12
	.long	0x38ff
	.uleb128 0x9
	.byte	0x3
	.quad	num
	.uleb128 0x4
	.long	.LASF1727
	.value	0x166
	.byte	0x12
	.long	0x3643
	.uleb128 0x9
	.byte	0x3
	.quad	wiminus
	.uleb128 0x4
	.long	.LASF1728
	.value	0x169
	.byte	0x12
	.long	0x3643
	.uleb128 0x9
	.byte	0x3
	.quad	finished
	.uleb128 0x4
	.long	.LASF1729
	.value	0x16c
	.byte	0x12
	.long	0x3643
	.uleb128 0x9
	.byte	0x3
	.quad	entering
	.uleb128 0x4
	.long	.LASF1730
	.value	0x16f
	.byte	0x12
	.long	0x3643
	.uleb128 0x9
	.byte	0x3
	.quad	sp_secret
	.uleb128 0x4
	.long	.LASF1731
	.value	0x172
	.byte	0x12
	.long	0x3643
	.uleb128 0x9
	.byte	0x3
	.quad	kills
	.uleb128 0x4
	.long	.LASF1732
	.value	0x173
	.byte	0x12
	.long	0x3643
	.uleb128 0x9
	.byte	0x3
	.quad	secret
	.uleb128 0x4
	.long	.LASF1733
	.value	0x174
	.byte	0x12
	.long	0x3643
	.uleb128 0x9
	.byte	0x3
	.quad	items
	.uleb128 0x4
	.long	.LASF1426
	.value	0x175
	.byte	0x12
	.long	0x3643
	.uleb128 0x9
	.byte	0x3
	.quad	frags
	.uleb128 0x4
	.long	.LASF1734
	.value	0x178
	.byte	0x12
	.long	0x3643
	.uleb128 0x9
	.byte	0x3
	.quad	time
	.uleb128 0x6
	.string	"par"
	.value	0x179
	.byte	0x12
	.long	0x3643
	.uleb128 0x9
	.byte	0x3
	.quad	par
	.uleb128 0x4
	.long	.LASF1735
	.value	0x17a
	.byte	0x12
	.long	0x3643
	.uleb128 0x9
	.byte	0x3
	.quad	sucks
	.uleb128 0x4
	.long	.LASF1736
	.value	0x17d
	.byte	0x12
	.long	0x3643
	.uleb128 0x9
	.byte	0x3
	.quad	killers
	.uleb128 0x4
	.long	.LASF1737
	.value	0x17e
	.byte	0x12
	.long	0x3643
	.uleb128 0x9
	.byte	0x3
	.quad	victims
	.uleb128 0x4
	.long	.LASF1738
	.value	0x181
	.byte	0x12
	.long	0x3643
	.uleb128 0x9
	.byte	0x3
	.quad	total
	.uleb128 0x4
	.long	.LASF1739
	.value	0x182
	.byte	0x12
	.long	0x3643
	.uleb128 0x9
	.byte	0x3
	.quad	star
	.uleb128 0x4
	.long	.LASF1740
	.value	0x183
	.byte	0x12
	.long	0x3643
	.uleb128 0x9
	.byte	0x3
	.quad	bstar
	.uleb128 0xc
	.long	0x3643
	.long	0x3a95
	.uleb128 0xb
	.long	0x43
	.byte	0x3
	.byte	0
	.uleb128 0x6
	.string	"p"
	.value	0x186
	.byte	0x12
	.long	0x3a85
	.uleb128 0x9
	.byte	0x3
	.quad	p
	.uleb128 0x6
	.string	"bp"
	.value	0x189
	.byte	0x12
	.long	0x3a85
	.uleb128 0x9
	.byte	0x3
	.quad	bp
	.uleb128 0x4
	.long	.LASF1741
	.value	0x18c
	.byte	0x12
	.long	0x3ad4
	.uleb128 0x9
	.byte	0x3
	.quad	lnames
	.uleb128 0xa
	.long	0x3643
	.uleb128 0x4
	.long	.LASF1742
	.value	0x2ed
	.byte	0x11
	.long	0x13e
	.uleb128 0x9
	.byte	0x3
	.quad	snl_pointeron
	.uleb128 0x4
	.long	.LASF1743
	.value	0x34b
	.byte	0xd
	.long	0x9c
	.uleb128 0x9
	.byte	0x3
	.quad	dm_state
	.uleb128 0xc
	.long	0x9c
	.long	0x3b1b
	.uleb128 0xb
	.long	0x43
	.byte	0x3
	.uleb128 0xb
	.long	0x43
	.byte	0x3
	.byte	0
	.uleb128 0x4
	.long	.LASF1744
	.value	0x34c
	.byte	0xd
	.long	0x3b05
	.uleb128 0x9
	.byte	0x3
	.quad	dm_frags
	.uleb128 0x4
	.long	.LASF1745
	.value	0x34d
	.byte	0xd
	.long	0x2cab
	.uleb128 0x9
	.byte	0x3
	.quad	dm_totals
	.uleb128 0x4
	.long	.LASF1746
	.value	0x432
	.byte	0xc
	.long	0x2cab
	.uleb128 0x9
	.byte	0x3
	.quad	cnt_frags
	.uleb128 0x4
	.long	.LASF1747
	.value	0x433
	.byte	0xc
	.long	0x9c
	.uleb128 0x9
	.byte	0x3
	.quad	dofrags
	.uleb128 0x4
	.long	.LASF1748
	.value	0x434
	.byte	0xc
	.long	0x9c
	.uleb128 0x9
	.byte	0x3
	.quad	ng_state
	.uleb128 0x4
	.long	.LASF1749
	.value	0x524
	.byte	0xc
	.long	0x9c
	.uleb128 0x9
	.byte	0x3
	.quad	sp_state
	.uleb128 0x13
	.long	.LASF1750
	.byte	0x2
	.byte	0x31
	.byte	0x9
	.long	0x3bb1
	.uleb128 0x8
	.long	0x7e
	.byte	0
	.uleb128 0x13
	.long	.LASF1751
	.byte	0x2
	.byte	0x36
	.byte	0x9
	.long	0x3bc8
	.uleb128 0x8
	.long	0x7e
	.uleb128 0x8
	.long	0x9c
	.byte	0
	.uleb128 0x13
	.long	.LASF1752
	.byte	0x15
	.byte	0x59
	.byte	0x6
	.long	0x3bdb
	.uleb128 0x8
	.long	0xaa
	.uleb128 0x18
	.byte	0
	.uleb128 0x1c
	.long	.LASF1753
	.byte	0x2
	.byte	0x30
	.byte	0x7
	.long	0x7e
	.long	0x3bfb
	.uleb128 0x8
	.long	0x9c
	.uleb128 0x8
	.long	0x9c
	.uleb128 0x8
	.long	0x7e
	.byte	0
	.uleb128 0x1c
	.long	.LASF1754
	.byte	0x16
	.byte	0x4f
	.byte	0x7
	.long	0x7e
	.long	0x3c16
	.uleb128 0x8
	.long	0xaa
	.uleb128 0x8
	.long	0x9c
	.byte	0
	.uleb128 0x21
	.long	.LASF1755
	.value	0x16d
	.long	0x9c
	.long	0x3c31
	.uleb128 0x8
	.long	0xaa
	.uleb128 0x8
	.long	0xaf
	.uleb128 0x18
	.byte	0
	.uleb128 0x13
	.long	.LASF1756
	.byte	0x18
	.byte	0x53
	.byte	0x1
	.long	0x3c48
	.uleb128 0x8
	.long	0x9c
	.uleb128 0x8
	.long	0x9c
	.byte	0
	.uleb128 0x13
	.long	.LASF1757
	.byte	0x18
	.byte	0x3b
	.byte	0x1
	.long	0x3c5f
	.uleb128 0x8
	.long	0x7e
	.uleb128 0x8
	.long	0x9c
	.byte	0
	.uleb128 0x2d
	.long	.LASF1791
	.byte	0x1a
	.byte	0x42
	.byte	0x6
	.uleb128 0x2e
	.long	.LASF1812
	.byte	0x1b
	.byte	0x21
	.byte	0x5
	.long	0x9c
	.uleb128 0x21
	.long	.LASF1758
	.value	0x16b
	.long	0x9c
	.long	0x3c89
	.uleb128 0x8
	.long	0xaf
	.uleb128 0x18
	.byte	0
	.uleb128 0x13
	.long	.LASF1759
	.byte	0x13
	.byte	0x48
	.byte	0x1
	.long	0x3caa
	.uleb128 0x8
	.long	0x9c
	.uleb128 0x8
	.long	0x9c
	.uleb128 0x8
	.long	0x9c
	.uleb128 0x8
	.long	0x3643
	.byte	0
	.uleb128 0x13
	.long	.LASF1760
	.byte	0x13
	.byte	0x6c
	.byte	0x1
	.long	0x3ccb
	.uleb128 0x8
	.long	0x9c
	.uleb128 0x8
	.long	0x9c
	.uleb128 0x8
	.long	0x9c
	.uleb128 0x8
	.long	0x9c
	.byte	0
	.uleb128 0x1c
	.long	.LASF1761
	.byte	0x19
	.byte	0x2b
	.byte	0xe
	.long	0x7e
	.long	0x3ceb
	.uleb128 0x8
	.long	0x7e
	.uleb128 0x8
	.long	0x3ceb
	.uleb128 0x8
	.long	0x6b
	.byte	0
	.uleb128 0xa
	.long	0x3cf0
	.uleb128 0x2f
	.uleb128 0xd
	.long	.LASF1762
	.value	0x72e
	.byte	0x6
	.quad	.LFB34
	.quad	.LFE34-.LFB34
	.uleb128 0x1
	.byte	0x9c
	.long	0x3d1f
	.uleb128 0x19
	.long	.LASF1764
	.value	0x72e
	.byte	0x20
	.long	0x3786
	.uleb128 0x2
	.byte	0x91
	.sleb128 -24
	.byte	0
	.uleb128 0x1d
	.long	.LASF1763
	.value	0x704
	.quad	.LFB33
	.quad	.LFE33-.LFB33
	.uleb128 0x1
	.byte	0x9c
	.long	0x3d4c
	.uleb128 0x19
	.long	.LASF1764
	.value	0x704
	.byte	0x28
	.long	0x3786
	.uleb128 0x2
	.byte	0x91
	.sleb128 -24
	.byte	0
	.uleb128 0x12
	.long	.LASF1768
	.value	0x6ec
	.quad	.LFB32
	.quad	.LFE32-.LFB32
	.uleb128 0x1
	.byte	0x9c
	.uleb128 0xd
	.long	.LASF1765
	.value	0x6ac
	.byte	0x6
	.quad	.LFB31
	.quad	.LFE31-.LFB31
	.uleb128 0x1
	.byte	0x9c
	.long	0x3d9e
	.uleb128 0x6
	.string	"i"
	.value	0x6ae
	.byte	0xa
	.long	0x9c
	.uleb128 0x2
	.byte	0x91
	.sleb128 -24
	.uleb128 0x6
	.string	"j"
	.value	0x6af
	.byte	0xa
	.long	0x9c
	.uleb128 0x2
	.byte	0x91
	.sleb128 -20
	.byte	0
	.uleb128 0xd
	.long	.LASF1766
	.value	0x602
	.byte	0x6
	.quad	.LFB30
	.quad	.LFE30-.LFB30
	.uleb128 0x1
	.byte	0x9c
	.long	0x3df5
	.uleb128 0x6
	.string	"i"
	.value	0x604
	.byte	0xa
	.long	0x9c
	.uleb128 0x3
	.byte	0x91
	.sleb128 -72
	.uleb128 0x6
	.string	"j"
	.value	0x605
	.byte	0xa
	.long	0x9c
	.uleb128 0x3
	.byte	0x91
	.sleb128 -68
	.uleb128 0x4
	.long	.LASF1767
	.value	0x606
	.byte	0xa
	.long	0x3df5
	.uleb128 0x2
	.byte	0x91
	.sleb128 -49
	.uleb128 0x6
	.string	"a"
	.value	0x607
	.byte	0xd
	.long	0x3714
	.uleb128 0x2
	.byte	0x91
	.sleb128 -64
	.byte	0
	.uleb128 0xc
	.long	0x4a
	.long	0x3e05
	.uleb128 0xb
	.long	0x43
	.byte	0x8
	.byte	0
	.uleb128 0x12
	.long	.LASF1769
	.value	0x5df
	.quad	.LFB29
	.quad	.LFE29-.LFB29
	.uleb128 0x1
	.byte	0x9c
	.uleb128 0x1d
	.long	.LASF1770
	.value	0x5be
	.quad	.LFB28
	.quad	.LFE28-.LFB28
	.uleb128 0x1
	.byte	0x9c
	.long	0x3e58
	.uleb128 0x6
	.string	"i"
	.value	0x5c0
	.byte	0xb
	.long	0x9c
	.uleb128 0x2
	.byte	0x91
	.sleb128 -28
	.uleb128 0x4
	.long	.LASF1408
	.value	0x5c1
	.byte	0x10
	.long	0x304a
	.uleb128 0x2
	.byte	0x91
	.sleb128 -24
	.byte	0
	.uleb128 0xd
	.long	.LASF1771
	.value	0x59c
	.byte	0x6
	.quad	.LFB27
	.quad	.LFE27-.LFB27
	.uleb128 0x1
	.byte	0x9c
	.long	0x3e85
	.uleb128 0x6
	.string	"lh"
	.value	0x59f
	.byte	0x9
	.long	0x9c
	.uleb128 0x2
	.byte	0x91
	.sleb128 -20
	.byte	0
	.uleb128 0x12
	.long	.LASF1772
	.value	0x532
	.quad	.LFB26
	.quad	.LFE26-.LFB26
	.uleb128 0x1
	.byte	0x9c
	.uleb128 0x12
	.long	.LASF1773
	.value	0x526
	.quad	.LFB25
	.quad	.LFE25-.LFB25
	.uleb128 0x1
	.byte	0x9c
	.uleb128 0xd
	.long	.LASF1774
	.value	0x4ed
	.byte	0x6
	.quad	.LFB24
	.quad	.LFE24-.LFB24
	.uleb128 0x1
	.byte	0x9c
	.long	0x3f0c
	.uleb128 0x6
	.string	"i"
	.value	0x4ef
	.byte	0xa
	.long	0x9c
	.uleb128 0x2
	.byte	0x91
	.sleb128 -32
	.uleb128 0x6
	.string	"x"
	.value	0x4f0
	.byte	0xa
	.long	0x9c
	.uleb128 0x2
	.byte	0x91
	.sleb128 -20
	.uleb128 0x6
	.string	"y"
	.value	0x4f1
	.byte	0xa
	.long	0x9c
	.uleb128 0x2
	.byte	0x91
	.sleb128 -28
	.uleb128 0x4
	.long	.LASF1775
	.value	0x4f2
	.byte	0xa
	.long	0x9c
	.uleb128 0x2
	.byte	0x91
	.sleb128 -24
	.byte	0
	.uleb128 0xd
	.long	.LASF1776
	.value	0x452
	.byte	0x6
	.quad	.LFB23
	.quad	.LFE23-.LFB23
	.uleb128 0x1
	.byte	0x9c
	.long	0x3f56
	.uleb128 0x6
	.string	"i"
	.value	0x455
	.byte	0xa
	.long	0x9c
	.uleb128 0x2
	.byte	0x91
	.sleb128 -44
	.uleb128 0x4
	.long	.LASF1777
	.value	0x456
	.byte	0xa
	.long	0x9c
	.uleb128 0x2
	.byte	0x91
	.sleb128 -36
	.uleb128 0x4
	.long	.LASF1778
	.value	0x458
	.byte	0xd
	.long	0x13e
	.uleb128 0x2
	.byte	0x91
	.sleb128 -40
	.byte	0
	.uleb128 0xd
	.long	.LASF1779
	.value	0x436
	.byte	0x6
	.quad	.LFB22
	.quad	.LFE22-.LFB22
	.uleb128 0x1
	.byte	0x9c
	.long	0x3f82
	.uleb128 0x6
	.string	"i"
	.value	0x439
	.byte	0x9
	.long	0x9c
	.uleb128 0x2
	.byte	0x91
	.sleb128 -20
	.byte	0
	.uleb128 0xd
	.long	.LASF1780
	.value	0x3d5
	.byte	0x6
	.quad	.LFB21
	.quad	.LFE21-.LFB21
	.uleb128 0x1
	.byte	0x9c
	.long	0x3ff0
	.uleb128 0x6
	.string	"i"
	.value	0x3d8
	.byte	0xa
	.long	0x9c
	.uleb128 0x2
	.byte	0x91
	.sleb128 -40
	.uleb128 0x6
	.string	"j"
	.value	0x3d9
	.byte	0xa
	.long	0x9c
	.uleb128 0x2
	.byte	0x91
	.sleb128 -36
	.uleb128 0x6
	.string	"x"
	.value	0x3da
	.byte	0xa
	.long	0x9c
	.uleb128 0x2
	.byte	0x91
	.sleb128 -32
	.uleb128 0x6
	.string	"y"
	.value	0x3db
	.byte	0xa
	.long	0x9c
	.uleb128 0x2
	.byte	0x91
	.sleb128 -28
	.uleb128 0x6
	.string	"w"
	.value	0x3dc
	.byte	0xa
	.long	0x9c
	.uleb128 0x2
	.byte	0x91
	.sleb128 -20
	.uleb128 0x6
	.string	"lh"
	.value	0x3de
	.byte	0xa
	.long	0x9c
	.uleb128 0x2
	.byte	0x91
	.sleb128 -24
	.byte	0
	.uleb128 0xd
	.long	.LASF1781
	.value	0x36e
	.byte	0x6
	.quad	.LFB20
	.quad	.LFE20-.LFB20
	.uleb128 0x1
	.byte	0x9c
	.long	0x4038
	.uleb128 0x6
	.string	"i"
	.value	0x371
	.byte	0xa
	.long	0x9c
	.uleb128 0x2
	.byte	0x91
	.sleb128 -28
	.uleb128 0x6
	.string	"j"
	.value	0x372
	.byte	0xa
	.long	0x9c
	.uleb128 0x2
	.byte	0x91
	.sleb128 -24
	.uleb128 0x4
	.long	.LASF1778
	.value	0x374
	.byte	0xd
	.long	0x13e
	.uleb128 0x2
	.byte	0x91
	.sleb128 -20
	.byte	0
	.uleb128 0xd
	.long	.LASF1782
	.value	0x351
	.byte	0x6
	.quad	.LFB19
	.quad	.LFE19-.LFB19
	.uleb128 0x1
	.byte	0x9c
	.long	0x4071
	.uleb128 0x6
	.string	"i"
	.value	0x354
	.byte	0xa
	.long	0x9c
	.uleb128 0x2
	.byte	0x91
	.sleb128 -24
	.uleb128 0x6
	.string	"j"
	.value	0x355
	.byte	0xa
	.long	0x9c
	.uleb128 0x2
	.byte	0x91
	.sleb128 -20
	.byte	0
	.uleb128 0x22
	.long	.LASF1794
	.value	0x332
	.byte	0x5
	.long	0x9c
	.quad	.LFB18
	.quad	.LFE18-.LFB18
	.uleb128 0x1
	.byte	0x9c
	.long	0x40bf
	.uleb128 0x19
	.long	.LASF1783
	.value	0x332
	.byte	0x14
	.long	0x9c
	.uleb128 0x2
	.byte	0x91
	.sleb128 -36
	.uleb128 0x6
	.string	"i"
	.value	0x334
	.byte	0xa
	.long	0x9c
	.uleb128 0x2
	.byte	0x91
	.sleb128 -24
	.uleb128 0x4
	.long	.LASF1426
	.value	0x335
	.byte	0xa
	.long	0x9c
	.uleb128 0x2
	.byte	0x91
	.sleb128 -20
	.byte	0
	.uleb128 0x12
	.long	.LASF1784
	.value	0x32c
	.quad	.LFB17
	.quad	.LFE17-.LFB17
	.uleb128 0x1
	.byte	0x9c
	.uleb128 0xd
	.long	.LASF1785
	.value	0x303
	.byte	0x6
	.quad	.LFB16
	.quad	.LFE16-.LFB16
	.uleb128 0x1
	.byte	0x9c
	.long	0x4113
	.uleb128 0x6
	.string	"i"
	.value	0x306
	.byte	0xa
	.long	0x9c
	.uleb128 0x2
	.byte	0x91
	.sleb128 -24
	.uleb128 0x4
	.long	.LASF1498
	.value	0x307
	.byte	0xa
	.long	0x9c
	.uleb128 0x2
	.byte	0x91
	.sleb128 -20
	.byte	0
	.uleb128 0x12
	.long	.LASF1786
	.value	0x2f9
	.quad	.LFB15
	.quad	.LFE15-.LFB15
	.uleb128 0x1
	.byte	0x9c
	.uleb128 0x12
	.long	.LASF1787
	.value	0x2f0
	.quad	.LFB14
	.quad	.LFE14-.LFB14
	.uleb128 0x1
	.byte	0x9c
	.uleb128 0x12
	.long	.LASF1788
	.value	0x2e1
	.quad	.LFB13
	.quad	.LFE13-.LFB13
	.uleb128 0x1
	.byte	0x9c
	.uleb128 0x30
	.long	.LASF1789
	.byte	0x1
	.value	0x2da
	.byte	0x6
	.quad	.LFB12
	.quad	.LFE12-.LFB12
	.uleb128 0x1
	.byte	0x9c
	.uleb128 0xd
	.long	.LASF1790
	.value	0x2d4
	.byte	0x6
	.quad	.LFB11
	.quad	.LFE11-.LFB11
	.uleb128 0x1
	.byte	0x9c
	.long	0x41a1
	.uleb128 0x31
	.long	.LASF1765
	.byte	0x1
	.value	0x2d6
	.byte	0xa
	.byte	0
	.uleb128 0xd
	.long	.LASF1792
	.value	0x2b0
	.byte	0x1
	.quad	.LFB10
	.quad	.LFE10-.LFB10
	.uleb128 0x1
	.byte	0x9c
	.long	0x4203
	.uleb128 0xf
	.string	"x"
	.value	0x2b1
	.byte	0x8
	.long	0x9c
	.uleb128 0x2
	.byte	0x91
	.sleb128 -36
	.uleb128 0xf
	.string	"y"
	.value	0x2b2
	.byte	0x8
	.long	0x9c
	.uleb128 0x2
	.byte	0x91
	.sleb128 -40
	.uleb128 0xf
	.string	"t"
	.value	0x2b3
	.byte	0x8
	.long	0x9c
	.uleb128 0x2
	.byte	0x91
	.sleb128 -44
	.uleb128 0x6
	.string	"div"
	.value	0x2b6
	.byte	0xa
	.long	0x9c
	.uleb128 0x2
	.byte	0x91
	.sleb128 -24
	.uleb128 0x6
	.string	"n"
	.value	0x2b7
	.byte	0xa
	.long	0x9c
	.uleb128 0x2
	.byte	0x91
	.sleb128 -20
	.byte	0
	.uleb128 0xd
	.long	.LASF1793
	.value	0x29d
	.byte	0x1
	.quad	.LFB9
	.quad	.LFE9-.LFB9
	.uleb128 0x1
	.byte	0x9c
	.long	0x4249
	.uleb128 0xf
	.string	"x"
	.value	0x29e
	.byte	0x8
	.long	0x9c
	.uleb128 0x2
	.byte	0x91
	.sleb128 -20
	.uleb128 0xf
	.string	"y"
	.value	0x29f
	.byte	0x8
	.long	0x9c
	.uleb128 0x2
	.byte	0x91
	.sleb128 -24
	.uleb128 0xf
	.string	"p"
	.value	0x2a0
	.byte	0x8
	.long	0x9c
	.uleb128 0x2
	.byte	0x91
	.sleb128 -28
	.byte	0
	.uleb128 0x32
	.long	.LASF1795
	.byte	0x1
	.value	0x264
	.byte	0x1
	.long	0x9c
	.quad	.LFB8
	.quad	.LFE8-.LFB8
	.uleb128 0x1
	.byte	0x9c
	.long	0x42d0
	.uleb128 0xf
	.string	"x"
	.value	0x265
	.byte	0x8
	.long	0x9c
	.uleb128 0x2
	.byte	0x91
	.sleb128 -36
	.uleb128 0xf
	.string	"y"
	.value	0x266
	.byte	0x8
	.long	0x9c
	.uleb128 0x2
	.byte	0x91
	.sleb128 -40
	.uleb128 0xf
	.string	"n"
	.value	0x267
	.byte	0x8
	.long	0x9c
	.uleb128 0x2
	.byte	0x91
	.sleb128 -44
	.uleb128 0x19
	.long	.LASF1796
	.value	0x268
	.byte	0x8
	.long	0x9c
	.uleb128 0x2
	.byte	0x91
	.sleb128 -48
	.uleb128 0x4
	.long	.LASF1797
	.value	0x26b
	.byte	0xa
	.long	0x9c
	.uleb128 0x2
	.byte	0x91
	.sleb128 -24
	.uleb128 0x6
	.string	"neg"
	.value	0x26c
	.byte	0xa
	.long	0x9c
	.uleb128 0x2
	.byte	0x91
	.sleb128 -20
	.uleb128 0x4
	.long	.LASF1798
	.value	0x26d
	.byte	0xa
	.long	0x9c
	.uleb128 0x2
	.byte	0x91
	.sleb128 -28
	.byte	0
	.uleb128 0x1d
	.long	.LASF1799
	.value	0x247
	.quad	.LFB7
	.quad	.LFE7-.LFB7
	.uleb128 0x1
	.byte	0x9c
	.long	0x4302
	.uleb128 0x23
	.string	"i"
	.value	0x249
	.byte	0xb
	.long	0x9c
	.uleb128 0x23
	.string	"a"
	.value	0x24a
	.byte	0xe
	.long	0x3714
	.byte	0
	.uleb128 0xd
	.long	.LASF1800
	.value	0x214
	.byte	0x6
	.quad	.LFB6
	.quad	.LFE6-.LFB6
	.uleb128 0x1
	.byte	0x9c
	.long	0x433b
	.uleb128 0x6
	.string	"i"
	.value	0x216
	.byte	0xa
	.long	0x9c
	.uleb128 0x2
	.byte	0x91
	.sleb128 -44
	.uleb128 0x6
	.string	"a"
	.value	0x217
	.byte	0xd
	.long	0x3714
	.uleb128 0x2
	.byte	0x91
	.sleb128 -40
	.byte	0
	.uleb128 0xd
	.long	.LASF1801
	.value	0x1f7
	.byte	0x6
	.quad	.LFB5
	.quad	.LFE5-.LFB5
	.uleb128 0x1
	.byte	0x9c
	.long	0x4374
	.uleb128 0x6
	.string	"i"
	.value	0x1f9
	.byte	0xa
	.long	0x9c
	.uleb128 0x2
	.byte	0x91
	.sleb128 -44
	.uleb128 0x6
	.string	"a"
	.value	0x1fa
	.byte	0xd
	.long	0x3714
	.uleb128 0x2
	.byte	0x91
	.sleb128 -40
	.byte	0
	.uleb128 0xd
	.long	.LASF1802
	.value	0x1c8
	.byte	0x1
	.quad	.LFB4
	.quad	.LFE4-.LFB4
	.uleb128 0x1
	.byte	0x9c
	.long	0x4405
	.uleb128 0xf
	.string	"n"
	.value	0x1c9
	.byte	0x8
	.long	0x9c
	.uleb128 0x2
	.byte	0x91
	.sleb128 -52
	.uleb128 0xf
	.string	"c"
	.value	0x1ca
	.byte	0xc
	.long	0x3ad4
	.uleb128 0x2
	.byte	0x91
	.sleb128 -64
	.uleb128 0x6
	.string	"i"
	.value	0x1cd
	.byte	0xa
	.long	0x9c
	.uleb128 0x2
	.byte	0x91
	.sleb128 -40
	.uleb128 0x4
	.long	.LASF1803
	.value	0x1ce
	.byte	0xa
	.long	0x9c
	.uleb128 0x2
	.byte	0x91
	.sleb128 -32
	.uleb128 0x6
	.string	"top"
	.value	0x1cf
	.byte	0xa
	.long	0x9c
	.uleb128 0x2
	.byte	0x91
	.sleb128 -28
	.uleb128 0x4
	.long	.LASF1804
	.value	0x1d0
	.byte	0xa
	.long	0x9c
	.uleb128 0x2
	.byte	0x91
	.sleb128 -24
	.uleb128 0x4
	.long	.LASF1805
	.value	0x1d1
	.byte	0xa
	.long	0x9c
	.uleb128 0x2
	.byte	0x91
	.sleb128 -20
	.uleb128 0x4
	.long	.LASF1806
	.value	0x1d2
	.byte	0xd
	.long	0x13e
	.uleb128 0x2
	.byte	0x91
	.sleb128 -36
	.byte	0
	.uleb128 0xd
	.long	.LASF1807
	.value	0x1b7
	.byte	0x6
	.quad	.LFB3
	.quad	.LFE3-.LFB3
	.uleb128 0x1
	.byte	0x9c
	.long	0x4431
	.uleb128 0x6
	.string	"y"
	.value	0x1b9
	.byte	0x9
	.long	0x9c
	.uleb128 0x2
	.byte	0x91
	.sleb128 -20
	.byte	0
	.uleb128 0xd
	.long	.LASF1808
	.value	0x1a5
	.byte	0x6
	.quad	.LFB2
	.quad	.LFE2-.LFB2
	.uleb128 0x1
	.byte	0x9c
	.long	0x445d
	.uleb128 0x6
	.string	"y"
	.value	0x1a7
	.byte	0x9
	.long	0x9c
	.uleb128 0x2
	.byte	0x91
	.sleb128 -20
	.byte	0
	.uleb128 0x22
	.long	.LASF1809
	.value	0x19e
	.byte	0x9
	.long	0x13e
	.quad	.LFB1
	.quad	.LFE1-.LFB1
	.uleb128 0x1
	.byte	0x9c
	.long	0x448e
	.uleb128 0xf
	.string	"ev"
	.value	0x19e
	.byte	0x1f
	.long	0x448e
	.uleb128 0x2
	.byte	0x91
	.sleb128 -24
	.byte	0
	.uleb128 0xa
	.long	0x228
	.uleb128 0x12
	.long	.LASF1810
	.value	0x196
	.quad	.LFB0
	.quad	.LFE0-.LFB0
	.uleb128 0x1
	.byte	0x9c
	.byte	0
	.section	.debug_abbrev,"",@progbits
.Ldebug_abbrev0:
	.uleb128 0x1
	.uleb128 0x28
	.byte	0
	.uleb128 0x3
	.uleb128 0xe
	.uleb128 0x1c
	.uleb128 0xb
	.byte	0
	.byte	0
	.uleb128 0x2
	.uleb128 0x28
	.byte	0
	.uleb128 0x3
	.uleb128 0xe
	.uleb128 0x1c
	.uleb128 0x5
	.byte	0
	.byte	0
	.uleb128 0x3
	.uleb128 0xd
	.byte	0
	.uleb128 0x3
	.uleb128 0xe
	.uleb128 0x3a
	.uleb128 0xb
	.uleb128 0x3b
	.uleb128 0xb
	.uleb128 0x39
	.uleb128 0xb
	.uleb128 0x49
	.uleb128 0x13
	.uleb128 0x38
	.uleb128 0xb
	.byte	0
	.byte	0
	.uleb128 0x4
	.uleb128 0x34
	.byte	0
	.uleb128 0x3
	.uleb128 0xe
	.uleb128 0x3a
	.uleb128 0x21
	.sleb128 1
	.uleb128 0x3b
	.uleb128 0x5
	.uleb128 0x39
	.uleb128 0xb
	.uleb128 0x49
	.uleb128 0x13
	.uleb128 0x2
	.uleb128 0x18
	.byte	0
	.byte	0
	.uleb128 0x5
	.uleb128 0xd
	.byte	0
	.uleb128 0x3
	.uleb128 0xe
	.uleb128 0x3a
	.uleb128 0xb
	.uleb128 0x3b
	.uleb128 0x5
	.uleb128 0x39
	.uleb128 0xb
	.uleb128 0x49
	.uleb128 0x13
	.uleb128 0x38
	.uleb128 0xb
	.byte	0
	.byte	0
	.uleb128 0x6
	.uleb128 0x34
	.byte	0
	.uleb128 0x3
	.uleb128 0x8
	.uleb128 0x3a
	.uleb128 0x21
	.sleb128 1
	.uleb128 0x3b
	.uleb128 0x5
	.uleb128 0x39
	.uleb128 0xb
	.uleb128 0x49
	.uleb128 0x13
	.uleb128 0x2
	.uleb128 0x18
	.byte	0
	.byte	0
	.uleb128 0x7
	.uleb128 0x16
	.byte	0
	.uleb128 0x3
	.uleb128 0xe
	.uleb128 0x3a
	.uleb128 0xb
	.uleb128 0x3b
	.uleb128 0xb
	.uleb128 0x39
	.uleb128 0xb
	.uleb128 0x49
	.uleb128 0x13
	.byte	0
	.byte	0
	.uleb128 0x8
	.uleb128 0x5
	.byte	0
	.uleb128 0x49
	.uleb128 0x13
	.byte	0
	.byte	0
	.uleb128 0x9
	.uleb128 0xd
	.byte	0
	.uleb128 0x3
	.uleb128 0x8
	.uleb128 0x3a
	.uleb128 0xb
	.uleb128 0x3b
	.uleb128 0xb
	.uleb128 0x39
	.uleb128 0xb
	.uleb128 0x49
	.uleb128 0x13
	.uleb128 0x38
	.uleb128 0xb
	.byte	0
	.byte	0
	.uleb128 0xa
	.uleb128 0xf
	.byte	0
	.uleb128 0xb
	.uleb128 0x21
	.sleb128 8
	.uleb128 0x49
	.uleb128 0x13
	.byte	0
	.byte	0
	.uleb128 0xb
	.uleb128 0x21
	.byte	0
	.uleb128 0x49
	.uleb128 0x13
	.uleb128 0x2f
	.uleb128 0xb
	.byte	0
	.byte	0
	.uleb128 0xc
	.uleb128 0x1
	.byte	0x1
	.uleb128 0x49
	.uleb128 0x13
	.uleb128 0x1
	.uleb128 0x13
	.byte	0
	.byte	0
	.uleb128 0xd
	.uleb128 0x2e
	.byte	0x1
	.uleb128 0x3f
	.uleb128 0x19
	.uleb128 0x3
	.uleb128 0xe
	.uleb128 0x3a
	.uleb128 0x21
	.sleb128 1
	.uleb128 0x3b
	.uleb128 0x5
	.uleb128 0x39
	.uleb128 0xb
	.uleb128 0x27
	.uleb128 0x19
	.uleb128 0x11
	.uleb128 0x1
	.uleb128 0x12
	.uleb128 0x7
	.uleb128 0x40
	.uleb128 0x18
	.uleb128 0x7c
	.uleb128 0x19
	.uleb128 0x1
	.uleb128 0x13
	.byte	0
	.byte	0
	.uleb128 0xe
	.uleb128 0x4
	.byte	0x1
	.uleb128 0x3e
	.uleb128 0xb
	.uleb128 0xb
	.uleb128 0x21
	.sleb128 4
	.uleb128 0x49
	.uleb128 0x13
	.uleb128 0x3a
	.uleb128 0xb
	.uleb128 0x3b
	.uleb128 0xb
	.uleb128 0x39
	.uleb128 0xb
	.uleb128 0x1
	.uleb128 0x13
	.byte	0
	.byte	0
	.uleb128 0xf
	.uleb128 0x5
	.byte	0
	.uleb128 0x3
	.uleb128 0x8
	.uleb128 0x3a
	.uleb128 0x21
	.sleb128 1
	.uleb128 0x3b
	.uleb128 0x5
	.uleb128 0x39
	.uleb128 0xb
	.uleb128 0x49
	.uleb128 0x13
	.uleb128 0x2
	.uleb128 0x18
	.byte	0
	.byte	0
	.uleb128 0x10
	.uleb128 0x13
	.byte	0x1
	.uleb128 0xb
	.uleb128 0xb
	.uleb128 0x3a
	.uleb128 0xb
	.uleb128 0x3b
	.uleb128 0xb
	.uleb128 0x39
	.uleb128 0x21
	.sleb128 9
	.uleb128 0x1
	.uleb128 0x13
	.byte	0
	.byte	0
	.uleb128 0x11
	.uleb128 0x24
	.byte	0
	.uleb128 0xb
	.uleb128 0xb
	.uleb128 0x3e
	.uleb128 0xb
	.uleb128 0x3
	.uleb128 0xe
	.byte	0
	.byte	0
	.uleb128 0x12
	.uleb128 0x2e
	.byte	0
	.uleb128 0x3f
	.uleb128 0x19
	.uleb128 0x3
	.uleb128 0xe
	.uleb128 0x3a
	.uleb128 0x21
	.sleb128 1
	.uleb128 0x3b
	.uleb128 0x5
	.uleb128 0x39
	.uleb128 0x21
	.sleb128 6
	.uleb128 0x27
	.uleb128 0x19
	.uleb128 0x11
	.uleb128 0x1
	.uleb128 0x12
	.uleb128 0x7
	.uleb128 0x40
	.uleb128 0x18
	.uleb128 0x7c
	.uleb128 0x19
	.byte	0
	.byte	0
	.uleb128 0x13
	.uleb128 0x2e
	.byte	0x1
	.uleb128 0x3f
	.uleb128 0x19
	.uleb128 0x3
	.uleb128 0xe
	.uleb128 0x3a
	.uleb128 0xb
	.uleb128 0x3b
	.uleb128 0xb
	.uleb128 0x39
	.uleb128 0xb
	.uleb128 0x27
	.uleb128 0x19
	.uleb128 0x3c
	.uleb128 0x19
	.uleb128 0x1
	.uleb128 0x13
	.byte	0
	.byte	0
	.uleb128 0x14
	.uleb128 0x16
	.byte	0
	.uleb128 0x3
	.uleb128 0xe
	.uleb128 0x3a
	.uleb128 0xb
	.uleb128 0x3b
	.uleb128 0x5
	.uleb128 0x39
	.uleb128 0x21
	.sleb128 3
	.uleb128 0x49
	.uleb128 0x13
	.byte	0
	.byte	0
	.uleb128 0x15
	.uleb128 0x34
	.byte	0
	.uleb128 0x3
	.uleb128 0xe
	.uleb128 0x3a
	.uleb128 0xb
	.uleb128 0x3b
	.uleb128 0xb
	.uleb128 0x39
	.uleb128 0xb
	.uleb128 0x49
	.uleb128 0x13
	.uleb128 0x3f
	.uleb128 0x19
	.uleb128 0x3c
	.uleb128 0x19
	.byte	0
	.byte	0
	.uleb128 0x16
	.uleb128 0x34
	.byte	0
	.uleb128 0x3
	.uleb128 0xe
	.uleb128 0x3a
	.uleb128 0x21
	.sleb128 1
	.uleb128 0x3b
	.uleb128 0xb
	.uleb128 0x39
	.uleb128 0xb
	.uleb128 0x49
	.uleb128 0x13
	.uleb128 0x2
	.uleb128 0x18
	.byte	0
	.byte	0
	.uleb128 0x17
	.uleb128 0x13
	.byte	0x1
	.uleb128 0x3
	.uleb128 0xe
	.uleb128 0xb
	.uleb128 0xb
	.uleb128 0x3a
	.uleb128 0xb
	.uleb128 0x3b
	.uleb128 0xb
	.uleb128 0x39
	.uleb128 0x21
	.sleb128 16
	.uleb128 0x1
	.uleb128 0x13
	.byte	0
	.byte	0
	.uleb128 0x18
	.uleb128 0x18
	.byte	0
	.byte	0
	.byte	0
	.uleb128 0x19
	.uleb128 0x5
	.byte	0
	.uleb128 0x3
	.uleb128 0xe
	.uleb128 0x3a
	.uleb128 0x21
	.sleb128 1
	.uleb128 0x3b
	.uleb128 0x5
	.uleb128 0x39
	.uleb128 0xb
	.uleb128 0x49
	.uleb128 0x13
	.uleb128 0x2
	.uleb128 0x18
	.byte	0
	.byte	0
	.uleb128 0x1a
	.uleb128 0x13
	.byte	0x1
	.uleb128 0xb
	.uleb128 0xb
	.uleb128 0x3a
	.uleb128 0xb
	.uleb128 0x3b
	.uleb128 0x5
	.uleb128 0x39
	.uleb128 0x21
	.sleb128 9
	.uleb128 0x1
	.uleb128 0x13
	.byte	0
	.byte	0
	.uleb128 0x1b
	.uleb128 0xd
	.byte	0
	.uleb128 0x3
	.uleb128 0xe
	.uleb128 0x3a
	.uleb128 0x21
	.sleb128 15
	.uleb128 0x3b
	.uleb128 0xb
	.uleb128 0x39
	.uleb128 0xb
	.uleb128 0x49
	.uleb128 0x13
	.uleb128 0x38
	.uleb128 0x5
	.byte	0
	.byte	0
	.uleb128 0x1c
	.uleb128 0x2e
	.byte	0x1
	.uleb128 0x3f
	.uleb128 0x19
	.uleb128 0x3
	.uleb128 0xe
	.uleb128 0x3a
	.uleb128 0xb
	.uleb128 0x3b
	.uleb128 0xb
	.uleb128 0x39
	.uleb128 0xb
	.uleb128 0x27
	.uleb128 0x19
	.uleb128 0x49
	.uleb128 0x13
	.uleb128 0x3c
	.uleb128 0x19
	.uleb128 0x1
	.uleb128 0x13
	.byte	0
	.byte	0
	.uleb128 0x1d
	.uleb128 0x2e
	.byte	0x1
	.uleb128 0x3f
	.uleb128 0x19
	.uleb128 0x3
	.uleb128 0xe
	.uleb128 0x3a
	.uleb128 0x21
	.sleb128 1
	.uleb128 0x3b
	.uleb128 0x5
	.uleb128 0x39
	.uleb128 0x21
	.sleb128 6
	.uleb128 0x27
	.uleb128 0x19
	.uleb128 0x11
	.uleb128 0x1
	.uleb128 0x12
	.uleb128 0x7
	.uleb128 0x40
	.uleb128 0x18
	.uleb128 0x7a
	.uleb128 0x19
	.uleb128 0x1
	.uleb128 0x13
	.byte	0
	.byte	0
	.uleb128 0x1e
	.uleb128 0x26
	.byte	0
	.uleb128 0x49
	.uleb128 0x13
	.byte	0
	.byte	0
	.uleb128 0x1f
	.uleb128 0x15
	.byte	0x1
	.uleb128 0x27
	.uleb128 0x19
	.uleb128 0x1
	.uleb128 0x13
	.byte	0
	.byte	0
	.uleb128 0x20
	.uleb128 0xd
	.byte	0
	.uleb128 0x3
	.uleb128 0xe
	.uleb128 0x3a
	.uleb128 0x21
	.sleb128 10
	.uleb128 0x3b
	.uleb128 0xb
	.uleb128 0x39
	.uleb128 0x21
	.sleb128 14
	.uleb128 0x49
	.uleb128 0x13
	.byte	0
	.byte	0
	.uleb128 0x21
	.uleb128 0x2e
	.byte	0x1
	.uleb128 0x3f
	.uleb128 0x19
	.uleb128 0x3
	.uleb128 0xe
	.uleb128 0x3a
	.uleb128 0x21
	.sleb128 23
	.uleb128 0x3b
	.uleb128 0x5
	.uleb128 0x39
	.uleb128 0x21
	.sleb128 12
	.uleb128 0x27
	.uleb128 0x19
	.uleb128 0x49
	.uleb128 0x13
	.uleb128 0x3c
	.uleb128 0x19
	.uleb128 0x1
	.uleb128 0x13
	.byte	0
	.byte	0
	.uleb128 0x22
	.uleb128 0x2e
	.byte	0x1
	.uleb128 0x3f
	.uleb128 0x19
	.uleb128 0x3
	.uleb128 0xe
	.uleb128 0x3a
	.uleb128 0x21
	.sleb128 1
	.uleb128 0x3b
	.uleb128 0x5
	.uleb128 0x39
	.uleb128 0xb
	.uleb128 0x27
	.uleb128 0x19
	.uleb128 0x49
	.uleb128 0x13
	.uleb128 0x11
	.uleb128 0x1
	.uleb128 0x12
	.uleb128 0x7
	.uleb128 0x40
	.uleb128 0x18
	.uleb128 0x7a
	.uleb128 0x19
	.uleb128 0x1
	.uleb128 0x13
	.byte	0
	.byte	0
	.uleb128 0x23
	.uleb128 0x34
	.byte	0
	.uleb128 0x3
	.uleb128 0x8
	.uleb128 0x3a
	.uleb128 0x21
	.sleb128 1
	.uleb128 0x3b
	.uleb128 0x5
	.uleb128 0x39
	.uleb128 0xb
	.uleb128 0x49
	.uleb128 0x13
	.byte	0
	.byte	0
	.uleb128 0x24
	.uleb128 0x11
	.byte	0x1
	.uleb128 0x25
	.uleb128 0xe
	.uleb128 0x13
	.uleb128 0xb
	.uleb128 0x3
	.uleb128 0x1f
	.uleb128 0x1b
	.uleb128 0x1f
	.uleb128 0x11
	.uleb128 0x1
	.uleb128 0x12
	.uleb128 0x7
	.uleb128 0x10
	.uleb128 0x17
	.byte	0
	.byte	0
	.uleb128 0x25
	.uleb128 0xf
	.byte	0
	.uleb128 0xb
	.uleb128 0xb
	.byte	0
	.byte	0
	.uleb128 0x26
	.uleb128 0x24
	.byte	0
	.uleb128 0xb
	.uleb128 0xb
	.uleb128 0x3e
	.uleb128 0xb
	.uleb128 0x3
	.uleb128 0x8
	.byte	0
	.byte	0
	.uleb128 0x27
	.uleb128 0x15
	.byte	0x1
	.uleb128 0x1
	.uleb128 0x13
	.byte	0
	.byte	0
	.uleb128 0x28
	.uleb128 0x17
	.byte	0x1
	.uleb128 0xb
	.uleb128 0xb
	.uleb128 0x3a
	.uleb128 0xb
	.uleb128 0x3b
	.uleb128 0xb
	.uleb128 0x39
	.uleb128 0xb
	.uleb128 0x1
	.uleb128 0x13
	.byte	0
	.byte	0
	.uleb128 0x29
	.uleb128 0xd
	.byte	0
	.uleb128 0x3
	.uleb128 0x8
	.uleb128 0x3a
	.uleb128 0xb
	.uleb128 0x3b
	.uleb128 0xb
	.uleb128 0x39
	.uleb128 0xb
	.uleb128 0x49
	.uleb128 0x13
	.byte	0
	.byte	0
	.uleb128 0x2a
	.uleb128 0x4
	.byte	0x1
	.uleb128 0x3e
	.uleb128 0xb
	.uleb128 0xb
	.uleb128 0xb
	.uleb128 0x49
	.uleb128 0x13
	.uleb128 0x3a
	.uleb128 0xb
	.uleb128 0x3b
	.uleb128 0x5
	.uleb128 0x39
	.uleb128 0xb
	.uleb128 0x1
	.uleb128 0x13
	.byte	0
	.byte	0
	.uleb128 0x2b
	.uleb128 0x13
	.byte	0x1
	.uleb128 0x3
	.uleb128 0xe
	.uleb128 0xb
	.uleb128 0x5
	.uleb128 0x3a
	.uleb128 0xb
	.uleb128 0x3b
	.uleb128 0xb
	.uleb128 0x39
	.uleb128 0xb
	.uleb128 0x1
	.uleb128 0x13
	.byte	0
	.byte	0
	.uleb128 0x2c
	.uleb128 0x28
	.byte	0
	.uleb128 0x3
	.uleb128 0xe
	.uleb128 0x1c
	.uleb128 0xd
	.byte	0
	.byte	0
	.uleb128 0x2d
	.uleb128 0x2e
	.byte	0
	.uleb128 0x3f
	.uleb128 0x19
	.uleb128 0x3
	.uleb128 0xe
	.uleb128 0x3a
	.uleb128 0xb
	.uleb128 0x3b
	.uleb128 0xb
	.uleb128 0x39
	.uleb128 0xb
	.uleb128 0x27
	.uleb128 0x19
	.uleb128 0x3c
	.uleb128 0x19
	.byte	0
	.byte	0
	.uleb128 0x2e
	.uleb128 0x2e
	.byte	0
	.uleb128 0x3f
	.uleb128 0x19
	.uleb128 0x3
	.uleb128 0xe
	.uleb128 0x3a
	.uleb128 0xb
	.uleb128 0x3b
	.uleb128 0xb
	.uleb128 0x39
	.uleb128 0xb
	.uleb128 0x27
	.uleb128 0x19
	.uleb128 0x49
	.uleb128 0x13
	.uleb128 0x3c
	.uleb128 0x19
	.byte	0
	.byte	0
	.uleb128 0x2f
	.uleb128 0x26
	.byte	0
	.byte	0
	.byte	0
	.uleb128 0x30
	.uleb128 0x2e
	.byte	0
	.uleb128 0x3f
	.uleb128 0x19
	.uleb128 0x3
	.uleb128 0xe
	.uleb128 0x3a
	.uleb128 0xb
	.uleb128 0x3b
	.uleb128 0x5
	.uleb128 0x39
	.uleb128 0xb
	.uleb128 0x27
	.uleb128 0x19
	.uleb128 0x11
	.uleb128 0x1
	.uleb128 0x12
	.uleb128 0x7
	.uleb128 0x40
	.uleb128 0x18
	.uleb128 0x7a
	.uleb128 0x19
	.byte	0
	.byte	0
	.uleb128 0x31
	.uleb128 0x2e
	.byte	0
	.uleb128 0x3f
	.uleb128 0x19
	.uleb128 0x3
	.uleb128 0xe
	.uleb128 0x3a
	.uleb128 0xb
	.uleb128 0x3b
	.uleb128 0x5
	.uleb128 0x39
	.uleb128 0xb
	.uleb128 0x27
	.uleb128 0x19
	.uleb128 0x3c
	.uleb128 0x19
	.byte	0
	.byte	0
	.uleb128 0x32
	.uleb128 0x2e
	.byte	0x1
	.uleb128 0x3f
	.uleb128 0x19
	.uleb128 0x3
	.uleb128 0xe
	.uleb128 0x3a
	.uleb128 0xb
	.uleb128 0x3b
	.uleb128 0x5
	.uleb128 0x39
	.uleb128 0xb
	.uleb128 0x27
	.uleb128 0x19
	.uleb128 0x49
	.uleb128 0x13
	.uleb128 0x11
	.uleb128 0x1
	.uleb128 0x12
	.uleb128 0x7
	.uleb128 0x40
	.uleb128 0x18
	.uleb128 0x7c
	.uleb128 0x19
	.uleb128 0x1
	.uleb128 0x13
	.byte	0
	.byte	0
	.byte	0
	.section	.debug_aranges,"",@progbits
	.long	0x2c
	.value	0x2
	.long	.Ldebug_info0
	.byte	0x8
	.byte	0
	.value	0
	.value	0
	.quad	.Ltext0
	.quad	.Letext0-.Ltext0
	.quad	0
	.quad	0
	.section	.debug_line,"",@progbits
.Ldebug_line0:
	.section	.debug_str,"MS",@progbits,1
.LASF885:
	.string	"S_BSPI_RUN3"
.LASF886:
	.string	"S_BSPI_RUN4"
.LASF887:
	.string	"S_BSPI_RUN5"
.LASF888:
	.string	"S_BSPI_RUN6"
.LASF889:
	.string	"S_BSPI_RUN7"
.LASF890:
	.string	"S_BSPI_RUN8"
.LASF891:
	.string	"S_BSPI_RUN9"
.LASF1625:
	.string	"sfx_cybsit"
.LASF175:
	.string	"SPR_YSKU"
.LASF1591:
	.string	"sfx_sawup"
.LASF1442:
	.string	"attacker"
.LASF538:
	.string	"S_FIRE10"
.LASF539:
	.string	"S_FIRE11"
.LASF540:
	.string	"S_FIRE12"
.LASF541:
	.string	"S_FIRE13"
.LASF542:
	.string	"S_FIRE14"
.LASF543:
	.string	"S_FIRE15"
.LASF544:
	.string	"S_FIRE16"
.LASF545:
	.string	"S_FIRE17"
.LASF546:
	.string	"S_FIRE18"
.LASF547:
	.string	"S_FIRE19"
.LASF1359:
	.string	"MT_MISC84"
.LASF1292:
	.string	"MT_MISC20"
.LASF1106:
	.string	"S_MEGA2"
.LASF1107:
	.string	"S_MEGA3"
.LASF1108:
	.string	"S_MEGA4"
.LASF1296:
	.string	"MT_MISC24"
.LASF1297:
	.string	"MT_MISC25"
.LASF1299:
	.string	"MT_MISC26"
.LASF1300:
	.string	"MT_MISC27"
.LASF1301:
	.string	"MT_MISC28"
.LASF1304:
	.string	"MT_MISC29"
.LASF737:
	.string	"S_SARG_PAIN2"
.LASF1407:
	.string	"threshold"
.LASF66:
	.string	"wp_pistol"
.LASF216:
	.string	"SPR_COL1"
.LASF217:
	.string	"SPR_COL2"
.LASF218:
	.string	"SPR_COL3"
.LASF219:
	.string	"SPR_COL4"
.LASF228:
	.string	"SPR_COL5"
.LASF222:
	.string	"SPR_COL6"
.LASF1751:
	.string	"Z_ChangeTag2"
.LASF1577:
	.string	"mus_read_m"
.LASF1687:
	.string	"sfx_skesit"
.LASF1668:
	.string	"sfx_tink"
.LASF548:
	.string	"S_FIRE20"
.LASF549:
	.string	"S_FIRE21"
.LASF550:
	.string	"S_FIRE22"
.LASF551:
	.string	"S_FIRE23"
.LASF552:
	.string	"S_FIRE24"
.LASF202:
	.string	"SPR_COLU"
.LASF554:
	.string	"S_FIRE26"
.LASF555:
	.string	"S_FIRE27"
.LASF556:
	.string	"S_FIRE28"
.LASF557:
	.string	"S_FIRE29"
.LASF1789:
	.string	"WI_initNoState"
.LASF1791:
	.string	"G_WorldDone"
.LASF1305:
	.string	"MT_MISC30"
.LASF1220:
	.string	"action"
.LASF1307:
	.string	"MT_MISC32"
.LASF1308:
	.string	"MT_MISC33"
.LASF899:
	.string	"S_BSPI_PAIN"
.LASF1310:
	.string	"MT_MISC35"
.LASF371:
	.string	"S_BFGEXP"
.LASF80:
	.string	"am_misl"
.LASF1313:
	.string	"MT_MISC38"
.LASF1314:
	.string	"MT_MISC39"
.LASF1453:
	.string	"floorpic"
.LASF901:
	.string	"S_BSPI_DIE1"
.LASF1484:
	.string	"NUMPSPRITES"
.LASF906:
	.string	"S_BSPI_DIE6"
.LASF1674:
	.string	"sfx_getpow"
.LASF1572:
	.string	"mus_tense"
.LASF1474:
	.string	"ST_POSITIVE"
.LASF1513:
	.string	"mus_e1m1"
.LASF1418:
	.string	"viewz"
.LASF1515:
	.string	"mus_e1m3"
.LASF1516:
	.string	"mus_e1m4"
.LASF1517:
	.string	"mus_e1m5"
.LASF57:
	.string	"unknown"
.LASF1519:
	.string	"mus_e1m7"
.LASF1520:
	.string	"mus_e1m8"
.LASF1521:
	.string	"mus_e1m9"
.LASF797:
	.string	"S_BOSS_RAISE1"
.LASF798:
	.string	"S_BOSS_RAISE2"
.LASF1239:
	.string	"MT_HEAD"
.LASF799:
	.string	"S_BOSS_RAISE3"
.LASF1787:
	.string	"WI_initShowNextLoc"
.LASF558:
	.string	"S_FIRE30"
.LASF703:
	.string	"S_TROO_PAIN"
.LASF992:
	.string	"S_SSWV_DIE1"
.LASF802:
	.string	"S_BOSS_RAISE6"
.LASF994:
	.string	"S_SSWV_DIE3"
.LASF995:
	.string	"S_SSWV_DIE4"
.LASF996:
	.string	"S_SSWV_DIE5"
.LASF170:
	.string	"SPR_BKEY"
.LASF814:
	.string	"S_BOS2_ATK1"
.LASF815:
	.string	"S_BOS2_ATK2"
.LASF816:
	.string	"S_BOS2_ATK3"
.LASF204:
	.string	"SPR_GOR1"
.LASF211:
	.string	"SPR_GOR2"
.LASF212:
	.string	"SPR_GOR3"
.LASF213:
	.string	"SPR_GOR4"
.LASF214:
	.string	"SPR_GOR5"
.LASF1317:
	.string	"MT_MISC42"
.LASF1318:
	.string	"MT_MISC43"
.LASF571:
	.string	"S_SKEL_RUN1"
.LASF572:
	.string	"S_SKEL_RUN2"
.LASF573:
	.string	"S_SKEL_RUN3"
.LASF574:
	.string	"S_SKEL_RUN4"
.LASF575:
	.string	"S_SKEL_RUN5"
.LASF576:
	.string	"S_SKEL_RUN6"
.LASF577:
	.string	"S_SKEL_RUN7"
.LASF578:
	.string	"S_SKEL_RUN8"
.LASF579:
	.string	"S_SKEL_RUN9"
.LASF69:
	.string	"wp_missile"
.LASF1501:
	.string	"maxsecret"
.LASF1057:
	.string	"S_BEXP2"
.LASF1367:
	.string	"seestate"
.LASF752:
	.string	"S_HEAD_ATK1"
.LASF753:
	.string	"S_HEAD_ATK2"
.LASF754:
	.string	"S_HEAD_ATK3"
.LASF1468:
	.string	"slopetype"
.LASF1006:
	.string	"S_SSWV_RAISE1"
.LASF1007:
	.string	"S_SSWV_RAISE2"
.LASF1008:
	.string	"S_SSWV_RAISE3"
.LASF1009:
	.string	"S_SSWV_RAISE4"
.LASF1010:
	.string	"S_SSWV_RAISE5"
.LASF105:
	.string	"angle"
.LASF1762:
	.string	"WI_Start"
.LASF1234:
	.string	"MT_FATSHOT"
.LASF190:
	.string	"SPR_CELL"
.LASF191:
	.string	"SPR_CELP"
.LASF1172:
	.string	"S_HEARTCOL"
.LASF1810:
	.string	"WI_slamBackground"
.LASF1414:
	.string	"numlines"
.LASF1089:
	.string	"S_MEDI"
.LASF1096:
	.string	"S_PINV"
.LASF1283:
	.string	"MT_INS"
.LASF1326:
	.string	"MT_MISC51"
.LASF1327:
	.string	"MT_MISC52"
.LASF1281:
	.string	"MT_INV"
.LASF1329:
	.string	"MT_MISC54"
.LASF1186:
	.string	"S_BTORCHSHRT"
.LASF307:
	.string	"S_MISSILEUP"
.LASF1332:
	.string	"MT_MISC57"
.LASF1333:
	.string	"MT_MISC58"
.LASF1334:
	.string	"MT_MISC59"
.LASF484:
	.string	"S_SPOS_RAISE1"
.LASF1585:
	.string	"sfx_dshtgn"
.LASF278:
	.string	"S_SGUNFLASH1"
.LASF279:
	.string	"S_SGUNFLASH2"
.LASF826:
	.string	"S_BOS2_RAISE1"
.LASF827:
	.string	"S_BOS2_RAISE2"
.LASF828:
	.string	"S_BOS2_RAISE3"
.LASF829:
	.string	"S_BOS2_RAISE4"
.LASF830:
	.string	"S_BOS2_RAISE5"
.LASF831:
	.string	"S_BOS2_RAISE6"
.LASF832:
	.string	"S_BOS2_RAISE7"
.LASF591:
	.string	"S_SKEL_PAIN"
.LASF1078:
	.string	"S_RKEY"
.LASF12:
	.string	"next"
.LASF1757:
	.string	"S_StartSound"
.LASF1597:
	.string	"sfx_firsht"
.LASF1589:
	.string	"sfx_plasma"
.LASF260:
	.string	"S_PISTOLUP"
.LASF1730:
	.string	"sp_secret"
.LASF946:
	.string	"S_CYBER_DIE8"
.LASF1774:
	.string	"WI_drawNetgameStats"
.LASF1602:
	.string	"sfx_dorcls"
.LASF1335:
	.string	"MT_MISC60"
.LASF1336:
	.string	"MT_MISC61"
.LASF1337:
	.string	"MT_MISC62"
.LASF1338:
	.string	"MT_MISC63"
.LASF1339:
	.string	"MT_MISC64"
.LASF1340:
	.string	"MT_MISC65"
.LASF1341:
	.string	"MT_MISC66"
.LASF1342:
	.string	"MT_MISC67"
.LASF375:
	.string	"S_EXPLODE1"
.LASF376:
	.string	"S_EXPLODE2"
.LASF377:
	.string	"S_EXPLODE3"
.LASF1680:
	.string	"sfx_manatk"
.LASF1758:
	.string	"printf"
.LASF566:
	.string	"S_TRACEEXP1"
.LASF567:
	.string	"S_TRACEEXP2"
.LASF568:
	.string	"S_TRACEEXP3"
.LASF1797:
	.string	"fontwidth"
.LASF954:
	.string	"S_PAIN_RUN5"
.LASF1056:
	.string	"S_BEXP"
.LASF955:
	.string	"S_PAIN_RUN6"
.LASF1443:
	.string	"extralight"
.LASF1768:
	.string	"WI_Drawer"
.LASF1778:
	.string	"stillticking"
.LASF1173:
	.string	"S_HEARTCOL2"
.LASF352:
	.string	"S_RBALLX1"
.LASF1721:
	.string	"cnt_par"
.LASF1588:
	.string	"sfx_dbload"
.LASF1498:
	.string	"last"
.LASF1381:
	.string	"height"
.LASF1266:
	.string	"MT_TELEPORTMAN"
.LASF1511:
	.string	"playeringame"
.LASF1345:
	.string	"MT_MISC70"
.LASF135:
	.string	"SPR_IFOG"
.LASF1347:
	.string	"MT_MISC72"
.LASF1348:
	.string	"MT_MISC73"
.LASF1349:
	.string	"MT_MISC74"
.LASF1350:
	.string	"MT_MISC75"
.LASF1351:
	.string	"MT_MISC76"
.LASF1179:
	.string	"S_GREENTORCH2"
.LASF1180:
	.string	"S_GREENTORCH3"
.LASF1181:
	.string	"S_GREENTORCH4"
.LASF1020:
	.string	"S_COMMKEEN9"
.LASF1499:
	.string	"maxkills"
.LASF669:
	.string	"S_CPOS_PAIN2"
.LASF892:
	.string	"S_BSPI_RUN10"
.LASF893:
	.string	"S_BSPI_RUN11"
.LASF894:
	.string	"S_BSPI_RUN12"
.LASF1799:
	.string	"WI_drawAnimatedBack"
.LASF976:
	.string	"S_SSWV_RUN1"
.LASF977:
	.string	"S_SSWV_RUN2"
.LASF978:
	.string	"S_SSWV_RUN3"
.LASF979:
	.string	"S_SSWV_RUN4"
.LASF980:
	.string	"S_SSWV_RUN5"
.LASF981:
	.string	"S_SSWV_RUN6"
.LASF982:
	.string	"S_SSWV_RUN7"
.LASF983:
	.string	"S_SSWV_RUN8"
.LASF1161:
	.string	"S_SKULLCOL"
.LASF1542:
	.string	"mus_bunny"
.LASF1735:
	.string	"sucks"
.LASF1233:
	.string	"MT_FATSO"
.LASF705:
	.string	"S_TROO_DIE1"
.LASF706:
	.string	"S_TROO_DIE2"
.LASF707:
	.string	"S_TROO_DIE3"
.LASF708:
	.string	"S_TROO_DIE4"
.LASF709:
	.string	"S_TROO_DIE5"
.LASF48:
	.string	"shareware"
.LASF1086:
	.string	"S_YSKULL"
.LASF1087:
	.string	"S_YSKULL2"
.LASF188:
	.string	"SPR_ROCK"
.LASF1258:
	.string	"MT_ROCKET"
.LASF1356:
	.string	"MT_MISC81"
.LASF1357:
	.string	"MT_MISC82"
.LASF1358:
	.string	"MT_MISC83"
.LASF664:
	.string	"S_CPOS_ATK1"
.LASF665:
	.string	"S_CPOS_ATK2"
.LASF666:
	.string	"S_CPOS_ATK3"
.LASF667:
	.string	"S_CPOS_ATK4"
.LASF1225:
	.string	"MT_PLAYER"
.LASF200:
	.string	"SPR_SHOT"
.LASF393:
	.string	"S_IFOG2"
.LASF394:
	.string	"S_IFOG3"
.LASF395:
	.string	"S_IFOG4"
.LASF396:
	.string	"S_IFOG5"
.LASF1546:
	.string	"mus_stalks"
.LASF129:
	.string	"SPR_PLSE"
.LASF121:
	.string	"SPR_PLSF"
.LASF120:
	.string	"SPR_PLSG"
.LASF789:
	.string	"S_BOSS_PAIN2"
.LASF489:
	.string	"S_VILE_STND"
.LASF1500:
	.string	"maxitems"
.LASF1017:
	.string	"S_COMMKEEN6"
.LASF1018:
	.string	"S_COMMKEEN7"
.LASF1019:
	.string	"S_COMMKEEN8"
.LASF128:
	.string	"SPR_PLSS"
.LASF868:
	.string	"S_SPID_PAIN2"
.LASF1697:
	.string	"ANIM_RANDOM"
.LASF1615:
	.string	"sfx_oof"
.LASF1382:
	.string	"mass"
.LASF1656:
	.string	"sfx_posact"
.LASF241:
	.string	"SPR_POB1"
.LASF242:
	.string	"SPR_POB2"
.LASF1090:
	.string	"S_SOUL"
.LASF1647:
	.string	"sfx_skldth"
.LASF1100:
	.string	"S_PSTR"
.LASF932:
	.string	"S_CYBER_ATK1"
.LASF933:
	.string	"S_CYBER_ATK2"
.LASF934:
	.string	"S_CYBER_ATK3"
.LASF935:
	.string	"S_CYBER_ATK4"
.LASF43:
	.string	"BT_WEAPONSHIFT"
.LASF40:
	.string	"BT_SPECIALMASK"
.LASF1761:
	.string	"memcpy"
.LASF1127:
	.string	"S_BFUG"
.LASF167:
	.string	"SPR_FCAN"
.LASF610:
	.string	"S_FATT_STND"
.LASF1705:
	.string	"anim_t"
.LASF1047:
	.string	"S_BRAINEXPLODE1"
.LASF1048:
	.string	"S_BRAINEXPLODE2"
.LASF1049:
	.string	"S_BRAINEXPLODE3"
.LASF331:
	.string	"S_BFGUP"
.LASF1522:
	.string	"mus_e2m1"
.LASF1523:
	.string	"mus_e2m2"
.LASF1524:
	.string	"mus_e2m3"
.LASF1525:
	.string	"mus_e2m4"
.LASF1278:
	.string	"MT_MISC10"
.LASF1527:
	.string	"mus_e2m6"
.LASF172:
	.string	"SPR_YKEY"
.LASF1529:
	.string	"mus_e2m8"
.LASF1530:
	.string	"mus_e2m9"
.LASF718:
	.string	"S_TROO_RAISE1"
.LASF719:
	.string	"S_TROO_RAISE2"
.LASF720:
	.string	"S_TROO_RAISE3"
.LASF721:
	.string	"S_TROO_RAISE4"
.LASF722:
	.string	"S_TROO_RAISE5"
.LASF1131:
	.string	"S_PLAS"
.LASF1013:
	.string	"S_COMMKEEN2"
.LASF1014:
	.string	"S_COMMKEEN3"
.LASF1015:
	.string	"S_COMMKEEN4"
.LASF1016:
	.string	"S_COMMKEEN5"
.LASF397:
	.string	"S_PLAY"
.LASF963:
	.string	"S_PAIN_DIE2"
.LASF964:
	.string	"S_PAIN_DIE3"
.LASF965:
	.string	"S_PAIN_DIE4"
.LASF966:
	.string	"S_PAIN_DIE5"
.LASF967:
	.string	"S_PAIN_DIE6"
.LASF1236:
	.string	"MT_TROOP"
.LASF518:
	.string	"S_VILE_PAIN2"
.LASF646:
	.string	"S_FATT_RAISE1"
.LASF70:
	.string	"wp_plasma"
.LASF648:
	.string	"S_FATT_RAISE3"
.LASF649:
	.string	"S_FATT_RAISE4"
.LASF650:
	.string	"S_FATT_RAISE5"
.LASF651:
	.string	"S_FATT_RAISE6"
.LASF652:
	.string	"S_FATT_RAISE7"
.LASF653:
	.string	"S_FATT_RAISE8"
.LASF362:
	.string	"S_ROCKET"
.LASF1257:
	.string	"MT_HEADSHOT"
.LASF1463:
	.string	"linecount"
.LASF1466:
	.string	"sidenum"
.LASF1795:
	.string	"WI_drawNum"
.LASF38:
	.string	"BT_USE"
.LASF915:
	.string	"S_ARACH_PLAZ"
.LASF1154:
	.string	"S_STALAGTITE"
.LASF756:
	.string	"S_HEAD_PAIN2"
.LASF757:
	.string	"S_HEAD_PAIN3"
.LASF1788:
	.string	"WI_updateNoState"
.LASF44:
	.string	"BTS_PAUSE"
.LASF19:
	.string	"byte"
.LASF63:
	.string	"it_redskull"
.LASF1657:
	.string	"sfx_bgact"
.LASF1264:
	.string	"MT_TFOG"
.LASF465:
	.string	"S_SPOS_ATK1"
.LASF466:
	.string	"S_SPOS_ATK2"
.LASF467:
	.string	"S_SPOS_ATK3"
.LASF402:
	.string	"S_PLAY_ATK1"
.LASF403:
	.string	"S_PLAY_ATK2"
.LASF1738:
	.string	"total"
.LASF155:
	.string	"SPR_APLS"
.LASF1800:
	.string	"WI_updateAnimatedBack"
.LASF1435:
	.string	"refire"
.LASF36:
	.string	"event_t"
.LASF1548:
	.string	"mus_betwee"
.LASF1183:
	.string	"S_REDTORCH2"
.LASF1184:
	.string	"S_REDTORCH3"
.LASF1185:
	.string	"S_REDTORCH4"
.LASF692:
	.string	"S_TROO_RUN1"
.LASF693:
	.string	"S_TROO_RUN2"
.LASF694:
	.string	"S_TROO_RUN3"
.LASF695:
	.string	"S_TROO_RUN4"
.LASF696:
	.string	"S_TROO_RUN5"
.LASF697:
	.string	"S_TROO_RUN6"
.LASF698:
	.string	"S_TROO_RUN7"
.LASF699:
	.string	"S_TROO_RUN8"
.LASF1681:
	.string	"sfx_mandth"
.LASF28:
	.string	"ev_keyup"
.LASF1506:
	.string	"wbstartstruct_t"
.LASF146:
	.string	"SPR_CPOS"
.LASF607:
	.string	"S_FATSHOTX1"
.LASF608:
	.string	"S_FATSHOTX2"
.LASF609:
	.string	"S_FATSHOTX3"
.LASF687:
	.string	"S_CPOS_RAISE5"
.LASF688:
	.string	"S_CPOS_RAISE6"
.LASF689:
	.string	"S_CPOS_RAISE7"
.LASF1782:
	.string	"WI_initDeathmatchStats"
.LASF65:
	.string	"wp_fist"
.LASF1375:
	.string	"missilestate"
.LASF176:
	.string	"SPR_STIM"
.LASF723:
	.string	"S_SARG_STND"
.LASF948:
	.string	"S_CYBER_DIE10"
.LASF126:
	.string	"SPR_BAL1"
.LASF127:
	.string	"SPR_BAL2"
.LASF149:
	.string	"SPR_BAL7"
.LASF1401:
	.string	"info"
.LASF1651:
	.string	"sfx_bspdth"
.LASF1142:
	.string	"S_HEADSONSTICK"
.LASF1686:
	.string	"sfx_skeact"
.LASF1396:
	.string	"ceilingz"
.LASF1682:
	.string	"sfx_sssit"
.LASF599:
	.string	"S_SKEL_RAISE1"
.LASF114:
	.string	"SPR_SHT2"
.LASF253:
	.string	"S_PUNCH1"
.LASF254:
	.string	"S_PUNCH2"
.LASF255:
	.string	"S_PUNCH3"
.LASF256:
	.string	"S_PUNCH4"
.LASF257:
	.string	"S_PUNCH5"
.LASF616:
	.string	"S_FATT_RUN5"
.LASF252:
	.string	"S_PUNCHUP"
.LASF1526:
	.string	"mus_e2m5"
.LASF1773:
	.string	"WI_initStats"
.LASF869:
	.string	"S_SPID_DIE1"
.LASF620:
	.string	"S_FATT_RUN9"
.LASF871:
	.string	"S_SPID_DIE3"
.LASF872:
	.string	"S_SPID_DIE4"
.LASF113:
	.string	"SPR_SHTF"
.LASF109:
	.string	"SPR_SHTG"
.LASF391:
	.string	"S_IFOG01"
.LASF392:
	.string	"S_IFOG02"
.LASF877:
	.string	"S_SPID_DIE9"
.LASF1781:
	.string	"WI_updateDeathmatchStats"
.LASF1119:
	.string	"S_AMMO"
.LASF1579:
	.string	"mus_dm2int"
.LASF1565:
	.string	"mus_count2"
.LASF29:
	.string	"ev_mouse"
.LASF81:
	.string	"NUMAMMO"
.LASF950:
	.string	"S_PAIN_RUN1"
.LASF951:
	.string	"S_PAIN_RUN2"
.LASF952:
	.string	"S_PAIN_RUN3"
.LASF953:
	.string	"S_PAIN_RUN4"
.LASF235:
	.string	"SPR_HDB1"
.LASF236:
	.string	"SPR_HDB2"
.LASF237:
	.string	"SPR_HDB3"
.LASF238:
	.string	"SPR_HDB4"
.LASF239:
	.string	"SPR_HDB5"
.LASF240:
	.string	"SPR_HDB6"
.LASF1226:
	.string	"MT_POSSESSED"
.LASF285:
	.string	"S_DSGUN3"
.LASF286:
	.string	"S_DSGUN4"
.LASF32:
	.string	"type"
.LASF305:
	.string	"S_MISSILE"
.LASF1737:
	.string	"victims"
.LASF1578:
	.string	"mus_dm2ttl"
.LASF1133:
	.string	"S_SHOT2"
.LASF1200:
	.string	"S_HANGTLOOKDN"
.LASF1502:
	.string	"maxfrags"
.LASF1404:
	.string	"movedir"
.LASF1775:
	.string	"pwidth"
.LASF677:
	.string	"S_CPOS_XDIE1"
.LASF1755:
	.string	"sprintf"
.LASF99:
	.string	"actionf_t"
.LASF94:
	.string	"actionf_v"
.LASF196:
	.string	"SPR_MGUN"
.LASF1238:
	.string	"MT_SHADOWS"
.LASF580:
	.string	"S_SKEL_RUN10"
.LASF581:
	.string	"S_SKEL_RUN11"
.LASF582:
	.string	"S_SKEL_RUN12"
.LASF248:
	.string	"S_NULL"
.LASF1798:
	.string	"temp"
.LASF790:
	.string	"S_BOSS_DIE1"
.LASF791:
	.string	"S_BOSS_DIE2"
.LASF792:
	.string	"S_BOSS_DIE3"
.LASF793:
	.string	"S_BOSS_DIE4"
.LASF794:
	.string	"S_BOSS_DIE5"
.LASF795:
	.string	"S_BOSS_DIE6"
.LASF796:
	.string	"S_BOSS_DIE7"
.LASF960:
	.string	"S_PAIN_PAIN"
.LASF329:
	.string	"S_BFG"
.LASF42:
	.string	"BT_WEAPONMASK"
.LASF1531:
	.string	"mus_e3m1"
.LASF1490:
	.string	"player_t"
.LASF1456:
	.string	"special"
.LASF975:
	.string	"S_SSWV_STND2"
.LASF1535:
	.string	"mus_e3m5"
.LASF1536:
	.string	"mus_e3m6"
.LASF1537:
	.string	"mus_e3m7"
.LASF1538:
	.string	"mus_e3m8"
.LASF1539:
	.string	"mus_e3m9"
.LASF197:
	.string	"SPR_CSAW"
.LASF1110:
	.string	"S_PMAP"
.LASF1560:
	.string	"mus_dead2"
.LASF41:
	.string	"BT_CHANGE"
.LASF1785:
	.string	"WI_drawShowNextLoc"
.LASF1116:
	.string	"S_PVIS"
.LASF330:
	.string	"S_BFGDOWN"
.LASF1629:
	.string	"sfx_vilsit"
.LASF1250:
	.string	"MT_BOSSBRAIN"
.LASF143:
	.string	"SPR_SKEL"
.LASF325:
	.string	"S_PLASMA1"
.LASF326:
	.string	"S_PLASMA2"
.LASF1190:
	.string	"S_GTORCHSHRT"
.LASF1616:
	.string	"sfx_telept"
.LASF1415:
	.string	"firstline"
.LASF1124:
	.string	"S_SHEL"
.LASF881:
	.string	"S_BSPI_STND2"
.LASF5:
	.string	"unsigned char"
.LASF1650:
	.string	"sfx_spidth"
.LASF141:
	.string	"SPR_FATB"
.LASF1779:
	.string	"WI_initNetgameStats"
.LASF246:
	.string	"NUMSPRITES"
.LASF1743:
	.string	"dm_state"
.LASF147:
	.string	"SPR_SARG"
.LASF1528:
	.string	"mus_e2m7"
.LASF1792:
	.string	"WI_drawTime"
.LASF364:
	.string	"S_BFGSHOT2"
.LASF145:
	.string	"SPR_FATT"
.LASF1637:
	.string	"sfx_skeswg"
.LASF1091:
	.string	"S_SOUL2"
.LASF1092:
	.string	"S_SOUL3"
.LASF1093:
	.string	"S_SOUL4"
.LASF1094:
	.string	"S_SOUL5"
.LASF1095:
	.string	"S_SOUL6"
.LASF851:
	.string	"S_SPID_RUN1"
.LASF852:
	.string	"S_SPID_RUN2"
.LASF853:
	.string	"S_SPID_RUN3"
.LASF854:
	.string	"S_SPID_RUN4"
.LASF855:
	.string	"S_SPID_RUN5"
.LASF856:
	.string	"S_SPID_RUN6"
.LASF857:
	.string	"S_SPID_RUN7"
.LASF858:
	.string	"S_SPID_RUN8"
.LASF90:
	.string	"float"
.LASF1058:
	.string	"S_BEXP3"
.LASF1059:
	.string	"S_BEXP4"
.LASF1595:
	.string	"sfx_rlaunc"
.LASF1147:
	.string	"S_DEADSTICK"
.LASF1444:
	.string	"fixedcolormap"
.LASF1429:
	.string	"weaponowned"
.LASF1267:
	.string	"MT_EXTRABFG"
.LASF1699:
	.string	"animenum_t"
.LASF437:
	.string	"S_POSS_DIE1"
.LASF438:
	.string	"S_POSS_DIE2"
.LASF439:
	.string	"S_POSS_DIE3"
.LASF440:
	.string	"S_POSS_DIE4"
.LASF441:
	.string	"S_POSS_DIE5"
.LASF267:
	.string	"S_SGUNDOWN"
.LASF1684:
	.string	"sfx_keenpn"
.LASF1114:
	.string	"S_PMAP5"
.LASF116:
	.string	"SPR_CHGF"
.LASF115:
	.string	"SPR_CHGG"
.LASF660:
	.string	"S_CPOS_RUN5"
.LASF919:
	.string	"S_ARACH_PLEX3"
.LASF661:
	.string	"S_CPOS_RUN6"
.LASF921:
	.string	"S_ARACH_PLEX5"
.LASF662:
	.string	"S_CPOS_RUN7"
.LASF1406:
	.string	"target"
.LASF226:
	.string	"SPR_CEYE"
.LASF1712:
	.string	"anims"
.LASF1472:
	.string	"ST_HORIZONTAL"
.LASF968:
	.string	"S_PAIN_RAISE1"
.LASF969:
	.string	"S_PAIN_RAISE2"
.LASF970:
	.string	"S_PAIN_RAISE3"
.LASF971:
	.string	"S_PAIN_RAISE4"
.LASF972:
	.string	"S_PAIN_RAISE5"
.LASF605:
	.string	"S_FATSHOT1"
.LASF606:
	.string	"S_FATSHOT2"
.LASF1767:
	.string	"name"
.LASF1473:
	.string	"ST_VERTICAL"
.LASF183:
	.string	"SPR_SUIT"
.LASF833:
	.string	"S_SKULL_STND"
.LASF1581:
	.string	"sfx_None"
.LASF867:
	.string	"S_SPID_PAIN"
.LASF1362:
	.string	"NUMMOBJTYPES"
.LASF165:
	.string	"SPR_BAR1"
.LASF280:
	.string	"S_DSGUN"
.LASF1159:
	.string	"S_CANDLESTIK"
.LASF87:
	.string	"pw_allmap"
.LASF1215:
	.string	"NUMSTATES"
.LASF859:
	.string	"S_SPID_RUN9"
.LASF345:
	.string	"S_TBALL1"
.LASF346:
	.string	"S_TBALL2"
.LASF559:
	.string	"S_SMOKE1"
.LASF560:
	.string	"S_SMOKE2"
.LASF561:
	.string	"S_SMOKE3"
.LASF562:
	.string	"S_SMOKE4"
.LASF563:
	.string	"S_SMOKE5"
.LASF782:
	.string	"S_BOSS_RUN6"
.LASF783:
	.string	"S_BOSS_RUN7"
.LASF784:
	.string	"S_BOSS_RUN8"
.LASF148:
	.string	"SPR_HEAD"
.LASF1540:
	.string	"mus_inter"
.LASF1393:
	.string	"bprev"
.LASF209:
	.string	"SPR_POL1"
.LASF205:
	.string	"SPR_POL2"
.LASF208:
	.string	"SPR_POL3"
.LASF207:
	.string	"SPR_POL4"
.LASF206:
	.string	"SPR_POL5"
.LASF210:
	.string	"SPR_POL6"
.LASF1508:
	.string	"netgame"
.LASF1054:
	.string	"S_BAR1"
.LASF1654:
	.string	"sfx_pedth"
.LASF1613:
	.string	"sfx_itemup"
.LASF1268:
	.string	"MT_MISC0"
.LASF1140:
	.string	"S_DEADTORSO"
.LASF282:
	.string	"S_DSGUNUP"
.LASF1676:
	.string	"sfx_boscub"
.LASF1638:
	.string	"sfx_pldeth"
.LASF1365:
	.string	"spawnstate"
.LASF691:
	.string	"S_TROO_STND2"
.LASF1211:
	.string	"S_TECH2LAMP"
.LASF1388:
	.string	"mobj_s"
.LASF1601:
	.string	"sfx_doropn"
.LASF1254:
	.string	"MT_SPAWNFIRE"
.LASF1229:
	.string	"MT_FIRE"
.LASF1221:
	.string	"nextstate"
.LASF788:
	.string	"S_BOSS_PAIN"
.LASF159:
	.string	"SPR_SSWV"
.LASF1574:
	.string	"mus_openin"
.LASF350:
	.string	"S_RBALL1"
.LASF351:
	.string	"S_RBALL2"
.LASF1397:
	.string	"momx"
.LASF1155:
	.string	"S_TALLGRNCOL"
.LASF1734:
	.string	"time"
.LASF1503:
	.string	"partime"
.LASF1409:
	.string	"lastlook"
.LASF1648:
	.string	"sfx_brsdth"
.LASF1556:
	.string	"mus_theda2"
.LASF1489:
	.string	"playerstate_t"
.LASF1144:
	.string	"S_HEADONASTICK"
.LASF424:
	.string	"S_POSS_RUN1"
.LASF366:
	.string	"S_BFGLAND2"
.LASF367:
	.string	"S_BFGLAND3"
.LASF368:
	.string	"S_BFGLAND4"
.LASF369:
	.string	"S_BFGLAND5"
.LASF370:
	.string	"S_BFGLAND6"
.LASF430:
	.string	"S_POSS_RUN7"
.LASF431:
	.string	"S_POSS_RUN8"
.LASF1731:
	.string	"kills"
.LASF413:
	.string	"S_PLAY_XDIE1"
.LASF414:
	.string	"S_PLAY_XDIE2"
.LASF415:
	.string	"S_PLAY_XDIE3"
.LASF416:
	.string	"S_PLAY_XDIE4"
.LASF417:
	.string	"S_PLAY_XDIE5"
.LASF418:
	.string	"S_PLAY_XDIE6"
.LASF419:
	.string	"S_PLAY_XDIE7"
.LASF420:
	.string	"S_PLAY_XDIE8"
.LASF421:
	.string	"S_PLAY_XDIE9"
.LASF54:
	.string	"english"
.LASF820:
	.string	"S_BOS2_DIE2"
.LASF821:
	.string	"S_BOS2_DIE3"
.LASF822:
	.string	"S_BOS2_DIE4"
.LASF823:
	.string	"S_BOS2_DIE5"
.LASF824:
	.string	"S_BOS2_DIE6"
.LASF825:
	.string	"S_BOS2_DIE7"
.LASF1385:
	.string	"flags"
.LASF745:
	.string	"S_SARG_RAISE2"
.LASF746:
	.string	"S_SARG_RAISE3"
.LASF389:
	.string	"S_TFOG10"
.LASF747:
	.string	"S_SARG_RAISE4"
.LASF1566:
	.string	"mus_ddtbl3"
.LASF442:
	.string	"S_POSS_XDIE1"
.LASF443:
	.string	"S_POSS_XDIE2"
.LASF444:
	.string	"S_POSS_XDIE3"
.LASF445:
	.string	"S_POSS_XDIE4"
.LASF446:
	.string	"S_POSS_XDIE5"
.LASF447:
	.string	"S_POSS_XDIE6"
.LASF448:
	.string	"S_POSS_XDIE7"
.LASF77:
	.string	"am_clip"
.LASF450:
	.string	"S_POSS_XDIE9"
.LASF1143:
	.string	"S_GIBS"
.LASF758:
	.string	"S_HEAD_DIE1"
.LASF759:
	.string	"S_HEAD_DIE2"
.LASF760:
	.string	"S_HEAD_DIE3"
.LASF761:
	.string	"S_HEAD_DIE4"
.LASF762:
	.string	"S_HEAD_DIE5"
.LASF10:
	.string	"size"
.LASF611:
	.string	"S_FATT_STND2"
.LASF1134:
	.string	"S_COLU"
.LASF261:
	.string	"S_PISTOL1"
.LASF262:
	.string	"S_PISTOL2"
.LASF263:
	.string	"S_PISTOL3"
.LASF264:
	.string	"S_PISTOL4"
.LASF600:
	.string	"S_SKEL_RAISE2"
.LASF601:
	.string	"S_SKEL_RAISE3"
.LASF602:
	.string	"S_SKEL_RAISE4"
.LASF603:
	.string	"S_SKEL_RAISE5"
.LASF604:
	.string	"S_SKEL_RAISE6"
.LASF1163:
	.string	"S_BIGTREE"
.LASF1475:
	.string	"ST_NEGATIVE"
.LASF1804:
	.string	"right"
.LASF1073:
	.string	"S_BON2C"
.LASF1074:
	.string	"S_BON2D"
.LASF379:
	.string	"S_TFOG01"
.LASF380:
	.string	"S_TFOG02"
.LASF198:
	.string	"SPR_LAUN"
.LASF435:
	.string	"S_POSS_PAIN"
.LASF729:
	.string	"S_SARG_RUN5"
.LASF730:
	.string	"S_SARG_RUN6"
.LASF1552:
	.string	"mus_ddtblu"
.LASF1232:
	.string	"MT_SMOKE"
.LASF1246:
	.string	"MT_CYBORG"
.LASF1383:
	.string	"damage"
.LASF475:
	.string	"S_SPOS_XDIE1"
.LASF476:
	.string	"S_SPOS_XDIE2"
.LASF477:
	.string	"S_SPOS_XDIE3"
.LASF478:
	.string	"S_SPOS_XDIE4"
.LASF479:
	.string	"S_SPOS_XDIE5"
.LASF480:
	.string	"S_SPOS_XDIE6"
.LASF481:
	.string	"S_SPOS_XDIE7"
.LASF482:
	.string	"S_SPOS_XDIE8"
.LASF483:
	.string	"S_SPOS_XDIE9"
.LASF1609:
	.string	"sfx_vipain"
.LASF14:
	.string	"size_t"
.LASF1212:
	.string	"S_TECH2LAMP2"
.LASF1448:
	.string	"mobj_t"
.LASF1728:
	.string	"finished"
.LASF1076:
	.string	"S_BKEY"
.LASF85:
	.string	"pw_invisibility"
.LASF1809:
	.string	"WI_Responder"
.LASF1750:
	.string	"Z_Free"
.LASF163:
	.string	"SPR_ARM1"
.LASF164:
	.string	"SPR_ARM2"
.LASF1228:
	.string	"MT_VILE"
.LASF1600:
	.string	"sfx_pstop"
.LASF61:
	.string	"it_blueskull"
.LASF1460:
	.string	"soundorg"
.LASF323:
	.string	"S_PLASMADOWN"
.LASF635:
	.string	"S_FATT_PAIN2"
.LASF1685:
	.string	"sfx_keendt"
.LASF1033:
	.string	"S_BRAINEYESEE"
.LASF1476:
	.string	"slopetype_t"
.LASF570:
	.string	"S_SKEL_STND2"
.LASF1732:
	.string	"secret"
.LASF923:
	.string	"S_CYBER_STND2"
.LASF1224:
	.string	"state_t"
.LASF767:
	.string	"S_HEAD_RAISE4"
.LASF993:
	.string	"S_SSWV_DIE2"
.LASF49:
	.string	"registered"
.LASF1660:
	.string	"sfx_bspwlk"
.LASF449:
	.string	"S_POSS_XDIE8"
.LASF1123:
	.string	"S_CELP"
.LASF1165:
	.string	"S_EVILEYE"
.LASF1191:
	.string	"S_GTORCHSHRT2"
.LASF1192:
	.string	"S_GTORCHSHRT3"
.LASF1193:
	.string	"S_GTORCHSHRT4"
.LASF770:
	.string	"S_BRBALL1"
.LASF771:
	.string	"S_BRBALL2"
.LASF1419:
	.string	"viewheight"
.LASF1392:
	.string	"bnext"
.LASF1679:
	.string	"sfx_bosdth"
.LASF624:
	.string	"S_FATT_ATK1"
.LASF157:
	.string	"SPR_CYBR"
.LASF625:
	.string	"S_FATT_ATK2"
.LASF528:
	.string	"S_VILE_DIE10"
.LASF118:
	.string	"SPR_MISF"
.LASF117:
	.string	"SPR_MISG"
.LASF1509:
	.string	"deathmatch"
.LASF130:
	.string	"SPR_MISL"
.LASF1494:
	.string	"stime"
.LASF1082:
	.string	"S_BSKULL"
.LASF161:
	.string	"SPR_BBRN"
.LASF503:
	.string	"S_VILE_ATK1"
.LASF504:
	.string	"S_VILE_ATK2"
.LASF505:
	.string	"S_VILE_ATK3"
.LASF506:
	.string	"S_VILE_ATK4"
.LASF507:
	.string	"S_VILE_ATK5"
.LASF508:
	.string	"S_VILE_ATK6"
.LASF509:
	.string	"S_VILE_ATK7"
.LASF250:
	.string	"S_PUNCH"
.LASF511:
	.string	"S_VILE_ATK9"
.LASF232:
	.string	"SPR_SMBT"
.LASF1665:
	.string	"sfx_hoof"
.LASF1551:
	.string	"mus_shawn"
.LASF806:
	.string	"S_BOS2_RUN1"
.LASF807:
	.string	"S_BOS2_RUN2"
.LASF808:
	.string	"S_BOS2_RUN3"
.LASF809:
	.string	"S_BOS2_RUN4"
.LASF810:
	.string	"S_BOS2_RUN5"
.LASF811:
	.string	"S_BOS2_RUN6"
.LASF812:
	.string	"S_BOS2_RUN7"
.LASF813:
	.string	"S_BOS2_RUN8"
.LASF1455:
	.string	"lightlevel"
.LASF223:
	.string	"SPR_TRE1"
.LASF224:
	.string	"SPR_TRE2"
.LASF1763:
	.string	"WI_initVariables"
.LASF1744:
	.string	"dm_frags"
.LASF880:
	.string	"S_BSPI_STND"
.LASF1596:
	.string	"sfx_rxplod"
.LASF1374:
	.string	"meleestate"
.LASF1430:
	.string	"ammo"
.LASF670:
	.string	"S_CPOS_DIE1"
.LASF231:
	.string	"SPR_TRED"
.LASF124:
	.string	"SPR_BLUD"
.LASF626:
	.string	"S_FATT_ATK3"
.LASF627:
	.string	"S_FATT_ATK4"
.LASF628:
	.string	"S_FATT_ATK5"
.LASF629:
	.string	"S_FATT_ATK6"
.LASF630:
	.string	"S_FATT_ATK7"
.LASF631:
	.string	"S_FATT_ATK8"
.LASF632:
	.string	"S_FATT_ATK9"
.LASF134:
	.string	"SPR_TFOG"
.LASF338:
	.string	"S_BLOOD1"
.LASF339:
	.string	"S_BLOOD2"
.LASF340:
	.string	"S_BLOOD3"
.LASF1724:
	.string	"splat"
.LASF1554:
	.string	"mus_dead"
.LASF1222:
	.string	"misc1"
.LASF1223:
	.string	"misc2"
.LASF1562:
	.string	"mus_romero"
.LASF936:
	.string	"S_CYBER_ATK5"
.LASF1607:
	.string	"sfx_dmpain"
.LASF937:
	.string	"S_CYBER_ATK6"
.LASF22:
	.string	"angleturn"
.LASF1130:
	.string	"S_LAUN"
.LASF1733:
	.string	"items"
.LASF1736:
	.string	"killers"
.LASF390:
	.string	"S_IFOG"
.LASF137:
	.string	"SPR_POSS"
.LASF142:
	.string	"SPR_FBXP"
.LASF1571:
	.string	"mus_romer2"
.LASF1125:
	.string	"S_SBOX"
.LASF939:
	.string	"S_CYBER_DIE1"
.LASF940:
	.string	"S_CYBER_DIE2"
.LASF941:
	.string	"S_CYBER_DIE3"
.LASF942:
	.string	"S_CYBER_DIE4"
.LASF943:
	.string	"S_CYBER_DIE5"
.LASF944:
	.string	"S_CYBER_DIE6"
.LASF945:
	.string	"S_CYBER_DIE7"
.LASF817:
	.string	"S_BOS2_PAIN"
.LASF947:
	.string	"S_CYBER_DIE9"
.LASF1410:
	.string	"spawnpoint"
.LASF1217:
	.string	"sprite"
.LASF55:
	.string	"french"
.LASF1794:
	.string	"WI_fragSum"
.LASF1295:
	.string	"MT_MISC23"
.LASF1722:
	.string	"cnt_pause"
.LASF1481:
	.string	"patch_t"
.LASF1559:
	.string	"mus_runni2"
.LASF1700:
	.string	"point_t"
.LASF1160:
	.string	"S_CANDELABRA"
.LASF500:
	.string	"S_VILE_RUN10"
.LASF501:
	.string	"S_VILE_RUN11"
.LASF502:
	.string	"S_VILE_RUN12"
.LASF1120:
	.string	"S_ROCK"
.LASF269:
	.string	"S_SGUN1"
.LASF270:
	.string	"S_SGUN2"
.LASF271:
	.string	"S_SGUN3"
.LASF272:
	.string	"S_SGUN4"
.LASF273:
	.string	"S_SGUN5"
.LASF274:
	.string	"S_SGUN6"
.LASF275:
	.string	"S_SGUN7"
.LASF276:
	.string	"S_SGUN8"
.LASF277:
	.string	"S_SGUN9"
.LASF1364:
	.string	"doomednum"
.LASF1710:
	.string	"epsd2animinfo"
.LASF266:
	.string	"S_SGUN"
.LASF1156:
	.string	"S_SHRTGRNCOL"
.LASF1683:
	.string	"sfx_ssdth"
.LASF1611:
	.string	"sfx_pepain"
.LASF1673:
	.string	"sfx_flamst"
.LASF841:
	.string	"S_SKULL_PAIN"
.LASF1543:
	.string	"mus_victor"
.LASF1253:
	.string	"MT_SPAWNSHOT"
.LASF1373:
	.string	"painsound"
.LASF565:
	.string	"S_TRACER2"
.LASF1545:
	.string	"mus_runnin"
.LASF1164:
	.string	"S_TECHPILLAR"
.LASF569:
	.string	"S_SKEL_STND"
.LASF1544:
	.string	"mus_introa"
.LASF724:
	.string	"S_SARG_STND2"
.LASF1666:
	.string	"sfx_metal"
.LASF52:
	.string	"indetermined"
.LASF470:
	.string	"S_SPOS_DIE1"
.LASF471:
	.string	"S_SPOS_DIE2"
.LASF472:
	.string	"S_SPOS_DIE3"
.LASF473:
	.string	"S_SPOS_DIE4"
.LASF474:
	.string	"S_SPOS_DIE5"
.LASF1488:
	.string	"PST_REBORN"
.LASF1633:
	.string	"sfx_sgtatk"
.LASF1199:
	.string	"S_HANGBNOBRAIN"
.LASF1630:
	.string	"sfx_mansit"
.LASF733:
	.string	"S_SARG_ATK1"
.LASF734:
	.string	"S_SARG_ATK2"
.LASF735:
	.string	"S_SARG_ATK3"
.LASF324:
	.string	"S_PLASMAUP"
.LASF1219:
	.string	"tics"
.LASF1080:
	.string	"S_YKEY"
.LASF1604:
	.string	"sfx_swtchn"
.LASF1379:
	.string	"speed"
.LASF293:
	.string	"S_DSNR1"
.LASF962:
	.string	"S_PAIN_DIE1"
.LASF1605:
	.string	"sfx_swtchx"
.LASF492:
	.string	"S_VILE_RUN2"
.LASF1573:
	.string	"mus_shawn3"
.LASF1671:
	.string	"sfx_itmbk"
.LASF1210:
	.string	"S_TECHLAMP4"
.LASF656:
	.string	"S_CPOS_RUN1"
.LASF657:
	.string	"S_CPOS_RUN2"
.LASF658:
	.string	"S_CPOS_RUN3"
.LASF659:
	.string	"S_CPOS_RUN4"
.LASF95:
	.string	"actionf_p1"
.LASF96:
	.string	"actionf_p2"
.LASF194:
	.string	"SPR_BPAK"
.LASF663:
	.string	"S_CPOS_RUN8"
.LASF1060:
	.string	"S_BEXP5"
.LASF1688:
	.string	"sfx_skeatk"
.LASF107:
	.string	"mapthing_t"
.LASF425:
	.string	"S_POSS_RUN2"
.LASF426:
	.string	"S_POSS_RUN3"
.LASF427:
	.string	"S_POSS_RUN4"
.LASF744:
	.string	"S_SARG_RAISE1"
.LASF428:
	.string	"S_POSS_RUN5"
.LASF97:
	.string	"acp1"
.LASF98:
	.string	"acp2"
.LASF748:
	.string	"S_SARG_RAISE5"
.LASF749:
	.string	"S_SARG_RAISE6"
.LASF1640:
	.string	"sfx_podth1"
.LASF1641:
	.string	"sfx_podth2"
.LASF1642:
	.string	"sfx_podth3"
.LASF1328:
	.string	"MT_MISC53"
.LASF1690:
	.string	"NUMSFX"
.LASF233:
	.string	"SPR_SMGT"
.LASF1024:
	.string	"S_KEENPAIN"
.LASF372:
	.string	"S_BFGEXP2"
.LASF373:
	.string	"S_BFGEXP3"
.LASF374:
	.string	"S_BFGEXP4"
.LASF303:
	.string	"S_CHAINFLASH1"
.LASF304:
	.string	"S_CHAINFLASH2"
.LASF259:
	.string	"S_PISTOLDOWN"
.LASF101:
	.string	"memblock_s"
.LASF15:
	.string	"memblock_t"
.LASF924:
	.string	"S_CYBER_RUN1"
.LASF925:
	.string	"S_CYBER_RUN2"
.LASF926:
	.string	"S_CYBER_RUN3"
.LASF927:
	.string	"S_CYBER_RUN4"
.LASF928:
	.string	"S_CYBER_RUN5"
.LASF929:
	.string	"S_CYBER_RUN6"
.LASF930:
	.string	"S_CYBER_RUN7"
.LASF931:
	.string	"S_CYBER_RUN8"
.LASF1368:
	.string	"seesound"
.LASF1111:
	.string	"S_PMAP2"
.LASF1112:
	.string	"S_PMAP3"
.LASF1113:
	.string	"S_PMAP4"
.LASF56:
	.string	"german"
.LASF1115:
	.string	"S_PMAP6"
.LASF1802:
	.string	"WI_drawOnLnode"
.LASF1441:
	.string	"bonuscount"
.LASF842:
	.string	"S_SKULL_PAIN2"
.LASF1372:
	.string	"painchance"
.LASF668:
	.string	"S_CPOS_PAIN"
.LASF1452:
	.string	"ceilingheight"
.LASF50:
	.string	"commercial"
.LASF1569:
	.string	"mus_adrian"
.LASF47:
	.string	"BTS_SAVESHIFT"
.LASF973:
	.string	"S_PAIN_RAISE6"
.LASF1462:
	.string	"specialdata"
.LASF1311:
	.string	"MT_MISC36"
.LASF777:
	.string	"S_BOSS_RUN1"
.LASF778:
	.string	"S_BOSS_RUN2"
.LASF779:
	.string	"S_BOSS_RUN3"
.LASF780:
	.string	"S_BOSS_RUN4"
.LASF781:
	.string	"S_BOSS_RUN5"
.LASF299:
	.string	"S_CHAINUP"
.LASF1811:
	.string	"GNU C17 13.3.0 -mtune=generic -march=x86-64 -g -fasynchronous-unwind-tables -fstack-protector-strong -fstack-clash-protection -fcf-protection"
.LASF1436:
	.string	"killcount"
.LASF918:
	.string	"S_ARACH_PLEX2"
.LASF1162:
	.string	"S_TORCHTREE"
.LASF974:
	.string	"S_SSWV_STND"
.LASF920:
	.string	"S_ARACH_PLEX4"
.LASF1576:
	.string	"mus_ultima"
.LASF1021:
	.string	"S_COMMKEEN10"
.LASF1022:
	.string	"S_COMMKEEN11"
.LASF1023:
	.string	"S_COMMKEEN12"
.LASF938:
	.string	"S_CYBER_PAIN"
.LASF1746:
	.string	"cnt_frags"
.LASF457:
	.string	"S_SPOS_RUN1"
.LASF215:
	.string	"SPR_SMIT"
.LASF18:
	.string	"boolean"
.LASF460:
	.string	"S_SPOS_RUN4"
.LASF461:
	.string	"S_SPOS_RUN5"
.LASF152:
	.string	"SPR_SKUL"
.LASF463:
	.string	"S_SPOS_RUN7"
.LASF464:
	.string	"S_SPOS_RUN8"
.LASF1121:
	.string	"S_BROK"
.LASF1366:
	.string	"spawnhealth"
.LASF1649:
	.string	"sfx_cybdth"
.LASF1693:
	.string	"StatCount"
.LASF251:
	.string	"S_PUNCHDOWN"
.LASF917:
	.string	"S_ARACH_PLEX"
.LASF1178:
	.string	"S_GREENTORCH"
.LASF1694:
	.string	"ShowNextLoc"
.LASF73:
	.string	"wp_supershotgun"
.LASF317:
	.string	"S_SAWDOWN"
.LASF1594:
	.string	"sfx_sawhit"
.LASF1593:
	.string	"sfx_sawful"
.LASF1216:
	.string	"statenum_t"
.LASF1256:
	.string	"MT_TROOPSHOT"
.LASF1729:
	.string	"entering"
.LASF1241:
	.string	"MT_BRUISERSHOT"
.LASF1661:
	.string	"sfx_vilact"
.LASF26:
	.string	"ticcmd_t"
.LASF1361:
	.string	"MT_MISC86"
.LASF922:
	.string	"S_CYBER_STND"
.LASF1777:
	.string	"fsum"
.LASF1626:
	.string	"sfx_spisit"
.LASF405:
	.string	"S_PLAY_PAIN2"
.LASF1711:
	.string	"NUMANIMS"
.LASF1592:
	.string	"sfx_sawidl"
.LASF800:
	.string	"S_BOSS_RAISE4"
.LASF801:
	.string	"S_BOSS_RAISE5"
.LASF1218:
	.string	"frame"
.LASF144:
	.string	"SPR_MANF"
.LASF655:
	.string	"S_CPOS_STND2"
.LASF1659:
	.string	"sfx_bspact"
.LASF468:
	.string	"S_SPOS_PAIN"
.LASF819:
	.string	"S_BOS2_DIE1"
.LASF67:
	.string	"wp_shotgun"
.LASF1709:
	.string	"epsd1animinfo"
.LASF436:
	.string	"S_POSS_PAIN2"
.LASF1262:
	.string	"MT_PUFF"
.LASF308:
	.string	"S_MISSILE1"
.LASF309:
	.string	"S_MISSILE2"
.LASF310:
	.string	"S_MISSILE3"
.LASF684:
	.string	"S_CPOS_RAISE2"
.LASF685:
	.string	"S_CPOS_RAISE3"
.LASF686:
	.string	"S_CPOS_RAISE4"
.LASF1446:
	.string	"psprites"
.LASF1128:
	.string	"S_MGUN"
.LASF1240:
	.string	"MT_BRUISER"
.LASF193:
	.string	"SPR_SBOX"
.LASF1720:
	.string	"cnt_time"
.LASF1704:
	.string	"lastdrawn"
.LASF1532:
	.string	"mus_e3m2"
.LASF1806:
	.string	"fits"
.LASF1438:
	.string	"secretcount"
.LASF1363:
	.string	"mobjtype_t"
.LASF1377:
	.string	"xdeathstate"
.LASF1534:
	.string	"mus_e3m4"
.LASF1423:
	.string	"powers"
.LASF837:
	.string	"S_SKULL_ATK1"
.LASF838:
	.string	"S_SKULL_ATK2"
.LASF839:
	.string	"S_SKULL_ATK3"
.LASF840:
	.string	"S_SKULL_ATK4"
.LASF818:
	.string	"S_BOS2_PAIN2"
.LASF6:
	.string	"short unsigned int"
.LASF1242:
	.string	"MT_KNIGHT"
.LASF7:
	.string	"signed char"
.LASF21:
	.string	"sidemove"
.LASF1384:
	.string	"activesound"
.LASF469:
	.string	"S_SPOS_PAIN2"
.LASF1664:
	.string	"sfx_punch"
.LASF633:
	.string	"S_FATT_ATK10"
.LASF230:
	.string	"SPR_TGRN"
.LASF1482:
	.string	"ps_weapon"
.LASF1287:
	.string	"MT_MEGA"
.LASF132:
	.string	"SPR_BFE1"
.LASF133:
	.string	"SPR_BFE2"
.LASF1461:
	.string	"thinglist"
.LASF1321:
	.string	"MT_MISC46"
.LASF1580:
	.string	"NUMMUSIC"
.LASF1480:
	.string	"columnofs"
.LASF1249:
	.string	"MT_KEEN"
.LASF1459:
	.string	"blockbox"
.LASF1034:
	.string	"S_BRAINEYE1"
.LASF690:
	.string	"S_TROO_STND"
.LASF637:
	.string	"S_FATT_DIE2"
.LASF328:
	.string	"S_PLASMAFLASH2"
.LASF76:
	.string	"weapontype_t"
.LASF24:
	.string	"chatchar"
.LASF381:
	.string	"S_TFOG2"
.LASF382:
	.string	"S_TFOG3"
.LASF383:
	.string	"S_TFOG4"
.LASF384:
	.string	"S_TFOG5"
.LASF385:
	.string	"S_TFOG6"
.LASF386:
	.string	"S_TFOG7"
.LASF387:
	.string	"S_TFOG8"
.LASF388:
	.string	"S_TFOG9"
.LASF803:
	.string	"S_BOSS_RAISE7"
.LASF1432:
	.string	"attackdown"
.LASF108:
	.string	"SPR_TROO"
.LASF119:
	.string	"SPR_SAWG"
.LASF763:
	.string	"S_HEAD_DIE6"
.LASF1725:
	.string	"percent"
.LASF1622:
	.string	"sfx_sgtsit"
.LASF168:
	.string	"SPR_BON1"
.LASF169:
	.string	"SPR_BON2"
.LASF1645:
	.string	"sfx_sgtdth"
.LASF60:
	.string	"it_redcard"
.LASF1157:
	.string	"S_TALLREDCOL"
.LASF1752:
	.string	"I_Error"
.LASF1402:
	.string	"state"
.LASF1132:
	.string	"S_SHOT"
.LASF988:
	.string	"S_SSWV_ATK5"
.LASF1748:
	.string	"ng_state"
.LASF1137:
	.string	"S_BLOODYTWITCH2"
.LASF1138:
	.string	"S_BLOODYTWITCH3"
.LASF1139:
	.string	"S_BLOODYTWITCH4"
.LASF878:
	.string	"S_SPID_DIE10"
.LASF879:
	.string	"S_SPID_DIE11"
.LASF1424:
	.string	"cards"
.LASF1547:
	.string	"mus_countd"
.LASF1541:
	.string	"mus_intro"
.LASF1584:
	.string	"sfx_sgcock"
.LASF225:
	.string	"SPR_ELEC"
.LASF1026:
	.string	"S_BRAIN"
.LASF1703:
	.string	"nexttic"
.LASF1244:
	.string	"MT_SPIDER"
.LASF1109:
	.string	"S_SUIT"
.LASF1805:
	.string	"bottom"
.LASF123:
	.string	"SPR_BFGF"
.LASF122:
	.string	"SPR_BFGG"
.LASF1769:
	.string	"WI_Ticker"
.LASF949:
	.string	"S_PAIN_STND"
.LASF1624:
	.string	"sfx_brssit"
.LASF365:
	.string	"S_BFGLAND"
.LASF1055:
	.string	"S_BAR2"
.LASF1428:
	.string	"pendingweapon"
.LASF103:
	.string	"function"
.LASF1667:
	.string	"sfx_chgun"
.LASF78:
	.string	"am_shell"
.LASF1754:
	.string	"W_CacheLumpName"
.LASF1400:
	.string	"validcount"
.LASF1439:
	.string	"message"
.LASF1716:
	.string	"firstrefresh"
.LASF645:
	.string	"S_FATT_DIE10"
.LASF64:
	.string	"NUMCARDS"
.LASF1182:
	.string	"S_REDTORCH"
.LASF1563:
	.string	"mus_shawn2"
.LASF1260:
	.string	"MT_BFG"
.LASF429:
	.string	"S_POSS_RUN6"
.LASF1635:
	.string	"sfx_vilatk"
.LASF139:
	.string	"SPR_VILE"
.LASF1670:
	.string	"sfx_bdcls"
.LASF1263:
	.string	"MT_BLOOD"
.LASF258:
	.string	"S_PISTOL"
.LASF17:
	.string	"true"
.LASF1749:
	.string	"sp_state"
.LASF490:
	.string	"S_VILE_STND2"
.LASF908:
	.string	"S_BSPI_RAISE1"
.LASF909:
	.string	"S_BSPI_RAISE2"
.LASF910:
	.string	"S_BSPI_RAISE3"
.LASF911:
	.string	"S_BSPI_RAISE4"
.LASF912:
	.string	"S_BSPI_RAISE5"
.LASF913:
	.string	"S_BSPI_RAISE6"
.LASF914:
	.string	"S_BSPI_RAISE7"
.LASF30:
	.string	"ev_joystick"
.LASF1708:
	.string	"epsd0animinfo"
.LASF1398:
	.string	"momy"
.LASF9:
	.string	"long int"
.LASF997:
	.string	"S_SSWV_XDIE1"
.LASF998:
	.string	"S_SSWV_XDIE2"
.LASF999:
	.string	"S_SSWV_XDIE3"
.LASF1000:
	.string	"S_SSWV_XDIE4"
.LASF1001:
	.string	"S_SSWV_XDIE5"
.LASF1002:
	.string	"S_SSWV_XDIE6"
.LASF1003:
	.string	"S_SSWV_XDIE7"
.LASF1004:
	.string	"S_SSWV_XDIE8"
.LASF1005:
	.string	"S_SSWV_XDIE9"
.LASF295:
	.string	"S_DSGUNFLASH1"
.LASF296:
	.string	"S_DSGUNFLASH2"
.LASF1294:
	.string	"MT_MISC22"
.LASF1447:
	.string	"didsecret"
.LASF553:
	.string	"S_FIRE25"
.LASF647:
	.string	"S_FATT_RAISE2"
.LASF1330:
	.string	"MT_MISC55"
.LASF1420:
	.string	"deltaviewheight"
.LASF62:
	.string	"it_yellowskull"
.LASF1085:
	.string	"S_RSKULL2"
.LASF1411:
	.string	"tracer"
.LASF860:
	.string	"S_SPID_RUN10"
.LASF861:
	.string	"S_SPID_RUN11"
.LASF862:
	.string	"S_SPID_RUN12"
.LASF1706:
	.string	"rcsid"
.LASF1614:
	.string	"sfx_wpnup"
.LASF1759:
	.string	"V_DrawPatch"
.LASF1695:
	.string	"stateenum_t"
.LASF1386:
	.string	"raisestate"
.LASF311:
	.string	"S_MISSILEFLASH1"
.LASF312:
	.string	"S_MISSILEFLASH2"
.LASF313:
	.string	"S_MISSILEFLASH3"
.LASF314:
	.string	"S_MISSILEFLASH4"
.LASF174:
	.string	"SPR_RSKU"
.LASF1701:
	.string	"period"
.LASF1634:
	.string	"sfx_skepch"
.LASF1587:
	.string	"sfx_dbcls"
.LASF100:
	.string	"think_t"
.LASF20:
	.string	"forwardmove"
.LASF672:
	.string	"S_CPOS_DIE3"
.LASF673:
	.string	"S_CPOS_DIE4"
.LASF674:
	.string	"S_CPOS_DIE5"
.LASF675:
	.string	"S_CPOS_DIE6"
.LASF676:
	.string	"S_CPOS_DIE7"
.LASF1793:
	.string	"WI_drawPercent"
.LASF1549:
	.string	"mus_doom"
.LASF1117:
	.string	"S_PVIS2"
.LASF1255:
	.string	"MT_BARREL"
.LASF849:
	.string	"S_SPID_STND"
.LASF621:
	.string	"S_FATT_RUN10"
.LASF622:
	.string	"S_FATT_RUN11"
.LASF623:
	.string	"S_FATT_RUN12"
.LASF1247:
	.string	"MT_PAIN"
.LASF1175:
	.string	"S_BLUETORCH2"
.LASF1387:
	.string	"mobjinfo_t"
.LASF1176:
	.string	"S_BLUETORCH3"
.LASF1617:
	.string	"sfx_posit1"
.LASF1177:
	.string	"S_BLUETORCH4"
.LASF234:
	.string	"SPR_SMRT"
.LASF336:
	.string	"S_BFGFLASH1"
.LASF337:
	.string	"S_BFGFLASH2"
.LASF870:
	.string	"S_SPID_DIE2"
.LASF151:
	.string	"SPR_BOS2"
.LASF873:
	.string	"S_SPID_DIE5"
.LASF874:
	.string	"S_SPID_DIE6"
.LASF1677:
	.string	"sfx_bossit"
.LASF875:
	.string	"S_SPID_DIE7"
.LASF876:
	.string	"S_SPID_DIE8"
.LASF1166:
	.string	"S_EVILEYE2"
.LASF1167:
	.string	"S_EVILEYE3"
.LASF1168:
	.string	"S_EVILEYE4"
.LASF341:
	.string	"S_PUFF1"
.LASF342:
	.string	"S_PUFF2"
.LASF343:
	.string	"S_PUFF3"
.LASF162:
	.string	"SPR_BOSF"
.LASF1464:
	.string	"lines"
.LASF150:
	.string	"SPR_BOSS"
.LASF1259:
	.string	"MT_PLASMA"
.LASF1689:
	.string	"sfx_radio"
.LASF895:
	.string	"S_BSPI_ATK1"
.LASF896:
	.string	"S_BSPI_ATK2"
.LASF897:
	.string	"S_BSPI_ATK3"
.LASF898:
	.string	"S_BSPI_ATK4"
.LASF1077:
	.string	"S_BKEY2"
.LASF74:
	.string	"NUMWEAPONS"
.LASF1575:
	.string	"mus_evil"
.LASF882:
	.string	"S_BSPI_SIGHT"
.LASF1606:
	.string	"sfx_plpain"
.LASF2:
	.string	"long unsigned int"
.LASF884:
	.string	"S_BSPI_RUN2"
.LASF1028:
	.string	"S_BRAIN_DIE1"
.LASF1029:
	.string	"S_BRAIN_DIE2"
.LASF1030:
	.string	"S_BRAIN_DIE3"
.LASF1031:
	.string	"S_BRAIN_DIE4"
.LASF363:
	.string	"S_BFGSHOT"
.LASF1169:
	.string	"S_FLOATSKULL"
.LASF1801:
	.string	"WI_initAnimatedBack"
.LASF519:
	.string	"S_VILE_DIE1"
.LASF520:
	.string	"S_VILE_DIE2"
.LASF521:
	.string	"S_VILE_DIE3"
.LASF522:
	.string	"S_VILE_DIE4"
.LASF523:
	.string	"S_VILE_DIE5"
.LASF524:
	.string	"S_VILE_DIE6"
.LASF525:
	.string	"S_VILE_DIE7"
.LASF526:
	.string	"S_VILE_DIE8"
.LASF527:
	.string	"S_VILE_DIE9"
.LASF1440:
	.string	"damagecount"
.LASF1491:
	.string	"skills"
.LASF203:
	.string	"SPR_SMT2"
.LASF1079:
	.string	"S_RKEY2"
.LASF1050:
	.string	"S_ARM1"
.LASF1052:
	.string	"S_ARM2"
.LASF1145:
	.string	"S_HEADCANDLES"
.LASF181:
	.string	"SPR_PINS"
.LASF775:
	.string	"S_BOSS_STND"
.LASF1658:
	.string	"sfx_dmact"
.LASF755:
	.string	"S_HEAD_PAIN"
.LASF59:
	.string	"it_yellowcard"
.LASF1231:
	.string	"MT_TRACER"
.LASF636:
	.string	"S_FATT_DIE1"
.LASF3:
	.string	"char"
.LASF638:
	.string	"S_FATT_DIE3"
.LASF639:
	.string	"S_FATT_DIE4"
.LASF640:
	.string	"S_FATT_DIE5"
.LASF641:
	.string	"S_FATT_DIE6"
.LASF642:
	.string	"S_FATT_DIE7"
.LASF643:
	.string	"S_FATT_DIE8"
.LASF644:
	.string	"S_FATT_DIE9"
.LASF711:
	.string	"S_TROO_XDIE2"
.LASF712:
	.string	"S_TROO_XDIE3"
.LASF713:
	.string	"S_TROO_XDIE4"
.LASF714:
	.string	"S_TROO_XDIE5"
.LASF715:
	.string	"S_TROO_XDIE6"
.LASF716:
	.string	"S_TROO_XDIE7"
.LASF717:
	.string	"S_TROO_XDIE8"
.LASF186:
	.string	"SPR_CLIP"
.LASF1158:
	.string	"S_SHRTREDCOL"
.LASF1770:
	.string	"WI_checkForAccelerate"
.LASF1201:
	.string	"S_HANGTSKULL"
.LASF1510:
	.string	"players"
.LASF89:
	.string	"NUMPOWERS"
.LASF986:
	.string	"S_SSWV_ATK3"
.LASF987:
	.string	"S_SSWV_ATK4"
.LASF292:
	.string	"S_DSGUN10"
.LASF1646:
	.string	"sfx_cacdth"
.LASF1726:
	.string	"colon"
.LASF84:
	.string	"pw_strength"
.LASF220:
	.string	"SPR_CAND"
.LASF1603:
	.string	"sfx_stnmov"
.LASF1495:
	.string	"score"
.LASF1237:
	.string	"MT_SERGEANT"
.LASF39:
	.string	"BT_SPECIAL"
.LASF1598:
	.string	"sfx_firxpl"
.LASF1148:
	.string	"S_LIVESTICK"
.LASF1088:
	.string	"S_STIM"
.LASF79:
	.string	"am_cell"
.LASF58:
	.string	"it_bluecard"
.LASF1395:
	.string	"floorz"
.LASF751:
	.string	"S_HEAD_RUN1"
.LASF406:
	.string	"S_PLAY_DIE1"
.LASF407:
	.string	"S_PLAY_DIE2"
.LASF408:
	.string	"S_PLAY_DIE3"
.LASF409:
	.string	"S_PLAY_DIE4"
.LASF410:
	.string	"S_PLAY_DIE5"
.LASF411:
	.string	"S_PLAY_DIE6"
.LASF412:
	.string	"S_PLAY_DIE7"
.LASF1497:
	.string	"epsd"
.LASF422:
	.string	"S_POSS_STND"
.LASF378:
	.string	"S_TFOG"
.LASF1315:
	.string	"MT_MISC40"
.LASF1747:
	.string	"dofrags"
.LASF1316:
	.string	"MT_MISC41"
.LASF1765:
	.string	"WI_unloadData"
.LASF1412:
	.string	"subsector_s"
.LASF738:
	.string	"S_SARG_DIE1"
.LASF739:
	.string	"S_SARG_DIE2"
.LASF740:
	.string	"S_SARG_DIE3"
.LASF741:
	.string	"S_SARG_DIE4"
.LASF1039:
	.string	"S_SPAWNFIRE1"
.LASF1040:
	.string	"S_SPAWNFIRE2"
.LASF1041:
	.string	"S_SPAWNFIRE3"
.LASF1042:
	.string	"S_SPAWNFIRE4"
.LASF1043:
	.string	"S_SPAWNFIRE5"
.LASF1044:
	.string	"S_SPAWNFIRE6"
.LASF1045:
	.string	"S_SPAWNFIRE7"
.LASF1046:
	.string	"S_SPAWNFIRE8"
.LASF710:
	.string	"S_TROO_XDIE1"
.LASF23:
	.string	"consistancy"
.LASF1413:
	.string	"sector"
.LASF1203:
	.string	"S_HANGTNOBRAIN"
.LASF358:
	.string	"S_PLASEXP2"
.LASF359:
	.string	"S_PLASEXP3"
.LASF360:
	.string	"S_PLASEXP4"
.LASF361:
	.string	"S_PLASEXP5"
.LASF71:
	.string	"wp_bfg"
.LASF1187:
	.string	"S_BTORCHSHRT2"
.LASF1188:
	.string	"S_BTORCHSHRT3"
.LASF1189:
	.string	"S_BTORCHSHRT4"
.LASF1653:
	.string	"sfx_kntdth"
.LASF491:
	.string	"S_VILE_RUN1"
.LASF281:
	.string	"S_DSGUNDOWN"
.LASF493:
	.string	"S_VILE_RUN3"
.LASF494:
	.string	"S_VILE_RUN4"
.LASF495:
	.string	"S_VILE_RUN5"
.LASF496:
	.string	"S_VILE_RUN6"
.LASF497:
	.string	"S_VILE_RUN7"
.LASF498:
	.string	"S_VILE_RUN8"
.LASF499:
	.string	"S_VILE_RUN9"
.LASF742:
	.string	"S_SARG_DIE5"
.LASF743:
	.string	"S_SARG_DIE6"
.LASF1505:
	.string	"plyr"
.LASF1389:
	.string	"thinker"
.LASF1675:
	.string	"sfx_bospit"
.LASF583:
	.string	"S_SKEL_FIST1"
.LASF584:
	.string	"S_SKEL_FIST2"
.LASF585:
	.string	"S_SKEL_FIST3"
.LASF586:
	.string	"S_SKEL_FIST4"
.LASF322:
	.string	"S_PLASMA"
.LASF1101:
	.string	"S_PINS"
.LASF1610:
	.string	"sfx_mnpain"
.LASF1776:
	.string	"WI_updateNetgameStats"
.LASF1174:
	.string	"S_BLUETORCH"
.LASF612:
	.string	"S_FATT_RUN1"
.LASF613:
	.string	"S_FATT_RUN2"
.LASF614:
	.string	"S_FATT_RUN3"
.LASF615:
	.string	"S_FATT_RUN4"
.LASF86:
	.string	"pw_ironfeet"
.LASF617:
	.string	"S_FATT_RUN6"
.LASF618:
	.string	"S_FATT_RUN7"
.LASF619:
	.string	"S_FATT_RUN8"
.LASF1150:
	.string	"S_MEAT2"
.LASF1151:
	.string	"S_MEAT3"
.LASF1152:
	.string	"S_MEAT4"
.LASF1153:
	.string	"S_MEAT5"
.LASF1631:
	.string	"sfx_pesit"
.LASF265:
	.string	"S_PISTOLFLASH"
.LASF1451:
	.string	"floorheight"
.LASF485:
	.string	"S_SPOS_RAISE2"
.LASF486:
	.string	"S_SPOS_RAISE3"
.LASF1492:
	.string	"sitems"
.LASF487:
	.string	"S_SPOS_RAISE4"
.LASF488:
	.string	"S_SPOS_RAISE5"
.LASF177:
	.string	"SPR_MEDI"
.LASF179:
	.string	"SPR_PINV"
.LASF1620:
	.string	"sfx_bgsit1"
.LASF1621:
	.string	"sfx_bgsit2"
.LASF1655:
	.string	"sfx_skedth"
.LASF1727:
	.string	"wiminus"
.LASF1027:
	.string	"S_BRAIN_PAIN"
.LASF298:
	.string	"S_CHAINDOWN"
.LASF1786:
	.string	"WI_updateShowNextLoc"
.LASF1756:
	.string	"S_ChangeMusic"
.LASF517:
	.string	"S_VILE_PAIN"
.LASF1745:
	.string	"dm_totals"
.LASF564:
	.string	"S_TRACER"
.LASF1558:
	.string	"mus_ddtbl2"
.LASF984:
	.string	"S_SSWV_ATK1"
.LASF985:
	.string	"S_SSWV_ATK2"
.LASF514:
	.string	"S_VILE_HEAL1"
.LASF515:
	.string	"S_VILE_HEAL2"
.LASF516:
	.string	"S_VILE_HEAL3"
.LASF989:
	.string	"S_SSWV_ATK6"
.LASF1405:
	.string	"movecount"
.LASF171:
	.string	"SPR_RKEY"
.LASF1627:
	.string	"sfx_bspsit"
.LASF1135:
	.string	"S_STALAG"
.LASF1691:
	.string	"screens"
.LASF1753:
	.string	"Z_Malloc"
.LASF1608:
	.string	"sfx_popain"
.LASF850:
	.string	"S_SPID_STND2"
.LASF93:
	.string	"angle_t"
.LASF1553:
	.string	"mus_in_cit"
.LASF1454:
	.string	"ceilingpic"
.LASF1136:
	.string	"S_BLOODYTWITCH"
.LASF1205:
	.string	"S_SMALLPOOL"
.LASF1485:
	.string	"pspdef_t"
.LASF1331:
	.string	"MT_MISC56"
.LASF634:
	.string	"S_FATT_PAIN"
.LASF398:
	.string	"S_PLAY_RUN1"
.LASF399:
	.string	"S_PLAY_RUN2"
.LASF400:
	.string	"S_PLAY_RUN3"
.LASF401:
	.string	"S_PLAY_RUN4"
.LASF1496:
	.string	"wbplayerstruct_t"
.LASF1126:
	.string	"S_BPAK"
.LASF91:
	.string	"double"
.LASF166:
	.string	"SPR_BEXP"
.LASF1416:
	.string	"player_s"
.LASF1083:
	.string	"S_BSKULL2"
.LASF125:
	.string	"SPR_PUFF"
.LASF1012:
	.string	"S_COMMKEEN"
.LASF1599:
	.string	"sfx_pstart"
.LASF1433:
	.string	"usedown"
.LASF1780:
	.string	"WI_drawDeathmatchStats"
.LASF804:
	.string	"S_BOS2_STND"
.LASF131:
	.string	"SPR_BFS1"
.LASF1035:
	.string	"S_SPAWN1"
.LASF1036:
	.string	"S_SPAWN2"
.LASF1037:
	.string	"S_SPAWN3"
.LASF1038:
	.string	"S_SPAWN4"
.LASF1208:
	.string	"S_TECHLAMP2"
.LASF1209:
	.string	"S_TECHLAMP3"
.LASF72:
	.string	"wp_chainsaw"
.LASF1245:
	.string	"MT_BABY"
.LASF1431:
	.string	"maxammo"
.LASF1672:
	.string	"sfx_flame"
.LASF1149:
	.string	"S_LIVESTICK2"
.LASF1194:
	.string	"S_RTORCHSHRT"
.LASF1291:
	.string	"MT_MISC19"
.LASF153:
	.string	"SPR_SPID"
.LASF750:
	.string	"S_HEAD_STND"
.LASF1784:
	.string	"WI_drawNoState"
.LASF725:
	.string	"S_SARG_RUN1"
.LASF726:
	.string	"S_SARG_RUN2"
.LASF33:
	.string	"data1"
.LASF34:
	.string	"data2"
.LASF35:
	.string	"data3"
.LASF731:
	.string	"S_SARG_RUN7"
.LASF732:
	.string	"S_SARG_RUN8"
.LASF1269:
	.string	"MT_MISC1"
.LASF1270:
	.string	"MT_MISC2"
.LASF1271:
	.string	"MT_MISC3"
.LASF1272:
	.string	"MT_MISC4"
.LASF1273:
	.string	"MT_MISC5"
.LASF1274:
	.string	"MT_MISC6"
.LASF1275:
	.string	"MT_MISC7"
.LASF1276:
	.string	"MT_MISC8"
.LASF1277:
	.string	"MT_MISC9"
.LASF315:
	.string	"S_SAW"
.LASF182:
	.string	"SPR_MEGA"
.LASF404:
	.string	"S_PLAY_PAIN"
.LASF1636:
	.string	"sfx_claw"
.LASF356:
	.string	"S_PLASBALL2"
.LASF1483:
	.string	"ps_flash"
.LASF1417:
	.string	"playerstate"
.LASF1493:
	.string	"ssecret"
.LASF160:
	.string	"SPR_KEEN"
.LASF990:
	.string	"S_SSWV_PAIN"
.LASF1371:
	.string	"painstate"
.LASF1025:
	.string	"S_KEENPAIN2"
.LASF88:
	.string	"pw_infrared"
.LASF512:
	.string	"S_VILE_ATK10"
.LASF513:
	.string	"S_VILE_ATK11"
.LASF1713:
	.string	"acceleratestage"
.LASF1479:
	.string	"topoffset"
.LASF1771:
	.string	"WI_drawStats"
.LASF991:
	.string	"S_SSWV_PAIN2"
.LASF1355:
	.string	"MT_MISC80"
.LASF1378:
	.string	"deathsound"
.LASF1065:
	.string	"S_BON1A"
.LASF1066:
	.string	"S_BON1B"
.LASF1067:
	.string	"S_BON1C"
.LASF1068:
	.string	"S_BON1D"
.LASF1069:
	.string	"S_BON1E"
.LASF1471:
	.string	"sector_t"
.LASF1692:
	.string	"NoState"
.LASF1477:
	.string	"width"
.LASF180:
	.string	"SPR_PSTR"
.LASF1803:
	.string	"left"
.LASF1293:
	.string	"MT_MISC21"
.LASF736:
	.string	"S_SARG_PAIN"
.LASF1288:
	.string	"MT_CLIP"
.LASF195:
	.string	"SPR_BFUG"
.LASF1343:
	.string	"MT_MISC68"
.LASF1061:
	.string	"S_BBAR1"
.LASF1062:
	.string	"S_BBAR2"
.LASF1063:
	.string	"S_BBAR3"
.LASF249:
	.string	"S_LIGHTDONE"
.LASF900:
	.string	"S_BSPI_PAIN2"
.LASF1425:
	.string	"backpack"
.LASF1564:
	.string	"mus_messag"
.LASF700:
	.string	"S_TROO_ATK1"
.LASF701:
	.string	"S_TROO_ATK2"
.LASF702:
	.string	"S_TROO_ATK3"
.LASF844:
	.string	"S_SKULL_DIE2"
.LASF845:
	.string	"S_SKULL_DIE3"
.LASF846:
	.string	"S_SKULL_DIE4"
.LASF847:
	.string	"S_SKULL_DIE5"
.LASF848:
	.string	"S_SKULL_DIE6"
.LASF199:
	.string	"SPR_PLAS"
.LASF1071:
	.string	"S_BON2A"
.LASF1072:
	.string	"S_BON2B"
.LASF112:
	.string	"SPR_PISF"
.LASF111:
	.string	"SPR_PISG"
.LASF1075:
	.string	"S_BON2E"
.LASF1298:
	.string	"MT_CHAINGUN"
.LASF347:
	.string	"S_TBALLX1"
.LASF348:
	.string	"S_TBALLX2"
.LASF349:
	.string	"S_TBALLX3"
.LASF75:
	.string	"wp_nochange"
.LASF1235:
	.string	"MT_CHAINGUY"
.LASF1450:
	.string	"degenmobj_t"
.LASF1618:
	.string	"sfx_posit2"
.LASF1619:
	.string	"sfx_posit3"
.LASF843:
	.string	"S_SKULL_DIE1"
.LASF1487:
	.string	"PST_DEAD"
.LASF1206:
	.string	"S_BRAINSTEM"
.LASF1011:
	.string	"S_KEENSTND"
.LASF136:
	.string	"SPR_PLAY"
.LASF1557:
	.string	"mus_doom2"
.LASF1427:
	.string	"readyweapon"
.LASF1623:
	.string	"sfx_cacsit"
.LASF1632:
	.string	"sfx_sklatk"
.LASF1760:
	.string	"V_MarkRect"
.LASF1696:
	.string	"ANIM_ALWAYS"
.LASF1533:
	.string	"mus_e3m3"
.LASF1146:
	.string	"S_HEADCANDLES2"
.LASF1265:
	.string	"MT_IFOG"
.LASF1707:
	.string	"lnodes"
.LASF1555:
	.string	"mus_stlks2"
.LASF1561:
	.string	"mus_stlks3"
.LASF227:
	.string	"SPR_FSKU"
.LASF1678:
	.string	"sfx_bospn"
.LASF462:
	.string	"S_SPOS_RUN6"
.LASF318:
	.string	"S_SAWUP"
.LASF1051:
	.string	"S_ARM1A"
.LASF654:
	.string	"S_CPOS_STND"
.LASF1306:
	.string	"MT_MISC31"
.LASF1399:
	.string	"momz"
.LASF46:
	.string	"BTS_SAVEMASK"
.LASF1457:
	.string	"soundtraversed"
.LASF1309:
	.string	"MT_MISC34"
.LASF1467:
	.string	"bbox"
.LASF357:
	.string	"S_PLASEXP"
.LASF1312:
	.string	"MT_MISC37"
.LASF1612:
	.string	"sfx_slop"
.LASF1141:
	.string	"S_DEADBOTTOM"
.LASF1669:
	.string	"sfx_bdopn"
.LASF1198:
	.string	"S_HANGNOGUTS"
.LASF1370:
	.string	"attacksound"
.LASF1102:
	.string	"S_PINS2"
.LASF1103:
	.string	"S_PINS3"
.LASF1104:
	.string	"S_PINS4"
.LASF45:
	.string	"BTS_SAVEGAME"
.LASF956:
	.string	"S_PAIN_ATK1"
.LASF957:
	.string	"S_PAIN_ATK2"
.LASF958:
	.string	"S_PAIN_ATK3"
.LASF959:
	.string	"S_PAIN_ATK4"
.LASF1504:
	.string	"pnum"
.LASF268:
	.string	"S_SGUNUP"
.LASF1812:
	.string	"M_Random"
.LASF1469:
	.string	"frontsector"
.LASF1740:
	.string	"bstar"
.LASF1783:
	.string	"playernum"
.LASF221:
	.string	"SPR_CBRA"
.LASF1376:
	.string	"deathstate"
.LASF1053:
	.string	"S_ARM2A"
.LASF27:
	.string	"ev_keydown"
.LASF37:
	.string	"BT_ATTACK"
.LASF1081:
	.string	"S_YKEY2"
.LASF531:
	.string	"S_FIRE3"
.LASF1369:
	.string	"reactiontime"
.LASF536:
	.string	"S_FIRE8"
.LASF776:
	.string	"S_BOSS_STND2"
.LASF1662:
	.string	"sfx_noway"
.LASF1717:
	.string	"cnt_kills"
.LASF1698:
	.string	"ANIM_LEVEL"
.LASF671:
	.string	"S_CPOS_DIE2"
.LASF1391:
	.string	"sprev"
.LASF319:
	.string	"S_SAW1"
.LASF320:
	.string	"S_SAW2"
.LASF321:
	.string	"S_SAW3"
.LASF1766:
	.string	"WI_loadData"
.LASF1064:
	.string	"S_BON1"
.LASF1702:
	.string	"nanims"
.LASF1070:
	.string	"S_BON2"
.LASF1408:
	.string	"player"
.LASF1550:
	.string	"mus_the_da"
.LASF316:
	.string	"S_SAWB"
.LASF704:
	.string	"S_TROO_PAIN2"
.LASF1251:
	.string	"MT_BOSSSPIT"
.LASF529:
	.string	"S_FIRE1"
.LASF530:
	.string	"S_FIRE2"
.LASF92:
	.string	"fixed_t"
.LASF532:
	.string	"S_FIRE4"
.LASF533:
	.string	"S_FIRE5"
.LASF534:
	.string	"S_FIRE6"
.LASF535:
	.string	"S_FIRE7"
.LASF189:
	.string	"SPR_BROK"
.LASF537:
	.string	"S_FIRE9"
.LASF1319:
	.string	"MT_MISC44"
.LASF1320:
	.string	"MT_MISC45"
.LASF1122:
	.string	"S_CELL"
.LASF1322:
	.string	"MT_MISC47"
.LASF187:
	.string	"SPR_AMMO"
.LASF1323:
	.string	"MT_MISC48"
.LASF1324:
	.string	"MT_MISC49"
.LASF835:
	.string	"S_SKULL_RUN1"
.LASF836:
	.string	"S_SKULL_RUN2"
.LASF1202:
	.string	"S_HANGTLOOKUP"
.LASF297:
	.string	"S_CHAIN"
.LASF31:
	.string	"evtype_t"
.LASF327:
	.string	"S_PLASMAFLASH1"
.LASF283:
	.string	"S_DSGUN1"
.LASF284:
	.string	"S_DSGUN2"
.LASF178:
	.string	"SPR_SOUL"
.LASF138:
	.string	"SPR_SPOS"
.LASF287:
	.string	"S_DSGUN5"
.LASF288:
	.string	"S_DSGUN6"
.LASF289:
	.string	"S_DSGUN7"
.LASF290:
	.string	"S_DSGUN8"
.LASF291:
	.string	"S_DSGUN9"
.LASF455:
	.string	"S_SPOS_STND"
.LASF158:
	.string	"SPR_PAIN"
.LASF683:
	.string	"S_CPOS_RAISE1"
.LASF1426:
	.string	"frags"
.LASF1478:
	.string	"leftoffset"
.LASF1652:
	.string	"sfx_vildth"
.LASF1421:
	.string	"armorpoints"
.LASF25:
	.string	"buttons"
.LASF332:
	.string	"S_BFG1"
.LASF333:
	.string	"S_BFG2"
.LASF334:
	.string	"S_BFG3"
.LASF335:
	.string	"S_BFG4"
.LASF247:
	.string	"spritenum_t"
.LASF294:
	.string	"S_DSNR2"
.LASF834:
	.string	"S_SKULL_STND2"
.LASF1097:
	.string	"S_PINV2"
.LASF1098:
	.string	"S_PINV3"
.LASF727:
	.string	"S_SARG_RUN3"
.LASF728:
	.string	"S_SARG_RUN4"
.LASF1213:
	.string	"S_TECH2LAMP3"
.LASF1214:
	.string	"S_TECH2LAMP4"
.LASF1465:
	.string	"line_s"
.LASF110:
	.string	"SPR_PUNG"
.LASF678:
	.string	"S_CPOS_XDIE2"
.LASF679:
	.string	"S_CPOS_XDIE3"
.LASF680:
	.string	"S_CPOS_XDIE4"
.LASF681:
	.string	"S_CPOS_XDIE5"
.LASF682:
	.string	"S_CPOS_XDIE6"
.LASF1570:
	.string	"mus_messg2"
.LASF863:
	.string	"S_SPID_ATK1"
.LASF864:
	.string	"S_SPID_ATK2"
.LASF865:
	.string	"S_SPID_ATK3"
.LASF866:
	.string	"S_SPID_ATK4"
.LASF1764:
	.string	"wbstartstruct"
.LASF587:
	.string	"S_SKEL_MISS1"
.LASF588:
	.string	"S_SKEL_MISS2"
.LASF589:
	.string	"S_SKEL_MISS3"
.LASF590:
	.string	"S_SKEL_MISS4"
.LASF344:
	.string	"S_PUFF4"
.LASF1084:
	.string	"S_RSKULL"
.LASF916:
	.string	"S_ARACH_PLAZ2"
.LASF1325:
	.string	"MT_MISC50"
.LASF764:
	.string	"S_HEAD_RAISE1"
.LASF1360:
	.string	"MT_MISC85"
.LASF765:
	.string	"S_HEAD_RAISE2"
.LASF766:
	.string	"S_HEAD_RAISE3"
.LASF1434:
	.string	"cheats"
.LASF173:
	.string	"SPR_BSKU"
.LASF768:
	.string	"S_HEAD_RAISE5"
.LASF769:
	.string	"S_HEAD_RAISE6"
.LASF1718:
	.string	"cnt_items"
.LASF1303:
	.string	"MT_SUPERSHOTGUN"
.LASF184:
	.string	"SPR_PMAP"
.LASF1032:
	.string	"S_BRAINEYE"
.LASF1714:
	.string	"plrs"
.LASF185:
	.string	"SPR_PVIS"
.LASF1790:
	.string	"WI_End"
.LASF1486:
	.string	"PST_LIVE"
.LASF1261:
	.string	"MT_ARACHPLAZ"
.LASF1715:
	.string	"bcnt"
.LASF11:
	.string	"user"
.LASF510:
	.string	"S_VILE_ATK8"
.LASF451:
	.string	"S_POSS_RAISE1"
.LASF452:
	.string	"S_POSS_RAISE2"
.LASF453:
	.string	"S_POSS_RAISE3"
.LASF454:
	.string	"S_POSS_RAISE4"
.LASF306:
	.string	"S_MISSILEDOWN"
.LASF1663:
	.string	"sfx_barexp"
.LASF1170:
	.string	"S_FLOATSKULL2"
.LASF1171:
	.string	"S_FLOATSKULL3"
.LASF1586:
	.string	"sfx_dbopn"
.LASF1590:
	.string	"sfx_bfg"
.LASF1105:
	.string	"S_MEGA"
.LASF785:
	.string	"S_BOSS_ATK1"
.LASF786:
	.string	"S_BOSS_ATK2"
.LASF787:
	.string	"S_BOSS_ATK3"
.LASF1394:
	.string	"subsector"
.LASF243:
	.string	"SPR_BRS1"
.LASF1723:
	.string	"NUMCMAPS"
.LASF1449:
	.string	"vertex_t"
.LASF592:
	.string	"S_SKEL_PAIN2"
.LASF1129:
	.string	"S_CSAW"
.LASF83:
	.string	"pw_invulnerability"
.LASF772:
	.string	"S_BRBALLX1"
.LASF773:
	.string	"S_BRBALLX2"
.LASF774:
	.string	"S_BRBALLX3"
.LASF902:
	.string	"S_BSPI_DIE2"
.LASF903:
	.string	"S_BSPI_DIE3"
.LASF904:
	.string	"S_BSPI_DIE4"
.LASF905:
	.string	"S_BSPI_DIE5"
.LASF68:
	.string	"wp_chaingun"
.LASF907:
	.string	"S_BSPI_DIE7"
.LASF1568:
	.string	"mus_theda3"
.LASF458:
	.string	"S_SPOS_RUN2"
.LASF1470:
	.string	"backsector"
.LASF459:
	.string	"S_SPOS_RUN3"
.LASF961:
	.string	"S_PAIN_PAIN2"
.LASF596:
	.string	"S_SKEL_DIE4"
.LASF1582:
	.string	"sfx_pistol"
.LASF192:
	.string	"SPR_SHEL"
.LASF1344:
	.string	"MT_MISC69"
.LASF1422:
	.string	"armortype"
.LASF16:
	.string	"false"
.LASF244:
	.string	"SPR_TLMP"
.LASF1796:
	.string	"digits"
.LASF423:
	.string	"S_POSS_STND2"
.LASF1302:
	.string	"MT_SHOTGUN"
.LASF1742:
	.string	"snl_pointeron"
.LASF1227:
	.string	"MT_SHOTGUY"
.LASF1518:
	.string	"mus_e1m6"
.LASF1437:
	.string	"itemcount"
.LASF1207:
	.string	"S_TECHLAMP"
.LASF1248:
	.string	"MT_WOLFSS"
.LASF1807:
	.string	"WI_drawEL"
.LASF1741:
	.string	"lnames"
.LASF805:
	.string	"S_BOS2_STND2"
.LASF1458:
	.string	"soundtarget"
.LASF300:
	.string	"S_CHAIN1"
.LASF301:
	.string	"S_CHAIN2"
.LASF302:
	.string	"S_CHAIN3"
.LASF353:
	.string	"S_RBALLX2"
.LASF354:
	.string	"S_RBALLX3"
.LASF229:
	.string	"SPR_TBLU"
.LASF456:
	.string	"S_SPOS_STND2"
.LASF4:
	.string	"unsigned int"
.LASF1583:
	.string	"sfx_shotgn"
.LASF1390:
	.string	"snext"
.LASF82:
	.string	"am_noammo"
.LASF102:
	.string	"thinker_s"
.LASF104:
	.string	"thinker_t"
.LASF1772:
	.string	"WI_updateStats"
.LASF1512:
	.string	"mus_None"
.LASF1567:
	.string	"mus_ampie"
.LASF1643:
	.string	"sfx_bgdth1"
.LASF1644:
	.string	"sfx_bgdth2"
.LASF432:
	.string	"S_POSS_ATK1"
.LASF433:
	.string	"S_POSS_ATK2"
.LASF434:
	.string	"S_POSS_ATK3"
.LASF1346:
	.string	"MT_MISC71"
.LASF1195:
	.string	"S_RTORCHSHRT2"
.LASF1196:
	.string	"S_RTORCHSHRT3"
.LASF1197:
	.string	"S_RTORCHSHRT4"
.LASF1099:
	.string	"S_PINV4"
.LASF8:
	.string	"short int"
.LASF883:
	.string	"S_BSPI_RUN1"
.LASF1352:
	.string	"MT_MISC77"
.LASF1353:
	.string	"MT_MISC78"
.LASF1354:
	.string	"MT_MISC79"
.LASF1243:
	.string	"MT_SKULL"
.LASF1719:
	.string	"cnt_secret"
.LASF1230:
	.string	"MT_UNDEAD"
.LASF53:
	.string	"GameMode_t"
.LASF13:
	.string	"prev"
.LASF593:
	.string	"S_SKEL_DIE1"
.LASF594:
	.string	"S_SKEL_DIE2"
.LASF595:
	.string	"S_SKEL_DIE3"
.LASF140:
	.string	"SPR_FIRE"
.LASF597:
	.string	"S_SKEL_DIE5"
.LASF598:
	.string	"S_SKEL_DIE6"
.LASF1808:
	.string	"WI_drawLF"
.LASF1204:
	.string	"S_COLONGIBS"
.LASF1507:
	.string	"gamemode"
.LASF245:
	.string	"SPR_TLP2"
.LASF355:
	.string	"S_PLASBALL"
.LASF1639:
	.string	"sfx_pdiehi"
.LASF201:
	.string	"SPR_SGN2"
.LASF106:
	.string	"options"
.LASF154:
	.string	"SPR_BSPI"
.LASF1514:
	.string	"mus_e1m2"
.LASF156:
	.string	"SPR_APBX"
.LASF1445:
	.string	"colormap"
.LASF1739:
	.string	"star"
.LASF51:
	.string	"retail"
.LASF1279:
	.string	"MT_MISC11"
.LASF1280:
	.string	"MT_MISC12"
.LASF1282:
	.string	"MT_MISC13"
.LASF1284:
	.string	"MT_MISC14"
.LASF1285:
	.string	"MT_MISC15"
.LASF1286:
	.string	"MT_MISC16"
.LASF1289:
	.string	"MT_MISC17"
.LASF1290:
	.string	"MT_MISC18"
.LASF1118:
	.string	"S_CLIP"
.LASF1380:
	.string	"radius"
.LASF1403:
	.string	"health"
.LASF1252:
	.string	"MT_BOSSTARGET"
.LASF1628:
	.string	"sfx_kntsit"
	.section	.debug_line_str,"MS",@progbits,1
.LASF0:
	.string	"wi_stuff.c"
.LASF1:
	.string	"/home/astrid/Documents/enseignements/DOOM/linuxdoom-1.10"
	.ident	"GCC: (Ubuntu 13.3.0-6ubuntu2~24.04) 13.3.0"
	.section	.note.GNU-stack,"",@progbits
	.section	.note.gnu.property,"a"
	.align 8
	.long	1f - 0f
	.long	4f - 1f
	.long	5
0:
	.string	"GNU"
1:
	.align 8
	.long	0xc0000002
	.long	3f - 2f
2:
	.long	0x3
3:
	.align 8
4:
